
build/exp5:     file format elf64-x86-64


Disassembly of section .init:

0000000000401430 <_init>:
  401430:	48 83 ec 08          	sub    $0x8,%rsp
  401434:	48 8b 05 bd 7b 20 00 	mov    0x207bbd(%rip),%rax        # 608ff8 <_DYNAMIC+0x238>
  40143b:	48 85 c0             	test   %rax,%rax
  40143e:	74 05                	je     401445 <_init+0x15>
  401440:	e8 db 02 00 00       	callq  401720 <_ZNSt8ios_base4InitD1Ev@plt+0x10>
  401445:	48 83 c4 08          	add    $0x8,%rsp
  401449:	c3                   	retq   

Disassembly of section .plt:

0000000000401450 <__printf_chk@plt-0x10>:
  401450:	ff 35 b2 7b 20 00    	pushq  0x207bb2(%rip)        # 609008 <_GLOBAL_OFFSET_TABLE_+0x8>
  401456:	ff 25 b4 7b 20 00    	jmpq   *0x207bb4(%rip)        # 609010 <_GLOBAL_OFFSET_TABLE_+0x10>
  40145c:	0f 1f 40 00          	nopl   0x0(%rax)

0000000000401460 <__printf_chk@plt>:
  401460:	ff 25 b2 7b 20 00    	jmpq   *0x207bb2(%rip)        # 609018 <_GLOBAL_OFFSET_TABLE_+0x18>
  401466:	68 00 00 00 00       	pushq  $0x0
  40146b:	e9 e0 ff ff ff       	jmpq   401450 <_init+0x20>

0000000000401470 <_Znam@plt>:
  401470:	ff 25 aa 7b 20 00    	jmpq   *0x207baa(%rip)        # 609020 <_GLOBAL_OFFSET_TABLE_+0x20>
  401476:	68 01 00 00 00       	pushq  $0x1
  40147b:	e9 d0 ff ff ff       	jmpq   401450 <_init+0x20>

0000000000401480 <rand@plt>:
  401480:	ff 25 a2 7b 20 00    	jmpq   *0x207ba2(%rip)        # 609028 <_GLOBAL_OFFSET_TABLE_+0x28>
  401486:	68 02 00 00 00       	pushq  $0x2
  40148b:	e9 c0 ff ff ff       	jmpq   401450 <_init+0x20>

0000000000401490 <_ZNSolsEPFRSt8ios_baseS0_E@plt>:
  401490:	ff 25 9a 7b 20 00    	jmpq   *0x207b9a(%rip)        # 609030 <_GLOBAL_OFFSET_TABLE_+0x30>
  401496:	68 03 00 00 00       	pushq  $0x3
  40149b:	e9 b0 ff ff ff       	jmpq   401450 <_init+0x20>

00000000004014a0 <strchr@plt>:
  4014a0:	ff 25 92 7b 20 00    	jmpq   *0x207b92(%rip)        # 609038 <_GLOBAL_OFFSET_TABLE_+0x38>
  4014a6:	68 04 00 00 00       	pushq  $0x4
  4014ab:	e9 a0 ff ff ff       	jmpq   401450 <_init+0x20>

00000000004014b0 <strlen@plt>:
  4014b0:	ff 25 8a 7b 20 00    	jmpq   *0x207b8a(%rip)        # 609040 <_GLOBAL_OFFSET_TABLE_+0x40>
  4014b6:	68 05 00 00 00       	pushq  $0x5
  4014bb:	e9 90 ff ff ff       	jmpq   401450 <_init+0x20>

00000000004014c0 <__strncat_chk@plt>:
  4014c0:	ff 25 82 7b 20 00    	jmpq   *0x207b82(%rip)        # 609048 <_GLOBAL_OFFSET_TABLE_+0x48>
  4014c6:	68 06 00 00 00       	pushq  $0x6
  4014cb:	e9 80 ff ff ff       	jmpq   401450 <_init+0x20>

00000000004014d0 <_ZSt4endlIcSt11char_traitsIcEERSt13basic_ostreamIT_T0_ES6_@plt>:
  4014d0:	ff 25 7a 7b 20 00    	jmpq   *0x207b7a(%rip)        # 609050 <_GLOBAL_OFFSET_TABLE_+0x50>
  4014d6:	68 07 00 00 00       	pushq  $0x7
  4014db:	e9 70 ff ff ff       	jmpq   401450 <_init+0x20>

00000000004014e0 <__cxa_allocate_exception@plt>:
  4014e0:	ff 25 72 7b 20 00    	jmpq   *0x207b72(%rip)        # 609058 <_GLOBAL_OFFSET_TABLE_+0x58>
  4014e6:	68 08 00 00 00       	pushq  $0x8
  4014eb:	e9 60 ff ff ff       	jmpq   401450 <_init+0x20>

00000000004014f0 <posix_memalign@plt>:
  4014f0:	ff 25 6a 7b 20 00    	jmpq   *0x207b6a(%rip)        # 609060 <_GLOBAL_OFFSET_TABLE_+0x60>
  4014f6:	68 09 00 00 00       	pushq  $0x9
  4014fb:	e9 50 ff ff ff       	jmpq   401450 <_init+0x20>

0000000000401500 <catopen@plt>:
  401500:	ff 25 62 7b 20 00    	jmpq   *0x207b62(%rip)        # 609068 <_GLOBAL_OFFSET_TABLE_+0x68>
  401506:	68 0a 00 00 00       	pushq  $0xa
  40150b:	e9 40 ff ff ff       	jmpq   401450 <_init+0x20>

0000000000401510 <strncpy@plt>:
  401510:	ff 25 5a 7b 20 00    	jmpq   *0x207b5a(%rip)        # 609070 <_GLOBAL_OFFSET_TABLE_+0x70>
  401516:	68 0b 00 00 00       	pushq  $0xb
  40151b:	e9 30 ff ff ff       	jmpq   401450 <_init+0x20>

0000000000401520 <__cxa_atexit@plt>:
  401520:	ff 25 52 7b 20 00    	jmpq   *0x207b52(%rip)        # 609078 <_GLOBAL_OFFSET_TABLE_+0x78>
  401526:	68 0c 00 00 00       	pushq  $0xc
  40152b:	e9 20 ff ff ff       	jmpq   401450 <_init+0x20>

0000000000401530 <_ZdlPv@plt>:
  401530:	ff 25 4a 7b 20 00    	jmpq   *0x207b4a(%rip)        # 609080 <_GLOBAL_OFFSET_TABLE_+0x80>
  401536:	68 0d 00 00 00       	pushq  $0xd
  40153b:	e9 10 ff ff ff       	jmpq   401450 <_init+0x20>

0000000000401540 <_ZStlsISt11char_traitsIcEERSt13basic_ostreamIcT_ES5_PKc@plt>:
  401540:	ff 25 42 7b 20 00    	jmpq   *0x207b42(%rip)        # 609088 <_GLOBAL_OFFSET_TABLE_+0x88>
  401546:	68 0e 00 00 00       	pushq  $0xe
  40154b:	e9 00 ff ff ff       	jmpq   401450 <_init+0x20>

0000000000401550 <fclose@plt>:
  401550:	ff 25 3a 7b 20 00    	jmpq   *0x207b3a(%rip)        # 609090 <_GLOBAL_OFFSET_TABLE_+0x90>
  401556:	68 0f 00 00 00       	pushq  $0xf
  40155b:	e9 f0 fe ff ff       	jmpq   401450 <_init+0x20>

0000000000401560 <_Znwm@plt>:
  401560:	ff 25 32 7b 20 00    	jmpq   *0x207b32(%rip)        # 609098 <_GLOBAL_OFFSET_TABLE_+0x98>
  401566:	68 10 00 00 00       	pushq  $0x10
  40156b:	e9 e0 fe ff ff       	jmpq   401450 <_init+0x20>

0000000000401570 <_ZNSolsEPFRSoS_E@plt>:
  401570:	ff 25 2a 7b 20 00    	jmpq   *0x207b2a(%rip)        # 6090a0 <_GLOBAL_OFFSET_TABLE_+0xa0>
  401576:	68 11 00 00 00       	pushq  $0x11
  40157b:	e9 d0 fe ff ff       	jmpq   401450 <_init+0x20>

0000000000401580 <catgets@plt>:
  401580:	ff 25 22 7b 20 00    	jmpq   *0x207b22(%rip)        # 6090a8 <_GLOBAL_OFFSET_TABLE_+0xa8>
  401586:	68 12 00 00 00       	pushq  $0x12
  40158b:	e9 c0 fe ff ff       	jmpq   401450 <_init+0x20>

0000000000401590 <__stack_chk_fail@plt>:
  401590:	ff 25 1a 7b 20 00    	jmpq   *0x207b1a(%rip)        # 6090b0 <_GLOBAL_OFFSET_TABLE_+0xb0>
  401596:	68 13 00 00 00       	pushq  $0x13
  40159b:	e9 b0 fe ff ff       	jmpq   401450 <_init+0x20>

00000000004015a0 <_ZStlsIcSt11char_traitsIcEERSt13basic_ostreamIT_T0_ES6_St5_Setw@plt>:
  4015a0:	ff 25 12 7b 20 00    	jmpq   *0x207b12(%rip)        # 6090b8 <_GLOBAL_OFFSET_TABLE_+0xb8>
  4015a6:	68 14 00 00 00       	pushq  $0x14
  4015ab:	e9 a0 fe ff ff       	jmpq   401450 <_init+0x20>

00000000004015b0 <fopen@plt>:
  4015b0:	ff 25 0a 7b 20 00    	jmpq   *0x207b0a(%rip)        # 6090c0 <_GLOBAL_OFFSET_TABLE_+0xc0>
  4015b6:	68 15 00 00 00       	pushq  $0x15
  4015bb:	e9 90 fe ff ff       	jmpq   401450 <_init+0x20>

00000000004015c0 <free@plt>:
  4015c0:	ff 25 02 7b 20 00    	jmpq   *0x207b02(%rip)        # 6090c8 <_GLOBAL_OFFSET_TABLE_+0xc8>
  4015c6:	68 16 00 00 00       	pushq  $0x16
  4015cb:	e9 80 fe ff ff       	jmpq   401450 <_init+0x20>

00000000004015d0 <exit@plt>:
  4015d0:	ff 25 fa 7a 20 00    	jmpq   *0x207afa(%rip)        # 6090d0 <_GLOBAL_OFFSET_TABLE_+0xd0>
  4015d6:	68 17 00 00 00       	pushq  $0x17
  4015db:	e9 70 fe ff ff       	jmpq   401450 <_init+0x20>

00000000004015e0 <getenv@plt>:
  4015e0:	ff 25 f2 7a 20 00    	jmpq   *0x207af2(%rip)        # 6090d8 <_GLOBAL_OFFSET_TABLE_+0xd8>
  4015e6:	68 18 00 00 00       	pushq  $0x18
  4015eb:	e9 60 fe ff ff       	jmpq   401450 <_init+0x20>

00000000004015f0 <_ZdaPv@plt>:
  4015f0:	ff 25 ea 7a 20 00    	jmpq   *0x207aea(%rip)        # 6090e0 <_GLOBAL_OFFSET_TABLE_+0xe0>
  4015f6:	68 19 00 00 00       	pushq  $0x19
  4015fb:	e9 50 fe ff ff       	jmpq   401450 <_init+0x20>

0000000000401600 <clock_gettime@plt>:
  401600:	ff 25 e2 7a 20 00    	jmpq   *0x207ae2(%rip)        # 6090e8 <_GLOBAL_OFFSET_TABLE_+0xe8>
  401606:	68 1a 00 00 00       	pushq  $0x1a
  40160b:	e9 40 fe ff ff       	jmpq   401450 <_init+0x20>

0000000000401610 <__vsprintf_chk@plt>:
  401610:	ff 25 da 7a 20 00    	jmpq   *0x207ada(%rip)        # 6090f0 <_GLOBAL_OFFSET_TABLE_+0xf0>
  401616:	68 1b 00 00 00       	pushq  $0x1b
  40161b:	e9 30 fe ff ff       	jmpq   401450 <_init+0x20>

0000000000401620 <__cxa_throw_bad_array_new_length@plt>:
  401620:	ff 25 d2 7a 20 00    	jmpq   *0x207ad2(%rip)        # 6090f8 <_GLOBAL_OFFSET_TABLE_+0xf8>
  401626:	68 1c 00 00 00       	pushq  $0x1c
  40162b:	e9 20 fe ff ff       	jmpq   401450 <_init+0x20>

0000000000401630 <setenv@plt>:
  401630:	ff 25 ca 7a 20 00    	jmpq   *0x207aca(%rip)        # 609100 <_GLOBAL_OFFSET_TABLE_+0x100>
  401636:	68 1d 00 00 00       	pushq  $0x1d
  40163b:	e9 10 fe ff ff       	jmpq   401450 <_init+0x20>

0000000000401640 <_ZNSt8ios_base4InitC1Ev@plt>:
  401640:	ff 25 c2 7a 20 00    	jmpq   *0x207ac2(%rip)        # 609108 <_GLOBAL_OFFSET_TABLE_+0x108>
  401646:	68 1e 00 00 00       	pushq  $0x1e
  40164b:	e9 00 fe ff ff       	jmpq   401450 <_init+0x20>

0000000000401650 <fgets@plt>:
  401650:	ff 25 ba 7a 20 00    	jmpq   *0x207aba(%rip)        # 609110 <_GLOBAL_OFFSET_TABLE_+0x110>
  401656:	68 1f 00 00 00       	pushq  $0x1f
  40165b:	e9 f0 fd ff ff       	jmpq   401450 <_init+0x20>

0000000000401660 <_ZStlsIcSt11char_traitsIcEERSt13basic_ostreamIT_T0_ES6_St13_Setprecision@plt>:
  401660:	ff 25 b2 7a 20 00    	jmpq   *0x207ab2(%rip)        # 609118 <_GLOBAL_OFFSET_TABLE_+0x118>
  401666:	68 20 00 00 00       	pushq  $0x20
  40166b:	e9 e0 fd ff ff       	jmpq   401450 <_init+0x20>

0000000000401670 <__fprintf_chk@plt>:
  401670:	ff 25 aa 7a 20 00    	jmpq   *0x207aaa(%rip)        # 609120 <_GLOBAL_OFFSET_TABLE_+0x120>
  401676:	68 21 00 00 00       	pushq  $0x21
  40167b:	e9 d0 fd ff ff       	jmpq   401450 <_init+0x20>

0000000000401680 <__gxx_personality_v0@plt>:
  401680:	ff 25 a2 7a 20 00    	jmpq   *0x207aa2(%rip)        # 609128 <_GLOBAL_OFFSET_TABLE_+0x128>
  401686:	68 22 00 00 00       	pushq  $0x22
  40168b:	e9 c0 fd ff ff       	jmpq   401450 <_init+0x20>

0000000000401690 <_ZNSt16invalid_argumentD1Ev@plt>:
  401690:	ff 25 9a 7a 20 00    	jmpq   *0x207a9a(%rip)        # 609130 <_GLOBAL_OFFSET_TABLE_+0x130>
  401696:	68 23 00 00 00       	pushq  $0x23
  40169b:	e9 b0 fd ff ff       	jmpq   401450 <_init+0x20>

00000000004016a0 <__cxa_throw@plt>:
  4016a0:	ff 25 92 7a 20 00    	jmpq   *0x207a92(%rip)        # 609138 <_GLOBAL_OFFSET_TABLE_+0x138>
  4016a6:	68 24 00 00 00       	pushq  $0x24
  4016ab:	e9 a0 fd ff ff       	jmpq   401450 <_init+0x20>

00000000004016b0 <_ZNSolsEi@plt>:
  4016b0:	ff 25 8a 7a 20 00    	jmpq   *0x207a8a(%rip)        # 609140 <_GLOBAL_OFFSET_TABLE_+0x140>
  4016b6:	68 25 00 00 00       	pushq  $0x25
  4016bb:	e9 90 fd ff ff       	jmpq   401450 <_init+0x20>

00000000004016c0 <_Unwind_Resume@plt>:
  4016c0:	ff 25 82 7a 20 00    	jmpq   *0x207a82(%rip)        # 609148 <_GLOBAL_OFFSET_TABLE_+0x148>
  4016c6:	68 26 00 00 00       	pushq  $0x26
  4016cb:	e9 80 fd ff ff       	jmpq   401450 <_init+0x20>

00000000004016d0 <__libc_start_main@plt>:
  4016d0:	ff 25 7a 7a 20 00    	jmpq   *0x207a7a(%rip)        # 609150 <_GLOBAL_OFFSET_TABLE_+0x150>
  4016d6:	68 27 00 00 00       	pushq  $0x27
  4016db:	e9 70 fd ff ff       	jmpq   401450 <_init+0x20>

00000000004016e0 <_ZNSt16invalid_argumentC1EPKc@plt>:
  4016e0:	ff 25 72 7a 20 00    	jmpq   *0x207a72(%rip)        # 609158 <_GLOBAL_OFFSET_TABLE_+0x158>
  4016e6:	68 28 00 00 00       	pushq  $0x28
  4016eb:	e9 60 fd ff ff       	jmpq   401450 <_init+0x20>

00000000004016f0 <_ZNSolsEd@plt>:
  4016f0:	ff 25 6a 7a 20 00    	jmpq   *0x207a6a(%rip)        # 609160 <_GLOBAL_OFFSET_TABLE_+0x160>
  4016f6:	68 29 00 00 00       	pushq  $0x29
  4016fb:	e9 50 fd ff ff       	jmpq   401450 <_init+0x20>

0000000000401700 <fscanf@plt>:
  401700:	ff 25 62 7a 20 00    	jmpq   *0x207a62(%rip)        # 609168 <_GLOBAL_OFFSET_TABLE_+0x168>
  401706:	68 2a 00 00 00       	pushq  $0x2a
  40170b:	e9 40 fd ff ff       	jmpq   401450 <_init+0x20>

0000000000401710 <_ZNSt8ios_base4InitD1Ev@plt>:
  401710:	ff 25 5a 7a 20 00    	jmpq   *0x207a5a(%rip)        # 609170 <_GLOBAL_OFFSET_TABLE_+0x170>
  401716:	68 2b 00 00 00       	pushq  $0x2b
  40171b:	e9 30 fd ff ff       	jmpq   401450 <_init+0x20>

Disassembly of section .plt.got:

0000000000401720 <.plt.got>:
  401720:	ff 25 d2 78 20 00    	jmpq   *0x2078d2(%rip)        # 608ff8 <_DYNAMIC+0x238>
  401726:	66 90                	xchg   %ax,%ax

Disassembly of section .text:

0000000000401730 <_start>:
  401730:	31 ed                	xor    %ebp,%ebp
  401732:	49 89 d1             	mov    %rdx,%r9
  401735:	5e                   	pop    %rsi
  401736:	48 89 e2             	mov    %rsp,%rdx
  401739:	48 83 e4 f0          	and    $0xfffffffffffffff0,%rsp
  40173d:	50                   	push   %rax
  40173e:	54                   	push   %rsp
  40173f:	49 c7 c0 c0 60 40 00 	mov    $0x4060c0,%r8
  401746:	48 c7 c1 50 60 40 00 	mov    $0x406050,%rcx
  40174d:	48 c7 c7 07 18 40 00 	mov    $0x401807,%rdi
  401754:	e8 77 ff ff ff       	callq  4016d0 <__libc_start_main@plt>
  401759:	f4                   	hlt    
  40175a:	66 0f 1f 44 00 00    	nopw   0x0(%rax,%rax,1)

0000000000401760 <deregister_tm_clones>:
  401760:	55                   	push   %rbp
  401761:	b8 58 92 60 00       	mov    $0x609258,%eax
  401766:	48 3d 58 92 60 00    	cmp    $0x609258,%rax
  40176c:	48 89 e5             	mov    %rsp,%rbp
  40176f:	74 17                	je     401788 <deregister_tm_clones+0x28>
  401771:	b8 00 00 00 00       	mov    $0x0,%eax
  401776:	48 85 c0             	test   %rax,%rax
  401779:	74 0d                	je     401788 <deregister_tm_clones+0x28>
  40177b:	5d                   	pop    %rbp
  40177c:	bf 58 92 60 00       	mov    $0x609258,%edi
  401781:	ff e0                	jmpq   *%rax
  401783:	0f 1f 44 00 00       	nopl   0x0(%rax,%rax,1)
  401788:	5d                   	pop    %rbp
  401789:	c3                   	retq   
  40178a:	66 0f 1f 44 00 00    	nopw   0x0(%rax,%rax,1)

0000000000401790 <register_tm_clones>:
  401790:	be 58 92 60 00       	mov    $0x609258,%esi
  401795:	55                   	push   %rbp
  401796:	48 81 ee 58 92 60 00 	sub    $0x609258,%rsi
  40179d:	48 89 e5             	mov    %rsp,%rbp
  4017a0:	48 c1 fe 03          	sar    $0x3,%rsi
  4017a4:	48 89 f0             	mov    %rsi,%rax
  4017a7:	48 c1 e8 3f          	shr    $0x3f,%rax
  4017ab:	48 01 c6             	add    %rax,%rsi
  4017ae:	48 d1 fe             	sar    %rsi
  4017b1:	74 15                	je     4017c8 <register_tm_clones+0x38>
  4017b3:	b8 00 00 00 00       	mov    $0x0,%eax
  4017b8:	48 85 c0             	test   %rax,%rax
  4017bb:	74 0b                	je     4017c8 <register_tm_clones+0x38>
  4017bd:	5d                   	pop    %rbp
  4017be:	bf 58 92 60 00       	mov    $0x609258,%edi
  4017c3:	ff e0                	jmpq   *%rax
  4017c5:	0f 1f 00             	nopl   (%rax)
  4017c8:	5d                   	pop    %rbp
  4017c9:	c3                   	retq   
  4017ca:	66 0f 1f 44 00 00    	nopw   0x0(%rax,%rax,1)

00000000004017d0 <__do_global_dtors_aux>:
  4017d0:	80 3d b1 7b 20 00 00 	cmpb   $0x0,0x207bb1(%rip)        # 609388 <completed.6965>
  4017d7:	75 17                	jne    4017f0 <__do_global_dtors_aux+0x20>
  4017d9:	55                   	push   %rbp
  4017da:	48 89 e5             	mov    %rsp,%rbp
  4017dd:	e8 7e ff ff ff       	callq  401760 <deregister_tm_clones>
  4017e2:	c6 05 9f 7b 20 00 01 	movb   $0x1,0x207b9f(%rip)        # 609388 <completed.6965>
  4017e9:	5d                   	pop    %rbp
  4017ea:	c3                   	retq   
  4017eb:	0f 1f 44 00 00       	nopl   0x0(%rax,%rax,1)
  4017f0:	f3 c3                	repz retq 
  4017f2:	0f 1f 40 00          	nopl   0x0(%rax)
  4017f6:	66 2e 0f 1f 84 00 00 	nopw   %cs:0x0(%rax,%rax,1)
  4017fd:	00 00 00 

0000000000401800 <frame_dummy>:
  401800:	55                   	push   %rbp
  401801:	48 89 e5             	mov    %rsp,%rbp
  401804:	5d                   	pop    %rbp
  401805:	eb 89                	jmp    401790 <register_tm_clones>

0000000000401807 <main>:
  401807:	56                   	push   %rsi
  401808:	48 be fe 9f 9d 38 07 	movabs $0x7389d9ffe,%rsi
  40180f:	00 00 00 
  401812:	6a 03                	pushq  $0x3
  401814:	5f                   	pop    %rdi
  401815:	e8 a6 39 00 00       	callq  4051c0 <__intel_new_feature_proc_init>
  40181a:	c5 f8 ae 1c 24       	vstmxcsr (%rsp)
  40181f:	81 0c 24 40 80 00 00 	orl    $0x8040,(%rsp)
  401826:	c5 f8 ae 14 24       	vldmxcsr (%rsp)
  40182b:	e8 0e 00 00 00       	callq  40183e <_Z30test_jump_penalty_2_20_libxsmmv>
  401830:	e8 80 20 00 00       	callq  4038b5 <_Z31test_jump_penalty_2_20_unrolledv>
  401835:	e8 8c 27 00 00       	callq  403fc6 <_Z30test_jump_penalty_2_20_generalv>
  40183a:	31 c0                	xor    %eax,%eax
  40183c:	59                   	pop    %rcx
  40183d:	c3                   	retq   

000000000040183e <_Z30test_jump_penalty_2_20_libxsmmv>:
  40183e:	48 81 ec b8 00 00 00 	sub    $0xb8,%rsp
  401845:	48 89 9c 24 a8 00 00 	mov    %rbx,0xa8(%rsp)
  40184c:	00 
  40184d:	4c 89 bc 24 b0 00 00 	mov    %r15,0xb0(%rsp)
  401854:	00 
  401855:	bb 18 92 60 00       	mov    $0x609218,%ebx
  40185a:	6a 20                	pushq  $0x20
  40185c:	41 5f                	pop    %r15
  40185e:	48 8d 04 24          	lea    (%rsp),%rax
  401862:	48 89 18             	mov    %rbx,(%rax)
  401865:	48 8d 78 18          	lea    0x18(%rax),%rdi
  401869:	44 89 78 10          	mov    %r15d,0x10(%rax)
  40186d:	6a 40                	pushq  $0x40
  40186f:	5e                   	pop    %rsi
  401870:	44 89 78 08          	mov    %r15d,0x8(%rax)
  401874:	ba 00 30 00 00       	mov    $0x3000,%edx
  401879:	c7 40 0c 30 00 00 00 	movl   $0x30,0xc(%rax)
  401880:	e8 6b fc ff ff       	callq  4014f0 <posix_memalign@plt>
  401885:	48 8d 3c 24          	lea    (%rsp),%rdi
  401889:	e8 1e 34 00 00       	callq  404cac <_ZN11DenseMatrix4zeroEv>
  40188e:	48 8d 3c 24          	lea    (%rsp),%rdi
  401892:	e8 71 34 00 00       	callq  404d08 <_ZN11DenseMatrix6randomEv>
  401897:	48 8d 7c 24 60       	lea    0x60(%rsp),%rdi
  40189c:	be 18 61 40 00       	mov    $0x406118,%esi
  4018a1:	e8 e6 34 00 00       	callq  404d8c <_ZN11DenseMatrixC1EPKc>
  4018a6:	48 8d 44 24 40       	lea    0x40(%rsp),%rax
  4018ab:	48 89 18             	mov    %rbx,(%rax)
  4018ae:	48 8d 78 18          	lea    0x18(%rax),%rdi
  4018b2:	44 89 78 10          	mov    %r15d,0x10(%rax)
  4018b6:	6a 40                	pushq  $0x40
  4018b8:	5e                   	pop    %rsi
  4018b9:	44 89 78 08          	mov    %r15d,0x8(%rax)
  4018bd:	ba 00 20 00 00       	mov    $0x2000,%edx
  4018c2:	44 89 78 0c          	mov    %r15d,0xc(%rax)
  4018c6:	e8 25 fc ff ff       	callq  4014f0 <posix_memalign@plt>
  4018cb:	48 8d 7c 24 40       	lea    0x40(%rsp),%rdi
  4018d0:	e8 d7 33 00 00       	callq  404cac <_ZN11DenseMatrix4zeroEv>
  4018d5:	48 8d 44 24 20       	lea    0x20(%rsp),%rax
  4018da:	48 89 18             	mov    %rbx,(%rax)
  4018dd:	48 8d 78 18          	lea    0x18(%rax),%rdi
  4018e1:	44 89 78 10          	mov    %r15d,0x10(%rax)
  4018e5:	6a 40                	pushq  $0x40
  4018e7:	5e                   	pop    %rsi
  4018e8:	44 89 78 08          	mov    %r15d,0x8(%rax)
  4018ec:	ba 00 20 00 00       	mov    $0x2000,%edx
  4018f1:	44 89 78 0c          	mov    %r15d,0xc(%rax)
  4018f5:	e8 f6 fb ff ff       	callq  4014f0 <posix_memalign@plt>
  4018fa:	48 8d 7c 24 20       	lea    0x20(%rsp),%rdi
  4018ff:	e8 a8 33 00 00       	callq  404cac <_ZN11DenseMatrix4zeroEv>
  401904:	48 8d 3c 24          	lea    (%rsp),%rdi
  401908:	48 8d 77 60          	lea    0x60(%rdi),%rsi
  40190c:	48 8d 56 e0          	lea    -0x20(%rsi),%rdx
  401910:	e8 92 1e 00 00       	callq  4037a7 <_Z4gemmRK6MatrixS1_RS_>
  401915:	48 8b 7c 24 18       	mov    0x18(%rsp),%rdi
  40191a:	48 8b 54 24 38       	mov    0x38(%rsp),%rdx
  40191f:	48 8b 74 24 78       	mov    0x78(%rsp),%rsi
  401924:	e8 41 01 00 00       	callq  401a6a <_Z25jump_penalty_2_20_libxsmmPKdS0_Pd>
  401929:	48 8d 7c 24 40       	lea    0x40(%rsp),%rdi
  40192e:	48 8d 77 e0          	lea    -0x20(%rdi),%rsi
  401932:	e8 ce 1b 00 00       	callq  403505 <_Z13assert_equalsRK6MatrixS1_>
  401937:	31 ff                	xor    %edi,%edi
  401939:	83 c7 01             	add    $0x1,%edi
  40193c:	48 8d b4 24 80 00 00 	lea    0x80(%rsp),%rsi
  401943:	00 
  401944:	e8 b7 fc ff ff       	callq  401600 <clock_gettime@plt>
  401949:	45 31 ff             	xor    %r15d,%r15d
  40194c:	48 8b 7c 24 18       	mov    0x18(%rsp),%rdi
  401951:	48 8b 54 24 38       	mov    0x38(%rsp),%rdx
  401956:	48 8b 74 24 78       	mov    0x78(%rsp),%rsi
  40195b:	e8 0a 01 00 00       	callq  401a6a <_Z25jump_penalty_2_20_libxsmmPKdS0_Pd>
  401960:	41 83 c7 01          	add    $0x1,%r15d
  401964:	41 81 ff b8 0b 00 00 	cmp    $0xbb8,%r15d
  40196b:	7c df                	jl     40194c <_Z30test_jump_penalty_2_20_libxsmmv+0x10e>
  40196d:	31 ff                	xor    %edi,%edi
  40196f:	83 c7 01             	add    $0x1,%edi
  401972:	48 8d b4 24 90 00 00 	lea    0x90(%rsp),%rsi
  401979:	00 
  40197a:	e8 81 fc ff ff       	callq  401600 <clock_gettime@plt>
  40197f:	bf 60 92 60 00       	mov    $0x609260,%edi
  401984:	be 54 61 40 00       	mov    $0x406154,%esi
  401989:	e8 b2 fb ff ff       	callq  401540 <_ZStlsISt11char_traitsIcEERSt13basic_ostreamIcT_ES5_PKc@plt>
  40198e:	49 89 c7             	mov    %rax,%r15
  401991:	48 8d 84 24 80 00 00 	lea    0x80(%rsp),%rax
  401998:	00 
  401999:	48 8d 8c 24 90 00 00 	lea    0x90(%rsp),%rcx
  4019a0:	00 
  4019a1:	48 8b 38             	mov    (%rax),%rdi
  4019a4:	48 8b 70 08          	mov    0x8(%rax),%rsi
  4019a8:	48 8b 11             	mov    (%rcx),%rdx
  4019ab:	48 8b 49 08          	mov    0x8(%rcx),%rcx
  4019af:	e8 e0 1e 00 00       	callq  403894 <_Z9microsecs8timespecS_>
  4019b4:	c5 fb 5e 05 3c 47 00 	vdivsd 0x473c(%rip),%xmm0,%xmm0        # 4060f8 <__$Uf.0.32+0x8>
  4019bb:	00 
  4019bc:	4c 89 ff             	mov    %r15,%rdi
  4019bf:	e8 2c fd ff ff       	callq  4016f0 <_ZNSolsEd@plt>
  4019c4:	48 89 c7             	mov    %rax,%rdi
  4019c7:	be d0 14 40 00       	mov    $0x4014d0,%esi
  4019cc:	e8 9f fb ff ff       	callq  401570 <_ZNSolsEPFRSoS_E@plt>
  4019d1:	48 8b 7c 24 38       	mov    0x38(%rsp),%rdi
  4019d6:	48 89 5c 24 20       	mov    %rbx,0x20(%rsp)
  4019db:	e8 e0 fb ff ff       	callq  4015c0 <free@plt>
  4019e0:	48 8b 7c 24 58       	mov    0x58(%rsp),%rdi
  4019e5:	48 89 5c 24 40       	mov    %rbx,0x40(%rsp)
  4019ea:	e8 d1 fb ff ff       	callq  4015c0 <free@plt>
  4019ef:	48 8b 7c 24 78       	mov    0x78(%rsp),%rdi
  4019f4:	48 89 5c 24 60       	mov    %rbx,0x60(%rsp)
  4019f9:	e8 c2 fb ff ff       	callq  4015c0 <free@plt>
  4019fe:	48 8b 7c 24 18       	mov    0x18(%rsp),%rdi
  401a03:	48 89 1c 24          	mov    %rbx,(%rsp)
  401a07:	e8 b4 fb ff ff       	callq  4015c0 <free@plt>
  401a0c:	48 8b 9c 24 a8 00 00 	mov    0xa8(%rsp),%rbx
  401a13:	00 
  401a14:	4c 8b bc 24 b0 00 00 	mov    0xb0(%rsp),%r15
  401a1b:	00 
  401a1c:	48 81 c4 b8 00 00 00 	add    $0xb8,%rsp
  401a23:	c3                   	retq   
  401a24:	48 89 84 24 a0 00 00 	mov    %rax,0xa0(%rsp)
  401a2b:	00 
  401a2c:	48 8d 7c 24 20       	lea    0x20(%rsp),%rdi
  401a31:	e8 be 32 00 00       	callq  404cf4 <_ZN11DenseMatrixD1Ev>
  401a36:	48 8d 7c 24 40       	lea    0x40(%rsp),%rdi
  401a3b:	e8 b4 32 00 00       	callq  404cf4 <_ZN11DenseMatrixD1Ev>
  401a40:	48 8d 7c 24 60       	lea    0x60(%rsp),%rdi
  401a45:	e8 aa 32 00 00       	callq  404cf4 <_ZN11DenseMatrixD1Ev>
  401a4a:	48 8d 3c 24          	lea    (%rsp),%rdi
  401a4e:	e8 a1 32 00 00       	callq  404cf4 <_ZN11DenseMatrixD1Ev>
  401a53:	48 8b bc 24 a0 00 00 	mov    0xa0(%rsp),%rdi
  401a5a:	00 
  401a5b:	e8 60 fc ff ff       	callq  4016c0 <_Unwind_Resume@plt>
  401a60:	48 89 84 24 a0 00 00 	mov    %rax,0xa0(%rsp)
  401a67:	00 
  401a68:	eb e0                	jmp    401a4a <_Z30test_jump_penalty_2_20_libxsmmv+0x20c>

0000000000401a6a <_Z25jump_penalty_2_20_libxsmmPKdS0_Pd>:
  401a6a:	48 89 5c 24 f0       	mov    %rbx,-0x10(%rsp)
  401a6f:	48 89 6c 24 f8       	mov    %rbp,-0x8(%rsp)
  401a74:	4c 89 7c 24 d0       	mov    %r15,-0x30(%rsp)
  401a79:	4c 89 74 24 d8       	mov    %r14,-0x28(%rsp)
  401a7e:	4c 89 6c 24 e0       	mov    %r13,-0x20(%rsp)
  401a83:	4c 89 64 24 e8       	mov    %r12,-0x18(%rsp)
  401a88:	48 89 7c 24 b8       	mov    %rdi,-0x48(%rsp)
  401a8d:	48 89 74 24 c0       	mov    %rsi,-0x40(%rsp)
  401a92:	48 89 54 24 c8       	mov    %rdx,-0x38(%rsp)
  401a97:	48 8b 7c 24 b8       	mov    -0x48(%rsp),%rdi
  401a9c:	48 8b 74 24 c0       	mov    -0x40(%rsp),%rsi
  401aa1:	48 8b 54 24 c8       	mov    -0x38(%rsp),%rdx
  401aa6:	49 c7 c4 00 00 00 00 	mov    $0x0,%r12
  401aad:	49 c7 c5 00 00 00 00 	mov    $0x0,%r13
  401ab4:	49 c7 c6 00 00 00 00 	mov    $0x0,%r14
  401abb:	49 83 c5 10          	add    $0x10,%r13
  401abf:	49 c7 c4 00 00 00 00 	mov    $0x0,%r12
  401ac6:	49 83 c4 08          	add    $0x8,%r12
  401aca:	62 e1 fd 48 28 02    	vmovapd (%rdx),%zmm16
  401ad0:	62 e1 fd 48 28 4a 04 	vmovapd 0x100(%rdx),%zmm17
  401ad7:	62 e1 fd 48 28 52 08 	vmovapd 0x200(%rdx),%zmm18
  401ade:	62 e1 fd 48 28 5a 0c 	vmovapd 0x300(%rdx),%zmm19
  401ae5:	62 e1 fd 48 28 62 10 	vmovapd 0x400(%rdx),%zmm20
  401aec:	62 e1 fd 48 28 6a 14 	vmovapd 0x500(%rdx),%zmm21
  401af3:	62 e1 fd 48 28 72 18 	vmovapd 0x600(%rdx),%zmm22
  401afa:	62 e1 fd 48 28 7a 1c 	vmovapd 0x700(%rdx),%zmm23
  401b01:	62 61 fd 48 28 42 20 	vmovapd 0x800(%rdx),%zmm24
  401b08:	62 61 fd 48 28 4a 24 	vmovapd 0x900(%rdx),%zmm25
  401b0f:	62 61 fd 48 28 52 28 	vmovapd 0xa00(%rdx),%zmm26
  401b16:	62 61 fd 48 28 5a 2c 	vmovapd 0xb00(%rdx),%zmm27
  401b1d:	62 61 fd 48 28 62 30 	vmovapd 0xc00(%rdx),%zmm28
  401b24:	62 61 fd 48 28 6a 34 	vmovapd 0xd00(%rdx),%zmm29
  401b2b:	62 61 fd 48 28 72 38 	vmovapd 0xe00(%rdx),%zmm30
  401b32:	62 61 fd 48 28 7a 3c 	vmovapd 0xf00(%rdx),%zmm31
  401b39:	49 c7 c7 80 01 00 00 	mov    $0x180,%r15
  401b40:	48 c7 c0 80 04 00 00 	mov    $0x480,%rax
  401b47:	48 c7 c3 80 07 00 00 	mov    $0x780,%rbx
  401b4e:	49 c7 c3 80 0a 00 00 	mov    $0xa80,%r11
  401b55:	49 89 f2             	mov    %rsi,%r10
  401b58:	49 81 c2 80 0d 00 00 	add    $0xd80,%r10
  401b5f:	62 f1 fd 48 28 07    	vmovapd (%rdi),%zmm0
  401b65:	62 f1 fd 48 28 4f 04 	vmovapd 0x100(%rdi),%zmm1
  401b6c:	62 e2 fd 58 b8 06    	vfmadd231pd (%rsi){1to8},%zmm0,%zmm16
  401b72:	62 a2 fd 58 b8 0c 3e 	vfmadd231pd (%rsi,%r15,1){1to8},%zmm0,%zmm17
  401b79:	62 a2 fd 58 b8 14 7e 	vfmadd231pd (%rsi,%r15,2){1to8},%zmm0,%zmm18
  401b80:	62 e2 fd 58 b8 1c 06 	vfmadd231pd (%rsi,%rax,1){1to8},%zmm0,%zmm19
  401b87:	62 a2 fd 58 b8 24 be 	vfmadd231pd (%rsi,%r15,4){1to8},%zmm0,%zmm20
  401b8e:	62 e2 fd 58 b8 2c 1e 	vfmadd231pd (%rsi,%rbx,1){1to8},%zmm0,%zmm21
  401b95:	62 e2 fd 58 b8 34 46 	vfmadd231pd (%rsi,%rax,2){1to8},%zmm0,%zmm22
  401b9c:	62 a2 fd 58 b8 3c 1e 	vfmadd231pd (%rsi,%r11,1){1to8},%zmm0,%zmm23
  401ba3:	62 22 fd 58 b8 04 fe 	vfmadd231pd (%rsi,%r15,8){1to8},%zmm0,%zmm24
  401baa:	62 42 fd 58 b8 0a    	vfmadd231pd (%r10){1to8},%zmm0,%zmm25
  401bb0:	62 02 fd 58 b8 14 3a 	vfmadd231pd (%r10,%r15,1){1to8},%zmm0,%zmm26
  401bb7:	62 02 fd 58 b8 1c 7a 	vfmadd231pd (%r10,%r15,2){1to8},%zmm0,%zmm27
  401bbe:	62 42 fd 58 b8 24 02 	vfmadd231pd (%r10,%rax,1){1to8},%zmm0,%zmm28
  401bc5:	62 02 fd 58 b8 2c ba 	vfmadd231pd (%r10,%r15,4){1to8},%zmm0,%zmm29
  401bcc:	62 42 fd 58 b8 34 1a 	vfmadd231pd (%r10,%rbx,1){1to8},%zmm0,%zmm30
  401bd3:	62 42 fd 58 b8 3c 42 	vfmadd231pd (%r10,%rax,2){1to8},%zmm0,%zmm31
  401bda:	62 f1 fd 48 28 47 08 	vmovapd 0x200(%rdi),%zmm0
  401be1:	62 e2 f5 58 b8 46 01 	vfmadd231pd 0x8(%rsi){1to8},%zmm1,%zmm16
  401be8:	62 a2 f5 58 b8 4c 3e 	vfmadd231pd 0x8(%rsi,%r15,1){1to8},%zmm1,%zmm17
  401bef:	01 
  401bf0:	62 a2 f5 58 b8 54 7e 	vfmadd231pd 0x8(%rsi,%r15,2){1to8},%zmm1,%zmm18
  401bf7:	01 
  401bf8:	62 e2 f5 58 b8 5c 06 	vfmadd231pd 0x8(%rsi,%rax,1){1to8},%zmm1,%zmm19
  401bff:	01 
  401c00:	62 a2 f5 58 b8 64 be 	vfmadd231pd 0x8(%rsi,%r15,4){1to8},%zmm1,%zmm20
  401c07:	01 
  401c08:	62 e2 f5 58 b8 6c 1e 	vfmadd231pd 0x8(%rsi,%rbx,1){1to8},%zmm1,%zmm21
  401c0f:	01 
  401c10:	62 e2 f5 58 b8 74 46 	vfmadd231pd 0x8(%rsi,%rax,2){1to8},%zmm1,%zmm22
  401c17:	01 
  401c18:	62 a2 f5 58 b8 7c 1e 	vfmadd231pd 0x8(%rsi,%r11,1){1to8},%zmm1,%zmm23
  401c1f:	01 
  401c20:	62 22 f5 58 b8 44 fe 	vfmadd231pd 0x8(%rsi,%r15,8){1to8},%zmm1,%zmm24
  401c27:	01 
  401c28:	62 42 f5 58 b8 4a 01 	vfmadd231pd 0x8(%r10){1to8},%zmm1,%zmm25
  401c2f:	62 02 f5 58 b8 54 3a 	vfmadd231pd 0x8(%r10,%r15,1){1to8},%zmm1,%zmm26
  401c36:	01 
  401c37:	62 02 f5 58 b8 5c 7a 	vfmadd231pd 0x8(%r10,%r15,2){1to8},%zmm1,%zmm27
  401c3e:	01 
  401c3f:	62 42 f5 58 b8 64 02 	vfmadd231pd 0x8(%r10,%rax,1){1to8},%zmm1,%zmm28
  401c46:	01 
  401c47:	62 02 f5 58 b8 6c ba 	vfmadd231pd 0x8(%r10,%r15,4){1to8},%zmm1,%zmm29
  401c4e:	01 
  401c4f:	62 42 f5 58 b8 74 1a 	vfmadd231pd 0x8(%r10,%rbx,1){1to8},%zmm1,%zmm30
  401c56:	01 
  401c57:	62 42 f5 58 b8 7c 42 	vfmadd231pd 0x8(%r10,%rax,2){1to8},%zmm1,%zmm31
  401c5e:	01 
  401c5f:	62 f1 fd 48 28 4f 0c 	vmovapd 0x300(%rdi),%zmm1
  401c66:	62 e2 fd 58 b8 46 02 	vfmadd231pd 0x10(%rsi){1to8},%zmm0,%zmm16
  401c6d:	62 a2 fd 58 b8 4c 3e 	vfmadd231pd 0x10(%rsi,%r15,1){1to8},%zmm0,%zmm17
  401c74:	02 
  401c75:	62 a2 fd 58 b8 54 7e 	vfmadd231pd 0x10(%rsi,%r15,2){1to8},%zmm0,%zmm18
  401c7c:	02 
  401c7d:	62 e2 fd 58 b8 5c 06 	vfmadd231pd 0x10(%rsi,%rax,1){1to8},%zmm0,%zmm19
  401c84:	02 
  401c85:	62 a2 fd 58 b8 64 be 	vfmadd231pd 0x10(%rsi,%r15,4){1to8},%zmm0,%zmm20
  401c8c:	02 
  401c8d:	62 e2 fd 58 b8 6c 1e 	vfmadd231pd 0x10(%rsi,%rbx,1){1to8},%zmm0,%zmm21
  401c94:	02 
  401c95:	62 e2 fd 58 b8 74 46 	vfmadd231pd 0x10(%rsi,%rax,2){1to8},%zmm0,%zmm22
  401c9c:	02 
  401c9d:	62 a2 fd 58 b8 7c 1e 	vfmadd231pd 0x10(%rsi,%r11,1){1to8},%zmm0,%zmm23
  401ca4:	02 
  401ca5:	62 22 fd 58 b8 44 fe 	vfmadd231pd 0x10(%rsi,%r15,8){1to8},%zmm0,%zmm24
  401cac:	02 
  401cad:	62 42 fd 58 b8 4a 02 	vfmadd231pd 0x10(%r10){1to8},%zmm0,%zmm25
  401cb4:	62 02 fd 58 b8 54 3a 	vfmadd231pd 0x10(%r10,%r15,1){1to8},%zmm0,%zmm26
  401cbb:	02 
  401cbc:	62 02 fd 58 b8 5c 7a 	vfmadd231pd 0x10(%r10,%r15,2){1to8},%zmm0,%zmm27
  401cc3:	02 
  401cc4:	62 42 fd 58 b8 64 02 	vfmadd231pd 0x10(%r10,%rax,1){1to8},%zmm0,%zmm28
  401ccb:	02 
  401ccc:	62 02 fd 58 b8 6c ba 	vfmadd231pd 0x10(%r10,%r15,4){1to8},%zmm0,%zmm29
  401cd3:	02 
  401cd4:	62 42 fd 58 b8 74 1a 	vfmadd231pd 0x10(%r10,%rbx,1){1to8},%zmm0,%zmm30
  401cdb:	02 
  401cdc:	62 42 fd 58 b8 7c 42 	vfmadd231pd 0x10(%r10,%rax,2){1to8},%zmm0,%zmm31
  401ce3:	02 
  401ce4:	62 f1 fd 48 28 47 10 	vmovapd 0x400(%rdi),%zmm0
  401ceb:	62 e2 f5 58 b8 46 03 	vfmadd231pd 0x18(%rsi){1to8},%zmm1,%zmm16
  401cf2:	62 a2 f5 58 b8 4c 3e 	vfmadd231pd 0x18(%rsi,%r15,1){1to8},%zmm1,%zmm17
  401cf9:	03 
  401cfa:	62 a2 f5 58 b8 54 7e 	vfmadd231pd 0x18(%rsi,%r15,2){1to8},%zmm1,%zmm18
  401d01:	03 
  401d02:	62 e2 f5 58 b8 5c 06 	vfmadd231pd 0x18(%rsi,%rax,1){1to8},%zmm1,%zmm19
  401d09:	03 
  401d0a:	62 a2 f5 58 b8 64 be 	vfmadd231pd 0x18(%rsi,%r15,4){1to8},%zmm1,%zmm20
  401d11:	03 
  401d12:	62 e2 f5 58 b8 6c 1e 	vfmadd231pd 0x18(%rsi,%rbx,1){1to8},%zmm1,%zmm21
  401d19:	03 
  401d1a:	62 e2 f5 58 b8 74 46 	vfmadd231pd 0x18(%rsi,%rax,2){1to8},%zmm1,%zmm22
  401d21:	03 
  401d22:	62 a2 f5 58 b8 7c 1e 	vfmadd231pd 0x18(%rsi,%r11,1){1to8},%zmm1,%zmm23
  401d29:	03 
  401d2a:	62 22 f5 58 b8 44 fe 	vfmadd231pd 0x18(%rsi,%r15,8){1to8},%zmm1,%zmm24
  401d31:	03 
  401d32:	62 42 f5 58 b8 4a 03 	vfmadd231pd 0x18(%r10){1to8},%zmm1,%zmm25
  401d39:	62 02 f5 58 b8 54 3a 	vfmadd231pd 0x18(%r10,%r15,1){1to8},%zmm1,%zmm26
  401d40:	03 
  401d41:	62 02 f5 58 b8 5c 7a 	vfmadd231pd 0x18(%r10,%r15,2){1to8},%zmm1,%zmm27
  401d48:	03 
  401d49:	62 42 f5 58 b8 64 02 	vfmadd231pd 0x18(%r10,%rax,1){1to8},%zmm1,%zmm28
  401d50:	03 
  401d51:	62 02 f5 58 b8 6c ba 	vfmadd231pd 0x18(%r10,%r15,4){1to8},%zmm1,%zmm29
  401d58:	03 
  401d59:	62 42 f5 58 b8 74 1a 	vfmadd231pd 0x18(%r10,%rbx,1){1to8},%zmm1,%zmm30
  401d60:	03 
  401d61:	62 42 f5 58 b8 7c 42 	vfmadd231pd 0x18(%r10,%rax,2){1to8},%zmm1,%zmm31
  401d68:	03 
  401d69:	62 f1 fd 48 28 4f 14 	vmovapd 0x500(%rdi),%zmm1
  401d70:	62 e2 fd 58 b8 46 04 	vfmadd231pd 0x20(%rsi){1to8},%zmm0,%zmm16
  401d77:	62 a2 fd 58 b8 4c 3e 	vfmadd231pd 0x20(%rsi,%r15,1){1to8},%zmm0,%zmm17
  401d7e:	04 
  401d7f:	62 a2 fd 58 b8 54 7e 	vfmadd231pd 0x20(%rsi,%r15,2){1to8},%zmm0,%zmm18
  401d86:	04 
  401d87:	62 e2 fd 58 b8 5c 06 	vfmadd231pd 0x20(%rsi,%rax,1){1to8},%zmm0,%zmm19
  401d8e:	04 
  401d8f:	62 a2 fd 58 b8 64 be 	vfmadd231pd 0x20(%rsi,%r15,4){1to8},%zmm0,%zmm20
  401d96:	04 
  401d97:	62 e2 fd 58 b8 6c 1e 	vfmadd231pd 0x20(%rsi,%rbx,1){1to8},%zmm0,%zmm21
  401d9e:	04 
  401d9f:	62 e2 fd 58 b8 74 46 	vfmadd231pd 0x20(%rsi,%rax,2){1to8},%zmm0,%zmm22
  401da6:	04 
  401da7:	62 a2 fd 58 b8 7c 1e 	vfmadd231pd 0x20(%rsi,%r11,1){1to8},%zmm0,%zmm23
  401dae:	04 
  401daf:	62 22 fd 58 b8 44 fe 	vfmadd231pd 0x20(%rsi,%r15,8){1to8},%zmm0,%zmm24
  401db6:	04 
  401db7:	62 42 fd 58 b8 4a 04 	vfmadd231pd 0x20(%r10){1to8},%zmm0,%zmm25
  401dbe:	62 02 fd 58 b8 54 3a 	vfmadd231pd 0x20(%r10,%r15,1){1to8},%zmm0,%zmm26
  401dc5:	04 
  401dc6:	62 02 fd 58 b8 5c 7a 	vfmadd231pd 0x20(%r10,%r15,2){1to8},%zmm0,%zmm27
  401dcd:	04 
  401dce:	62 42 fd 58 b8 64 02 	vfmadd231pd 0x20(%r10,%rax,1){1to8},%zmm0,%zmm28
  401dd5:	04 
  401dd6:	62 02 fd 58 b8 6c ba 	vfmadd231pd 0x20(%r10,%r15,4){1to8},%zmm0,%zmm29
  401ddd:	04 
  401dde:	62 42 fd 58 b8 74 1a 	vfmadd231pd 0x20(%r10,%rbx,1){1to8},%zmm0,%zmm30
  401de5:	04 
  401de6:	62 42 fd 58 b8 7c 42 	vfmadd231pd 0x20(%r10,%rax,2){1to8},%zmm0,%zmm31
  401ded:	04 
  401dee:	62 f1 fd 48 28 47 18 	vmovapd 0x600(%rdi),%zmm0
  401df5:	62 e2 f5 58 b8 46 05 	vfmadd231pd 0x28(%rsi){1to8},%zmm1,%zmm16
  401dfc:	62 a2 f5 58 b8 4c 3e 	vfmadd231pd 0x28(%rsi,%r15,1){1to8},%zmm1,%zmm17
  401e03:	05 
  401e04:	62 a2 f5 58 b8 54 7e 	vfmadd231pd 0x28(%rsi,%r15,2){1to8},%zmm1,%zmm18
  401e0b:	05 
  401e0c:	62 e2 f5 58 b8 5c 06 	vfmadd231pd 0x28(%rsi,%rax,1){1to8},%zmm1,%zmm19
  401e13:	05 
  401e14:	62 a2 f5 58 b8 64 be 	vfmadd231pd 0x28(%rsi,%r15,4){1to8},%zmm1,%zmm20
  401e1b:	05 
  401e1c:	62 e2 f5 58 b8 6c 1e 	vfmadd231pd 0x28(%rsi,%rbx,1){1to8},%zmm1,%zmm21
  401e23:	05 
  401e24:	62 e2 f5 58 b8 74 46 	vfmadd231pd 0x28(%rsi,%rax,2){1to8},%zmm1,%zmm22
  401e2b:	05 
  401e2c:	62 a2 f5 58 b8 7c 1e 	vfmadd231pd 0x28(%rsi,%r11,1){1to8},%zmm1,%zmm23
  401e33:	05 
  401e34:	62 22 f5 58 b8 44 fe 	vfmadd231pd 0x28(%rsi,%r15,8){1to8},%zmm1,%zmm24
  401e3b:	05 
  401e3c:	62 42 f5 58 b8 4a 05 	vfmadd231pd 0x28(%r10){1to8},%zmm1,%zmm25
  401e43:	62 02 f5 58 b8 54 3a 	vfmadd231pd 0x28(%r10,%r15,1){1to8},%zmm1,%zmm26
  401e4a:	05 
  401e4b:	62 02 f5 58 b8 5c 7a 	vfmadd231pd 0x28(%r10,%r15,2){1to8},%zmm1,%zmm27
  401e52:	05 
  401e53:	62 42 f5 58 b8 64 02 	vfmadd231pd 0x28(%r10,%rax,1){1to8},%zmm1,%zmm28
  401e5a:	05 
  401e5b:	62 02 f5 58 b8 6c ba 	vfmadd231pd 0x28(%r10,%r15,4){1to8},%zmm1,%zmm29
  401e62:	05 
  401e63:	62 42 f5 58 b8 74 1a 	vfmadd231pd 0x28(%r10,%rbx,1){1to8},%zmm1,%zmm30
  401e6a:	05 
  401e6b:	62 42 f5 58 b8 7c 42 	vfmadd231pd 0x28(%r10,%rax,2){1to8},%zmm1,%zmm31
  401e72:	05 
  401e73:	62 f1 fd 48 28 4f 1c 	vmovapd 0x700(%rdi),%zmm1
  401e7a:	62 e2 fd 58 b8 46 06 	vfmadd231pd 0x30(%rsi){1to8},%zmm0,%zmm16
  401e81:	62 a2 fd 58 b8 4c 3e 	vfmadd231pd 0x30(%rsi,%r15,1){1to8},%zmm0,%zmm17
  401e88:	06 
  401e89:	62 a2 fd 58 b8 54 7e 	vfmadd231pd 0x30(%rsi,%r15,2){1to8},%zmm0,%zmm18
  401e90:	06 
  401e91:	62 e2 fd 58 b8 5c 06 	vfmadd231pd 0x30(%rsi,%rax,1){1to8},%zmm0,%zmm19
  401e98:	06 
  401e99:	62 a2 fd 58 b8 64 be 	vfmadd231pd 0x30(%rsi,%r15,4){1to8},%zmm0,%zmm20
  401ea0:	06 
  401ea1:	62 e2 fd 58 b8 6c 1e 	vfmadd231pd 0x30(%rsi,%rbx,1){1to8},%zmm0,%zmm21
  401ea8:	06 
  401ea9:	62 e2 fd 58 b8 74 46 	vfmadd231pd 0x30(%rsi,%rax,2){1to8},%zmm0,%zmm22
  401eb0:	06 
  401eb1:	62 a2 fd 58 b8 7c 1e 	vfmadd231pd 0x30(%rsi,%r11,1){1to8},%zmm0,%zmm23
  401eb8:	06 
  401eb9:	62 22 fd 58 b8 44 fe 	vfmadd231pd 0x30(%rsi,%r15,8){1to8},%zmm0,%zmm24
  401ec0:	06 
  401ec1:	62 42 fd 58 b8 4a 06 	vfmadd231pd 0x30(%r10){1to8},%zmm0,%zmm25
  401ec8:	62 02 fd 58 b8 54 3a 	vfmadd231pd 0x30(%r10,%r15,1){1to8},%zmm0,%zmm26
  401ecf:	06 
  401ed0:	62 02 fd 58 b8 5c 7a 	vfmadd231pd 0x30(%r10,%r15,2){1to8},%zmm0,%zmm27
  401ed7:	06 
  401ed8:	62 42 fd 58 b8 64 02 	vfmadd231pd 0x30(%r10,%rax,1){1to8},%zmm0,%zmm28
  401edf:	06 
  401ee0:	62 02 fd 58 b8 6c ba 	vfmadd231pd 0x30(%r10,%r15,4){1to8},%zmm0,%zmm29
  401ee7:	06 
  401ee8:	62 42 fd 58 b8 74 1a 	vfmadd231pd 0x30(%r10,%rbx,1){1to8},%zmm0,%zmm30
  401eef:	06 
  401ef0:	62 42 fd 58 b8 7c 42 	vfmadd231pd 0x30(%r10,%rax,2){1to8},%zmm0,%zmm31
  401ef7:	06 
  401ef8:	62 f1 fd 48 28 47 20 	vmovapd 0x800(%rdi),%zmm0
  401eff:	62 e2 f5 58 b8 46 07 	vfmadd231pd 0x38(%rsi){1to8},%zmm1,%zmm16
  401f06:	62 a2 f5 58 b8 4c 3e 	vfmadd231pd 0x38(%rsi,%r15,1){1to8},%zmm1,%zmm17
  401f0d:	07 
  401f0e:	62 a2 f5 58 b8 54 7e 	vfmadd231pd 0x38(%rsi,%r15,2){1to8},%zmm1,%zmm18
  401f15:	07 
  401f16:	62 e2 f5 58 b8 5c 06 	vfmadd231pd 0x38(%rsi,%rax,1){1to8},%zmm1,%zmm19
  401f1d:	07 
  401f1e:	62 a2 f5 58 b8 64 be 	vfmadd231pd 0x38(%rsi,%r15,4){1to8},%zmm1,%zmm20
  401f25:	07 
  401f26:	62 e2 f5 58 b8 6c 1e 	vfmadd231pd 0x38(%rsi,%rbx,1){1to8},%zmm1,%zmm21
  401f2d:	07 
  401f2e:	62 e2 f5 58 b8 74 46 	vfmadd231pd 0x38(%rsi,%rax,2){1to8},%zmm1,%zmm22
  401f35:	07 
  401f36:	62 a2 f5 58 b8 7c 1e 	vfmadd231pd 0x38(%rsi,%r11,1){1to8},%zmm1,%zmm23
  401f3d:	07 
  401f3e:	62 22 f5 58 b8 44 fe 	vfmadd231pd 0x38(%rsi,%r15,8){1to8},%zmm1,%zmm24
  401f45:	07 
  401f46:	62 42 f5 58 b8 4a 07 	vfmadd231pd 0x38(%r10){1to8},%zmm1,%zmm25
  401f4d:	62 02 f5 58 b8 54 3a 	vfmadd231pd 0x38(%r10,%r15,1){1to8},%zmm1,%zmm26
  401f54:	07 
  401f55:	62 02 f5 58 b8 5c 7a 	vfmadd231pd 0x38(%r10,%r15,2){1to8},%zmm1,%zmm27
  401f5c:	07 
  401f5d:	62 42 f5 58 b8 64 02 	vfmadd231pd 0x38(%r10,%rax,1){1to8},%zmm1,%zmm28
  401f64:	07 
  401f65:	62 02 f5 58 b8 6c ba 	vfmadd231pd 0x38(%r10,%r15,4){1to8},%zmm1,%zmm29
  401f6c:	07 
  401f6d:	62 42 f5 58 b8 74 1a 	vfmadd231pd 0x38(%r10,%rbx,1){1to8},%zmm1,%zmm30
  401f74:	07 
  401f75:	62 42 f5 58 b8 7c 42 	vfmadd231pd 0x38(%r10,%rax,2){1to8},%zmm1,%zmm31
  401f7c:	07 
  401f7d:	62 f1 fd 48 28 4f 24 	vmovapd 0x900(%rdi),%zmm1
  401f84:	62 e2 fd 58 b8 46 08 	vfmadd231pd 0x40(%rsi){1to8},%zmm0,%zmm16
  401f8b:	62 a2 fd 58 b8 4c 3e 	vfmadd231pd 0x40(%rsi,%r15,1){1to8},%zmm0,%zmm17
  401f92:	08 
  401f93:	62 a2 fd 58 b8 54 7e 	vfmadd231pd 0x40(%rsi,%r15,2){1to8},%zmm0,%zmm18
  401f9a:	08 
  401f9b:	62 e2 fd 58 b8 5c 06 	vfmadd231pd 0x40(%rsi,%rax,1){1to8},%zmm0,%zmm19
  401fa2:	08 
  401fa3:	62 a2 fd 58 b8 64 be 	vfmadd231pd 0x40(%rsi,%r15,4){1to8},%zmm0,%zmm20
  401faa:	08 
  401fab:	62 e2 fd 58 b8 6c 1e 	vfmadd231pd 0x40(%rsi,%rbx,1){1to8},%zmm0,%zmm21
  401fb2:	08 
  401fb3:	62 e2 fd 58 b8 74 46 	vfmadd231pd 0x40(%rsi,%rax,2){1to8},%zmm0,%zmm22
  401fba:	08 
  401fbb:	62 a2 fd 58 b8 7c 1e 	vfmadd231pd 0x40(%rsi,%r11,1){1to8},%zmm0,%zmm23
  401fc2:	08 
  401fc3:	62 22 fd 58 b8 44 fe 	vfmadd231pd 0x40(%rsi,%r15,8){1to8},%zmm0,%zmm24
  401fca:	08 
  401fcb:	62 42 fd 58 b8 4a 08 	vfmadd231pd 0x40(%r10){1to8},%zmm0,%zmm25
  401fd2:	62 02 fd 58 b8 54 3a 	vfmadd231pd 0x40(%r10,%r15,1){1to8},%zmm0,%zmm26
  401fd9:	08 
  401fda:	62 02 fd 58 b8 5c 7a 	vfmadd231pd 0x40(%r10,%r15,2){1to8},%zmm0,%zmm27
  401fe1:	08 
  401fe2:	62 42 fd 58 b8 64 02 	vfmadd231pd 0x40(%r10,%rax,1){1to8},%zmm0,%zmm28
  401fe9:	08 
  401fea:	62 02 fd 58 b8 6c ba 	vfmadd231pd 0x40(%r10,%r15,4){1to8},%zmm0,%zmm29
  401ff1:	08 
  401ff2:	62 42 fd 58 b8 74 1a 	vfmadd231pd 0x40(%r10,%rbx,1){1to8},%zmm0,%zmm30
  401ff9:	08 
  401ffa:	62 42 fd 58 b8 7c 42 	vfmadd231pd 0x40(%r10,%rax,2){1to8},%zmm0,%zmm31
  402001:	08 
  402002:	62 f1 fd 48 28 47 28 	vmovapd 0xa00(%rdi),%zmm0
  402009:	62 e2 f5 58 b8 46 09 	vfmadd231pd 0x48(%rsi){1to8},%zmm1,%zmm16
  402010:	62 a2 f5 58 b8 4c 3e 	vfmadd231pd 0x48(%rsi,%r15,1){1to8},%zmm1,%zmm17
  402017:	09 
  402018:	62 a2 f5 58 b8 54 7e 	vfmadd231pd 0x48(%rsi,%r15,2){1to8},%zmm1,%zmm18
  40201f:	09 
  402020:	62 e2 f5 58 b8 5c 06 	vfmadd231pd 0x48(%rsi,%rax,1){1to8},%zmm1,%zmm19
  402027:	09 
  402028:	62 a2 f5 58 b8 64 be 	vfmadd231pd 0x48(%rsi,%r15,4){1to8},%zmm1,%zmm20
  40202f:	09 
  402030:	62 e2 f5 58 b8 6c 1e 	vfmadd231pd 0x48(%rsi,%rbx,1){1to8},%zmm1,%zmm21
  402037:	09 
  402038:	62 e2 f5 58 b8 74 46 	vfmadd231pd 0x48(%rsi,%rax,2){1to8},%zmm1,%zmm22
  40203f:	09 
  402040:	62 a2 f5 58 b8 7c 1e 	vfmadd231pd 0x48(%rsi,%r11,1){1to8},%zmm1,%zmm23
  402047:	09 
  402048:	62 22 f5 58 b8 44 fe 	vfmadd231pd 0x48(%rsi,%r15,8){1to8},%zmm1,%zmm24
  40204f:	09 
  402050:	62 42 f5 58 b8 4a 09 	vfmadd231pd 0x48(%r10){1to8},%zmm1,%zmm25
  402057:	62 02 f5 58 b8 54 3a 	vfmadd231pd 0x48(%r10,%r15,1){1to8},%zmm1,%zmm26
  40205e:	09 
  40205f:	62 02 f5 58 b8 5c 7a 	vfmadd231pd 0x48(%r10,%r15,2){1to8},%zmm1,%zmm27
  402066:	09 
  402067:	62 42 f5 58 b8 64 02 	vfmadd231pd 0x48(%r10,%rax,1){1to8},%zmm1,%zmm28
  40206e:	09 
  40206f:	62 02 f5 58 b8 6c ba 	vfmadd231pd 0x48(%r10,%r15,4){1to8},%zmm1,%zmm29
  402076:	09 
  402077:	62 42 f5 58 b8 74 1a 	vfmadd231pd 0x48(%r10,%rbx,1){1to8},%zmm1,%zmm30
  40207e:	09 
  40207f:	62 42 f5 58 b8 7c 42 	vfmadd231pd 0x48(%r10,%rax,2){1to8},%zmm1,%zmm31
  402086:	09 
  402087:	62 f1 fd 48 28 4f 2c 	vmovapd 0xb00(%rdi),%zmm1
  40208e:	62 e2 fd 58 b8 46 0a 	vfmadd231pd 0x50(%rsi){1to8},%zmm0,%zmm16
  402095:	62 a2 fd 58 b8 4c 3e 	vfmadd231pd 0x50(%rsi,%r15,1){1to8},%zmm0,%zmm17
  40209c:	0a 
  40209d:	62 a2 fd 58 b8 54 7e 	vfmadd231pd 0x50(%rsi,%r15,2){1to8},%zmm0,%zmm18
  4020a4:	0a 
  4020a5:	62 e2 fd 58 b8 5c 06 	vfmadd231pd 0x50(%rsi,%rax,1){1to8},%zmm0,%zmm19
  4020ac:	0a 
  4020ad:	62 a2 fd 58 b8 64 be 	vfmadd231pd 0x50(%rsi,%r15,4){1to8},%zmm0,%zmm20
  4020b4:	0a 
  4020b5:	62 e2 fd 58 b8 6c 1e 	vfmadd231pd 0x50(%rsi,%rbx,1){1to8},%zmm0,%zmm21
  4020bc:	0a 
  4020bd:	62 e2 fd 58 b8 74 46 	vfmadd231pd 0x50(%rsi,%rax,2){1to8},%zmm0,%zmm22
  4020c4:	0a 
  4020c5:	62 a2 fd 58 b8 7c 1e 	vfmadd231pd 0x50(%rsi,%r11,1){1to8},%zmm0,%zmm23
  4020cc:	0a 
  4020cd:	62 22 fd 58 b8 44 fe 	vfmadd231pd 0x50(%rsi,%r15,8){1to8},%zmm0,%zmm24
  4020d4:	0a 
  4020d5:	62 42 fd 58 b8 4a 0a 	vfmadd231pd 0x50(%r10){1to8},%zmm0,%zmm25
  4020dc:	62 02 fd 58 b8 54 3a 	vfmadd231pd 0x50(%r10,%r15,1){1to8},%zmm0,%zmm26
  4020e3:	0a 
  4020e4:	62 02 fd 58 b8 5c 7a 	vfmadd231pd 0x50(%r10,%r15,2){1to8},%zmm0,%zmm27
  4020eb:	0a 
  4020ec:	62 42 fd 58 b8 64 02 	vfmadd231pd 0x50(%r10,%rax,1){1to8},%zmm0,%zmm28
  4020f3:	0a 
  4020f4:	62 02 fd 58 b8 6c ba 	vfmadd231pd 0x50(%r10,%r15,4){1to8},%zmm0,%zmm29
  4020fb:	0a 
  4020fc:	62 42 fd 58 b8 74 1a 	vfmadd231pd 0x50(%r10,%rbx,1){1to8},%zmm0,%zmm30
  402103:	0a 
  402104:	62 42 fd 58 b8 7c 42 	vfmadd231pd 0x50(%r10,%rax,2){1to8},%zmm0,%zmm31
  40210b:	0a 
  40210c:	62 f1 fd 48 28 47 30 	vmovapd 0xc00(%rdi),%zmm0
  402113:	62 e2 f5 58 b8 46 0b 	vfmadd231pd 0x58(%rsi){1to8},%zmm1,%zmm16
  40211a:	62 a2 f5 58 b8 4c 3e 	vfmadd231pd 0x58(%rsi,%r15,1){1to8},%zmm1,%zmm17
  402121:	0b 
  402122:	62 a2 f5 58 b8 54 7e 	vfmadd231pd 0x58(%rsi,%r15,2){1to8},%zmm1,%zmm18
  402129:	0b 
  40212a:	62 e2 f5 58 b8 5c 06 	vfmadd231pd 0x58(%rsi,%rax,1){1to8},%zmm1,%zmm19
  402131:	0b 
  402132:	62 a2 f5 58 b8 64 be 	vfmadd231pd 0x58(%rsi,%r15,4){1to8},%zmm1,%zmm20
  402139:	0b 
  40213a:	62 e2 f5 58 b8 6c 1e 	vfmadd231pd 0x58(%rsi,%rbx,1){1to8},%zmm1,%zmm21
  402141:	0b 
  402142:	62 e2 f5 58 b8 74 46 	vfmadd231pd 0x58(%rsi,%rax,2){1to8},%zmm1,%zmm22
  402149:	0b 
  40214a:	62 a2 f5 58 b8 7c 1e 	vfmadd231pd 0x58(%rsi,%r11,1){1to8},%zmm1,%zmm23
  402151:	0b 
  402152:	62 22 f5 58 b8 44 fe 	vfmadd231pd 0x58(%rsi,%r15,8){1to8},%zmm1,%zmm24
  402159:	0b 
  40215a:	62 42 f5 58 b8 4a 0b 	vfmadd231pd 0x58(%r10){1to8},%zmm1,%zmm25
  402161:	62 02 f5 58 b8 54 3a 	vfmadd231pd 0x58(%r10,%r15,1){1to8},%zmm1,%zmm26
  402168:	0b 
  402169:	62 02 f5 58 b8 5c 7a 	vfmadd231pd 0x58(%r10,%r15,2){1to8},%zmm1,%zmm27
  402170:	0b 
  402171:	62 42 f5 58 b8 64 02 	vfmadd231pd 0x58(%r10,%rax,1){1to8},%zmm1,%zmm28
  402178:	0b 
  402179:	62 02 f5 58 b8 6c ba 	vfmadd231pd 0x58(%r10,%r15,4){1to8},%zmm1,%zmm29
  402180:	0b 
  402181:	62 42 f5 58 b8 74 1a 	vfmadd231pd 0x58(%r10,%rbx,1){1to8},%zmm1,%zmm30
  402188:	0b 
  402189:	62 42 f5 58 b8 7c 42 	vfmadd231pd 0x58(%r10,%rax,2){1to8},%zmm1,%zmm31
  402190:	0b 
  402191:	62 f1 fd 48 28 4f 34 	vmovapd 0xd00(%rdi),%zmm1
  402198:	62 e2 fd 58 b8 46 0c 	vfmadd231pd 0x60(%rsi){1to8},%zmm0,%zmm16
  40219f:	62 a2 fd 58 b8 4c 3e 	vfmadd231pd 0x60(%rsi,%r15,1){1to8},%zmm0,%zmm17
  4021a6:	0c 
  4021a7:	62 a2 fd 58 b8 54 7e 	vfmadd231pd 0x60(%rsi,%r15,2){1to8},%zmm0,%zmm18
  4021ae:	0c 
  4021af:	62 e2 fd 58 b8 5c 06 	vfmadd231pd 0x60(%rsi,%rax,1){1to8},%zmm0,%zmm19
  4021b6:	0c 
  4021b7:	62 a2 fd 58 b8 64 be 	vfmadd231pd 0x60(%rsi,%r15,4){1to8},%zmm0,%zmm20
  4021be:	0c 
  4021bf:	62 e2 fd 58 b8 6c 1e 	vfmadd231pd 0x60(%rsi,%rbx,1){1to8},%zmm0,%zmm21
  4021c6:	0c 
  4021c7:	62 e2 fd 58 b8 74 46 	vfmadd231pd 0x60(%rsi,%rax,2){1to8},%zmm0,%zmm22
  4021ce:	0c 
  4021cf:	62 a2 fd 58 b8 7c 1e 	vfmadd231pd 0x60(%rsi,%r11,1){1to8},%zmm0,%zmm23
  4021d6:	0c 
  4021d7:	62 22 fd 58 b8 44 fe 	vfmadd231pd 0x60(%rsi,%r15,8){1to8},%zmm0,%zmm24
  4021de:	0c 
  4021df:	62 42 fd 58 b8 4a 0c 	vfmadd231pd 0x60(%r10){1to8},%zmm0,%zmm25
  4021e6:	62 02 fd 58 b8 54 3a 	vfmadd231pd 0x60(%r10,%r15,1){1to8},%zmm0,%zmm26
  4021ed:	0c 
  4021ee:	62 02 fd 58 b8 5c 7a 	vfmadd231pd 0x60(%r10,%r15,2){1to8},%zmm0,%zmm27
  4021f5:	0c 
  4021f6:	62 42 fd 58 b8 64 02 	vfmadd231pd 0x60(%r10,%rax,1){1to8},%zmm0,%zmm28
  4021fd:	0c 
  4021fe:	62 02 fd 58 b8 6c ba 	vfmadd231pd 0x60(%r10,%r15,4){1to8},%zmm0,%zmm29
  402205:	0c 
  402206:	62 42 fd 58 b8 74 1a 	vfmadd231pd 0x60(%r10,%rbx,1){1to8},%zmm0,%zmm30
  40220d:	0c 
  40220e:	62 42 fd 58 b8 7c 42 	vfmadd231pd 0x60(%r10,%rax,2){1to8},%zmm0,%zmm31
  402215:	0c 
  402216:	62 f1 fd 48 28 47 38 	vmovapd 0xe00(%rdi),%zmm0
  40221d:	62 e2 f5 58 b8 46 0d 	vfmadd231pd 0x68(%rsi){1to8},%zmm1,%zmm16
  402224:	62 a2 f5 58 b8 4c 3e 	vfmadd231pd 0x68(%rsi,%r15,1){1to8},%zmm1,%zmm17
  40222b:	0d 
  40222c:	62 a2 f5 58 b8 54 7e 	vfmadd231pd 0x68(%rsi,%r15,2){1to8},%zmm1,%zmm18
  402233:	0d 
  402234:	62 e2 f5 58 b8 5c 06 	vfmadd231pd 0x68(%rsi,%rax,1){1to8},%zmm1,%zmm19
  40223b:	0d 
  40223c:	62 a2 f5 58 b8 64 be 	vfmadd231pd 0x68(%rsi,%r15,4){1to8},%zmm1,%zmm20
  402243:	0d 
  402244:	62 e2 f5 58 b8 6c 1e 	vfmadd231pd 0x68(%rsi,%rbx,1){1to8},%zmm1,%zmm21
  40224b:	0d 
  40224c:	62 e2 f5 58 b8 74 46 	vfmadd231pd 0x68(%rsi,%rax,2){1to8},%zmm1,%zmm22
  402253:	0d 
  402254:	62 a2 f5 58 b8 7c 1e 	vfmadd231pd 0x68(%rsi,%r11,1){1to8},%zmm1,%zmm23
  40225b:	0d 
  40225c:	62 22 f5 58 b8 44 fe 	vfmadd231pd 0x68(%rsi,%r15,8){1to8},%zmm1,%zmm24
  402263:	0d 
  402264:	62 42 f5 58 b8 4a 0d 	vfmadd231pd 0x68(%r10){1to8},%zmm1,%zmm25
  40226b:	62 02 f5 58 b8 54 3a 	vfmadd231pd 0x68(%r10,%r15,1){1to8},%zmm1,%zmm26
  402272:	0d 
  402273:	62 02 f5 58 b8 5c 7a 	vfmadd231pd 0x68(%r10,%r15,2){1to8},%zmm1,%zmm27
  40227a:	0d 
  40227b:	62 42 f5 58 b8 64 02 	vfmadd231pd 0x68(%r10,%rax,1){1to8},%zmm1,%zmm28
  402282:	0d 
  402283:	62 02 f5 58 b8 6c ba 	vfmadd231pd 0x68(%r10,%r15,4){1to8},%zmm1,%zmm29
  40228a:	0d 
  40228b:	62 42 f5 58 b8 74 1a 	vfmadd231pd 0x68(%r10,%rbx,1){1to8},%zmm1,%zmm30
  402292:	0d 
  402293:	62 42 f5 58 b8 7c 42 	vfmadd231pd 0x68(%r10,%rax,2){1to8},%zmm1,%zmm31
  40229a:	0d 
  40229b:	62 f1 fd 48 28 4f 3c 	vmovapd 0xf00(%rdi),%zmm1
  4022a2:	62 e2 fd 58 b8 46 0e 	vfmadd231pd 0x70(%rsi){1to8},%zmm0,%zmm16
  4022a9:	62 a2 fd 58 b8 4c 3e 	vfmadd231pd 0x70(%rsi,%r15,1){1to8},%zmm0,%zmm17
  4022b0:	0e 
  4022b1:	62 a2 fd 58 b8 54 7e 	vfmadd231pd 0x70(%rsi,%r15,2){1to8},%zmm0,%zmm18
  4022b8:	0e 
  4022b9:	62 e2 fd 58 b8 5c 06 	vfmadd231pd 0x70(%rsi,%rax,1){1to8},%zmm0,%zmm19
  4022c0:	0e 
  4022c1:	62 a2 fd 58 b8 64 be 	vfmadd231pd 0x70(%rsi,%r15,4){1to8},%zmm0,%zmm20
  4022c8:	0e 
  4022c9:	62 e2 fd 58 b8 6c 1e 	vfmadd231pd 0x70(%rsi,%rbx,1){1to8},%zmm0,%zmm21
  4022d0:	0e 
  4022d1:	62 e2 fd 58 b8 74 46 	vfmadd231pd 0x70(%rsi,%rax,2){1to8},%zmm0,%zmm22
  4022d8:	0e 
  4022d9:	62 a2 fd 58 b8 7c 1e 	vfmadd231pd 0x70(%rsi,%r11,1){1to8},%zmm0,%zmm23
  4022e0:	0e 
  4022e1:	62 22 fd 58 b8 44 fe 	vfmadd231pd 0x70(%rsi,%r15,8){1to8},%zmm0,%zmm24
  4022e8:	0e 
  4022e9:	62 42 fd 58 b8 4a 0e 	vfmadd231pd 0x70(%r10){1to8},%zmm0,%zmm25
  4022f0:	62 02 fd 58 b8 54 3a 	vfmadd231pd 0x70(%r10,%r15,1){1to8},%zmm0,%zmm26
  4022f7:	0e 
  4022f8:	62 02 fd 58 b8 5c 7a 	vfmadd231pd 0x70(%r10,%r15,2){1to8},%zmm0,%zmm27
  4022ff:	0e 
  402300:	62 42 fd 58 b8 64 02 	vfmadd231pd 0x70(%r10,%rax,1){1to8},%zmm0,%zmm28
  402307:	0e 
  402308:	62 02 fd 58 b8 6c ba 	vfmadd231pd 0x70(%r10,%r15,4){1to8},%zmm0,%zmm29
  40230f:	0e 
  402310:	62 42 fd 58 b8 74 1a 	vfmadd231pd 0x70(%r10,%rbx,1){1to8},%zmm0,%zmm30
  402317:	0e 
  402318:	62 42 fd 58 b8 7c 42 	vfmadd231pd 0x70(%r10,%rax,2){1to8},%zmm0,%zmm31
  40231f:	0e 
  402320:	62 f1 fd 48 28 47 40 	vmovapd 0x1000(%rdi),%zmm0
  402327:	62 e2 f5 58 b8 46 0f 	vfmadd231pd 0x78(%rsi){1to8},%zmm1,%zmm16
  40232e:	62 a2 f5 58 b8 4c 3e 	vfmadd231pd 0x78(%rsi,%r15,1){1to8},%zmm1,%zmm17
  402335:	0f 
  402336:	62 a2 f5 58 b8 54 7e 	vfmadd231pd 0x78(%rsi,%r15,2){1to8},%zmm1,%zmm18
  40233d:	0f 
  40233e:	62 e2 f5 58 b8 5c 06 	vfmadd231pd 0x78(%rsi,%rax,1){1to8},%zmm1,%zmm19
  402345:	0f 
  402346:	62 a2 f5 58 b8 64 be 	vfmadd231pd 0x78(%rsi,%r15,4){1to8},%zmm1,%zmm20
  40234d:	0f 
  40234e:	62 e2 f5 58 b8 6c 1e 	vfmadd231pd 0x78(%rsi,%rbx,1){1to8},%zmm1,%zmm21
  402355:	0f 
  402356:	62 e2 f5 58 b8 74 46 	vfmadd231pd 0x78(%rsi,%rax,2){1to8},%zmm1,%zmm22
  40235d:	0f 
  40235e:	62 a2 f5 58 b8 7c 1e 	vfmadd231pd 0x78(%rsi,%r11,1){1to8},%zmm1,%zmm23
  402365:	0f 
  402366:	62 22 f5 58 b8 44 fe 	vfmadd231pd 0x78(%rsi,%r15,8){1to8},%zmm1,%zmm24
  40236d:	0f 
  40236e:	62 42 f5 58 b8 4a 0f 	vfmadd231pd 0x78(%r10){1to8},%zmm1,%zmm25
  402375:	62 02 f5 58 b8 54 3a 	vfmadd231pd 0x78(%r10,%r15,1){1to8},%zmm1,%zmm26
  40237c:	0f 
  40237d:	62 02 f5 58 b8 5c 7a 	vfmadd231pd 0x78(%r10,%r15,2){1to8},%zmm1,%zmm27
  402384:	0f 
  402385:	62 42 f5 58 b8 64 02 	vfmadd231pd 0x78(%r10,%rax,1){1to8},%zmm1,%zmm28
  40238c:	0f 
  40238d:	62 02 f5 58 b8 6c ba 	vfmadd231pd 0x78(%r10,%r15,4){1to8},%zmm1,%zmm29
  402394:	0f 
  402395:	62 42 f5 58 b8 74 1a 	vfmadd231pd 0x78(%r10,%rbx,1){1to8},%zmm1,%zmm30
  40239c:	0f 
  40239d:	62 42 f5 58 b8 7c 42 	vfmadd231pd 0x78(%r10,%rax,2){1to8},%zmm1,%zmm31
  4023a4:	0f 
  4023a5:	62 f1 fd 48 28 4f 44 	vmovapd 0x1100(%rdi),%zmm1
  4023ac:	62 e2 fd 58 b8 46 10 	vfmadd231pd 0x80(%rsi){1to8},%zmm0,%zmm16
  4023b3:	62 a2 fd 58 b8 4c 3e 	vfmadd231pd 0x80(%rsi,%r15,1){1to8},%zmm0,%zmm17
  4023ba:	10 
  4023bb:	62 a2 fd 58 b8 54 7e 	vfmadd231pd 0x80(%rsi,%r15,2){1to8},%zmm0,%zmm18
  4023c2:	10 
  4023c3:	62 e2 fd 58 b8 5c 06 	vfmadd231pd 0x80(%rsi,%rax,1){1to8},%zmm0,%zmm19
  4023ca:	10 
  4023cb:	62 a2 fd 58 b8 64 be 	vfmadd231pd 0x80(%rsi,%r15,4){1to8},%zmm0,%zmm20
  4023d2:	10 
  4023d3:	62 e2 fd 58 b8 6c 1e 	vfmadd231pd 0x80(%rsi,%rbx,1){1to8},%zmm0,%zmm21
  4023da:	10 
  4023db:	62 e2 fd 58 b8 74 46 	vfmadd231pd 0x80(%rsi,%rax,2){1to8},%zmm0,%zmm22
  4023e2:	10 
  4023e3:	62 a2 fd 58 b8 7c 1e 	vfmadd231pd 0x80(%rsi,%r11,1){1to8},%zmm0,%zmm23
  4023ea:	10 
  4023eb:	62 22 fd 58 b8 44 fe 	vfmadd231pd 0x80(%rsi,%r15,8){1to8},%zmm0,%zmm24
  4023f2:	10 
  4023f3:	62 42 fd 58 b8 4a 10 	vfmadd231pd 0x80(%r10){1to8},%zmm0,%zmm25
  4023fa:	62 02 fd 58 b8 54 3a 	vfmadd231pd 0x80(%r10,%r15,1){1to8},%zmm0,%zmm26
  402401:	10 
  402402:	62 02 fd 58 b8 5c 7a 	vfmadd231pd 0x80(%r10,%r15,2){1to8},%zmm0,%zmm27
  402409:	10 
  40240a:	62 42 fd 58 b8 64 02 	vfmadd231pd 0x80(%r10,%rax,1){1to8},%zmm0,%zmm28
  402411:	10 
  402412:	62 02 fd 58 b8 6c ba 	vfmadd231pd 0x80(%r10,%r15,4){1to8},%zmm0,%zmm29
  402419:	10 
  40241a:	62 42 fd 58 b8 74 1a 	vfmadd231pd 0x80(%r10,%rbx,1){1to8},%zmm0,%zmm30
  402421:	10 
  402422:	62 42 fd 58 b8 7c 42 	vfmadd231pd 0x80(%r10,%rax,2){1to8},%zmm0,%zmm31
  402429:	10 
  40242a:	62 f1 fd 48 28 47 48 	vmovapd 0x1200(%rdi),%zmm0
  402431:	62 e2 f5 58 b8 46 11 	vfmadd231pd 0x88(%rsi){1to8},%zmm1,%zmm16
  402438:	62 a2 f5 58 b8 4c 3e 	vfmadd231pd 0x88(%rsi,%r15,1){1to8},%zmm1,%zmm17
  40243f:	11 
  402440:	62 a2 f5 58 b8 54 7e 	vfmadd231pd 0x88(%rsi,%r15,2){1to8},%zmm1,%zmm18
  402447:	11 
  402448:	62 e2 f5 58 b8 5c 06 	vfmadd231pd 0x88(%rsi,%rax,1){1to8},%zmm1,%zmm19
  40244f:	11 
  402450:	62 a2 f5 58 b8 64 be 	vfmadd231pd 0x88(%rsi,%r15,4){1to8},%zmm1,%zmm20
  402457:	11 
  402458:	62 e2 f5 58 b8 6c 1e 	vfmadd231pd 0x88(%rsi,%rbx,1){1to8},%zmm1,%zmm21
  40245f:	11 
  402460:	62 e2 f5 58 b8 74 46 	vfmadd231pd 0x88(%rsi,%rax,2){1to8},%zmm1,%zmm22
  402467:	11 
  402468:	62 a2 f5 58 b8 7c 1e 	vfmadd231pd 0x88(%rsi,%r11,1){1to8},%zmm1,%zmm23
  40246f:	11 
  402470:	62 22 f5 58 b8 44 fe 	vfmadd231pd 0x88(%rsi,%r15,8){1to8},%zmm1,%zmm24
  402477:	11 
  402478:	62 42 f5 58 b8 4a 11 	vfmadd231pd 0x88(%r10){1to8},%zmm1,%zmm25
  40247f:	62 02 f5 58 b8 54 3a 	vfmadd231pd 0x88(%r10,%r15,1){1to8},%zmm1,%zmm26
  402486:	11 
  402487:	62 02 f5 58 b8 5c 7a 	vfmadd231pd 0x88(%r10,%r15,2){1to8},%zmm1,%zmm27
  40248e:	11 
  40248f:	62 42 f5 58 b8 64 02 	vfmadd231pd 0x88(%r10,%rax,1){1to8},%zmm1,%zmm28
  402496:	11 
  402497:	62 02 f5 58 b8 6c ba 	vfmadd231pd 0x88(%r10,%r15,4){1to8},%zmm1,%zmm29
  40249e:	11 
  40249f:	62 42 f5 58 b8 74 1a 	vfmadd231pd 0x88(%r10,%rbx,1){1to8},%zmm1,%zmm30
  4024a6:	11 
  4024a7:	62 42 f5 58 b8 7c 42 	vfmadd231pd 0x88(%r10,%rax,2){1to8},%zmm1,%zmm31
  4024ae:	11 
  4024af:	62 f1 fd 48 28 4f 4c 	vmovapd 0x1300(%rdi),%zmm1
  4024b6:	62 e2 fd 58 b8 46 12 	vfmadd231pd 0x90(%rsi){1to8},%zmm0,%zmm16
  4024bd:	62 a2 fd 58 b8 4c 3e 	vfmadd231pd 0x90(%rsi,%r15,1){1to8},%zmm0,%zmm17
  4024c4:	12 
  4024c5:	62 a2 fd 58 b8 54 7e 	vfmadd231pd 0x90(%rsi,%r15,2){1to8},%zmm0,%zmm18
  4024cc:	12 
  4024cd:	62 e2 fd 58 b8 5c 06 	vfmadd231pd 0x90(%rsi,%rax,1){1to8},%zmm0,%zmm19
  4024d4:	12 
  4024d5:	62 a2 fd 58 b8 64 be 	vfmadd231pd 0x90(%rsi,%r15,4){1to8},%zmm0,%zmm20
  4024dc:	12 
  4024dd:	62 e2 fd 58 b8 6c 1e 	vfmadd231pd 0x90(%rsi,%rbx,1){1to8},%zmm0,%zmm21
  4024e4:	12 
  4024e5:	62 e2 fd 58 b8 74 46 	vfmadd231pd 0x90(%rsi,%rax,2){1to8},%zmm0,%zmm22
  4024ec:	12 
  4024ed:	62 a2 fd 58 b8 7c 1e 	vfmadd231pd 0x90(%rsi,%r11,1){1to8},%zmm0,%zmm23
  4024f4:	12 
  4024f5:	62 22 fd 58 b8 44 fe 	vfmadd231pd 0x90(%rsi,%r15,8){1to8},%zmm0,%zmm24
  4024fc:	12 
  4024fd:	62 42 fd 58 b8 4a 12 	vfmadd231pd 0x90(%r10){1to8},%zmm0,%zmm25
  402504:	62 02 fd 58 b8 54 3a 	vfmadd231pd 0x90(%r10,%r15,1){1to8},%zmm0,%zmm26
  40250b:	12 
  40250c:	62 02 fd 58 b8 5c 7a 	vfmadd231pd 0x90(%r10,%r15,2){1to8},%zmm0,%zmm27
  402513:	12 
  402514:	62 42 fd 58 b8 64 02 	vfmadd231pd 0x90(%r10,%rax,1){1to8},%zmm0,%zmm28
  40251b:	12 
  40251c:	62 02 fd 58 b8 6c ba 	vfmadd231pd 0x90(%r10,%r15,4){1to8},%zmm0,%zmm29
  402523:	12 
  402524:	62 42 fd 58 b8 74 1a 	vfmadd231pd 0x90(%r10,%rbx,1){1to8},%zmm0,%zmm30
  40252b:	12 
  40252c:	62 42 fd 58 b8 7c 42 	vfmadd231pd 0x90(%r10,%rax,2){1to8},%zmm0,%zmm31
  402533:	12 
  402534:	62 f1 fd 48 28 47 50 	vmovapd 0x1400(%rdi),%zmm0
  40253b:	62 e2 f5 58 b8 46 13 	vfmadd231pd 0x98(%rsi){1to8},%zmm1,%zmm16
  402542:	62 a2 f5 58 b8 4c 3e 	vfmadd231pd 0x98(%rsi,%r15,1){1to8},%zmm1,%zmm17
  402549:	13 
  40254a:	62 a2 f5 58 b8 54 7e 	vfmadd231pd 0x98(%rsi,%r15,2){1to8},%zmm1,%zmm18
  402551:	13 
  402552:	62 e2 f5 58 b8 5c 06 	vfmadd231pd 0x98(%rsi,%rax,1){1to8},%zmm1,%zmm19
  402559:	13 
  40255a:	62 a2 f5 58 b8 64 be 	vfmadd231pd 0x98(%rsi,%r15,4){1to8},%zmm1,%zmm20
  402561:	13 
  402562:	62 e2 f5 58 b8 6c 1e 	vfmadd231pd 0x98(%rsi,%rbx,1){1to8},%zmm1,%zmm21
  402569:	13 
  40256a:	62 e2 f5 58 b8 74 46 	vfmadd231pd 0x98(%rsi,%rax,2){1to8},%zmm1,%zmm22
  402571:	13 
  402572:	62 a2 f5 58 b8 7c 1e 	vfmadd231pd 0x98(%rsi,%r11,1){1to8},%zmm1,%zmm23
  402579:	13 
  40257a:	62 22 f5 58 b8 44 fe 	vfmadd231pd 0x98(%rsi,%r15,8){1to8},%zmm1,%zmm24
  402581:	13 
  402582:	62 42 f5 58 b8 4a 13 	vfmadd231pd 0x98(%r10){1to8},%zmm1,%zmm25
  402589:	62 02 f5 58 b8 54 3a 	vfmadd231pd 0x98(%r10,%r15,1){1to8},%zmm1,%zmm26
  402590:	13 
  402591:	62 02 f5 58 b8 5c 7a 	vfmadd231pd 0x98(%r10,%r15,2){1to8},%zmm1,%zmm27
  402598:	13 
  402599:	62 42 f5 58 b8 64 02 	vfmadd231pd 0x98(%r10,%rax,1){1to8},%zmm1,%zmm28
  4025a0:	13 
  4025a1:	62 02 f5 58 b8 6c ba 	vfmadd231pd 0x98(%r10,%r15,4){1to8},%zmm1,%zmm29
  4025a8:	13 
  4025a9:	62 42 f5 58 b8 74 1a 	vfmadd231pd 0x98(%r10,%rbx,1){1to8},%zmm1,%zmm30
  4025b0:	13 
  4025b1:	62 42 f5 58 b8 7c 42 	vfmadd231pd 0x98(%r10,%rax,2){1to8},%zmm1,%zmm31
  4025b8:	13 
  4025b9:	62 f1 fd 48 28 4f 54 	vmovapd 0x1500(%rdi),%zmm1
  4025c0:	62 e2 fd 58 b8 46 14 	vfmadd231pd 0xa0(%rsi){1to8},%zmm0,%zmm16
  4025c7:	62 a2 fd 58 b8 4c 3e 	vfmadd231pd 0xa0(%rsi,%r15,1){1to8},%zmm0,%zmm17
  4025ce:	14 
  4025cf:	62 a2 fd 58 b8 54 7e 	vfmadd231pd 0xa0(%rsi,%r15,2){1to8},%zmm0,%zmm18
  4025d6:	14 
  4025d7:	62 e2 fd 58 b8 5c 06 	vfmadd231pd 0xa0(%rsi,%rax,1){1to8},%zmm0,%zmm19
  4025de:	14 
  4025df:	62 a2 fd 58 b8 64 be 	vfmadd231pd 0xa0(%rsi,%r15,4){1to8},%zmm0,%zmm20
  4025e6:	14 
  4025e7:	62 e2 fd 58 b8 6c 1e 	vfmadd231pd 0xa0(%rsi,%rbx,1){1to8},%zmm0,%zmm21
  4025ee:	14 
  4025ef:	62 e2 fd 58 b8 74 46 	vfmadd231pd 0xa0(%rsi,%rax,2){1to8},%zmm0,%zmm22
  4025f6:	14 
  4025f7:	62 a2 fd 58 b8 7c 1e 	vfmadd231pd 0xa0(%rsi,%r11,1){1to8},%zmm0,%zmm23
  4025fe:	14 
  4025ff:	62 22 fd 58 b8 44 fe 	vfmadd231pd 0xa0(%rsi,%r15,8){1to8},%zmm0,%zmm24
  402606:	14 
  402607:	62 42 fd 58 b8 4a 14 	vfmadd231pd 0xa0(%r10){1to8},%zmm0,%zmm25
  40260e:	62 02 fd 58 b8 54 3a 	vfmadd231pd 0xa0(%r10,%r15,1){1to8},%zmm0,%zmm26
  402615:	14 
  402616:	62 02 fd 58 b8 5c 7a 	vfmadd231pd 0xa0(%r10,%r15,2){1to8},%zmm0,%zmm27
  40261d:	14 
  40261e:	62 42 fd 58 b8 64 02 	vfmadd231pd 0xa0(%r10,%rax,1){1to8},%zmm0,%zmm28
  402625:	14 
  402626:	62 02 fd 58 b8 6c ba 	vfmadd231pd 0xa0(%r10,%r15,4){1to8},%zmm0,%zmm29
  40262d:	14 
  40262e:	62 42 fd 58 b8 74 1a 	vfmadd231pd 0xa0(%r10,%rbx,1){1to8},%zmm0,%zmm30
  402635:	14 
  402636:	62 42 fd 58 b8 7c 42 	vfmadd231pd 0xa0(%r10,%rax,2){1to8},%zmm0,%zmm31
  40263d:	14 
  40263e:	62 f1 fd 48 28 47 58 	vmovapd 0x1600(%rdi),%zmm0
  402645:	62 e2 f5 58 b8 46 15 	vfmadd231pd 0xa8(%rsi){1to8},%zmm1,%zmm16
  40264c:	62 a2 f5 58 b8 4c 3e 	vfmadd231pd 0xa8(%rsi,%r15,1){1to8},%zmm1,%zmm17
  402653:	15 
  402654:	62 a2 f5 58 b8 54 7e 	vfmadd231pd 0xa8(%rsi,%r15,2){1to8},%zmm1,%zmm18
  40265b:	15 
  40265c:	62 e2 f5 58 b8 5c 06 	vfmadd231pd 0xa8(%rsi,%rax,1){1to8},%zmm1,%zmm19
  402663:	15 
  402664:	62 a2 f5 58 b8 64 be 	vfmadd231pd 0xa8(%rsi,%r15,4){1to8},%zmm1,%zmm20
  40266b:	15 
  40266c:	62 e2 f5 58 b8 6c 1e 	vfmadd231pd 0xa8(%rsi,%rbx,1){1to8},%zmm1,%zmm21
  402673:	15 
  402674:	62 e2 f5 58 b8 74 46 	vfmadd231pd 0xa8(%rsi,%rax,2){1to8},%zmm1,%zmm22
  40267b:	15 
  40267c:	62 a2 f5 58 b8 7c 1e 	vfmadd231pd 0xa8(%rsi,%r11,1){1to8},%zmm1,%zmm23
  402683:	15 
  402684:	62 22 f5 58 b8 44 fe 	vfmadd231pd 0xa8(%rsi,%r15,8){1to8},%zmm1,%zmm24
  40268b:	15 
  40268c:	62 42 f5 58 b8 4a 15 	vfmadd231pd 0xa8(%r10){1to8},%zmm1,%zmm25
  402693:	62 02 f5 58 b8 54 3a 	vfmadd231pd 0xa8(%r10,%r15,1){1to8},%zmm1,%zmm26
  40269a:	15 
  40269b:	62 02 f5 58 b8 5c 7a 	vfmadd231pd 0xa8(%r10,%r15,2){1to8},%zmm1,%zmm27
  4026a2:	15 
  4026a3:	62 42 f5 58 b8 64 02 	vfmadd231pd 0xa8(%r10,%rax,1){1to8},%zmm1,%zmm28
  4026aa:	15 
  4026ab:	62 02 f5 58 b8 6c ba 	vfmadd231pd 0xa8(%r10,%r15,4){1to8},%zmm1,%zmm29
  4026b2:	15 
  4026b3:	62 42 f5 58 b8 74 1a 	vfmadd231pd 0xa8(%r10,%rbx,1){1to8},%zmm1,%zmm30
  4026ba:	15 
  4026bb:	62 42 f5 58 b8 7c 42 	vfmadd231pd 0xa8(%r10,%rax,2){1to8},%zmm1,%zmm31
  4026c2:	15 
  4026c3:	62 f1 fd 48 28 4f 5c 	vmovapd 0x1700(%rdi),%zmm1
  4026ca:	62 e2 fd 58 b8 46 16 	vfmadd231pd 0xb0(%rsi){1to8},%zmm0,%zmm16
  4026d1:	62 a2 fd 58 b8 4c 3e 	vfmadd231pd 0xb0(%rsi,%r15,1){1to8},%zmm0,%zmm17
  4026d8:	16 
  4026d9:	62 a2 fd 58 b8 54 7e 	vfmadd231pd 0xb0(%rsi,%r15,2){1to8},%zmm0,%zmm18
  4026e0:	16 
  4026e1:	62 e2 fd 58 b8 5c 06 	vfmadd231pd 0xb0(%rsi,%rax,1){1to8},%zmm0,%zmm19
  4026e8:	16 
  4026e9:	62 a2 fd 58 b8 64 be 	vfmadd231pd 0xb0(%rsi,%r15,4){1to8},%zmm0,%zmm20
  4026f0:	16 
  4026f1:	62 e2 fd 58 b8 6c 1e 	vfmadd231pd 0xb0(%rsi,%rbx,1){1to8},%zmm0,%zmm21
  4026f8:	16 
  4026f9:	62 e2 fd 58 b8 74 46 	vfmadd231pd 0xb0(%rsi,%rax,2){1to8},%zmm0,%zmm22
  402700:	16 
  402701:	62 a2 fd 58 b8 7c 1e 	vfmadd231pd 0xb0(%rsi,%r11,1){1to8},%zmm0,%zmm23
  402708:	16 
  402709:	62 22 fd 58 b8 44 fe 	vfmadd231pd 0xb0(%rsi,%r15,8){1to8},%zmm0,%zmm24
  402710:	16 
  402711:	62 42 fd 58 b8 4a 16 	vfmadd231pd 0xb0(%r10){1to8},%zmm0,%zmm25
  402718:	62 02 fd 58 b8 54 3a 	vfmadd231pd 0xb0(%r10,%r15,1){1to8},%zmm0,%zmm26
  40271f:	16 
  402720:	62 02 fd 58 b8 5c 7a 	vfmadd231pd 0xb0(%r10,%r15,2){1to8},%zmm0,%zmm27
  402727:	16 
  402728:	62 42 fd 58 b8 64 02 	vfmadd231pd 0xb0(%r10,%rax,1){1to8},%zmm0,%zmm28
  40272f:	16 
  402730:	62 02 fd 58 b8 6c ba 	vfmadd231pd 0xb0(%r10,%r15,4){1to8},%zmm0,%zmm29
  402737:	16 
  402738:	62 42 fd 58 b8 74 1a 	vfmadd231pd 0xb0(%r10,%rbx,1){1to8},%zmm0,%zmm30
  40273f:	16 
  402740:	62 42 fd 58 b8 7c 42 	vfmadd231pd 0xb0(%r10,%rax,2){1to8},%zmm0,%zmm31
  402747:	16 
  402748:	62 f1 fd 48 28 47 60 	vmovapd 0x1800(%rdi),%zmm0
  40274f:	62 e2 f5 58 b8 46 17 	vfmadd231pd 0xb8(%rsi){1to8},%zmm1,%zmm16
  402756:	62 a2 f5 58 b8 4c 3e 	vfmadd231pd 0xb8(%rsi,%r15,1){1to8},%zmm1,%zmm17
  40275d:	17 
  40275e:	62 a2 f5 58 b8 54 7e 	vfmadd231pd 0xb8(%rsi,%r15,2){1to8},%zmm1,%zmm18
  402765:	17 
  402766:	62 e2 f5 58 b8 5c 06 	vfmadd231pd 0xb8(%rsi,%rax,1){1to8},%zmm1,%zmm19
  40276d:	17 
  40276e:	62 a2 f5 58 b8 64 be 	vfmadd231pd 0xb8(%rsi,%r15,4){1to8},%zmm1,%zmm20
  402775:	17 
  402776:	62 e2 f5 58 b8 6c 1e 	vfmadd231pd 0xb8(%rsi,%rbx,1){1to8},%zmm1,%zmm21
  40277d:	17 
  40277e:	62 e2 f5 58 b8 74 46 	vfmadd231pd 0xb8(%rsi,%rax,2){1to8},%zmm1,%zmm22
  402785:	17 
  402786:	62 a2 f5 58 b8 7c 1e 	vfmadd231pd 0xb8(%rsi,%r11,1){1to8},%zmm1,%zmm23
  40278d:	17 
  40278e:	62 22 f5 58 b8 44 fe 	vfmadd231pd 0xb8(%rsi,%r15,8){1to8},%zmm1,%zmm24
  402795:	17 
  402796:	62 42 f5 58 b8 4a 17 	vfmadd231pd 0xb8(%r10){1to8},%zmm1,%zmm25
  40279d:	62 02 f5 58 b8 54 3a 	vfmadd231pd 0xb8(%r10,%r15,1){1to8},%zmm1,%zmm26
  4027a4:	17 
  4027a5:	62 02 f5 58 b8 5c 7a 	vfmadd231pd 0xb8(%r10,%r15,2){1to8},%zmm1,%zmm27
  4027ac:	17 
  4027ad:	62 42 f5 58 b8 64 02 	vfmadd231pd 0xb8(%r10,%rax,1){1to8},%zmm1,%zmm28
  4027b4:	17 
  4027b5:	62 02 f5 58 b8 6c ba 	vfmadd231pd 0xb8(%r10,%r15,4){1to8},%zmm1,%zmm29
  4027bc:	17 
  4027bd:	62 42 f5 58 b8 74 1a 	vfmadd231pd 0xb8(%r10,%rbx,1){1to8},%zmm1,%zmm30
  4027c4:	17 
  4027c5:	62 42 f5 58 b8 7c 42 	vfmadd231pd 0xb8(%r10,%rax,2){1to8},%zmm1,%zmm31
  4027cc:	17 
  4027cd:	62 f1 fd 48 28 4f 64 	vmovapd 0x1900(%rdi),%zmm1
  4027d4:	62 e2 fd 58 b8 46 18 	vfmadd231pd 0xc0(%rsi){1to8},%zmm0,%zmm16
  4027db:	62 a2 fd 58 b8 4c 3e 	vfmadd231pd 0xc0(%rsi,%r15,1){1to8},%zmm0,%zmm17
  4027e2:	18 
  4027e3:	62 a2 fd 58 b8 54 7e 	vfmadd231pd 0xc0(%rsi,%r15,2){1to8},%zmm0,%zmm18
  4027ea:	18 
  4027eb:	62 e2 fd 58 b8 5c 06 	vfmadd231pd 0xc0(%rsi,%rax,1){1to8},%zmm0,%zmm19
  4027f2:	18 
  4027f3:	62 a2 fd 58 b8 64 be 	vfmadd231pd 0xc0(%rsi,%r15,4){1to8},%zmm0,%zmm20
  4027fa:	18 
  4027fb:	62 e2 fd 58 b8 6c 1e 	vfmadd231pd 0xc0(%rsi,%rbx,1){1to8},%zmm0,%zmm21
  402802:	18 
  402803:	62 e2 fd 58 b8 74 46 	vfmadd231pd 0xc0(%rsi,%rax,2){1to8},%zmm0,%zmm22
  40280a:	18 
  40280b:	62 a2 fd 58 b8 7c 1e 	vfmadd231pd 0xc0(%rsi,%r11,1){1to8},%zmm0,%zmm23
  402812:	18 
  402813:	62 22 fd 58 b8 44 fe 	vfmadd231pd 0xc0(%rsi,%r15,8){1to8},%zmm0,%zmm24
  40281a:	18 
  40281b:	62 42 fd 58 b8 4a 18 	vfmadd231pd 0xc0(%r10){1to8},%zmm0,%zmm25
  402822:	62 02 fd 58 b8 54 3a 	vfmadd231pd 0xc0(%r10,%r15,1){1to8},%zmm0,%zmm26
  402829:	18 
  40282a:	62 02 fd 58 b8 5c 7a 	vfmadd231pd 0xc0(%r10,%r15,2){1to8},%zmm0,%zmm27
  402831:	18 
  402832:	62 42 fd 58 b8 64 02 	vfmadd231pd 0xc0(%r10,%rax,1){1to8},%zmm0,%zmm28
  402839:	18 
  40283a:	62 02 fd 58 b8 6c ba 	vfmadd231pd 0xc0(%r10,%r15,4){1to8},%zmm0,%zmm29
  402841:	18 
  402842:	62 42 fd 58 b8 74 1a 	vfmadd231pd 0xc0(%r10,%rbx,1){1to8},%zmm0,%zmm30
  402849:	18 
  40284a:	62 42 fd 58 b8 7c 42 	vfmadd231pd 0xc0(%r10,%rax,2){1to8},%zmm0,%zmm31
  402851:	18 
  402852:	62 f1 fd 48 28 47 68 	vmovapd 0x1a00(%rdi),%zmm0
  402859:	62 e2 f5 58 b8 46 19 	vfmadd231pd 0xc8(%rsi){1to8},%zmm1,%zmm16
  402860:	62 a2 f5 58 b8 4c 3e 	vfmadd231pd 0xc8(%rsi,%r15,1){1to8},%zmm1,%zmm17
  402867:	19 
  402868:	62 a2 f5 58 b8 54 7e 	vfmadd231pd 0xc8(%rsi,%r15,2){1to8},%zmm1,%zmm18
  40286f:	19 
  402870:	62 e2 f5 58 b8 5c 06 	vfmadd231pd 0xc8(%rsi,%rax,1){1to8},%zmm1,%zmm19
  402877:	19 
  402878:	62 a2 f5 58 b8 64 be 	vfmadd231pd 0xc8(%rsi,%r15,4){1to8},%zmm1,%zmm20
  40287f:	19 
  402880:	62 e2 f5 58 b8 6c 1e 	vfmadd231pd 0xc8(%rsi,%rbx,1){1to8},%zmm1,%zmm21
  402887:	19 
  402888:	62 e2 f5 58 b8 74 46 	vfmadd231pd 0xc8(%rsi,%rax,2){1to8},%zmm1,%zmm22
  40288f:	19 
  402890:	62 a2 f5 58 b8 7c 1e 	vfmadd231pd 0xc8(%rsi,%r11,1){1to8},%zmm1,%zmm23
  402897:	19 
  402898:	62 22 f5 58 b8 44 fe 	vfmadd231pd 0xc8(%rsi,%r15,8){1to8},%zmm1,%zmm24
  40289f:	19 
  4028a0:	62 42 f5 58 b8 4a 19 	vfmadd231pd 0xc8(%r10){1to8},%zmm1,%zmm25
  4028a7:	62 02 f5 58 b8 54 3a 	vfmadd231pd 0xc8(%r10,%r15,1){1to8},%zmm1,%zmm26
  4028ae:	19 
  4028af:	62 02 f5 58 b8 5c 7a 	vfmadd231pd 0xc8(%r10,%r15,2){1to8},%zmm1,%zmm27
  4028b6:	19 
  4028b7:	62 42 f5 58 b8 64 02 	vfmadd231pd 0xc8(%r10,%rax,1){1to8},%zmm1,%zmm28
  4028be:	19 
  4028bf:	62 02 f5 58 b8 6c ba 	vfmadd231pd 0xc8(%r10,%r15,4){1to8},%zmm1,%zmm29
  4028c6:	19 
  4028c7:	62 42 f5 58 b8 74 1a 	vfmadd231pd 0xc8(%r10,%rbx,1){1to8},%zmm1,%zmm30
  4028ce:	19 
  4028cf:	62 42 f5 58 b8 7c 42 	vfmadd231pd 0xc8(%r10,%rax,2){1to8},%zmm1,%zmm31
  4028d6:	19 
  4028d7:	62 f1 fd 48 28 4f 6c 	vmovapd 0x1b00(%rdi),%zmm1
  4028de:	62 e2 fd 58 b8 46 1a 	vfmadd231pd 0xd0(%rsi){1to8},%zmm0,%zmm16
  4028e5:	62 a2 fd 58 b8 4c 3e 	vfmadd231pd 0xd0(%rsi,%r15,1){1to8},%zmm0,%zmm17
  4028ec:	1a 
  4028ed:	62 a2 fd 58 b8 54 7e 	vfmadd231pd 0xd0(%rsi,%r15,2){1to8},%zmm0,%zmm18
  4028f4:	1a 
  4028f5:	62 e2 fd 58 b8 5c 06 	vfmadd231pd 0xd0(%rsi,%rax,1){1to8},%zmm0,%zmm19
  4028fc:	1a 
  4028fd:	62 a2 fd 58 b8 64 be 	vfmadd231pd 0xd0(%rsi,%r15,4){1to8},%zmm0,%zmm20
  402904:	1a 
  402905:	62 e2 fd 58 b8 6c 1e 	vfmadd231pd 0xd0(%rsi,%rbx,1){1to8},%zmm0,%zmm21
  40290c:	1a 
  40290d:	62 e2 fd 58 b8 74 46 	vfmadd231pd 0xd0(%rsi,%rax,2){1to8},%zmm0,%zmm22
  402914:	1a 
  402915:	62 a2 fd 58 b8 7c 1e 	vfmadd231pd 0xd0(%rsi,%r11,1){1to8},%zmm0,%zmm23
  40291c:	1a 
  40291d:	62 22 fd 58 b8 44 fe 	vfmadd231pd 0xd0(%rsi,%r15,8){1to8},%zmm0,%zmm24
  402924:	1a 
  402925:	62 42 fd 58 b8 4a 1a 	vfmadd231pd 0xd0(%r10){1to8},%zmm0,%zmm25
  40292c:	62 02 fd 58 b8 54 3a 	vfmadd231pd 0xd0(%r10,%r15,1){1to8},%zmm0,%zmm26
  402933:	1a 
  402934:	62 02 fd 58 b8 5c 7a 	vfmadd231pd 0xd0(%r10,%r15,2){1to8},%zmm0,%zmm27
  40293b:	1a 
  40293c:	62 42 fd 58 b8 64 02 	vfmadd231pd 0xd0(%r10,%rax,1){1to8},%zmm0,%zmm28
  402943:	1a 
  402944:	62 02 fd 58 b8 6c ba 	vfmadd231pd 0xd0(%r10,%r15,4){1to8},%zmm0,%zmm29
  40294b:	1a 
  40294c:	62 42 fd 58 b8 74 1a 	vfmadd231pd 0xd0(%r10,%rbx,1){1to8},%zmm0,%zmm30
  402953:	1a 
  402954:	62 42 fd 58 b8 7c 42 	vfmadd231pd 0xd0(%r10,%rax,2){1to8},%zmm0,%zmm31
  40295b:	1a 
  40295c:	62 f1 fd 48 28 47 70 	vmovapd 0x1c00(%rdi),%zmm0
  402963:	62 e2 f5 58 b8 46 1b 	vfmadd231pd 0xd8(%rsi){1to8},%zmm1,%zmm16
  40296a:	62 a2 f5 58 b8 4c 3e 	vfmadd231pd 0xd8(%rsi,%r15,1){1to8},%zmm1,%zmm17
  402971:	1b 
  402972:	62 a2 f5 58 b8 54 7e 	vfmadd231pd 0xd8(%rsi,%r15,2){1to8},%zmm1,%zmm18
  402979:	1b 
  40297a:	62 e2 f5 58 b8 5c 06 	vfmadd231pd 0xd8(%rsi,%rax,1){1to8},%zmm1,%zmm19
  402981:	1b 
  402982:	62 a2 f5 58 b8 64 be 	vfmadd231pd 0xd8(%rsi,%r15,4){1to8},%zmm1,%zmm20
  402989:	1b 
  40298a:	62 e2 f5 58 b8 6c 1e 	vfmadd231pd 0xd8(%rsi,%rbx,1){1to8},%zmm1,%zmm21
  402991:	1b 
  402992:	62 e2 f5 58 b8 74 46 	vfmadd231pd 0xd8(%rsi,%rax,2){1to8},%zmm1,%zmm22
  402999:	1b 
  40299a:	62 a2 f5 58 b8 7c 1e 	vfmadd231pd 0xd8(%rsi,%r11,1){1to8},%zmm1,%zmm23
  4029a1:	1b 
  4029a2:	62 22 f5 58 b8 44 fe 	vfmadd231pd 0xd8(%rsi,%r15,8){1to8},%zmm1,%zmm24
  4029a9:	1b 
  4029aa:	62 42 f5 58 b8 4a 1b 	vfmadd231pd 0xd8(%r10){1to8},%zmm1,%zmm25
  4029b1:	62 02 f5 58 b8 54 3a 	vfmadd231pd 0xd8(%r10,%r15,1){1to8},%zmm1,%zmm26
  4029b8:	1b 
  4029b9:	62 02 f5 58 b8 5c 7a 	vfmadd231pd 0xd8(%r10,%r15,2){1to8},%zmm1,%zmm27
  4029c0:	1b 
  4029c1:	62 42 f5 58 b8 64 02 	vfmadd231pd 0xd8(%r10,%rax,1){1to8},%zmm1,%zmm28
  4029c8:	1b 
  4029c9:	62 02 f5 58 b8 6c ba 	vfmadd231pd 0xd8(%r10,%r15,4){1to8},%zmm1,%zmm29
  4029d0:	1b 
  4029d1:	62 42 f5 58 b8 74 1a 	vfmadd231pd 0xd8(%r10,%rbx,1){1to8},%zmm1,%zmm30
  4029d8:	1b 
  4029d9:	62 42 f5 58 b8 7c 42 	vfmadd231pd 0xd8(%r10,%rax,2){1to8},%zmm1,%zmm31
  4029e0:	1b 
  4029e1:	62 f1 fd 48 28 4f 74 	vmovapd 0x1d00(%rdi),%zmm1
  4029e8:	62 e2 fd 58 b8 46 1c 	vfmadd231pd 0xe0(%rsi){1to8},%zmm0,%zmm16
  4029ef:	62 a2 fd 58 b8 4c 3e 	vfmadd231pd 0xe0(%rsi,%r15,1){1to8},%zmm0,%zmm17
  4029f6:	1c 
  4029f7:	62 a2 fd 58 b8 54 7e 	vfmadd231pd 0xe0(%rsi,%r15,2){1to8},%zmm0,%zmm18
  4029fe:	1c 
  4029ff:	62 e2 fd 58 b8 5c 06 	vfmadd231pd 0xe0(%rsi,%rax,1){1to8},%zmm0,%zmm19
  402a06:	1c 
  402a07:	62 a2 fd 58 b8 64 be 	vfmadd231pd 0xe0(%rsi,%r15,4){1to8},%zmm0,%zmm20
  402a0e:	1c 
  402a0f:	62 e2 fd 58 b8 6c 1e 	vfmadd231pd 0xe0(%rsi,%rbx,1){1to8},%zmm0,%zmm21
  402a16:	1c 
  402a17:	62 e2 fd 58 b8 74 46 	vfmadd231pd 0xe0(%rsi,%rax,2){1to8},%zmm0,%zmm22
  402a1e:	1c 
  402a1f:	62 a2 fd 58 b8 7c 1e 	vfmadd231pd 0xe0(%rsi,%r11,1){1to8},%zmm0,%zmm23
  402a26:	1c 
  402a27:	62 22 fd 58 b8 44 fe 	vfmadd231pd 0xe0(%rsi,%r15,8){1to8},%zmm0,%zmm24
  402a2e:	1c 
  402a2f:	62 42 fd 58 b8 4a 1c 	vfmadd231pd 0xe0(%r10){1to8},%zmm0,%zmm25
  402a36:	62 02 fd 58 b8 54 3a 	vfmadd231pd 0xe0(%r10,%r15,1){1to8},%zmm0,%zmm26
  402a3d:	1c 
  402a3e:	62 02 fd 58 b8 5c 7a 	vfmadd231pd 0xe0(%r10,%r15,2){1to8},%zmm0,%zmm27
  402a45:	1c 
  402a46:	62 42 fd 58 b8 64 02 	vfmadd231pd 0xe0(%r10,%rax,1){1to8},%zmm0,%zmm28
  402a4d:	1c 
  402a4e:	62 02 fd 58 b8 6c ba 	vfmadd231pd 0xe0(%r10,%r15,4){1to8},%zmm0,%zmm29
  402a55:	1c 
  402a56:	62 42 fd 58 b8 74 1a 	vfmadd231pd 0xe0(%r10,%rbx,1){1to8},%zmm0,%zmm30
  402a5d:	1c 
  402a5e:	62 42 fd 58 b8 7c 42 	vfmadd231pd 0xe0(%r10,%rax,2){1to8},%zmm0,%zmm31
  402a65:	1c 
  402a66:	62 f1 fd 48 28 47 78 	vmovapd 0x1e00(%rdi),%zmm0
  402a6d:	62 e2 f5 58 b8 46 1d 	vfmadd231pd 0xe8(%rsi){1to8},%zmm1,%zmm16
  402a74:	62 a2 f5 58 b8 4c 3e 	vfmadd231pd 0xe8(%rsi,%r15,1){1to8},%zmm1,%zmm17
  402a7b:	1d 
  402a7c:	62 a2 f5 58 b8 54 7e 	vfmadd231pd 0xe8(%rsi,%r15,2){1to8},%zmm1,%zmm18
  402a83:	1d 
  402a84:	62 e2 f5 58 b8 5c 06 	vfmadd231pd 0xe8(%rsi,%rax,1){1to8},%zmm1,%zmm19
  402a8b:	1d 
  402a8c:	62 a2 f5 58 b8 64 be 	vfmadd231pd 0xe8(%rsi,%r15,4){1to8},%zmm1,%zmm20
  402a93:	1d 
  402a94:	62 e2 f5 58 b8 6c 1e 	vfmadd231pd 0xe8(%rsi,%rbx,1){1to8},%zmm1,%zmm21
  402a9b:	1d 
  402a9c:	62 e2 f5 58 b8 74 46 	vfmadd231pd 0xe8(%rsi,%rax,2){1to8},%zmm1,%zmm22
  402aa3:	1d 
  402aa4:	62 a2 f5 58 b8 7c 1e 	vfmadd231pd 0xe8(%rsi,%r11,1){1to8},%zmm1,%zmm23
  402aab:	1d 
  402aac:	62 22 f5 58 b8 44 fe 	vfmadd231pd 0xe8(%rsi,%r15,8){1to8},%zmm1,%zmm24
  402ab3:	1d 
  402ab4:	62 42 f5 58 b8 4a 1d 	vfmadd231pd 0xe8(%r10){1to8},%zmm1,%zmm25
  402abb:	62 02 f5 58 b8 54 3a 	vfmadd231pd 0xe8(%r10,%r15,1){1to8},%zmm1,%zmm26
  402ac2:	1d 
  402ac3:	62 02 f5 58 b8 5c 7a 	vfmadd231pd 0xe8(%r10,%r15,2){1to8},%zmm1,%zmm27
  402aca:	1d 
  402acb:	62 42 f5 58 b8 64 02 	vfmadd231pd 0xe8(%r10,%rax,1){1to8},%zmm1,%zmm28
  402ad2:	1d 
  402ad3:	62 02 f5 58 b8 6c ba 	vfmadd231pd 0xe8(%r10,%r15,4){1to8},%zmm1,%zmm29
  402ada:	1d 
  402adb:	62 42 f5 58 b8 74 1a 	vfmadd231pd 0xe8(%r10,%rbx,1){1to8},%zmm1,%zmm30
  402ae2:	1d 
  402ae3:	62 42 f5 58 b8 7c 42 	vfmadd231pd 0xe8(%r10,%rax,2){1to8},%zmm1,%zmm31
  402aea:	1d 
  402aeb:	62 f1 fd 48 28 4f 7c 	vmovapd 0x1f00(%rdi),%zmm1
  402af2:	48 81 c7 00 20 00 00 	add    $0x2000,%rdi
  402af9:	62 e2 fd 58 b8 46 1e 	vfmadd231pd 0xf0(%rsi){1to8},%zmm0,%zmm16
  402b00:	62 a2 fd 58 b8 4c 3e 	vfmadd231pd 0xf0(%rsi,%r15,1){1to8},%zmm0,%zmm17
  402b07:	1e 
  402b08:	62 a2 fd 58 b8 54 7e 	vfmadd231pd 0xf0(%rsi,%r15,2){1to8},%zmm0,%zmm18
  402b0f:	1e 
  402b10:	62 e2 fd 58 b8 5c 06 	vfmadd231pd 0xf0(%rsi,%rax,1){1to8},%zmm0,%zmm19
  402b17:	1e 
  402b18:	62 a2 fd 58 b8 64 be 	vfmadd231pd 0xf0(%rsi,%r15,4){1to8},%zmm0,%zmm20
  402b1f:	1e 
  402b20:	62 e2 fd 58 b8 6c 1e 	vfmadd231pd 0xf0(%rsi,%rbx,1){1to8},%zmm0,%zmm21
  402b27:	1e 
  402b28:	62 e2 fd 58 b8 74 46 	vfmadd231pd 0xf0(%rsi,%rax,2){1to8},%zmm0,%zmm22
  402b2f:	1e 
  402b30:	62 a2 fd 58 b8 7c 1e 	vfmadd231pd 0xf0(%rsi,%r11,1){1to8},%zmm0,%zmm23
  402b37:	1e 
  402b38:	62 22 fd 58 b8 44 fe 	vfmadd231pd 0xf0(%rsi,%r15,8){1to8},%zmm0,%zmm24
  402b3f:	1e 
  402b40:	62 42 fd 58 b8 4a 1e 	vfmadd231pd 0xf0(%r10){1to8},%zmm0,%zmm25
  402b47:	62 02 fd 58 b8 54 3a 	vfmadd231pd 0xf0(%r10,%r15,1){1to8},%zmm0,%zmm26
  402b4e:	1e 
  402b4f:	62 02 fd 58 b8 5c 7a 	vfmadd231pd 0xf0(%r10,%r15,2){1to8},%zmm0,%zmm27
  402b56:	1e 
  402b57:	62 42 fd 58 b8 64 02 	vfmadd231pd 0xf0(%r10,%rax,1){1to8},%zmm0,%zmm28
  402b5e:	1e 
  402b5f:	62 02 fd 58 b8 6c ba 	vfmadd231pd 0xf0(%r10,%r15,4){1to8},%zmm0,%zmm29
  402b66:	1e 
  402b67:	62 42 fd 58 b8 74 1a 	vfmadd231pd 0xf0(%r10,%rbx,1){1to8},%zmm0,%zmm30
  402b6e:	1e 
  402b6f:	62 42 fd 58 b8 7c 42 	vfmadd231pd 0xf0(%r10,%rax,2){1to8},%zmm0,%zmm31
  402b76:	1e 
  402b77:	62 f1 fd 48 28 07    	vmovapd (%rdi),%zmm0
  402b7d:	62 e2 f5 58 b8 46 1f 	vfmadd231pd 0xf8(%rsi){1to8},%zmm1,%zmm16
  402b84:	62 a2 f5 58 b8 4c 3e 	vfmadd231pd 0xf8(%rsi,%r15,1){1to8},%zmm1,%zmm17
  402b8b:	1f 
  402b8c:	62 a2 f5 58 b8 54 7e 	vfmadd231pd 0xf8(%rsi,%r15,2){1to8},%zmm1,%zmm18
  402b93:	1f 
  402b94:	62 e2 f5 58 b8 5c 06 	vfmadd231pd 0xf8(%rsi,%rax,1){1to8},%zmm1,%zmm19
  402b9b:	1f 
  402b9c:	62 a2 f5 58 b8 64 be 	vfmadd231pd 0xf8(%rsi,%r15,4){1to8},%zmm1,%zmm20
  402ba3:	1f 
  402ba4:	62 e2 f5 58 b8 6c 1e 	vfmadd231pd 0xf8(%rsi,%rbx,1){1to8},%zmm1,%zmm21
  402bab:	1f 
  402bac:	62 e2 f5 58 b8 74 46 	vfmadd231pd 0xf8(%rsi,%rax,2){1to8},%zmm1,%zmm22
  402bb3:	1f 
  402bb4:	62 a2 f5 58 b8 7c 1e 	vfmadd231pd 0xf8(%rsi,%r11,1){1to8},%zmm1,%zmm23
  402bbb:	1f 
  402bbc:	62 22 f5 58 b8 44 fe 	vfmadd231pd 0xf8(%rsi,%r15,8){1to8},%zmm1,%zmm24
  402bc3:	1f 
  402bc4:	62 42 f5 58 b8 4a 1f 	vfmadd231pd 0xf8(%r10){1to8},%zmm1,%zmm25
  402bcb:	62 02 f5 58 b8 54 3a 	vfmadd231pd 0xf8(%r10,%r15,1){1to8},%zmm1,%zmm26
  402bd2:	1f 
  402bd3:	62 02 f5 58 b8 5c 7a 	vfmadd231pd 0xf8(%r10,%r15,2){1to8},%zmm1,%zmm27
  402bda:	1f 
  402bdb:	62 42 f5 58 b8 64 02 	vfmadd231pd 0xf8(%r10,%rax,1){1to8},%zmm1,%zmm28
  402be2:	1f 
  402be3:	62 02 f5 58 b8 6c ba 	vfmadd231pd 0xf8(%r10,%r15,4){1to8},%zmm1,%zmm29
  402bea:	1f 
  402beb:	62 42 f5 58 b8 74 1a 	vfmadd231pd 0xf8(%r10,%rbx,1){1to8},%zmm1,%zmm30
  402bf2:	1f 
  402bf3:	62 42 f5 58 b8 7c 42 	vfmadd231pd 0xf8(%r10,%rax,2){1to8},%zmm1,%zmm31
  402bfa:	1f 
  402bfb:	62 f1 fd 48 28 4f 04 	vmovapd 0x100(%rdi),%zmm1
  402c02:	62 e2 fd 58 b8 46 20 	vfmadd231pd 0x100(%rsi){1to8},%zmm0,%zmm16
  402c09:	62 a2 fd 58 b8 4c 3e 	vfmadd231pd 0x100(%rsi,%r15,1){1to8},%zmm0,%zmm17
  402c10:	20 
  402c11:	62 a2 fd 58 b8 54 7e 	vfmadd231pd 0x100(%rsi,%r15,2){1to8},%zmm0,%zmm18
  402c18:	20 
  402c19:	62 e2 fd 58 b8 5c 06 	vfmadd231pd 0x100(%rsi,%rax,1){1to8},%zmm0,%zmm19
  402c20:	20 
  402c21:	62 a2 fd 58 b8 64 be 	vfmadd231pd 0x100(%rsi,%r15,4){1to8},%zmm0,%zmm20
  402c28:	20 
  402c29:	62 e2 fd 58 b8 6c 1e 	vfmadd231pd 0x100(%rsi,%rbx,1){1to8},%zmm0,%zmm21
  402c30:	20 
  402c31:	62 e2 fd 58 b8 74 46 	vfmadd231pd 0x100(%rsi,%rax,2){1to8},%zmm0,%zmm22
  402c38:	20 
  402c39:	62 a2 fd 58 b8 7c 1e 	vfmadd231pd 0x100(%rsi,%r11,1){1to8},%zmm0,%zmm23
  402c40:	20 
  402c41:	62 22 fd 58 b8 44 fe 	vfmadd231pd 0x100(%rsi,%r15,8){1to8},%zmm0,%zmm24
  402c48:	20 
  402c49:	62 42 fd 58 b8 4a 20 	vfmadd231pd 0x100(%r10){1to8},%zmm0,%zmm25
  402c50:	62 02 fd 58 b8 54 3a 	vfmadd231pd 0x100(%r10,%r15,1){1to8},%zmm0,%zmm26
  402c57:	20 
  402c58:	62 02 fd 58 b8 5c 7a 	vfmadd231pd 0x100(%r10,%r15,2){1to8},%zmm0,%zmm27
  402c5f:	20 
  402c60:	62 42 fd 58 b8 64 02 	vfmadd231pd 0x100(%r10,%rax,1){1to8},%zmm0,%zmm28
  402c67:	20 
  402c68:	62 02 fd 58 b8 6c ba 	vfmadd231pd 0x100(%r10,%r15,4){1to8},%zmm0,%zmm29
  402c6f:	20 
  402c70:	62 42 fd 58 b8 74 1a 	vfmadd231pd 0x100(%r10,%rbx,1){1to8},%zmm0,%zmm30
  402c77:	20 
  402c78:	62 42 fd 58 b8 7c 42 	vfmadd231pd 0x100(%r10,%rax,2){1to8},%zmm0,%zmm31
  402c7f:	20 
  402c80:	62 f1 fd 48 28 47 08 	vmovapd 0x200(%rdi),%zmm0
  402c87:	62 e2 f5 58 b8 46 21 	vfmadd231pd 0x108(%rsi){1to8},%zmm1,%zmm16
  402c8e:	62 a2 f5 58 b8 4c 3e 	vfmadd231pd 0x108(%rsi,%r15,1){1to8},%zmm1,%zmm17
  402c95:	21 
  402c96:	62 a2 f5 58 b8 54 7e 	vfmadd231pd 0x108(%rsi,%r15,2){1to8},%zmm1,%zmm18
  402c9d:	21 
  402c9e:	62 e2 f5 58 b8 5c 06 	vfmadd231pd 0x108(%rsi,%rax,1){1to8},%zmm1,%zmm19
  402ca5:	21 
  402ca6:	62 a2 f5 58 b8 64 be 	vfmadd231pd 0x108(%rsi,%r15,4){1to8},%zmm1,%zmm20
  402cad:	21 
  402cae:	62 e2 f5 58 b8 6c 1e 	vfmadd231pd 0x108(%rsi,%rbx,1){1to8},%zmm1,%zmm21
  402cb5:	21 
  402cb6:	62 e2 f5 58 b8 74 46 	vfmadd231pd 0x108(%rsi,%rax,2){1to8},%zmm1,%zmm22
  402cbd:	21 
  402cbe:	62 a2 f5 58 b8 7c 1e 	vfmadd231pd 0x108(%rsi,%r11,1){1to8},%zmm1,%zmm23
  402cc5:	21 
  402cc6:	62 22 f5 58 b8 44 fe 	vfmadd231pd 0x108(%rsi,%r15,8){1to8},%zmm1,%zmm24
  402ccd:	21 
  402cce:	62 42 f5 58 b8 4a 21 	vfmadd231pd 0x108(%r10){1to8},%zmm1,%zmm25
  402cd5:	62 02 f5 58 b8 54 3a 	vfmadd231pd 0x108(%r10,%r15,1){1to8},%zmm1,%zmm26
  402cdc:	21 
  402cdd:	62 02 f5 58 b8 5c 7a 	vfmadd231pd 0x108(%r10,%r15,2){1to8},%zmm1,%zmm27
  402ce4:	21 
  402ce5:	62 42 f5 58 b8 64 02 	vfmadd231pd 0x108(%r10,%rax,1){1to8},%zmm1,%zmm28
  402cec:	21 
  402ced:	62 02 f5 58 b8 6c ba 	vfmadd231pd 0x108(%r10,%r15,4){1to8},%zmm1,%zmm29
  402cf4:	21 
  402cf5:	62 42 f5 58 b8 74 1a 	vfmadd231pd 0x108(%r10,%rbx,1){1to8},%zmm1,%zmm30
  402cfc:	21 
  402cfd:	62 42 f5 58 b8 7c 42 	vfmadd231pd 0x108(%r10,%rax,2){1to8},%zmm1,%zmm31
  402d04:	21 
  402d05:	62 f1 fd 48 28 4f 0c 	vmovapd 0x300(%rdi),%zmm1
  402d0c:	62 e2 fd 58 b8 46 22 	vfmadd231pd 0x110(%rsi){1to8},%zmm0,%zmm16
  402d13:	62 a2 fd 58 b8 4c 3e 	vfmadd231pd 0x110(%rsi,%r15,1){1to8},%zmm0,%zmm17
  402d1a:	22 
  402d1b:	62 a2 fd 58 b8 54 7e 	vfmadd231pd 0x110(%rsi,%r15,2){1to8},%zmm0,%zmm18
  402d22:	22 
  402d23:	62 e2 fd 58 b8 5c 06 	vfmadd231pd 0x110(%rsi,%rax,1){1to8},%zmm0,%zmm19
  402d2a:	22 
  402d2b:	62 a2 fd 58 b8 64 be 	vfmadd231pd 0x110(%rsi,%r15,4){1to8},%zmm0,%zmm20
  402d32:	22 
  402d33:	62 e2 fd 58 b8 6c 1e 	vfmadd231pd 0x110(%rsi,%rbx,1){1to8},%zmm0,%zmm21
  402d3a:	22 
  402d3b:	62 e2 fd 58 b8 74 46 	vfmadd231pd 0x110(%rsi,%rax,2){1to8},%zmm0,%zmm22
  402d42:	22 
  402d43:	62 a2 fd 58 b8 7c 1e 	vfmadd231pd 0x110(%rsi,%r11,1){1to8},%zmm0,%zmm23
  402d4a:	22 
  402d4b:	62 22 fd 58 b8 44 fe 	vfmadd231pd 0x110(%rsi,%r15,8){1to8},%zmm0,%zmm24
  402d52:	22 
  402d53:	62 42 fd 58 b8 4a 22 	vfmadd231pd 0x110(%r10){1to8},%zmm0,%zmm25
  402d5a:	62 02 fd 58 b8 54 3a 	vfmadd231pd 0x110(%r10,%r15,1){1to8},%zmm0,%zmm26
  402d61:	22 
  402d62:	62 02 fd 58 b8 5c 7a 	vfmadd231pd 0x110(%r10,%r15,2){1to8},%zmm0,%zmm27
  402d69:	22 
  402d6a:	62 42 fd 58 b8 64 02 	vfmadd231pd 0x110(%r10,%rax,1){1to8},%zmm0,%zmm28
  402d71:	22 
  402d72:	62 02 fd 58 b8 6c ba 	vfmadd231pd 0x110(%r10,%r15,4){1to8},%zmm0,%zmm29
  402d79:	22 
  402d7a:	62 42 fd 58 b8 74 1a 	vfmadd231pd 0x110(%r10,%rbx,1){1to8},%zmm0,%zmm30
  402d81:	22 
  402d82:	62 42 fd 58 b8 7c 42 	vfmadd231pd 0x110(%r10,%rax,2){1to8},%zmm0,%zmm31
  402d89:	22 
  402d8a:	62 f1 fd 48 28 47 10 	vmovapd 0x400(%rdi),%zmm0
  402d91:	62 e2 f5 58 b8 46 23 	vfmadd231pd 0x118(%rsi){1to8},%zmm1,%zmm16
  402d98:	62 a2 f5 58 b8 4c 3e 	vfmadd231pd 0x118(%rsi,%r15,1){1to8},%zmm1,%zmm17
  402d9f:	23 
  402da0:	62 a2 f5 58 b8 54 7e 	vfmadd231pd 0x118(%rsi,%r15,2){1to8},%zmm1,%zmm18
  402da7:	23 
  402da8:	62 e2 f5 58 b8 5c 06 	vfmadd231pd 0x118(%rsi,%rax,1){1to8},%zmm1,%zmm19
  402daf:	23 
  402db0:	62 a2 f5 58 b8 64 be 	vfmadd231pd 0x118(%rsi,%r15,4){1to8},%zmm1,%zmm20
  402db7:	23 
  402db8:	62 e2 f5 58 b8 6c 1e 	vfmadd231pd 0x118(%rsi,%rbx,1){1to8},%zmm1,%zmm21
  402dbf:	23 
  402dc0:	62 e2 f5 58 b8 74 46 	vfmadd231pd 0x118(%rsi,%rax,2){1to8},%zmm1,%zmm22
  402dc7:	23 
  402dc8:	62 a2 f5 58 b8 7c 1e 	vfmadd231pd 0x118(%rsi,%r11,1){1to8},%zmm1,%zmm23
  402dcf:	23 
  402dd0:	62 22 f5 58 b8 44 fe 	vfmadd231pd 0x118(%rsi,%r15,8){1to8},%zmm1,%zmm24
  402dd7:	23 
  402dd8:	62 42 f5 58 b8 4a 23 	vfmadd231pd 0x118(%r10){1to8},%zmm1,%zmm25
  402ddf:	62 02 f5 58 b8 54 3a 	vfmadd231pd 0x118(%r10,%r15,1){1to8},%zmm1,%zmm26
  402de6:	23 
  402de7:	62 02 f5 58 b8 5c 7a 	vfmadd231pd 0x118(%r10,%r15,2){1to8},%zmm1,%zmm27
  402dee:	23 
  402def:	62 42 f5 58 b8 64 02 	vfmadd231pd 0x118(%r10,%rax,1){1to8},%zmm1,%zmm28
  402df6:	23 
  402df7:	62 02 f5 58 b8 6c ba 	vfmadd231pd 0x118(%r10,%r15,4){1to8},%zmm1,%zmm29
  402dfe:	23 
  402dff:	62 42 f5 58 b8 74 1a 	vfmadd231pd 0x118(%r10,%rbx,1){1to8},%zmm1,%zmm30
  402e06:	23 
  402e07:	62 42 f5 58 b8 7c 42 	vfmadd231pd 0x118(%r10,%rax,2){1to8},%zmm1,%zmm31
  402e0e:	23 
  402e0f:	62 f1 fd 48 28 4f 14 	vmovapd 0x500(%rdi),%zmm1
  402e16:	62 e2 fd 58 b8 46 24 	vfmadd231pd 0x120(%rsi){1to8},%zmm0,%zmm16
  402e1d:	62 a2 fd 58 b8 4c 3e 	vfmadd231pd 0x120(%rsi,%r15,1){1to8},%zmm0,%zmm17
  402e24:	24 
  402e25:	62 a2 fd 58 b8 54 7e 	vfmadd231pd 0x120(%rsi,%r15,2){1to8},%zmm0,%zmm18
  402e2c:	24 
  402e2d:	62 e2 fd 58 b8 5c 06 	vfmadd231pd 0x120(%rsi,%rax,1){1to8},%zmm0,%zmm19
  402e34:	24 
  402e35:	62 a2 fd 58 b8 64 be 	vfmadd231pd 0x120(%rsi,%r15,4){1to8},%zmm0,%zmm20
  402e3c:	24 
  402e3d:	62 e2 fd 58 b8 6c 1e 	vfmadd231pd 0x120(%rsi,%rbx,1){1to8},%zmm0,%zmm21
  402e44:	24 
  402e45:	62 e2 fd 58 b8 74 46 	vfmadd231pd 0x120(%rsi,%rax,2){1to8},%zmm0,%zmm22
  402e4c:	24 
  402e4d:	62 a2 fd 58 b8 7c 1e 	vfmadd231pd 0x120(%rsi,%r11,1){1to8},%zmm0,%zmm23
  402e54:	24 
  402e55:	62 22 fd 58 b8 44 fe 	vfmadd231pd 0x120(%rsi,%r15,8){1to8},%zmm0,%zmm24
  402e5c:	24 
  402e5d:	62 42 fd 58 b8 4a 24 	vfmadd231pd 0x120(%r10){1to8},%zmm0,%zmm25
  402e64:	62 02 fd 58 b8 54 3a 	vfmadd231pd 0x120(%r10,%r15,1){1to8},%zmm0,%zmm26
  402e6b:	24 
  402e6c:	62 02 fd 58 b8 5c 7a 	vfmadd231pd 0x120(%r10,%r15,2){1to8},%zmm0,%zmm27
  402e73:	24 
  402e74:	62 42 fd 58 b8 64 02 	vfmadd231pd 0x120(%r10,%rax,1){1to8},%zmm0,%zmm28
  402e7b:	24 
  402e7c:	62 02 fd 58 b8 6c ba 	vfmadd231pd 0x120(%r10,%r15,4){1to8},%zmm0,%zmm29
  402e83:	24 
  402e84:	62 42 fd 58 b8 74 1a 	vfmadd231pd 0x120(%r10,%rbx,1){1to8},%zmm0,%zmm30
  402e8b:	24 
  402e8c:	62 42 fd 58 b8 7c 42 	vfmadd231pd 0x120(%r10,%rax,2){1to8},%zmm0,%zmm31
  402e93:	24 
  402e94:	62 f1 fd 48 28 47 18 	vmovapd 0x600(%rdi),%zmm0
  402e9b:	62 e2 f5 58 b8 46 25 	vfmadd231pd 0x128(%rsi){1to8},%zmm1,%zmm16
  402ea2:	62 a2 f5 58 b8 4c 3e 	vfmadd231pd 0x128(%rsi,%r15,1){1to8},%zmm1,%zmm17
  402ea9:	25 
  402eaa:	62 a2 f5 58 b8 54 7e 	vfmadd231pd 0x128(%rsi,%r15,2){1to8},%zmm1,%zmm18
  402eb1:	25 
  402eb2:	62 e2 f5 58 b8 5c 06 	vfmadd231pd 0x128(%rsi,%rax,1){1to8},%zmm1,%zmm19
  402eb9:	25 
  402eba:	62 a2 f5 58 b8 64 be 	vfmadd231pd 0x128(%rsi,%r15,4){1to8},%zmm1,%zmm20
  402ec1:	25 
  402ec2:	62 e2 f5 58 b8 6c 1e 	vfmadd231pd 0x128(%rsi,%rbx,1){1to8},%zmm1,%zmm21
  402ec9:	25 
  402eca:	62 e2 f5 58 b8 74 46 	vfmadd231pd 0x128(%rsi,%rax,2){1to8},%zmm1,%zmm22
  402ed1:	25 
  402ed2:	62 a2 f5 58 b8 7c 1e 	vfmadd231pd 0x128(%rsi,%r11,1){1to8},%zmm1,%zmm23
  402ed9:	25 
  402eda:	62 22 f5 58 b8 44 fe 	vfmadd231pd 0x128(%rsi,%r15,8){1to8},%zmm1,%zmm24
  402ee1:	25 
  402ee2:	62 42 f5 58 b8 4a 25 	vfmadd231pd 0x128(%r10){1to8},%zmm1,%zmm25
  402ee9:	62 02 f5 58 b8 54 3a 	vfmadd231pd 0x128(%r10,%r15,1){1to8},%zmm1,%zmm26
  402ef0:	25 
  402ef1:	62 02 f5 58 b8 5c 7a 	vfmadd231pd 0x128(%r10,%r15,2){1to8},%zmm1,%zmm27
  402ef8:	25 
  402ef9:	62 42 f5 58 b8 64 02 	vfmadd231pd 0x128(%r10,%rax,1){1to8},%zmm1,%zmm28
  402f00:	25 
  402f01:	62 02 f5 58 b8 6c ba 	vfmadd231pd 0x128(%r10,%r15,4){1to8},%zmm1,%zmm29
  402f08:	25 
  402f09:	62 42 f5 58 b8 74 1a 	vfmadd231pd 0x128(%r10,%rbx,1){1to8},%zmm1,%zmm30
  402f10:	25 
  402f11:	62 42 f5 58 b8 7c 42 	vfmadd231pd 0x128(%r10,%rax,2){1to8},%zmm1,%zmm31
  402f18:	25 
  402f19:	62 f1 fd 48 28 4f 1c 	vmovapd 0x700(%rdi),%zmm1
  402f20:	62 e2 fd 58 b8 46 26 	vfmadd231pd 0x130(%rsi){1to8},%zmm0,%zmm16
  402f27:	62 a2 fd 58 b8 4c 3e 	vfmadd231pd 0x130(%rsi,%r15,1){1to8},%zmm0,%zmm17
  402f2e:	26 
  402f2f:	62 a2 fd 58 b8 54 7e 	vfmadd231pd 0x130(%rsi,%r15,2){1to8},%zmm0,%zmm18
  402f36:	26 
  402f37:	62 e2 fd 58 b8 5c 06 	vfmadd231pd 0x130(%rsi,%rax,1){1to8},%zmm0,%zmm19
  402f3e:	26 
  402f3f:	62 a2 fd 58 b8 64 be 	vfmadd231pd 0x130(%rsi,%r15,4){1to8},%zmm0,%zmm20
  402f46:	26 
  402f47:	62 e2 fd 58 b8 6c 1e 	vfmadd231pd 0x130(%rsi,%rbx,1){1to8},%zmm0,%zmm21
  402f4e:	26 
  402f4f:	62 e2 fd 58 b8 74 46 	vfmadd231pd 0x130(%rsi,%rax,2){1to8},%zmm0,%zmm22
  402f56:	26 
  402f57:	62 a2 fd 58 b8 7c 1e 	vfmadd231pd 0x130(%rsi,%r11,1){1to8},%zmm0,%zmm23
  402f5e:	26 
  402f5f:	62 22 fd 58 b8 44 fe 	vfmadd231pd 0x130(%rsi,%r15,8){1to8},%zmm0,%zmm24
  402f66:	26 
  402f67:	62 42 fd 58 b8 4a 26 	vfmadd231pd 0x130(%r10){1to8},%zmm0,%zmm25
  402f6e:	62 02 fd 58 b8 54 3a 	vfmadd231pd 0x130(%r10,%r15,1){1to8},%zmm0,%zmm26
  402f75:	26 
  402f76:	62 02 fd 58 b8 5c 7a 	vfmadd231pd 0x130(%r10,%r15,2){1to8},%zmm0,%zmm27
  402f7d:	26 
  402f7e:	62 42 fd 58 b8 64 02 	vfmadd231pd 0x130(%r10,%rax,1){1to8},%zmm0,%zmm28
  402f85:	26 
  402f86:	62 02 fd 58 b8 6c ba 	vfmadd231pd 0x130(%r10,%r15,4){1to8},%zmm0,%zmm29
  402f8d:	26 
  402f8e:	62 42 fd 58 b8 74 1a 	vfmadd231pd 0x130(%r10,%rbx,1){1to8},%zmm0,%zmm30
  402f95:	26 
  402f96:	62 42 fd 58 b8 7c 42 	vfmadd231pd 0x130(%r10,%rax,2){1to8},%zmm0,%zmm31
  402f9d:	26 
  402f9e:	62 f1 fd 48 28 47 20 	vmovapd 0x800(%rdi),%zmm0
  402fa5:	62 e2 f5 58 b8 46 27 	vfmadd231pd 0x138(%rsi){1to8},%zmm1,%zmm16
  402fac:	62 a2 f5 58 b8 4c 3e 	vfmadd231pd 0x138(%rsi,%r15,1){1to8},%zmm1,%zmm17
  402fb3:	27 
  402fb4:	62 a2 f5 58 b8 54 7e 	vfmadd231pd 0x138(%rsi,%r15,2){1to8},%zmm1,%zmm18
  402fbb:	27 
  402fbc:	62 e2 f5 58 b8 5c 06 	vfmadd231pd 0x138(%rsi,%rax,1){1to8},%zmm1,%zmm19
  402fc3:	27 
  402fc4:	62 a2 f5 58 b8 64 be 	vfmadd231pd 0x138(%rsi,%r15,4){1to8},%zmm1,%zmm20
  402fcb:	27 
  402fcc:	62 e2 f5 58 b8 6c 1e 	vfmadd231pd 0x138(%rsi,%rbx,1){1to8},%zmm1,%zmm21
  402fd3:	27 
  402fd4:	62 e2 f5 58 b8 74 46 	vfmadd231pd 0x138(%rsi,%rax,2){1to8},%zmm1,%zmm22
  402fdb:	27 
  402fdc:	62 a2 f5 58 b8 7c 1e 	vfmadd231pd 0x138(%rsi,%r11,1){1to8},%zmm1,%zmm23
  402fe3:	27 
  402fe4:	62 22 f5 58 b8 44 fe 	vfmadd231pd 0x138(%rsi,%r15,8){1to8},%zmm1,%zmm24
  402feb:	27 
  402fec:	62 42 f5 58 b8 4a 27 	vfmadd231pd 0x138(%r10){1to8},%zmm1,%zmm25
  402ff3:	62 02 f5 58 b8 54 3a 	vfmadd231pd 0x138(%r10,%r15,1){1to8},%zmm1,%zmm26
  402ffa:	27 
  402ffb:	62 02 f5 58 b8 5c 7a 	vfmadd231pd 0x138(%r10,%r15,2){1to8},%zmm1,%zmm27
  403002:	27 
  403003:	62 42 f5 58 b8 64 02 	vfmadd231pd 0x138(%r10,%rax,1){1to8},%zmm1,%zmm28
  40300a:	27 
  40300b:	62 02 f5 58 b8 6c ba 	vfmadd231pd 0x138(%r10,%r15,4){1to8},%zmm1,%zmm29
  403012:	27 
  403013:	62 42 f5 58 b8 74 1a 	vfmadd231pd 0x138(%r10,%rbx,1){1to8},%zmm1,%zmm30
  40301a:	27 
  40301b:	62 42 f5 58 b8 7c 42 	vfmadd231pd 0x138(%r10,%rax,2){1to8},%zmm1,%zmm31
  403022:	27 
  403023:	62 f1 fd 48 28 4f 24 	vmovapd 0x900(%rdi),%zmm1
  40302a:	62 e2 fd 58 b8 46 28 	vfmadd231pd 0x140(%rsi){1to8},%zmm0,%zmm16
  403031:	62 a2 fd 58 b8 4c 3e 	vfmadd231pd 0x140(%rsi,%r15,1){1to8},%zmm0,%zmm17
  403038:	28 
  403039:	62 a2 fd 58 b8 54 7e 	vfmadd231pd 0x140(%rsi,%r15,2){1to8},%zmm0,%zmm18
  403040:	28 
  403041:	62 e2 fd 58 b8 5c 06 	vfmadd231pd 0x140(%rsi,%rax,1){1to8},%zmm0,%zmm19
  403048:	28 
  403049:	62 a2 fd 58 b8 64 be 	vfmadd231pd 0x140(%rsi,%r15,4){1to8},%zmm0,%zmm20
  403050:	28 
  403051:	62 e2 fd 58 b8 6c 1e 	vfmadd231pd 0x140(%rsi,%rbx,1){1to8},%zmm0,%zmm21
  403058:	28 
  403059:	62 e2 fd 58 b8 74 46 	vfmadd231pd 0x140(%rsi,%rax,2){1to8},%zmm0,%zmm22
  403060:	28 
  403061:	62 a2 fd 58 b8 7c 1e 	vfmadd231pd 0x140(%rsi,%r11,1){1to8},%zmm0,%zmm23
  403068:	28 
  403069:	62 22 fd 58 b8 44 fe 	vfmadd231pd 0x140(%rsi,%r15,8){1to8},%zmm0,%zmm24
  403070:	28 
  403071:	62 42 fd 58 b8 4a 28 	vfmadd231pd 0x140(%r10){1to8},%zmm0,%zmm25
  403078:	62 02 fd 58 b8 54 3a 	vfmadd231pd 0x140(%r10,%r15,1){1to8},%zmm0,%zmm26
  40307f:	28 
  403080:	62 02 fd 58 b8 5c 7a 	vfmadd231pd 0x140(%r10,%r15,2){1to8},%zmm0,%zmm27
  403087:	28 
  403088:	62 42 fd 58 b8 64 02 	vfmadd231pd 0x140(%r10,%rax,1){1to8},%zmm0,%zmm28
  40308f:	28 
  403090:	62 02 fd 58 b8 6c ba 	vfmadd231pd 0x140(%r10,%r15,4){1to8},%zmm0,%zmm29
  403097:	28 
  403098:	62 42 fd 58 b8 74 1a 	vfmadd231pd 0x140(%r10,%rbx,1){1to8},%zmm0,%zmm30
  40309f:	28 
  4030a0:	62 42 fd 58 b8 7c 42 	vfmadd231pd 0x140(%r10,%rax,2){1to8},%zmm0,%zmm31
  4030a7:	28 
  4030a8:	62 f1 fd 48 28 47 28 	vmovapd 0xa00(%rdi),%zmm0
  4030af:	62 e2 f5 58 b8 46 29 	vfmadd231pd 0x148(%rsi){1to8},%zmm1,%zmm16
  4030b6:	62 a2 f5 58 b8 4c 3e 	vfmadd231pd 0x148(%rsi,%r15,1){1to8},%zmm1,%zmm17
  4030bd:	29 
  4030be:	62 a2 f5 58 b8 54 7e 	vfmadd231pd 0x148(%rsi,%r15,2){1to8},%zmm1,%zmm18
  4030c5:	29 
  4030c6:	62 e2 f5 58 b8 5c 06 	vfmadd231pd 0x148(%rsi,%rax,1){1to8},%zmm1,%zmm19
  4030cd:	29 
  4030ce:	62 a2 f5 58 b8 64 be 	vfmadd231pd 0x148(%rsi,%r15,4){1to8},%zmm1,%zmm20
  4030d5:	29 
  4030d6:	62 e2 f5 58 b8 6c 1e 	vfmadd231pd 0x148(%rsi,%rbx,1){1to8},%zmm1,%zmm21
  4030dd:	29 
  4030de:	62 e2 f5 58 b8 74 46 	vfmadd231pd 0x148(%rsi,%rax,2){1to8},%zmm1,%zmm22
  4030e5:	29 
  4030e6:	62 a2 f5 58 b8 7c 1e 	vfmadd231pd 0x148(%rsi,%r11,1){1to8},%zmm1,%zmm23
  4030ed:	29 
  4030ee:	62 22 f5 58 b8 44 fe 	vfmadd231pd 0x148(%rsi,%r15,8){1to8},%zmm1,%zmm24
  4030f5:	29 
  4030f6:	62 42 f5 58 b8 4a 29 	vfmadd231pd 0x148(%r10){1to8},%zmm1,%zmm25
  4030fd:	62 02 f5 58 b8 54 3a 	vfmadd231pd 0x148(%r10,%r15,1){1to8},%zmm1,%zmm26
  403104:	29 
  403105:	62 02 f5 58 b8 5c 7a 	vfmadd231pd 0x148(%r10,%r15,2){1to8},%zmm1,%zmm27
  40310c:	29 
  40310d:	62 42 f5 58 b8 64 02 	vfmadd231pd 0x148(%r10,%rax,1){1to8},%zmm1,%zmm28
  403114:	29 
  403115:	62 02 f5 58 b8 6c ba 	vfmadd231pd 0x148(%r10,%r15,4){1to8},%zmm1,%zmm29
  40311c:	29 
  40311d:	62 42 f5 58 b8 74 1a 	vfmadd231pd 0x148(%r10,%rbx,1){1to8},%zmm1,%zmm30
  403124:	29 
  403125:	62 42 f5 58 b8 7c 42 	vfmadd231pd 0x148(%r10,%rax,2){1to8},%zmm1,%zmm31
  40312c:	29 
  40312d:	62 f1 fd 48 28 4f 2c 	vmovapd 0xb00(%rdi),%zmm1
  403134:	62 e2 fd 58 b8 46 2a 	vfmadd231pd 0x150(%rsi){1to8},%zmm0,%zmm16
  40313b:	62 a2 fd 58 b8 4c 3e 	vfmadd231pd 0x150(%rsi,%r15,1){1to8},%zmm0,%zmm17
  403142:	2a 
  403143:	62 a2 fd 58 b8 54 7e 	vfmadd231pd 0x150(%rsi,%r15,2){1to8},%zmm0,%zmm18
  40314a:	2a 
  40314b:	62 e2 fd 58 b8 5c 06 	vfmadd231pd 0x150(%rsi,%rax,1){1to8},%zmm0,%zmm19
  403152:	2a 
  403153:	62 a2 fd 58 b8 64 be 	vfmadd231pd 0x150(%rsi,%r15,4){1to8},%zmm0,%zmm20
  40315a:	2a 
  40315b:	62 e2 fd 58 b8 6c 1e 	vfmadd231pd 0x150(%rsi,%rbx,1){1to8},%zmm0,%zmm21
  403162:	2a 
  403163:	62 e2 fd 58 b8 74 46 	vfmadd231pd 0x150(%rsi,%rax,2){1to8},%zmm0,%zmm22
  40316a:	2a 
  40316b:	62 a2 fd 58 b8 7c 1e 	vfmadd231pd 0x150(%rsi,%r11,1){1to8},%zmm0,%zmm23
  403172:	2a 
  403173:	62 22 fd 58 b8 44 fe 	vfmadd231pd 0x150(%rsi,%r15,8){1to8},%zmm0,%zmm24
  40317a:	2a 
  40317b:	62 42 fd 58 b8 4a 2a 	vfmadd231pd 0x150(%r10){1to8},%zmm0,%zmm25
  403182:	62 02 fd 58 b8 54 3a 	vfmadd231pd 0x150(%r10,%r15,1){1to8},%zmm0,%zmm26
  403189:	2a 
  40318a:	62 02 fd 58 b8 5c 7a 	vfmadd231pd 0x150(%r10,%r15,2){1to8},%zmm0,%zmm27
  403191:	2a 
  403192:	62 42 fd 58 b8 64 02 	vfmadd231pd 0x150(%r10,%rax,1){1to8},%zmm0,%zmm28
  403199:	2a 
  40319a:	62 02 fd 58 b8 6c ba 	vfmadd231pd 0x150(%r10,%r15,4){1to8},%zmm0,%zmm29
  4031a1:	2a 
  4031a2:	62 42 fd 58 b8 74 1a 	vfmadd231pd 0x150(%r10,%rbx,1){1to8},%zmm0,%zmm30
  4031a9:	2a 
  4031aa:	62 42 fd 58 b8 7c 42 	vfmadd231pd 0x150(%r10,%rax,2){1to8},%zmm0,%zmm31
  4031b1:	2a 
  4031b2:	62 f1 fd 48 28 47 30 	vmovapd 0xc00(%rdi),%zmm0
  4031b9:	62 e2 f5 58 b8 46 2b 	vfmadd231pd 0x158(%rsi){1to8},%zmm1,%zmm16
  4031c0:	62 a2 f5 58 b8 4c 3e 	vfmadd231pd 0x158(%rsi,%r15,1){1to8},%zmm1,%zmm17
  4031c7:	2b 
  4031c8:	62 a2 f5 58 b8 54 7e 	vfmadd231pd 0x158(%rsi,%r15,2){1to8},%zmm1,%zmm18
  4031cf:	2b 
  4031d0:	62 e2 f5 58 b8 5c 06 	vfmadd231pd 0x158(%rsi,%rax,1){1to8},%zmm1,%zmm19
  4031d7:	2b 
  4031d8:	62 a2 f5 58 b8 64 be 	vfmadd231pd 0x158(%rsi,%r15,4){1to8},%zmm1,%zmm20
  4031df:	2b 
  4031e0:	62 e2 f5 58 b8 6c 1e 	vfmadd231pd 0x158(%rsi,%rbx,1){1to8},%zmm1,%zmm21
  4031e7:	2b 
  4031e8:	62 e2 f5 58 b8 74 46 	vfmadd231pd 0x158(%rsi,%rax,2){1to8},%zmm1,%zmm22
  4031ef:	2b 
  4031f0:	62 a2 f5 58 b8 7c 1e 	vfmadd231pd 0x158(%rsi,%r11,1){1to8},%zmm1,%zmm23
  4031f7:	2b 
  4031f8:	62 22 f5 58 b8 44 fe 	vfmadd231pd 0x158(%rsi,%r15,8){1to8},%zmm1,%zmm24
  4031ff:	2b 
  403200:	62 42 f5 58 b8 4a 2b 	vfmadd231pd 0x158(%r10){1to8},%zmm1,%zmm25
  403207:	62 02 f5 58 b8 54 3a 	vfmadd231pd 0x158(%r10,%r15,1){1to8},%zmm1,%zmm26
  40320e:	2b 
  40320f:	62 02 f5 58 b8 5c 7a 	vfmadd231pd 0x158(%r10,%r15,2){1to8},%zmm1,%zmm27
  403216:	2b 
  403217:	62 42 f5 58 b8 64 02 	vfmadd231pd 0x158(%r10,%rax,1){1to8},%zmm1,%zmm28
  40321e:	2b 
  40321f:	62 02 f5 58 b8 6c ba 	vfmadd231pd 0x158(%r10,%r15,4){1to8},%zmm1,%zmm29
  403226:	2b 
  403227:	62 42 f5 58 b8 74 1a 	vfmadd231pd 0x158(%r10,%rbx,1){1to8},%zmm1,%zmm30
  40322e:	2b 
  40322f:	62 42 f5 58 b8 7c 42 	vfmadd231pd 0x158(%r10,%rax,2){1to8},%zmm1,%zmm31
  403236:	2b 
  403237:	62 f1 fd 48 28 4f 34 	vmovapd 0xd00(%rdi),%zmm1
  40323e:	62 e2 fd 58 b8 46 2c 	vfmadd231pd 0x160(%rsi){1to8},%zmm0,%zmm16
  403245:	62 a2 fd 58 b8 4c 3e 	vfmadd231pd 0x160(%rsi,%r15,1){1to8},%zmm0,%zmm17
  40324c:	2c 
  40324d:	62 a2 fd 58 b8 54 7e 	vfmadd231pd 0x160(%rsi,%r15,2){1to8},%zmm0,%zmm18
  403254:	2c 
  403255:	62 e2 fd 58 b8 5c 06 	vfmadd231pd 0x160(%rsi,%rax,1){1to8},%zmm0,%zmm19
  40325c:	2c 
  40325d:	62 a2 fd 58 b8 64 be 	vfmadd231pd 0x160(%rsi,%r15,4){1to8},%zmm0,%zmm20
  403264:	2c 
  403265:	62 e2 fd 58 b8 6c 1e 	vfmadd231pd 0x160(%rsi,%rbx,1){1to8},%zmm0,%zmm21
  40326c:	2c 
  40326d:	62 e2 fd 58 b8 74 46 	vfmadd231pd 0x160(%rsi,%rax,2){1to8},%zmm0,%zmm22
  403274:	2c 
  403275:	62 a2 fd 58 b8 7c 1e 	vfmadd231pd 0x160(%rsi,%r11,1){1to8},%zmm0,%zmm23
  40327c:	2c 
  40327d:	62 22 fd 58 b8 44 fe 	vfmadd231pd 0x160(%rsi,%r15,8){1to8},%zmm0,%zmm24
  403284:	2c 
  403285:	62 42 fd 58 b8 4a 2c 	vfmadd231pd 0x160(%r10){1to8},%zmm0,%zmm25
  40328c:	62 02 fd 58 b8 54 3a 	vfmadd231pd 0x160(%r10,%r15,1){1to8},%zmm0,%zmm26
  403293:	2c 
  403294:	62 02 fd 58 b8 5c 7a 	vfmadd231pd 0x160(%r10,%r15,2){1to8},%zmm0,%zmm27
  40329b:	2c 
  40329c:	62 42 fd 58 b8 64 02 	vfmadd231pd 0x160(%r10,%rax,1){1to8},%zmm0,%zmm28
  4032a3:	2c 
  4032a4:	62 02 fd 58 b8 6c ba 	vfmadd231pd 0x160(%r10,%r15,4){1to8},%zmm0,%zmm29
  4032ab:	2c 
  4032ac:	62 42 fd 58 b8 74 1a 	vfmadd231pd 0x160(%r10,%rbx,1){1to8},%zmm0,%zmm30
  4032b3:	2c 
  4032b4:	62 42 fd 58 b8 7c 42 	vfmadd231pd 0x160(%r10,%rax,2){1to8},%zmm0,%zmm31
  4032bb:	2c 
  4032bc:	62 f1 fd 48 28 47 38 	vmovapd 0xe00(%rdi),%zmm0
  4032c3:	62 e2 f5 58 b8 46 2d 	vfmadd231pd 0x168(%rsi){1to8},%zmm1,%zmm16
  4032ca:	62 a2 f5 58 b8 4c 3e 	vfmadd231pd 0x168(%rsi,%r15,1){1to8},%zmm1,%zmm17
  4032d1:	2d 
  4032d2:	62 a2 f5 58 b8 54 7e 	vfmadd231pd 0x168(%rsi,%r15,2){1to8},%zmm1,%zmm18
  4032d9:	2d 
  4032da:	62 e2 f5 58 b8 5c 06 	vfmadd231pd 0x168(%rsi,%rax,1){1to8},%zmm1,%zmm19
  4032e1:	2d 
  4032e2:	62 a2 f5 58 b8 64 be 	vfmadd231pd 0x168(%rsi,%r15,4){1to8},%zmm1,%zmm20
  4032e9:	2d 
  4032ea:	62 e2 f5 58 b8 6c 1e 	vfmadd231pd 0x168(%rsi,%rbx,1){1to8},%zmm1,%zmm21
  4032f1:	2d 
  4032f2:	62 e2 f5 58 b8 74 46 	vfmadd231pd 0x168(%rsi,%rax,2){1to8},%zmm1,%zmm22
  4032f9:	2d 
  4032fa:	62 a2 f5 58 b8 7c 1e 	vfmadd231pd 0x168(%rsi,%r11,1){1to8},%zmm1,%zmm23
  403301:	2d 
  403302:	62 22 f5 58 b8 44 fe 	vfmadd231pd 0x168(%rsi,%r15,8){1to8},%zmm1,%zmm24
  403309:	2d 
  40330a:	62 42 f5 58 b8 4a 2d 	vfmadd231pd 0x168(%r10){1to8},%zmm1,%zmm25
  403311:	62 02 f5 58 b8 54 3a 	vfmadd231pd 0x168(%r10,%r15,1){1to8},%zmm1,%zmm26
  403318:	2d 
  403319:	62 02 f5 58 b8 5c 7a 	vfmadd231pd 0x168(%r10,%r15,2){1to8},%zmm1,%zmm27
  403320:	2d 
  403321:	62 42 f5 58 b8 64 02 	vfmadd231pd 0x168(%r10,%rax,1){1to8},%zmm1,%zmm28
  403328:	2d 
  403329:	62 02 f5 58 b8 6c ba 	vfmadd231pd 0x168(%r10,%r15,4){1to8},%zmm1,%zmm29
  403330:	2d 
  403331:	62 42 f5 58 b8 74 1a 	vfmadd231pd 0x168(%r10,%rbx,1){1to8},%zmm1,%zmm30
  403338:	2d 
  403339:	62 42 f5 58 b8 7c 42 	vfmadd231pd 0x168(%r10,%rax,2){1to8},%zmm1,%zmm31
  403340:	2d 
  403341:	62 f1 fd 48 28 4f 3c 	vmovapd 0xf00(%rdi),%zmm1
  403348:	62 e2 fd 58 b8 46 2e 	vfmadd231pd 0x170(%rsi){1to8},%zmm0,%zmm16
  40334f:	62 a2 fd 58 b8 4c 3e 	vfmadd231pd 0x170(%rsi,%r15,1){1to8},%zmm0,%zmm17
  403356:	2e 
  403357:	62 a2 fd 58 b8 54 7e 	vfmadd231pd 0x170(%rsi,%r15,2){1to8},%zmm0,%zmm18
  40335e:	2e 
  40335f:	62 e2 fd 58 b8 5c 06 	vfmadd231pd 0x170(%rsi,%rax,1){1to8},%zmm0,%zmm19
  403366:	2e 
  403367:	62 a2 fd 58 b8 64 be 	vfmadd231pd 0x170(%rsi,%r15,4){1to8},%zmm0,%zmm20
  40336e:	2e 
  40336f:	62 e2 fd 58 b8 6c 1e 	vfmadd231pd 0x170(%rsi,%rbx,1){1to8},%zmm0,%zmm21
  403376:	2e 
  403377:	62 e2 fd 58 b8 74 46 	vfmadd231pd 0x170(%rsi,%rax,2){1to8},%zmm0,%zmm22
  40337e:	2e 
  40337f:	62 a2 fd 58 b8 7c 1e 	vfmadd231pd 0x170(%rsi,%r11,1){1to8},%zmm0,%zmm23
  403386:	2e 
  403387:	62 22 fd 58 b8 44 fe 	vfmadd231pd 0x170(%rsi,%r15,8){1to8},%zmm0,%zmm24
  40338e:	2e 
  40338f:	62 42 fd 58 b8 4a 2e 	vfmadd231pd 0x170(%r10){1to8},%zmm0,%zmm25
  403396:	62 02 fd 58 b8 54 3a 	vfmadd231pd 0x170(%r10,%r15,1){1to8},%zmm0,%zmm26
  40339d:	2e 
  40339e:	62 02 fd 58 b8 5c 7a 	vfmadd231pd 0x170(%r10,%r15,2){1to8},%zmm0,%zmm27
  4033a5:	2e 
  4033a6:	62 42 fd 58 b8 64 02 	vfmadd231pd 0x170(%r10,%rax,1){1to8},%zmm0,%zmm28
  4033ad:	2e 
  4033ae:	62 02 fd 58 b8 6c ba 	vfmadd231pd 0x170(%r10,%r15,4){1to8},%zmm0,%zmm29
  4033b5:	2e 
  4033b6:	62 42 fd 58 b8 74 1a 	vfmadd231pd 0x170(%r10,%rbx,1){1to8},%zmm0,%zmm30
  4033bd:	2e 
  4033be:	62 42 fd 58 b8 7c 42 	vfmadd231pd 0x170(%r10,%rax,2){1to8},%zmm0,%zmm31
  4033c5:	2e 
  4033c6:	62 e2 f5 58 b8 46 2f 	vfmadd231pd 0x178(%rsi){1to8},%zmm1,%zmm16
  4033cd:	62 a2 f5 58 b8 4c 3e 	vfmadd231pd 0x178(%rsi,%r15,1){1to8},%zmm1,%zmm17
  4033d4:	2f 
  4033d5:	62 a2 f5 58 b8 54 7e 	vfmadd231pd 0x178(%rsi,%r15,2){1to8},%zmm1,%zmm18
  4033dc:	2f 
  4033dd:	62 e2 f5 58 b8 5c 06 	vfmadd231pd 0x178(%rsi,%rax,1){1to8},%zmm1,%zmm19
  4033e4:	2f 
  4033e5:	62 a2 f5 58 b8 64 be 	vfmadd231pd 0x178(%rsi,%r15,4){1to8},%zmm1,%zmm20
  4033ec:	2f 
  4033ed:	62 e2 f5 58 b8 6c 1e 	vfmadd231pd 0x178(%rsi,%rbx,1){1to8},%zmm1,%zmm21
  4033f4:	2f 
  4033f5:	62 e2 f5 58 b8 74 46 	vfmadd231pd 0x178(%rsi,%rax,2){1to8},%zmm1,%zmm22
  4033fc:	2f 
  4033fd:	62 a2 f5 58 b8 7c 1e 	vfmadd231pd 0x178(%rsi,%r11,1){1to8},%zmm1,%zmm23
  403404:	2f 
  403405:	62 22 f5 58 b8 44 fe 	vfmadd231pd 0x178(%rsi,%r15,8){1to8},%zmm1,%zmm24
  40340c:	2f 
  40340d:	62 42 f5 58 b8 4a 2f 	vfmadd231pd 0x178(%r10){1to8},%zmm1,%zmm25
  403414:	62 02 f5 58 b8 54 3a 	vfmadd231pd 0x178(%r10,%r15,1){1to8},%zmm1,%zmm26
  40341b:	2f 
  40341c:	62 02 f5 58 b8 5c 7a 	vfmadd231pd 0x178(%r10,%r15,2){1to8},%zmm1,%zmm27
  403423:	2f 
  403424:	62 42 f5 58 b8 64 02 	vfmadd231pd 0x178(%r10,%rax,1){1to8},%zmm1,%zmm28
  40342b:	2f 
  40342c:	62 02 f5 58 b8 6c ba 	vfmadd231pd 0x178(%r10,%r15,4){1to8},%zmm1,%zmm29
  403433:	2f 
  403434:	62 42 f5 58 b8 74 1a 	vfmadd231pd 0x178(%r10,%rbx,1){1to8},%zmm1,%zmm30
  40343b:	2f 
  40343c:	62 42 f5 58 b8 7c 42 	vfmadd231pd 0x178(%r10,%rax,2){1to8},%zmm1,%zmm31
  403443:	2f 
  403444:	48 81 ef 00 20 00 00 	sub    $0x2000,%rdi
  40344b:	62 e1 fd 48 29 02    	vmovapd %zmm16,(%rdx)
  403451:	62 e1 fd 48 29 4a 04 	vmovapd %zmm17,0x100(%rdx)
  403458:	62 e1 fd 48 29 52 08 	vmovapd %zmm18,0x200(%rdx)
  40345f:	62 e1 fd 48 29 5a 0c 	vmovapd %zmm19,0x300(%rdx)
  403466:	62 e1 fd 48 29 62 10 	vmovapd %zmm20,0x400(%rdx)
  40346d:	62 e1 fd 48 29 6a 14 	vmovapd %zmm21,0x500(%rdx)
  403474:	62 e1 fd 48 29 72 18 	vmovapd %zmm22,0x600(%rdx)
  40347b:	62 e1 fd 48 29 7a 1c 	vmovapd %zmm23,0x700(%rdx)
  403482:	62 61 fd 48 29 42 20 	vmovapd %zmm24,0x800(%rdx)
  403489:	62 61 fd 48 29 4a 24 	vmovapd %zmm25,0x900(%rdx)
  403490:	62 61 fd 48 29 52 28 	vmovapd %zmm26,0xa00(%rdx)
  403497:	62 61 fd 48 29 5a 2c 	vmovapd %zmm27,0xb00(%rdx)
  40349e:	62 61 fd 48 29 62 30 	vmovapd %zmm28,0xc00(%rdx)
  4034a5:	62 61 fd 48 29 6a 34 	vmovapd %zmm29,0xd00(%rdx)
  4034ac:	62 61 fd 48 29 72 38 	vmovapd %zmm30,0xe00(%rdx)
  4034b3:	62 61 fd 48 29 7a 3c 	vmovapd %zmm31,0xf00(%rdx)
  4034ba:	48 83 c2 40          	add    $0x40,%rdx
  4034be:	48 83 c7 40          	add    $0x40,%rdi
  4034c2:	49 83 fc 20          	cmp    $0x20,%r12
  4034c6:	0f 8c fa e5 ff ff    	jl     401ac6 <_Z25jump_penalty_2_20_libxsmmPKdS0_Pd+0x5c>
  4034cc:	48 81 c2 00 0f 00 00 	add    $0xf00,%rdx
  4034d3:	48 81 c6 00 18 00 00 	add    $0x1800,%rsi
  4034da:	48 81 ef 00 01 00 00 	sub    $0x100,%rdi
  4034e1:	49 83 fd 20          	cmp    $0x20,%r13
  4034e5:	0f 8c d0 e5 ff ff    	jl     401abb <_Z25jump_penalty_2_20_libxsmmPKdS0_Pd+0x51>
  4034eb:	48 8b 5c 24 f0       	mov    -0x10(%rsp),%rbx
  4034f0:	4c 8b 64 24 e8       	mov    -0x18(%rsp),%r12
  4034f5:	4c 8b 6c 24 e0       	mov    -0x20(%rsp),%r13
  4034fa:	4c 8b 74 24 d8       	mov    -0x28(%rsp),%r14
  4034ff:	4c 8b 7c 24 d0       	mov    -0x30(%rsp),%r15
  403504:	c3                   	retq   

0000000000403505 <_Z13assert_equalsRK6MatrixS1_>:
  403505:	48 83 ec 38          	sub    $0x38,%rsp
  403509:	4c 89 74 24 20       	mov    %r14,0x20(%rsp)
  40350e:	48 89 6c 24 08       	mov    %rbp,0x8(%rsp)
  403513:	48 89 5c 24 10       	mov    %rbx,0x10(%rsp)
  403518:	4c 89 7c 24 18       	mov    %r15,0x18(%rsp)
  40351d:	4c 89 6c 24 28       	mov    %r13,0x28(%rsp)
  403522:	49 89 fe             	mov    %rdi,%r14
  403525:	49 89 f7             	mov    %rsi,%r15
  403528:	41 8b 46 08          	mov    0x8(%r14),%eax
  40352c:	45 31 ed             	xor    %r13d,%r13d
  40352f:	41 83 c5 01          	add    $0x1,%r13d
  403533:	41 3b 47 08          	cmp    0x8(%r15),%eax
  403537:	74 44                	je     40357d <_Z13assert_equalsRK6MatrixS1_+0x78>
  403539:	bf 60 92 60 00       	mov    $0x609260,%edi
  40353e:	be 8c 61 40 00       	mov    $0x40618c,%esi
  403543:	45 31 ed             	xor    %r13d,%r13d
  403546:	e8 f5 df ff ff       	callq  401540 <_ZStlsISt11char_traitsIcEERSt13basic_ostreamIcT_ES5_PKc@plt>
  40354b:	48 89 c7             	mov    %rax,%rdi
  40354e:	41 8b 76 08          	mov    0x8(%r14),%esi
  403552:	e8 59 e1 ff ff       	callq  4016b0 <_ZNSolsEi@plt>
  403557:	48 89 c7             	mov    %rax,%rdi
  40355a:	be a4 61 40 00       	mov    $0x4061a4,%esi
  40355f:	e8 dc df ff ff       	callq  401540 <_ZStlsISt11char_traitsIcEERSt13basic_ostreamIcT_ES5_PKc@plt>
  403564:	48 89 c7             	mov    %rax,%rdi
  403567:	41 8b 77 08          	mov    0x8(%r15),%esi
  40356b:	e8 40 e1 ff ff       	callq  4016b0 <_ZNSolsEi@plt>
  403570:	48 89 c7             	mov    %rax,%rdi
  403573:	be d0 14 40 00       	mov    $0x4014d0,%esi
  403578:	e8 f3 df ff ff       	callq  401570 <_ZNSolsEPFRSoS_E@plt>
  40357d:	41 8b 46 0c          	mov    0xc(%r14),%eax
  403581:	41 3b 47 0c          	cmp    0xc(%r15),%eax
  403585:	74 52                	je     4035d9 <_Z13assert_equalsRK6MatrixS1_+0xd4>
  403587:	bf 60 92 60 00       	mov    $0x609260,%edi
  40358c:	be ac 61 40 00       	mov    $0x4061ac,%esi
  403591:	45 31 ed             	xor    %r13d,%r13d
  403594:	e8 a7 df ff ff       	callq  401540 <_ZStlsISt11char_traitsIcEERSt13basic_ostreamIcT_ES5_PKc@plt>
  403599:	48 89 c7             	mov    %rax,%rdi
  40359c:	41 8b 76 0c          	mov    0xc(%r14),%esi
  4035a0:	e8 0b e1 ff ff       	callq  4016b0 <_ZNSolsEi@plt>
  4035a5:	48 89 c7             	mov    %rax,%rdi
  4035a8:	be a4 61 40 00       	mov    $0x4061a4,%esi
  4035ad:	e8 8e df ff ff       	callq  401540 <_ZStlsISt11char_traitsIcEERSt13basic_ostreamIcT_ES5_PKc@plt>
  4035b2:	48 89 c7             	mov    %rax,%rdi
  4035b5:	41 8b 77 0c          	mov    0xc(%r15),%esi
  4035b9:	e8 f2 e0 ff ff       	callq  4016b0 <_ZNSolsEi@plt>
  4035be:	48 89 c7             	mov    %rax,%rdi
  4035c1:	be d0 14 40 00       	mov    $0x4014d0,%esi
  4035c6:	e8 a5 df ff ff       	callq  401570 <_ZNSolsEPFRSoS_E@plt>
  4035cb:	41 8b 4e 08          	mov    0x8(%r14),%ecx
  4035cf:	85 c9                	test   %ecx,%ecx
  4035d1:	7e 74                	jle    403647 <_Z13assert_equalsRK6MatrixS1_+0x142>
  4035d3:	41 8b 46 0c          	mov    0xc(%r14),%eax
  4035d7:	eb 08                	jmp    4035e1 <_Z13assert_equalsRK6MatrixS1_+0xdc>
  4035d9:	41 8b 4e 08          	mov    0x8(%r14),%ecx
  4035dd:	85 c9                	test   %ecx,%ecx
  4035df:	7e 5d                	jle    40363e <_Z13assert_equalsRK6MatrixS1_+0x139>
  4035e1:	31 ed                	xor    %ebp,%ebp
  4035e3:	31 db                	xor    %ebx,%ebx
  4035e5:	85 c0                	test   %eax,%eax
  4035e7:	7e 4e                	jle    403637 <_Z13assert_equalsRK6MatrixS1_+0x132>
  4035e9:	49 8b 06             	mov    (%r14),%rax
  4035ec:	4c 89 f7             	mov    %r14,%rdi
  4035ef:	89 ee                	mov    %ebp,%esi
  4035f1:	89 da                	mov    %ebx,%edx
  4035f3:	ff 10                	callq  *(%rax)
  4035f5:	c5 fb 11 04 24       	vmovsd %xmm0,(%rsp)
  4035fa:	49 8b 07             	mov    (%r15),%rax
  4035fd:	4c 89 ff             	mov    %r15,%rdi
  403600:	89 ee                	mov    %ebp,%esi
  403602:	89 da                	mov    %ebx,%edx
  403604:	ff 10                	callq  *(%rax)
  403606:	c5 f9 28 c8          	vmovapd %xmm0,%xmm1
  40360a:	c5 fb 10 04 24       	vmovsd (%rsp),%xmm0
  40360f:	c5 fb 5c c1          	vsubsd %xmm1,%xmm0,%xmm0
  403613:	e8 78 1b 00 00       	callq  405190 <fabs>
  403618:	c5 fb c2 0d e7 2a 00 	vcmpngtsd 0x2ae7(%rip),%xmm0,%xmm1        # 406108 <__$Uf.0.32+0x18>
  40361f:	00 0a 
  403621:	c5 f9 7e c8          	vmovd  %xmm1,%eax
  403625:	83 c3 01             	add    $0x1,%ebx
  403628:	41 21 c5             	and    %eax,%r13d
  40362b:	41 8b 46 0c          	mov    0xc(%r14),%eax
  40362f:	39 c3                	cmp    %eax,%ebx
  403631:	7c b6                	jl     4035e9 <_Z13assert_equalsRK6MatrixS1_+0xe4>
  403633:	41 8b 4e 08          	mov    0x8(%r14),%ecx
  403637:	83 c5 01             	add    $0x1,%ebp
  40363a:	39 cd                	cmp    %ecx,%ebp
  40363c:	7c a5                	jl     4035e3 <_Z13assert_equalsRK6MatrixS1_+0xde>
  40363e:	45 85 ed             	test   %r13d,%r13d
  403641:	0f 85 8f 00 00 00    	jne    4036d6 <_Z13assert_equalsRK6MatrixS1_+0x1d1>
  403647:	bf 60 92 60 00       	mov    $0x609260,%edi
  40364c:	be d0 14 40 00       	mov    $0x4014d0,%esi
  403651:	e8 1a df ff ff       	callq  401570 <_ZNSolsEPFRSoS_E@plt>
  403656:	48 89 c7             	mov    %rax,%rdi
  403659:	be d0 14 40 00       	mov    $0x4014d0,%esi
  40365e:	e8 0d df ff ff       	callq  401570 <_ZNSolsEPFRSoS_E@plt>
  403663:	48 89 c7             	mov    %rax,%rdi
  403666:	be c8 61 40 00       	mov    $0x4061c8,%esi
  40366b:	e8 d0 de ff ff       	callq  401540 <_ZStlsISt11char_traitsIcEERSt13basic_ostreamIcT_ES5_PKc@plt>
  403670:	48 89 c7             	mov    %rax,%rdi
  403673:	be d0 14 40 00       	mov    $0x4014d0,%esi
  403678:	e8 f3 de ff ff       	callq  401570 <_ZNSolsEPFRSoS_E@plt>
  40367d:	48 89 c7             	mov    %rax,%rdi
  403680:	4c 89 f6             	mov    %r14,%rsi
  403683:	e8 6c 00 00 00       	callq  4036f4 <_ZlsRSoRK6Matrix>
  403688:	bf 60 92 60 00       	mov    $0x609260,%edi
  40368d:	be d0 14 40 00       	mov    $0x4014d0,%esi
  403692:	e8 d9 de ff ff       	callq  401570 <_ZNSolsEPFRSoS_E@plt>
  403697:	48 89 c7             	mov    %rax,%rdi
  40369a:	be d0 14 40 00       	mov    $0x4014d0,%esi
  40369f:	e8 cc de ff ff       	callq  401570 <_ZNSolsEPFRSoS_E@plt>
  4036a4:	48 89 c7             	mov    %rax,%rdi
  4036a7:	be d4 61 40 00       	mov    $0x4061d4,%esi
  4036ac:	e8 8f de ff ff       	callq  401540 <_ZStlsISt11char_traitsIcEERSt13basic_ostreamIcT_ES5_PKc@plt>
  4036b1:	48 89 c7             	mov    %rax,%rdi
  4036b4:	be d0 14 40 00       	mov    $0x4014d0,%esi
  4036b9:	e8 b2 de ff ff       	callq  401570 <_ZNSolsEPFRSoS_E@plt>
  4036be:	48 89 c7             	mov    %rax,%rdi
  4036c1:	4c 89 fe             	mov    %r15,%rsi
  4036c4:	e8 2b 00 00 00       	callq  4036f4 <_ZlsRSoRK6Matrix>
  4036c9:	48 89 c7             	mov    %rax,%rdi
  4036cc:	be d0 14 40 00       	mov    $0x4014d0,%esi
  4036d1:	e8 9a de ff ff       	callq  401570 <_ZNSolsEPFRSoS_E@plt>
  4036d6:	48 8b 5c 24 10       	mov    0x10(%rsp),%rbx
  4036db:	48 8b 6c 24 08       	mov    0x8(%rsp),%rbp
  4036e0:	4c 8b 6c 24 28       	mov    0x28(%rsp),%r13
  4036e5:	4c 8b 74 24 20       	mov    0x20(%rsp),%r14
  4036ea:	4c 8b 7c 24 18       	mov    0x18(%rsp),%r15
  4036ef:	48 83 c4 38          	add    $0x38,%rsp
  4036f3:	c3                   	retq   

00000000004036f4 <_ZlsRSoRK6Matrix>:
  4036f4:	48 83 ec 28          	sub    $0x28,%rsp
  4036f8:	4c 89 3c 24          	mov    %r15,(%rsp)
  4036fc:	4c 89 74 24 08       	mov    %r14,0x8(%rsp)
  403701:	4c 89 6c 24 10       	mov    %r13,0x10(%rsp)
  403706:	4c 89 64 24 18       	mov    %r12,0x18(%rsp)
  40370b:	49 89 f7             	mov    %rsi,%r15
  40370e:	49 89 fe             	mov    %rdi,%r14
  403711:	45 31 ed             	xor    %r13d,%r13d
  403714:	41 83 7f 08 00       	cmpl   $0x0,0x8(%r15)
  403719:	7e 71                	jle    40378c <_ZlsRSoRK6Matrix+0x98>
  40371b:	45 31 e4             	xor    %r12d,%r12d
  40371e:	41 83 7f 0c 00       	cmpl   $0x0,0xc(%r15)
  403723:	7e 50                	jle    403775 <_ZlsRSoRK6Matrix+0x81>
  403725:	4c 89 f7             	mov    %r14,%rdi
  403728:	be be 50 40 00       	mov    $0x4050be,%esi
  40372d:	e8 5e dd ff ff       	callq  401490 <_ZNSolsEPFRSt8ios_baseS0_E@plt>
  403732:	6a 0a                	pushq  $0xa
  403734:	5e                   	pop    %rsi
  403735:	48 89 c7             	mov    %rax,%rdi
  403738:	e8 63 de ff ff       	callq  4015a0 <_ZStlsIcSt11char_traitsIcEERSt13basic_ostreamIT_T0_ES6_St5_Setw@plt>
  40373d:	6a 02                	pushq  $0x2
  40373f:	5e                   	pop    %rsi
  403740:	48 89 c7             	mov    %rax,%rdi
  403743:	e8 18 df ff ff       	callq  401660 <_ZStlsIcSt11char_traitsIcEERSt13basic_ostreamIT_T0_ES6_St13_Setprecision@plt>
  403748:	49 8b 0f             	mov    (%r15),%rcx
  40374b:	4c 89 ff             	mov    %r15,%rdi
  40374e:	44 89 ee             	mov    %r13d,%esi
  403751:	44 89 e2             	mov    %r12d,%edx
  403754:	ff 11                	callq  *(%rcx)
  403756:	4c 89 f7             	mov    %r14,%rdi
  403759:	e8 92 df ff ff       	callq  4016f0 <_ZNSolsEd@plt>
  40375e:	48 89 c7             	mov    %rax,%rdi
  403761:	be 7c 69 40 00       	mov    $0x40697c,%esi
  403766:	e8 d5 dd ff ff       	callq  401540 <_ZStlsISt11char_traitsIcEERSt13basic_ostreamIcT_ES5_PKc@plt>
  40376b:	41 83 c4 01          	add    $0x1,%r12d
  40376f:	45 3b 67 0c          	cmp    0xc(%r15),%r12d
  403773:	7c b0                	jl     403725 <_ZlsRSoRK6Matrix+0x31>
  403775:	4c 89 f7             	mov    %r14,%rdi
  403778:	be d0 14 40 00       	mov    $0x4014d0,%esi
  40377d:	e8 ee dd ff ff       	callq  401570 <_ZNSolsEPFRSoS_E@plt>
  403782:	41 83 c5 01          	add    $0x1,%r13d
  403786:	45 3b 6f 08          	cmp    0x8(%r15),%r13d
  40378a:	7c 8f                	jl     40371b <_ZlsRSoRK6Matrix+0x27>
  40378c:	4c 89 f0             	mov    %r14,%rax
  40378f:	4c 8b 64 24 18       	mov    0x18(%rsp),%r12
  403794:	4c 8b 6c 24 10       	mov    0x10(%rsp),%r13
  403799:	4c 8b 74 24 08       	mov    0x8(%rsp),%r14
  40379e:	4c 8b 3c 24          	mov    (%rsp),%r15
  4037a2:	48 83 c4 28          	add    $0x28,%rsp
  4037a6:	c3                   	retq   

00000000004037a7 <_Z4gemmRK6MatrixS1_RS_>:
  4037a7:	48 83 ec 58          	sub    $0x58,%rsp
  4037ab:	4c 89 7c 24 38       	mov    %r15,0x38(%rsp)
  4037b0:	48 89 6c 24 28       	mov    %rbp,0x28(%rsp)
  4037b5:	48 89 5c 24 30       	mov    %rbx,0x30(%rsp)
  4037ba:	4c 89 74 24 40       	mov    %r14,0x40(%rsp)
  4037bf:	4c 89 6c 24 48       	mov    %r13,0x48(%rsp)
  4037c4:	4c 89 64 24 50       	mov    %r12,0x50(%rsp)
  4037c9:	49 89 d7             	mov    %rdx,%r15
  4037cc:	49 89 fd             	mov    %rdi,%r13
  4037cf:	45 8b 47 0c          	mov    0xc(%r15),%r8d
  4037d3:	44 89 44 24 20       	mov    %r8d,0x20(%rsp)
  4037d8:	41 8b 47 08          	mov    0x8(%r15),%eax
  4037dc:	89 04 24             	mov    %eax,(%rsp)
  4037df:	41 8b 4d 0c          	mov    0xc(%r13),%ecx
  4037e3:	89 4c 24 08          	mov    %ecx,0x8(%rsp)
  4037e7:	49 89 f6             	mov    %rsi,%r14
  4037ea:	45 31 e4             	xor    %r12d,%r12d
  4037ed:	45 85 c0             	test   %r8d,%r8d
  4037f0:	7e 7f                	jle    403871 <_Z4gemmRK6MatrixS1_RS_+0xca>
  4037f2:	31 db                	xor    %ebx,%ebx
  4037f4:	83 7c 24 08 00       	cmpl   $0x0,0x8(%rsp)
  4037f9:	7e 6b                	jle    403866 <_Z4gemmRK6MatrixS1_RS_+0xbf>
  4037fb:	31 ed                	xor    %ebp,%ebp
  4037fd:	83 3c 24 00          	cmpl   $0x0,(%rsp)
  403801:	7e 5a                	jle    40385d <_Z4gemmRK6MatrixS1_RS_+0xb6>
  403803:	49 8b 07             	mov    (%r15),%rax
  403806:	4c 89 ff             	mov    %r15,%rdi
  403809:	89 ee                	mov    %ebp,%esi
  40380b:	44 89 e2             	mov    %r12d,%edx
  40380e:	ff 10                	callq  *(%rax)
  403810:	c5 fb 11 44 24 18    	vmovsd %xmm0,0x18(%rsp)
  403816:	49 8b 45 00          	mov    0x0(%r13),%rax
  40381a:	4c 89 ef             	mov    %r13,%rdi
  40381d:	89 ee                	mov    %ebp,%esi
  40381f:	89 da                	mov    %ebx,%edx
  403821:	ff 10                	callq  *(%rax)
  403823:	c5 fb 11 44 24 10    	vmovsd %xmm0,0x10(%rsp)
  403829:	49 8b 06             	mov    (%r14),%rax
  40382c:	4c 89 f7             	mov    %r14,%rdi
  40382f:	89 de                	mov    %ebx,%esi
  403831:	44 89 e2             	mov    %r12d,%edx
  403834:	ff 10                	callq  *(%rax)
  403836:	c5 fb 10 4c 24 18    	vmovsd 0x18(%rsp),%xmm1
  40383c:	49 8b 07             	mov    (%r15),%rax
  40383f:	4c 89 ff             	mov    %r15,%rdi
  403842:	89 ee                	mov    %ebp,%esi
  403844:	44 89 e2             	mov    %r12d,%edx
  403847:	c4 e2 f9 b9 4c 24 10 	vfmadd231sd 0x10(%rsp),%xmm0,%xmm1
  40384e:	c5 f9 28 c1          	vmovapd %xmm1,%xmm0
  403852:	ff 50 08             	callq  *0x8(%rax)
  403855:	83 c5 01             	add    $0x1,%ebp
  403858:	3b 2c 24             	cmp    (%rsp),%ebp
  40385b:	7c a6                	jl     403803 <_Z4gemmRK6MatrixS1_RS_+0x5c>
  40385d:	83 c3 01             	add    $0x1,%ebx
  403860:	3b 5c 24 08          	cmp    0x8(%rsp),%ebx
  403864:	7c 95                	jl     4037fb <_Z4gemmRK6MatrixS1_RS_+0x54>
  403866:	41 83 c4 01          	add    $0x1,%r12d
  40386a:	44 3b 64 24 20       	cmp    0x20(%rsp),%r12d
  40386f:	7c 81                	jl     4037f2 <_Z4gemmRK6MatrixS1_RS_+0x4b>
  403871:	48 8b 5c 24 30       	mov    0x30(%rsp),%rbx
  403876:	48 8b 6c 24 28       	mov    0x28(%rsp),%rbp
  40387b:	4c 8b 64 24 50       	mov    0x50(%rsp),%r12
  403880:	4c 8b 6c 24 48       	mov    0x48(%rsp),%r13
  403885:	4c 8b 74 24 40       	mov    0x40(%rsp),%r14
  40388a:	4c 8b 7c 24 38       	mov    0x38(%rsp),%r15
  40388f:	48 83 c4 58          	add    $0x58,%rsp
  403893:	c3                   	retq   

0000000000403894 <_Z9microsecs8timespecS_>:
  403894:	48 29 fa             	sub    %rdi,%rdx
  403897:	48 69 c2 00 ca 9a 3b 	imul   $0x3b9aca00,%rdx,%rax
  40389e:	48 01 c8             	add    %rcx,%rax
  4038a1:	48 29 f0             	sub    %rsi,%rax
  4038a4:	62 e1 ff 00 2a c0    	vcvtsi2sd %rax,%xmm16,%xmm16
  4038aa:	62 f1 ff 00 59 05 5c 	vmulsd 0x285c(%rip),%xmm16,%xmm0        # 406110 <__$Uf.0.32+0x20>
  4038b1:	28 00 00 
  4038b4:	c3                   	retq   

00000000004038b5 <_Z31test_jump_penalty_2_20_unrolledv>:
  4038b5:	48 81 ec c8 00 00 00 	sub    $0xc8,%rsp
  4038bc:	48 89 ac 24 b8 00 00 	mov    %rbp,0xb8(%rsp)
  4038c3:	00 
  4038c4:	4c 89 a4 24 b0 00 00 	mov    %r12,0xb0(%rsp)
  4038cb:	00 
  4038cc:	41 bc 18 92 60 00    	mov    $0x609218,%r12d
  4038d2:	6a 20                	pushq  $0x20
  4038d4:	5d                   	pop    %rbp
  4038d5:	48 8d 04 24          	lea    (%rsp),%rax
  4038d9:	4c 89 20             	mov    %r12,(%rax)
  4038dc:	48 8d 78 18          	lea    0x18(%rax),%rdi
  4038e0:	89 68 10             	mov    %ebp,0x10(%rax)
  4038e3:	6a 40                	pushq  $0x40
  4038e5:	5e                   	pop    %rsi
  4038e6:	89 68 08             	mov    %ebp,0x8(%rax)
  4038e9:	ba 00 30 00 00       	mov    $0x3000,%edx
  4038ee:	c7 40 0c 30 00 00 00 	movl   $0x30,0xc(%rax)
  4038f5:	e8 f6 db ff ff       	callq  4014f0 <posix_memalign@plt>
  4038fa:	48 8d 3c 24          	lea    (%rsp),%rdi
  4038fe:	e8 a9 13 00 00       	callq  404cac <_ZN11DenseMatrix4zeroEv>
  403903:	48 8d 3c 24          	lea    (%rsp),%rdi
  403907:	e8 fc 13 00 00       	callq  404d08 <_ZN11DenseMatrix6randomEv>
  40390c:	48 8d 7c 24 60       	lea    0x60(%rsp),%rdi
  403911:	be 18 61 40 00       	mov    $0x406118,%esi
  403916:	e8 71 14 00 00       	callq  404d8c <_ZN11DenseMatrixC1EPKc>
  40391b:	48 8d bc 24 80 00 00 	lea    0x80(%rsp),%rdi
  403922:	00 
  403923:	6a 10                	pushq  $0x10
  403925:	5a                   	pop    %rdx
  403926:	48 8d 77 e0          	lea    -0x20(%rdi),%rsi
  40392a:	89 d1                	mov    %edx,%ecx
  40392c:	e8 fe 04 00 00       	callq  403e2f <_Z7to_bcscRK6Matrixii>
  403931:	48 8d 44 24 40       	lea    0x40(%rsp),%rax
  403936:	4c 89 20             	mov    %r12,(%rax)
  403939:	48 8d 78 18          	lea    0x18(%rax),%rdi
  40393d:	89 68 10             	mov    %ebp,0x10(%rax)
  403940:	6a 40                	pushq  $0x40
  403942:	5e                   	pop    %rsi
  403943:	89 68 08             	mov    %ebp,0x8(%rax)
  403946:	ba 00 20 00 00       	mov    $0x2000,%edx
  40394b:	89 68 0c             	mov    %ebp,0xc(%rax)
  40394e:	e8 9d db ff ff       	callq  4014f0 <posix_memalign@plt>
  403953:	48 8d 7c 24 40       	lea    0x40(%rsp),%rdi
  403958:	e8 4f 13 00 00       	callq  404cac <_ZN11DenseMatrix4zeroEv>
  40395d:	48 8d 44 24 20       	lea    0x20(%rsp),%rax
  403962:	4c 89 20             	mov    %r12,(%rax)
  403965:	48 8d 78 18          	lea    0x18(%rax),%rdi
  403969:	89 68 10             	mov    %ebp,0x10(%rax)
  40396c:	6a 40                	pushq  $0x40
  40396e:	5e                   	pop    %rsi
  40396f:	89 68 08             	mov    %ebp,0x8(%rax)
  403972:	ba 00 20 00 00       	mov    $0x2000,%edx
  403977:	89 68 0c             	mov    %ebp,0xc(%rax)
  40397a:	e8 71 db ff ff       	callq  4014f0 <posix_memalign@plt>
  40397f:	48 8d 7c 24 20       	lea    0x20(%rsp),%rdi
  403984:	e8 23 13 00 00       	callq  404cac <_ZN11DenseMatrix4zeroEv>
  403989:	48 8d 3c 24          	lea    (%rsp),%rdi
  40398d:	48 8d 77 60          	lea    0x60(%rdi),%rsi
  403991:	48 8d 56 e0          	lea    -0x20(%rsi),%rdx
  403995:	e8 0d fe ff ff       	callq  4037a7 <_Z4gemmRK6MatrixS1_RS_>
  40399a:	48 8d bc 24 80 00 00 	lea    0x80(%rsp),%rdi
  4039a1:	00 
  4039a2:	e8 55 17 00 00       	callq  4050fc <_ZNKSt10unique_ptrI12SparseMatrixSt14default_deleteIS0_EEptEv>
  4039a7:	48 8b 7c 24 18       	mov    0x18(%rsp),%rdi
  4039ac:	48 8b 54 24 38       	mov    0x38(%rsp),%rdx
  4039b1:	48 8b 70 18          	mov    0x18(%rax),%rsi
  4039b5:	e8 6e 01 00 00       	callq  403b28 <_Z26jump_penalty_2_20_unrolledPKdS0_Pd>
  4039ba:	48 8d 7c 24 40       	lea    0x40(%rsp),%rdi
  4039bf:	48 8d 77 e0          	lea    -0x20(%rdi),%rsi
  4039c3:	e8 3d fb ff ff       	callq  403505 <_Z13assert_equalsRK6MatrixS1_>
  4039c8:	31 ff                	xor    %edi,%edi
  4039ca:	83 c7 01             	add    $0x1,%edi
  4039cd:	48 8d b4 24 90 00 00 	lea    0x90(%rsp),%rsi
  4039d4:	00 
  4039d5:	e8 26 dc ff ff       	callq  401600 <clock_gettime@plt>
  4039da:	31 ed                	xor    %ebp,%ebp
  4039dc:	48 8d bc 24 80 00 00 	lea    0x80(%rsp),%rdi
  4039e3:	00 
  4039e4:	e8 13 17 00 00       	callq  4050fc <_ZNKSt10unique_ptrI12SparseMatrixSt14default_deleteIS0_EEptEv>
  4039e9:	48 8b 7c 24 18       	mov    0x18(%rsp),%rdi
  4039ee:	48 8b 54 24 38       	mov    0x38(%rsp),%rdx
  4039f3:	48 8b 70 18          	mov    0x18(%rax),%rsi
  4039f7:	e8 2c 01 00 00       	callq  403b28 <_Z26jump_penalty_2_20_unrolledPKdS0_Pd>
  4039fc:	83 c5 01             	add    $0x1,%ebp
  4039ff:	81 fd b8 0b 00 00    	cmp    $0xbb8,%ebp
  403a05:	7c d5                	jl     4039dc <_Z31test_jump_penalty_2_20_unrolledv+0x127>
  403a07:	31 ff                	xor    %edi,%edi
  403a09:	83 c7 01             	add    $0x1,%edi
  403a0c:	48 8d b4 24 a0 00 00 	lea    0xa0(%rsp),%rsi
  403a13:	00 
  403a14:	e8 e7 db ff ff       	callq  401600 <clock_gettime@plt>
  403a19:	bf 60 92 60 00       	mov    $0x609260,%edi
  403a1e:	be dc 61 40 00       	mov    $0x4061dc,%esi
  403a23:	e8 18 db ff ff       	callq  401540 <_ZStlsISt11char_traitsIcEERSt13basic_ostreamIcT_ES5_PKc@plt>
  403a28:	48 89 c5             	mov    %rax,%rbp
  403a2b:	48 8d 84 24 90 00 00 	lea    0x90(%rsp),%rax
  403a32:	00 
  403a33:	48 8d 8c 24 a0 00 00 	lea    0xa0(%rsp),%rcx
  403a3a:	00 
  403a3b:	48 8b 38             	mov    (%rax),%rdi
  403a3e:	48 8b 70 08          	mov    0x8(%rax),%rsi
  403a42:	48 8b 11             	mov    (%rcx),%rdx
  403a45:	48 8b 49 08          	mov    0x8(%rcx),%rcx
  403a49:	e8 46 fe ff ff       	callq  403894 <_Z9microsecs8timespecS_>
  403a4e:	c5 fb 5e 05 a2 26 00 	vdivsd 0x26a2(%rip),%xmm0,%xmm0        # 4060f8 <__$Uf.0.32+0x8>
  403a55:	00 
  403a56:	48 89 ef             	mov    %rbp,%rdi
  403a59:	e8 92 dc ff ff       	callq  4016f0 <_ZNSolsEd@plt>
  403a5e:	48 89 c7             	mov    %rax,%rdi
  403a61:	be d0 14 40 00       	mov    $0x4014d0,%esi
  403a66:	e8 05 db ff ff       	callq  401570 <_ZNSolsEPFRSoS_E@plt>
  403a6b:	48 8b 7c 24 38       	mov    0x38(%rsp),%rdi
  403a70:	4c 89 64 24 20       	mov    %r12,0x20(%rsp)
  403a75:	e8 46 db ff ff       	callq  4015c0 <free@plt>
  403a7a:	48 8b 7c 24 58       	mov    0x58(%rsp),%rdi
  403a7f:	4c 89 64 24 40       	mov    %r12,0x40(%rsp)
  403a84:	e8 37 db ff ff       	callq  4015c0 <free@plt>
  403a89:	48 8d bc 24 80 00 00 	lea    0x80(%rsp),%rdi
  403a90:	00 
  403a91:	e8 72 16 00 00       	callq  405108 <_ZNSt10unique_ptrI12SparseMatrixSt14default_deleteIS0_EED1Ev>
  403a96:	48 8b 7c 24 78       	mov    0x78(%rsp),%rdi
  403a9b:	4c 89 64 24 60       	mov    %r12,0x60(%rsp)
  403aa0:	e8 1b db ff ff       	callq  4015c0 <free@plt>
  403aa5:	48 8b 7c 24 18       	mov    0x18(%rsp),%rdi
  403aaa:	4c 89 24 24          	mov    %r12,(%rsp)
  403aae:	e8 0d db ff ff       	callq  4015c0 <free@plt>
  403ab3:	48 8b ac 24 b8 00 00 	mov    0xb8(%rsp),%rbp
  403aba:	00 
  403abb:	4c 8b a4 24 b0 00 00 	mov    0xb0(%rsp),%r12
  403ac2:	00 
  403ac3:	48 81 c4 c8 00 00 00 	add    $0xc8,%rsp
  403aca:	c3                   	retq   
  403acb:	48 89 84 24 88 00 00 	mov    %rax,0x88(%rsp)
  403ad2:	00 
  403ad3:	48 8d 7c 24 20       	lea    0x20(%rsp),%rdi
  403ad8:	e8 17 12 00 00       	callq  404cf4 <_ZN11DenseMatrixD1Ev>
  403add:	48 8d 7c 24 40       	lea    0x40(%rsp),%rdi
  403ae2:	e8 0d 12 00 00       	callq  404cf4 <_ZN11DenseMatrixD1Ev>
  403ae7:	48 8d bc 24 80 00 00 	lea    0x80(%rsp),%rdi
  403aee:	00 
  403aef:	e8 14 16 00 00       	callq  405108 <_ZNSt10unique_ptrI12SparseMatrixSt14default_deleteIS0_EED1Ev>
  403af4:	48 8d 7c 24 60       	lea    0x60(%rsp),%rdi
  403af9:	e8 f6 11 00 00       	callq  404cf4 <_ZN11DenseMatrixD1Ev>
  403afe:	48 8d 3c 24          	lea    (%rsp),%rdi
  403b02:	e8 ed 11 00 00       	callq  404cf4 <_ZN11DenseMatrixD1Ev>
  403b07:	48 8b bc 24 88 00 00 	mov    0x88(%rsp),%rdi
  403b0e:	00 
  403b0f:	e8 ac db ff ff       	callq  4016c0 <_Unwind_Resume@plt>
  403b14:	48 89 84 24 88 00 00 	mov    %rax,0x88(%rsp)
  403b1b:	00 
  403b1c:	eb d6                	jmp    403af4 <_Z31test_jump_penalty_2_20_unrolledv+0x23f>
  403b1e:	48 89 84 24 88 00 00 	mov    %rax,0x88(%rsp)
  403b25:	00 
  403b26:	eb d6                	jmp    403afe <_Z31test_jump_penalty_2_20_unrolledv+0x249>

0000000000403b28 <_Z26jump_penalty_2_20_unrolledPKdS0_Pd>:
  403b28:	4c 89 64 24 f0       	mov    %r12,-0x10(%rsp)
  403b2d:	48 89 7c 24 d8       	mov    %rdi,-0x28(%rsp)
  403b32:	48 89 74 24 e0       	mov    %rsi,-0x20(%rsp)
  403b37:	48 89 54 24 e8       	mov    %rdx,-0x18(%rsp)
  403b3c:	48 8b 7c 24 d8       	mov    -0x28(%rsp),%rdi
  403b41:	48 8b 74 24 e0       	mov    -0x20(%rsp),%rsi
  403b46:	48 8b 54 24 e8       	mov    -0x18(%rsp),%rdx
  403b4b:	49 c7 c4 00 00 00 00 	mov    $0x0,%r12

0000000000403b52 <LOOP_TOP_0_1>:
  403b52:	62 e1 fd 48 28 02    	vmovapd (%rdx),%zmm16
  403b58:	62 e1 fd 48 28 4a 04 	vmovapd 0x100(%rdx),%zmm17
  403b5f:	62 e1 fd 48 28 52 08 	vmovapd 0x200(%rdx),%zmm18
  403b66:	62 e1 fd 48 28 5a 0c 	vmovapd 0x300(%rdx),%zmm19
  403b6d:	62 e1 fd 48 28 62 10 	vmovapd 0x400(%rdx),%zmm20
  403b74:	62 e1 fd 48 28 6a 14 	vmovapd 0x500(%rdx),%zmm21
  403b7b:	62 e1 fd 48 28 72 18 	vmovapd 0x600(%rdx),%zmm22
  403b82:	62 e1 fd 48 28 7a 1c 	vmovapd 0x700(%rdx),%zmm23
  403b89:	62 61 fd 48 28 42 20 	vmovapd 0x800(%rdx),%zmm24
  403b90:	62 61 fd 48 28 4a 24 	vmovapd 0x900(%rdx),%zmm25
  403b97:	62 61 fd 48 28 52 28 	vmovapd 0xa00(%rdx),%zmm26
  403b9e:	62 61 fd 48 28 5a 2c 	vmovapd 0xb00(%rdx),%zmm27
  403ba5:	62 61 fd 48 28 62 30 	vmovapd 0xc00(%rdx),%zmm28
  403bac:	62 61 fd 48 28 6a 34 	vmovapd 0xd00(%rdx),%zmm29
  403bb3:	62 61 fd 48 28 72 38 	vmovapd 0xe00(%rdx),%zmm30
  403bba:	62 61 fd 48 28 7a 3c 	vmovapd 0xf00(%rdx),%zmm31
  403bc1:	62 f1 fd 48 28 8f 00 	vmovapd 0x2100(%rdi),%zmm1
  403bc8:	21 00 00 
  403bcb:	62 f1 fd 48 28 97 00 	vmovapd 0x2200(%rdi),%zmm2
  403bd2:	22 00 00 
  403bd5:	62 f1 fd 48 28 af 00 	vmovapd 0x2500(%rdi),%zmm5
  403bdc:	25 00 00 
  403bdf:	62 71 fd 48 28 9f 00 	vmovapd 0x2b00(%rdi),%zmm11
  403be6:	2b 00 00 
  403be9:	62 71 fd 48 28 a7 00 	vmovapd 0x2c00(%rdi),%zmm12
  403bf0:	2c 00 00 
  403bf3:	62 71 fd 48 28 af 00 	vmovapd 0x2d00(%rdi),%zmm13
  403bfa:	2d 00 00 
  403bfd:	62 71 fd 48 28 b7 00 	vmovapd 0x2e00(%rdi),%zmm14
  403c04:	2e 00 00 
  403c07:	62 e2 f5 58 b8 6e 03 	vfmadd231pd 0x18(%rsi){1to8},%zmm1,%zmm21
  403c0e:	62 e2 f5 58 b8 7e 05 	vfmadd231pd 0x28(%rsi){1to8},%zmm1,%zmm23
  403c15:	62 62 f5 58 b8 66 07 	vfmadd231pd 0x38(%rsi){1to8},%zmm1,%zmm28
  403c1c:	62 62 ed 58 b8 76 08 	vfmadd231pd 0x40(%rsi){1to8},%zmm2,%zmm30
  403c23:	62 62 d5 58 b8 7e 09 	vfmadd231pd 0x48(%rsi){1to8},%zmm5,%zmm31
  403c2a:	62 e2 a5 58 b8 06    	vfmadd231pd (%rsi){1to8},%zmm11,%zmm16
  403c30:	62 e2 9d 58 b8 4e 01 	vfmadd231pd 0x8(%rsi){1to8},%zmm12,%zmm17
  403c37:	62 e2 95 58 b8 6e 04 	vfmadd231pd 0x20(%rsi){1to8},%zmm13,%zmm21
  403c3e:	62 62 95 58 b8 4e 06 	vfmadd231pd 0x30(%rsi){1to8},%zmm13,%zmm25
  403c45:	62 e2 8d 58 b8 5e 02 	vfmadd231pd 0x10(%rsi){1to8},%zmm14,%zmm19
  403c4c:	62 e1 fd 48 29 02    	vmovapd %zmm16,(%rdx)
  403c52:	62 e1 fd 48 29 4a 04 	vmovapd %zmm17,0x100(%rdx)
  403c59:	62 e1 fd 48 29 52 08 	vmovapd %zmm18,0x200(%rdx)
  403c60:	62 e1 fd 48 29 5a 0c 	vmovapd %zmm19,0x300(%rdx)
  403c67:	62 e1 fd 48 29 62 10 	vmovapd %zmm20,0x400(%rdx)
  403c6e:	62 e1 fd 48 29 6a 14 	vmovapd %zmm21,0x500(%rdx)
  403c75:	62 e1 fd 48 29 72 18 	vmovapd %zmm22,0x600(%rdx)
  403c7c:	62 e1 fd 48 29 7a 1c 	vmovapd %zmm23,0x700(%rdx)
  403c83:	62 61 fd 48 29 42 20 	vmovapd %zmm24,0x800(%rdx)
  403c8a:	62 61 fd 48 29 4a 24 	vmovapd %zmm25,0x900(%rdx)
  403c91:	62 61 fd 48 29 52 28 	vmovapd %zmm26,0xa00(%rdx)
  403c98:	62 61 fd 48 29 5a 2c 	vmovapd %zmm27,0xb00(%rdx)
  403c9f:	62 61 fd 48 29 62 30 	vmovapd %zmm28,0xc00(%rdx)
  403ca6:	62 61 fd 48 29 6a 34 	vmovapd %zmm29,0xd00(%rdx)
  403cad:	62 61 fd 48 29 72 38 	vmovapd %zmm30,0xe00(%rdx)
  403cb4:	62 61 fd 48 29 7a 3c 	vmovapd %zmm31,0xf00(%rdx)
  403cbb:	48 81 c2 00 10 00 00 	add    $0x1000,%rdx
  403cc2:	62 e1 fd 48 28 02    	vmovapd (%rdx),%zmm16
  403cc8:	62 e1 fd 48 28 4a 04 	vmovapd 0x100(%rdx),%zmm17
  403ccf:	62 e1 fd 48 28 52 08 	vmovapd 0x200(%rdx),%zmm18
  403cd6:	62 e1 fd 48 28 5a 0c 	vmovapd 0x300(%rdx),%zmm19
  403cdd:	62 e1 fd 48 28 62 10 	vmovapd 0x400(%rdx),%zmm20
  403ce4:	62 e1 fd 48 28 6a 14 	vmovapd 0x500(%rdx),%zmm21
  403ceb:	62 e1 fd 48 28 72 18 	vmovapd 0x600(%rdx),%zmm22
  403cf2:	62 e1 fd 48 28 7a 1c 	vmovapd 0x700(%rdx),%zmm23
  403cf9:	62 61 fd 48 28 42 20 	vmovapd 0x800(%rdx),%zmm24
  403d00:	62 61 fd 48 28 4a 24 	vmovapd 0x900(%rdx),%zmm25
  403d07:	62 61 fd 48 28 52 28 	vmovapd 0xa00(%rdx),%zmm26
  403d0e:	62 61 fd 48 28 5a 2c 	vmovapd 0xb00(%rdx),%zmm27
  403d15:	62 61 fd 48 28 62 30 	vmovapd 0xc00(%rdx),%zmm28
  403d1c:	62 61 fd 48 28 6a 34 	vmovapd 0xd00(%rdx),%zmm29
  403d23:	62 61 fd 48 28 72 38 	vmovapd 0xe00(%rdx),%zmm30
  403d2a:	62 61 fd 48 28 7a 3c 	vmovapd 0xf00(%rdx),%zmm31
  403d31:	62 f1 fd 48 28 4f 04 	vmovapd 0x100(%rdi),%zmm1
  403d38:	62 f1 fd 48 28 67 10 	vmovapd 0x400(%rdi),%zmm4
  403d3f:	62 71 fd 48 28 47 20 	vmovapd 0x800(%rdi),%zmm8
  403d46:	62 71 fd 48 28 4f 24 	vmovapd 0x900(%rdi),%zmm9
  403d4d:	62 71 fd 48 28 67 30 	vmovapd 0xc00(%rdi),%zmm12
  403d54:	62 71 fd 48 28 6f 34 	vmovapd 0xd00(%rdi),%zmm13
  403d5b:	62 e2 f5 58 b8 46 0a 	vfmadd231pd 0x50(%rsi){1to8},%zmm1,%zmm16
  403d62:	62 62 f5 58 b8 7e 12 	vfmadd231pd 0x90(%rsi){1to8},%zmm1,%zmm31
  403d69:	62 e2 dd 58 b8 56 0b 	vfmadd231pd 0x58(%rsi){1to8},%zmm4,%zmm18
  403d70:	62 e2 dd 58 b8 66 0e 	vfmadd231pd 0x70(%rsi){1to8},%zmm4,%zmm20
  403d77:	62 e2 bd 58 b8 56 0c 	vfmadd231pd 0x60(%rsi){1to8},%zmm8,%zmm18
  403d7e:	62 e2 b5 58 b8 56 0d 	vfmadd231pd 0x68(%rsi){1to8},%zmm9,%zmm18
  403d85:	62 e2 9d 58 b8 6e 0f 	vfmadd231pd 0x78(%rsi){1to8},%zmm12,%zmm21
  403d8c:	62 62 9d 58 b8 4e 10 	vfmadd231pd 0x80(%rsi){1to8},%zmm12,%zmm25
  403d93:	62 62 9d 58 b8 7e 13 	vfmadd231pd 0x98(%rsi){1to8},%zmm12,%zmm31
  403d9a:	62 62 95 58 b8 56 11 	vfmadd231pd 0x88(%rsi){1to8},%zmm13,%zmm26
  403da1:	62 e1 fd 48 29 02    	vmovapd %zmm16,(%rdx)
  403da7:	62 e1 fd 48 29 4a 04 	vmovapd %zmm17,0x100(%rdx)
  403dae:	62 e1 fd 48 29 52 08 	vmovapd %zmm18,0x200(%rdx)
  403db5:	62 e1 fd 48 29 5a 0c 	vmovapd %zmm19,0x300(%rdx)
  403dbc:	62 e1 fd 48 29 62 10 	vmovapd %zmm20,0x400(%rdx)
  403dc3:	62 e1 fd 48 29 6a 14 	vmovapd %zmm21,0x500(%rdx)
  403dca:	62 e1 fd 48 29 72 18 	vmovapd %zmm22,0x600(%rdx)
  403dd1:	62 e1 fd 48 29 7a 1c 	vmovapd %zmm23,0x700(%rdx)
  403dd8:	62 61 fd 48 29 42 20 	vmovapd %zmm24,0x800(%rdx)
  403ddf:	62 61 fd 48 29 4a 24 	vmovapd %zmm25,0x900(%rdx)
  403de6:	62 61 fd 48 29 52 28 	vmovapd %zmm26,0xa00(%rdx)
  403ded:	62 61 fd 48 29 5a 2c 	vmovapd %zmm27,0xb00(%rdx)
  403df4:	62 61 fd 48 29 62 30 	vmovapd %zmm28,0xc00(%rdx)
  403dfb:	62 61 fd 48 29 6a 34 	vmovapd %zmm29,0xd00(%rdx)
  403e02:	62 61 fd 48 29 72 38 	vmovapd %zmm30,0xe00(%rdx)
  403e09:	62 61 fd 48 29 7a 3c 	vmovapd %zmm31,0xf00(%rdx)
  403e10:	48 83 c7 40          	add    $0x40,%rdi
  403e14:	48 81 c2 40 f0 ff ff 	add    $0xfffffffffffff040,%rdx
  403e1b:	49 83 c4 01          	add    $0x1,%r12
  403e1f:	49 83 fc 04          	cmp    $0x4,%r12
  403e23:	0f 8c 29 fd ff ff    	jl     403b52 <LOOP_TOP_0_1>
  403e29:	4c 8b 64 24 f0       	mov    -0x10(%rsp),%r12
  403e2e:	c3                   	retq   

0000000000403e2f <_Z7to_bcscRK6Matrixii>:
  403e2f:	48 83 ec 78          	sub    $0x78,%rsp
  403e33:	48 89 5c 24 48       	mov    %rbx,0x48(%rsp)
  403e38:	48 89 6c 24 70       	mov    %rbp,0x70(%rsp)
  403e3d:	4c 89 7c 24 50       	mov    %r15,0x50(%rsp)
  403e42:	4c 89 74 24 68       	mov    %r14,0x68(%rsp)
  403e47:	4c 89 6c 24 58       	mov    %r13,0x58(%rsp)
  403e4c:	4c 89 64 24 60       	mov    %r12,0x60(%rsp)
  403e51:	48 89 f3             	mov    %rsi,%rbx
  403e54:	48 89 7c 24 18       	mov    %rdi,0x18(%rsp)
  403e59:	8b 43 08             	mov    0x8(%rbx),%eax
  403e5c:	89 4c 24 08          	mov    %ecx,0x8(%rsp)
  403e60:	41 89 d0             	mov    %edx,%r8d
  403e63:	44 89 04 24          	mov    %r8d,(%rsp)
  403e67:	99                   	cltd   
  403e68:	6a 30                	pushq  $0x30
  403e6a:	5f                   	pop    %rdi
  403e6b:	41 f7 f8             	idiv   %r8d
  403e6e:	89 44 24 20          	mov    %eax,0x20(%rsp)
  403e72:	8b 43 0c             	mov    0xc(%rbx),%eax
  403e75:	99                   	cltd   
  403e76:	f7 f9                	idiv   %ecx
  403e78:	89 44 24 30          	mov    %eax,0x30(%rsp)
  403e7c:	e8 df d6 ff ff       	callq  401560 <_Znwm@plt>
  403e81:	48 89 c5             	mov    %rax,%rbp
  403e84:	8b 73 08             	mov    0x8(%rbx),%esi
  403e87:	8b 53 0c             	mov    0xc(%rbx),%edx
  403e8a:	48 89 ef             	mov    %rbp,%rdi
  403e8d:	89 f1                	mov    %esi,%ecx
  403e8f:	0f af ca             	imul   %edx,%ecx
  403e92:	e8 15 10 00 00       	callq  404eac <_ZN12SparseMatrixC1Eiii>
  403e97:	48 8b 7c 24 18       	mov    0x18(%rsp),%rdi
  403e9c:	48 89 ee             	mov    %rbp,%rsi
  403e9f:	e8 38 12 00 00       	callq  4050dc <_ZNSt10unique_ptrI12SparseMatrixSt14default_deleteIS0_EEC1IS2_vEEPS0_>
  403ea4:	31 c0                	xor    %eax,%eax
  403ea6:	89 44 24 38          	mov    %eax,0x38(%rsp)
  403eaa:	83 7c 24 30 00       	cmpl   $0x0,0x30(%rsp)
  403eaf:	89 44 24 10          	mov    %eax,0x10(%rsp)
  403eb3:	0f 8e a2 00 00 00    	jle    403f5b <_Z7to_bcscRK6Matrixii+0x12c>
  403eb9:	45 31 ff             	xor    %r15d,%r15d
  403ebc:	44 89 7c 24 28       	mov    %r15d,0x28(%rsp)
  403ec1:	83 7c 24 20 00       	cmpl   $0x0,0x20(%rsp)
  403ec6:	7e 72                	jle    403f3a <_Z7to_bcscRK6Matrixii+0x10b>
  403ec8:	45 31 f6             	xor    %r14d,%r14d
  403ecb:	83 7c 24 08 00       	cmpl   $0x0,0x8(%rsp)
  403ed0:	7e 53                	jle    403f25 <_Z7to_bcscRK6Matrixii+0xf6>
  403ed2:	45 31 ed             	xor    %r13d,%r13d
  403ed5:	83 3c 24 00          	cmpl   $0x0,(%rsp)
  403ed9:	7e 3f                	jle    403f1a <_Z7to_bcscRK6Matrixii+0xeb>
  403edb:	8b 44 24 10          	mov    0x10(%rsp),%eax
  403edf:	42 8d 2c 30          	lea    (%rax,%r14,1),%ebp
  403ee3:	47 8d 24 2f          	lea    (%r15,%r13,1),%r12d
  403ee7:	48 8b 03             	mov    (%rbx),%rax
  403eea:	48 89 df             	mov    %rbx,%rdi
  403eed:	89 ea                	mov    %ebp,%edx
  403eef:	44 89 e6             	mov    %r12d,%esi
  403ef2:	ff 10                	callq  *(%rax)
  403ef4:	c5 fb 11 44 24 40    	vmovsd %xmm0,0x40(%rsp)
  403efa:	e8 91 12 00 00       	callq  405190 <fabs>
  403eff:	62 f1 ff 08 c2 05 fe 	vcmpgtsd 0x21fe(%rip),%xmm0,%k0        # 406108 <__$Uf.0.32+0x18>
  403f06:	21 00 00 0e 
  403f0a:	c5 f8 98 c0          	kortestw %k0,%k0
  403f0e:	75 6e                	jne    403f7e <_Z7to_bcscRK6Matrixii+0x14f>
  403f10:	41 83 c5 01          	add    $0x1,%r13d
  403f14:	44 3b 2c 24          	cmp    (%rsp),%r13d
  403f18:	7c c9                	jl     403ee3 <_Z7to_bcscRK6Matrixii+0xb4>
  403f1a:	41 83 c6 01          	add    $0x1,%r14d
  403f1e:	44 3b 74 24 08       	cmp    0x8(%rsp),%r14d
  403f23:	7c ad                	jl     403ed2 <_Z7to_bcscRK6Matrixii+0xa3>
  403f25:	8b 44 24 28          	mov    0x28(%rsp),%eax
  403f29:	44 03 3c 24          	add    (%rsp),%r15d
  403f2d:	83 c0 01             	add    $0x1,%eax
  403f30:	89 44 24 28          	mov    %eax,0x28(%rsp)
  403f34:	3b 44 24 20          	cmp    0x20(%rsp),%eax
  403f38:	7c 8e                	jl     403ec8 <_Z7to_bcscRK6Matrixii+0x99>
  403f3a:	8b 54 24 38          	mov    0x38(%rsp),%edx
  403f3e:	8b 44 24 10          	mov    0x10(%rsp),%eax
  403f42:	83 c2 01             	add    $0x1,%edx
  403f45:	89 54 24 38          	mov    %edx,0x38(%rsp)
  403f49:	03 44 24 08          	add    0x8(%rsp),%eax
  403f4d:	89 44 24 10          	mov    %eax,0x10(%rsp)
  403f51:	3b 54 24 30          	cmp    0x30(%rsp),%edx
  403f55:	0f 8c 5e ff ff ff    	jl     403eb9 <_Z7to_bcscRK6Matrixii+0x8a>
  403f5b:	48 8b 5c 24 48       	mov    0x48(%rsp),%rbx
  403f60:	48 8b 6c 24 70       	mov    0x70(%rsp),%rbp
  403f65:	4c 8b 64 24 60       	mov    0x60(%rsp),%r12
  403f6a:	4c 8b 6c 24 58       	mov    0x58(%rsp),%r13
  403f6f:	4c 8b 74 24 68       	mov    0x68(%rsp),%r14
  403f74:	4c 8b 7c 24 50       	mov    0x50(%rsp),%r15
  403f79:	48 83 c4 78          	add    $0x78,%rsp
  403f7d:	c3                   	retq   
  403f7e:	48 8b 7c 24 18       	mov    0x18(%rsp),%rdi
  403f83:	e8 74 11 00 00       	callq  4050fc <_ZNKSt10unique_ptrI12SparseMatrixSt14default_deleteIS0_EEptEv>
  403f88:	48 8b 08             	mov    (%rax),%rcx
  403f8b:	48 89 c7             	mov    %rax,%rdi
  403f8e:	44 89 e6             	mov    %r12d,%esi
  403f91:	c5 fb 10 44 24 40    	vmovsd 0x40(%rsp),%xmm0
  403f97:	89 ea                	mov    %ebp,%edx
  403f99:	ff 51 08             	callq  *0x8(%rcx)
  403f9c:	e9 6f ff ff ff       	jmpq   403f10 <_Z7to_bcscRK6Matrixii+0xe1>
  403fa1:	48 89 04 24          	mov    %rax,(%rsp)
  403fa5:	48 8b 7c 24 18       	mov    0x18(%rsp),%rdi
  403faa:	e8 59 11 00 00       	callq  405108 <_ZNSt10unique_ptrI12SparseMatrixSt14default_deleteIS0_EED1Ev>
  403faf:	eb 0c                	jmp    403fbd <_Z7to_bcscRK6Matrixii+0x18e>
  403fb1:	48 89 04 24          	mov    %rax,(%rsp)
  403fb5:	48 89 ef             	mov    %rbp,%rdi
  403fb8:	e8 73 d5 ff ff       	callq  401530 <_ZdlPv@plt>
  403fbd:	48 8b 3c 24          	mov    (%rsp),%rdi
  403fc1:	e8 fa d6 ff ff       	callq  4016c0 <_Unwind_Resume@plt>

0000000000403fc6 <_Z30test_jump_penalty_2_20_generalv>:
  403fc6:	48 81 ec c8 00 00 00 	sub    $0xc8,%rsp
  403fcd:	48 89 ac 24 b8 00 00 	mov    %rbp,0xb8(%rsp)
  403fd4:	00 
  403fd5:	4c 89 a4 24 b0 00 00 	mov    %r12,0xb0(%rsp)
  403fdc:	00 
  403fdd:	41 bc 18 92 60 00    	mov    $0x609218,%r12d
  403fe3:	6a 20                	pushq  $0x20
  403fe5:	5d                   	pop    %rbp
  403fe6:	48 8d 04 24          	lea    (%rsp),%rax
  403fea:	4c 89 20             	mov    %r12,(%rax)
  403fed:	48 8d 78 18          	lea    0x18(%rax),%rdi
  403ff1:	89 68 10             	mov    %ebp,0x10(%rax)
  403ff4:	6a 40                	pushq  $0x40
  403ff6:	5e                   	pop    %rsi
  403ff7:	89 68 08             	mov    %ebp,0x8(%rax)
  403ffa:	ba 00 30 00 00       	mov    $0x3000,%edx
  403fff:	c7 40 0c 30 00 00 00 	movl   $0x30,0xc(%rax)
  404006:	e8 e5 d4 ff ff       	callq  4014f0 <posix_memalign@plt>
  40400b:	48 8d 3c 24          	lea    (%rsp),%rdi
  40400f:	e8 98 0c 00 00       	callq  404cac <_ZN11DenseMatrix4zeroEv>
  404014:	48 8d 3c 24          	lea    (%rsp),%rdi
  404018:	e8 eb 0c 00 00       	callq  404d08 <_ZN11DenseMatrix6randomEv>
  40401d:	48 8d 7c 24 60       	lea    0x60(%rsp),%rdi
  404022:	be 18 61 40 00       	mov    $0x406118,%esi
  404027:	e8 60 0d 00 00       	callq  404d8c <_ZN11DenseMatrixC1EPKc>
  40402c:	48 8d bc 24 80 00 00 	lea    0x80(%rsp),%rdi
  404033:	00 
  404034:	6a 10                	pushq  $0x10
  404036:	5a                   	pop    %rdx
  404037:	48 8d 77 e0          	lea    -0x20(%rdi),%rsi
  40403b:	89 d1                	mov    %edx,%ecx
  40403d:	e8 ed fd ff ff       	callq  403e2f <_Z7to_bcscRK6Matrixii>
  404042:	48 8d 44 24 40       	lea    0x40(%rsp),%rax
  404047:	4c 89 20             	mov    %r12,(%rax)
  40404a:	48 8d 78 18          	lea    0x18(%rax),%rdi
  40404e:	89 68 10             	mov    %ebp,0x10(%rax)
  404051:	6a 40                	pushq  $0x40
  404053:	5e                   	pop    %rsi
  404054:	89 68 08             	mov    %ebp,0x8(%rax)
  404057:	ba 00 20 00 00       	mov    $0x2000,%edx
  40405c:	89 68 0c             	mov    %ebp,0xc(%rax)
  40405f:	e8 8c d4 ff ff       	callq  4014f0 <posix_memalign@plt>
  404064:	48 8d 7c 24 40       	lea    0x40(%rsp),%rdi
  404069:	e8 3e 0c 00 00       	callq  404cac <_ZN11DenseMatrix4zeroEv>
  40406e:	48 8d 44 24 20       	lea    0x20(%rsp),%rax
  404073:	4c 89 20             	mov    %r12,(%rax)
  404076:	48 8d 78 18          	lea    0x18(%rax),%rdi
  40407a:	89 68 10             	mov    %ebp,0x10(%rax)
  40407d:	6a 40                	pushq  $0x40
  40407f:	5e                   	pop    %rsi
  404080:	89 68 08             	mov    %ebp,0x8(%rax)
  404083:	ba 00 20 00 00       	mov    $0x2000,%edx
  404088:	89 68 0c             	mov    %ebp,0xc(%rax)
  40408b:	e8 60 d4 ff ff       	callq  4014f0 <posix_memalign@plt>
  404090:	48 8d 7c 24 20       	lea    0x20(%rsp),%rdi
  404095:	e8 12 0c 00 00       	callq  404cac <_ZN11DenseMatrix4zeroEv>
  40409a:	48 8d 3c 24          	lea    (%rsp),%rdi
  40409e:	48 8d 77 60          	lea    0x60(%rdi),%rsi
  4040a2:	48 8d 56 e0          	lea    -0x20(%rsi),%rdx
  4040a6:	e8 fc f6 ff ff       	callq  4037a7 <_Z4gemmRK6MatrixS1_RS_>
  4040ab:	48 8d bc 24 80 00 00 	lea    0x80(%rsp),%rdi
  4040b2:	00 
  4040b3:	e8 44 10 00 00       	callq  4050fc <_ZNKSt10unique_ptrI12SparseMatrixSt14default_deleteIS0_EEptEv>
  4040b8:	48 8b 7c 24 18       	mov    0x18(%rsp),%rdi
  4040bd:	48 8b 54 24 38       	mov    0x38(%rsp),%rdx
  4040c2:	48 8b 70 18          	mov    0x18(%rax),%rsi
  4040c6:	e8 6e 01 00 00       	callq  404239 <_Z25jump_penalty_2_20_generalPKdS0_Pd>
  4040cb:	48 8d 7c 24 40       	lea    0x40(%rsp),%rdi
  4040d0:	48 8d 77 e0          	lea    -0x20(%rdi),%rsi
  4040d4:	e8 2c f4 ff ff       	callq  403505 <_Z13assert_equalsRK6MatrixS1_>
  4040d9:	31 ff                	xor    %edi,%edi
  4040db:	83 c7 01             	add    $0x1,%edi
  4040de:	48 8d b4 24 90 00 00 	lea    0x90(%rsp),%rsi
  4040e5:	00 
  4040e6:	e8 15 d5 ff ff       	callq  401600 <clock_gettime@plt>
  4040eb:	31 ed                	xor    %ebp,%ebp
  4040ed:	48 8d bc 24 80 00 00 	lea    0x80(%rsp),%rdi
  4040f4:	00 
  4040f5:	e8 02 10 00 00       	callq  4050fc <_ZNKSt10unique_ptrI12SparseMatrixSt14default_deleteIS0_EEptEv>
  4040fa:	48 8b 7c 24 18       	mov    0x18(%rsp),%rdi
  4040ff:	48 8b 54 24 38       	mov    0x38(%rsp),%rdx
  404104:	48 8b 70 18          	mov    0x18(%rax),%rsi
  404108:	e8 2c 01 00 00       	callq  404239 <_Z25jump_penalty_2_20_generalPKdS0_Pd>
  40410d:	83 c5 01             	add    $0x1,%ebp
  404110:	81 fd b8 0b 00 00    	cmp    $0xbb8,%ebp
  404116:	7c d5                	jl     4040ed <_Z30test_jump_penalty_2_20_generalv+0x127>
  404118:	31 ff                	xor    %edi,%edi
  40411a:	83 c7 01             	add    $0x1,%edi
  40411d:	48 8d b4 24 a0 00 00 	lea    0xa0(%rsp),%rsi
  404124:	00 
  404125:	e8 d6 d4 ff ff       	callq  401600 <clock_gettime@plt>
  40412a:	bf 60 92 60 00       	mov    $0x609260,%edi
  40412f:	be fc 61 40 00       	mov    $0x4061fc,%esi
  404134:	e8 07 d4 ff ff       	callq  401540 <_ZStlsISt11char_traitsIcEERSt13basic_ostreamIcT_ES5_PKc@plt>
  404139:	48 89 c5             	mov    %rax,%rbp
  40413c:	48 8d 84 24 90 00 00 	lea    0x90(%rsp),%rax
  404143:	00 
  404144:	48 8d 8c 24 a0 00 00 	lea    0xa0(%rsp),%rcx
  40414b:	00 
  40414c:	48 8b 38             	mov    (%rax),%rdi
  40414f:	48 8b 70 08          	mov    0x8(%rax),%rsi
  404153:	48 8b 11             	mov    (%rcx),%rdx
  404156:	48 8b 49 08          	mov    0x8(%rcx),%rcx
  40415a:	e8 35 f7 ff ff       	callq  403894 <_Z9microsecs8timespecS_>
  40415f:	c5 fb 5e 05 91 1f 00 	vdivsd 0x1f91(%rip),%xmm0,%xmm0        # 4060f8 <__$Uf.0.32+0x8>
  404166:	00 
  404167:	48 89 ef             	mov    %rbp,%rdi
  40416a:	e8 81 d5 ff ff       	callq  4016f0 <_ZNSolsEd@plt>
  40416f:	48 89 c7             	mov    %rax,%rdi
  404172:	be d0 14 40 00       	mov    $0x4014d0,%esi
  404177:	e8 f4 d3 ff ff       	callq  401570 <_ZNSolsEPFRSoS_E@plt>
  40417c:	48 8b 7c 24 38       	mov    0x38(%rsp),%rdi
  404181:	4c 89 64 24 20       	mov    %r12,0x20(%rsp)
  404186:	e8 35 d4 ff ff       	callq  4015c0 <free@plt>
  40418b:	48 8b 7c 24 58       	mov    0x58(%rsp),%rdi
  404190:	4c 89 64 24 40       	mov    %r12,0x40(%rsp)
  404195:	e8 26 d4 ff ff       	callq  4015c0 <free@plt>
  40419a:	48 8d bc 24 80 00 00 	lea    0x80(%rsp),%rdi
  4041a1:	00 
  4041a2:	e8 61 0f 00 00       	callq  405108 <_ZNSt10unique_ptrI12SparseMatrixSt14default_deleteIS0_EED1Ev>
  4041a7:	48 8b 7c 24 78       	mov    0x78(%rsp),%rdi
  4041ac:	4c 89 64 24 60       	mov    %r12,0x60(%rsp)
  4041b1:	e8 0a d4 ff ff       	callq  4015c0 <free@plt>
  4041b6:	48 8b 7c 24 18       	mov    0x18(%rsp),%rdi
  4041bb:	4c 89 24 24          	mov    %r12,(%rsp)
  4041bf:	e8 fc d3 ff ff       	callq  4015c0 <free@plt>
  4041c4:	48 8b ac 24 b8 00 00 	mov    0xb8(%rsp),%rbp
  4041cb:	00 
  4041cc:	4c 8b a4 24 b0 00 00 	mov    0xb0(%rsp),%r12
  4041d3:	00 
  4041d4:	48 81 c4 c8 00 00 00 	add    $0xc8,%rsp
  4041db:	c3                   	retq   
  4041dc:	48 89 84 24 88 00 00 	mov    %rax,0x88(%rsp)
  4041e3:	00 
  4041e4:	48 8d 7c 24 20       	lea    0x20(%rsp),%rdi
  4041e9:	e8 06 0b 00 00       	callq  404cf4 <_ZN11DenseMatrixD1Ev>
  4041ee:	48 8d 7c 24 40       	lea    0x40(%rsp),%rdi
  4041f3:	e8 fc 0a 00 00       	callq  404cf4 <_ZN11DenseMatrixD1Ev>
  4041f8:	48 8d bc 24 80 00 00 	lea    0x80(%rsp),%rdi
  4041ff:	00 
  404200:	e8 03 0f 00 00       	callq  405108 <_ZNSt10unique_ptrI12SparseMatrixSt14default_deleteIS0_EED1Ev>
  404205:	48 8d 7c 24 60       	lea    0x60(%rsp),%rdi
  40420a:	e8 e5 0a 00 00       	callq  404cf4 <_ZN11DenseMatrixD1Ev>
  40420f:	48 8d 3c 24          	lea    (%rsp),%rdi
  404213:	e8 dc 0a 00 00       	callq  404cf4 <_ZN11DenseMatrixD1Ev>
  404218:	48 8b bc 24 88 00 00 	mov    0x88(%rsp),%rdi
  40421f:	00 
  404220:	e8 9b d4 ff ff       	callq  4016c0 <_Unwind_Resume@plt>
  404225:	48 89 84 24 88 00 00 	mov    %rax,0x88(%rsp)
  40422c:	00 
  40422d:	eb d6                	jmp    404205 <_Z30test_jump_penalty_2_20_generalv+0x23f>
  40422f:	48 89 84 24 88 00 00 	mov    %rax,0x88(%rsp)
  404236:	00 
  404237:	eb d6                	jmp    40420f <_Z30test_jump_penalty_2_20_generalv+0x249>

0000000000404239 <_Z25jump_penalty_2_20_generalPKdS0_Pd>:
  404239:	48 89 7c 24 e8       	mov    %rdi,-0x18(%rsp)
  40423e:	48 89 74 24 f0       	mov    %rsi,-0x10(%rsp)
  404243:	48 89 54 24 f8       	mov    %rdx,-0x8(%rsp)
  404248:	48 8b 7c 24 e8       	mov    -0x18(%rsp),%rdi
  40424d:	48 8b 74 24 f0       	mov    -0x10(%rsp),%rsi
  404252:	48 8b 54 24 f8       	mov    -0x8(%rsp),%rdx
  404257:	e9 eb 00 00 00       	jmpq   404347 <END_SWITCH_2>

000000000040425c <CASE_1_2>:
  40425c:	62 f1 fd 48 28 4f 04 	vmovapd 0x100(%rdi),%zmm1
  404263:	62 f1 fd 48 28 57 08 	vmovapd 0x200(%rdi),%zmm2
  40426a:	62 f1 fd 48 28 6f 14 	vmovapd 0x500(%rdi),%zmm5
  404271:	62 71 fd 48 28 5f 2c 	vmovapd 0xb00(%rdi),%zmm11
  404278:	62 71 fd 48 28 67 30 	vmovapd 0xc00(%rdi),%zmm12
  40427f:	62 71 fd 48 28 6f 34 	vmovapd 0xd00(%rdi),%zmm13
  404286:	62 71 fd 48 28 77 38 	vmovapd 0xe00(%rdi),%zmm14
  40428d:	62 e2 f5 58 b8 6e 03 	vfmadd231pd 0x18(%rsi){1to8},%zmm1,%zmm21
  404294:	62 e2 f5 58 b8 7e 05 	vfmadd231pd 0x28(%rsi){1to8},%zmm1,%zmm23
  40429b:	62 62 f5 58 b8 66 07 	vfmadd231pd 0x38(%rsi){1to8},%zmm1,%zmm28
  4042a2:	62 62 ed 58 b8 76 08 	vfmadd231pd 0x40(%rsi){1to8},%zmm2,%zmm30
  4042a9:	62 62 d5 58 b8 7e 09 	vfmadd231pd 0x48(%rsi){1to8},%zmm5,%zmm31
  4042b0:	62 e2 a5 58 b8 06    	vfmadd231pd (%rsi){1to8},%zmm11,%zmm16
  4042b6:	62 e2 9d 58 b8 4e 01 	vfmadd231pd 0x8(%rsi){1to8},%zmm12,%zmm17
  4042bd:	62 e2 95 58 b8 6e 04 	vfmadd231pd 0x20(%rsi){1to8},%zmm13,%zmm21
  4042c4:	62 62 95 58 b8 4e 06 	vfmadd231pd 0x30(%rsi){1to8},%zmm13,%zmm25
  4042cb:	62 e2 8d 58 b8 5e 02 	vfmadd231pd 0x10(%rsi){1to8},%zmm14,%zmm19
  4042d2:	41 ff e2             	jmpq   *%r10

00000000004042d5 <CASE_2_2>:
  4042d5:	62 f1 fd 48 28 4f 04 	vmovapd 0x100(%rdi),%zmm1
  4042dc:	62 f1 fd 48 28 67 10 	vmovapd 0x400(%rdi),%zmm4
  4042e3:	62 71 fd 48 28 47 20 	vmovapd 0x800(%rdi),%zmm8
  4042ea:	62 71 fd 48 28 4f 24 	vmovapd 0x900(%rdi),%zmm9
  4042f1:	62 71 fd 48 28 67 30 	vmovapd 0xc00(%rdi),%zmm12
  4042f8:	62 71 fd 48 28 6f 34 	vmovapd 0xd00(%rdi),%zmm13
  4042ff:	62 e2 f5 58 b8 06    	vfmadd231pd (%rsi){1to8},%zmm1,%zmm16
  404305:	62 62 f5 58 b8 7e 08 	vfmadd231pd 0x40(%rsi){1to8},%zmm1,%zmm31
  40430c:	62 e2 dd 58 b8 56 01 	vfmadd231pd 0x8(%rsi){1to8},%zmm4,%zmm18
  404313:	62 e2 dd 58 b8 66 04 	vfmadd231pd 0x20(%rsi){1to8},%zmm4,%zmm20
  40431a:	62 e2 bd 58 b8 56 02 	vfmadd231pd 0x10(%rsi){1to8},%zmm8,%zmm18
  404321:	62 e2 b5 58 b8 56 03 	vfmadd231pd 0x18(%rsi){1to8},%zmm9,%zmm18
  404328:	62 e2 9d 58 b8 6e 05 	vfmadd231pd 0x28(%rsi){1to8},%zmm12,%zmm21
  40432f:	62 62 9d 58 b8 4e 06 	vfmadd231pd 0x30(%rsi){1to8},%zmm12,%zmm25
  404336:	62 62 9d 58 b8 7e 09 	vfmadd231pd 0x48(%rsi){1to8},%zmm12,%zmm31
  40433d:	62 62 95 58 b8 56 07 	vfmadd231pd 0x38(%rsi){1to8},%zmm13,%zmm26
  404344:	41 ff e2             	jmpq   *%r10

0000000000404347 <END_SWITCH_2>:
  404347:	48 83 c2 00          	add    $0x0,%rdx
  40434b:	62 e1 fd 48 28 02    	vmovapd (%rdx),%zmm16
  404351:	62 e1 fd 48 28 4a 04 	vmovapd 0x100(%rdx),%zmm17
  404358:	62 e1 fd 48 28 52 08 	vmovapd 0x200(%rdx),%zmm18
  40435f:	62 e1 fd 48 28 5a 0c 	vmovapd 0x300(%rdx),%zmm19
  404366:	62 e1 fd 48 28 62 10 	vmovapd 0x400(%rdx),%zmm20
  40436d:	62 e1 fd 48 28 6a 14 	vmovapd 0x500(%rdx),%zmm21
  404374:	62 e1 fd 48 28 72 18 	vmovapd 0x600(%rdx),%zmm22
  40437b:	62 e1 fd 48 28 7a 1c 	vmovapd 0x700(%rdx),%zmm23
  404382:	62 61 fd 48 28 42 20 	vmovapd 0x800(%rdx),%zmm24
  404389:	62 61 fd 48 28 4a 24 	vmovapd 0x900(%rdx),%zmm25
  404390:	62 61 fd 48 28 52 28 	vmovapd 0xa00(%rdx),%zmm26
  404397:	62 61 fd 48 28 5a 2c 	vmovapd 0xb00(%rdx),%zmm27
  40439e:	62 61 fd 48 28 62 30 	vmovapd 0xc00(%rdx),%zmm28
  4043a5:	62 61 fd 48 28 6a 34 	vmovapd 0xd00(%rdx),%zmm29
  4043ac:	62 61 fd 48 28 72 38 	vmovapd 0xe00(%rdx),%zmm30
  4043b3:	62 61 fd 48 28 7a 3c 	vmovapd 0xf00(%rdx),%zmm31
  4043ba:	49 c7 c2 d1 43 40 00 	mov    $0x4043d1,%r10
  4043c1:	48 83 c6 00          	add    $0x0,%rsi
  4043c5:	48 81 c7 00 20 00 00 	add    $0x2000,%rdi
  4043cc:	e9 8b fe ff ff       	jmpq   40425c <CASE_1_2>

00000000004043d1 <BLOCK_0_0_2_2>:
  4043d1:	62 e1 fd 48 29 02    	vmovapd %zmm16,(%rdx)
  4043d7:	62 e1 fd 48 29 4a 04 	vmovapd %zmm17,0x100(%rdx)
  4043de:	62 e1 fd 48 29 52 08 	vmovapd %zmm18,0x200(%rdx)
  4043e5:	62 e1 fd 48 29 5a 0c 	vmovapd %zmm19,0x300(%rdx)
  4043ec:	62 e1 fd 48 29 62 10 	vmovapd %zmm20,0x400(%rdx)
  4043f3:	62 e1 fd 48 29 6a 14 	vmovapd %zmm21,0x500(%rdx)
  4043fa:	62 e1 fd 48 29 72 18 	vmovapd %zmm22,0x600(%rdx)
  404401:	62 e1 fd 48 29 7a 1c 	vmovapd %zmm23,0x700(%rdx)
  404408:	62 61 fd 48 29 42 20 	vmovapd %zmm24,0x800(%rdx)
  40440f:	62 61 fd 48 29 4a 24 	vmovapd %zmm25,0x900(%rdx)
  404416:	62 61 fd 48 29 52 28 	vmovapd %zmm26,0xa00(%rdx)
  40441d:	62 61 fd 48 29 5a 2c 	vmovapd %zmm27,0xb00(%rdx)
  404424:	62 61 fd 48 29 62 30 	vmovapd %zmm28,0xc00(%rdx)
  40442b:	62 61 fd 48 29 6a 34 	vmovapd %zmm29,0xd00(%rdx)
  404432:	62 61 fd 48 29 72 38 	vmovapd %zmm30,0xe00(%rdx)
  404439:	62 61 fd 48 29 7a 3c 	vmovapd %zmm31,0xf00(%rdx)
  404440:	48 81 c2 00 10 00 00 	add    $0x1000,%rdx
  404447:	62 e1 fd 48 28 02    	vmovapd (%rdx),%zmm16
  40444d:	62 e1 fd 48 28 4a 04 	vmovapd 0x100(%rdx),%zmm17
  404454:	62 e1 fd 48 28 52 08 	vmovapd 0x200(%rdx),%zmm18
  40445b:	62 e1 fd 48 28 5a 0c 	vmovapd 0x300(%rdx),%zmm19
  404462:	62 e1 fd 48 28 62 10 	vmovapd 0x400(%rdx),%zmm20
  404469:	62 e1 fd 48 28 6a 14 	vmovapd 0x500(%rdx),%zmm21
  404470:	62 e1 fd 48 28 72 18 	vmovapd 0x600(%rdx),%zmm22
  404477:	62 e1 fd 48 28 7a 1c 	vmovapd 0x700(%rdx),%zmm23
  40447e:	62 61 fd 48 28 42 20 	vmovapd 0x800(%rdx),%zmm24
  404485:	62 61 fd 48 28 4a 24 	vmovapd 0x900(%rdx),%zmm25
  40448c:	62 61 fd 48 28 52 28 	vmovapd 0xa00(%rdx),%zmm26
  404493:	62 61 fd 48 28 5a 2c 	vmovapd 0xb00(%rdx),%zmm27
  40449a:	62 61 fd 48 28 62 30 	vmovapd 0xc00(%rdx),%zmm28
  4044a1:	62 61 fd 48 28 6a 34 	vmovapd 0xd00(%rdx),%zmm29
  4044a8:	62 61 fd 48 28 72 38 	vmovapd 0xe00(%rdx),%zmm30
  4044af:	62 61 fd 48 28 7a 3c 	vmovapd 0xf00(%rdx),%zmm31
  4044b6:	49 c7 c2 cd 44 40 00 	mov    $0x4044cd,%r10
  4044bd:	48 83 c6 50          	add    $0x50,%rsi
  4044c1:	48 81 c7 00 e0 ff ff 	add    $0xffffffffffffe000,%rdi
  4044c8:	e9 08 fe ff ff       	jmpq   4042d5 <CASE_2_2>

00000000004044cd <BLOCK_0_1_0_2>:
  4044cd:	62 e1 fd 48 29 02    	vmovapd %zmm16,(%rdx)
  4044d3:	62 e1 fd 48 29 4a 04 	vmovapd %zmm17,0x100(%rdx)
  4044da:	62 e1 fd 48 29 52 08 	vmovapd %zmm18,0x200(%rdx)
  4044e1:	62 e1 fd 48 29 5a 0c 	vmovapd %zmm19,0x300(%rdx)
  4044e8:	62 e1 fd 48 29 62 10 	vmovapd %zmm20,0x400(%rdx)
  4044ef:	62 e1 fd 48 29 6a 14 	vmovapd %zmm21,0x500(%rdx)
  4044f6:	62 e1 fd 48 29 72 18 	vmovapd %zmm22,0x600(%rdx)
  4044fd:	62 e1 fd 48 29 7a 1c 	vmovapd %zmm23,0x700(%rdx)
  404504:	62 61 fd 48 29 42 20 	vmovapd %zmm24,0x800(%rdx)
  40450b:	62 61 fd 48 29 4a 24 	vmovapd %zmm25,0x900(%rdx)
  404512:	62 61 fd 48 29 52 28 	vmovapd %zmm26,0xa00(%rdx)
  404519:	62 61 fd 48 29 5a 2c 	vmovapd %zmm27,0xb00(%rdx)
  404520:	62 61 fd 48 29 62 30 	vmovapd %zmm28,0xc00(%rdx)
  404527:	62 61 fd 48 29 6a 34 	vmovapd %zmm29,0xd00(%rdx)
  40452e:	62 61 fd 48 29 72 38 	vmovapd %zmm30,0xe00(%rdx)
  404535:	62 61 fd 48 29 7a 3c 	vmovapd %zmm31,0xf00(%rdx)
  40453c:	48 81 c2 40 f0 ff ff 	add    $0xfffffffffffff040,%rdx
  404543:	62 e1 fd 48 28 02    	vmovapd (%rdx),%zmm16
  404549:	62 e1 fd 48 28 4a 04 	vmovapd 0x100(%rdx),%zmm17
  404550:	62 e1 fd 48 28 52 08 	vmovapd 0x200(%rdx),%zmm18
  404557:	62 e1 fd 48 28 5a 0c 	vmovapd 0x300(%rdx),%zmm19
  40455e:	62 e1 fd 48 28 62 10 	vmovapd 0x400(%rdx),%zmm20
  404565:	62 e1 fd 48 28 6a 14 	vmovapd 0x500(%rdx),%zmm21
  40456c:	62 e1 fd 48 28 72 18 	vmovapd 0x600(%rdx),%zmm22
  404573:	62 e1 fd 48 28 7a 1c 	vmovapd 0x700(%rdx),%zmm23
  40457a:	62 61 fd 48 28 42 20 	vmovapd 0x800(%rdx),%zmm24
  404581:	62 61 fd 48 28 4a 24 	vmovapd 0x900(%rdx),%zmm25
  404588:	62 61 fd 48 28 52 28 	vmovapd 0xa00(%rdx),%zmm26
  40458f:	62 61 fd 48 28 5a 2c 	vmovapd 0xb00(%rdx),%zmm27
  404596:	62 61 fd 48 28 62 30 	vmovapd 0xc00(%rdx),%zmm28
  40459d:	62 61 fd 48 28 6a 34 	vmovapd 0xd00(%rdx),%zmm29
  4045a4:	62 61 fd 48 28 72 38 	vmovapd 0xe00(%rdx),%zmm30
  4045ab:	62 61 fd 48 28 7a 3c 	vmovapd 0xf00(%rdx),%zmm31
  4045b2:	49 c7 c2 c9 45 40 00 	mov    $0x4045c9,%r10
  4045b9:	48 83 c6 b0          	add    $0xffffffffffffffb0,%rsi
  4045bd:	48 81 c7 40 20 00 00 	add    $0x2040,%rdi
  4045c4:	e9 93 fc ff ff       	jmpq   40425c <CASE_1_2>

00000000004045c9 <BLOCK_1_0_2_2>:
  4045c9:	62 e1 fd 48 29 02    	vmovapd %zmm16,(%rdx)
  4045cf:	62 e1 fd 48 29 4a 04 	vmovapd %zmm17,0x100(%rdx)
  4045d6:	62 e1 fd 48 29 52 08 	vmovapd %zmm18,0x200(%rdx)
  4045dd:	62 e1 fd 48 29 5a 0c 	vmovapd %zmm19,0x300(%rdx)
  4045e4:	62 e1 fd 48 29 62 10 	vmovapd %zmm20,0x400(%rdx)
  4045eb:	62 e1 fd 48 29 6a 14 	vmovapd %zmm21,0x500(%rdx)
  4045f2:	62 e1 fd 48 29 72 18 	vmovapd %zmm22,0x600(%rdx)
  4045f9:	62 e1 fd 48 29 7a 1c 	vmovapd %zmm23,0x700(%rdx)
  404600:	62 61 fd 48 29 42 20 	vmovapd %zmm24,0x800(%rdx)
  404607:	62 61 fd 48 29 4a 24 	vmovapd %zmm25,0x900(%rdx)
  40460e:	62 61 fd 48 29 52 28 	vmovapd %zmm26,0xa00(%rdx)
  404615:	62 61 fd 48 29 5a 2c 	vmovapd %zmm27,0xb00(%rdx)
  40461c:	62 61 fd 48 29 62 30 	vmovapd %zmm28,0xc00(%rdx)
  404623:	62 61 fd 48 29 6a 34 	vmovapd %zmm29,0xd00(%rdx)
  40462a:	62 61 fd 48 29 72 38 	vmovapd %zmm30,0xe00(%rdx)
  404631:	62 61 fd 48 29 7a 3c 	vmovapd %zmm31,0xf00(%rdx)
  404638:	48 81 c2 00 10 00 00 	add    $0x1000,%rdx
  40463f:	62 e1 fd 48 28 02    	vmovapd (%rdx),%zmm16
  404645:	62 e1 fd 48 28 4a 04 	vmovapd 0x100(%rdx),%zmm17
  40464c:	62 e1 fd 48 28 52 08 	vmovapd 0x200(%rdx),%zmm18
  404653:	62 e1 fd 48 28 5a 0c 	vmovapd 0x300(%rdx),%zmm19
  40465a:	62 e1 fd 48 28 62 10 	vmovapd 0x400(%rdx),%zmm20
  404661:	62 e1 fd 48 28 6a 14 	vmovapd 0x500(%rdx),%zmm21
  404668:	62 e1 fd 48 28 72 18 	vmovapd 0x600(%rdx),%zmm22
  40466f:	62 e1 fd 48 28 7a 1c 	vmovapd 0x700(%rdx),%zmm23
  404676:	62 61 fd 48 28 42 20 	vmovapd 0x800(%rdx),%zmm24
  40467d:	62 61 fd 48 28 4a 24 	vmovapd 0x900(%rdx),%zmm25
  404684:	62 61 fd 48 28 52 28 	vmovapd 0xa00(%rdx),%zmm26
  40468b:	62 61 fd 48 28 5a 2c 	vmovapd 0xb00(%rdx),%zmm27
  404692:	62 61 fd 48 28 62 30 	vmovapd 0xc00(%rdx),%zmm28
  404699:	62 61 fd 48 28 6a 34 	vmovapd 0xd00(%rdx),%zmm29
  4046a0:	62 61 fd 48 28 72 38 	vmovapd 0xe00(%rdx),%zmm30
  4046a7:	62 61 fd 48 28 7a 3c 	vmovapd 0xf00(%rdx),%zmm31
  4046ae:	49 c7 c2 c5 46 40 00 	mov    $0x4046c5,%r10
  4046b5:	48 83 c6 50          	add    $0x50,%rsi
  4046b9:	48 81 c7 00 e0 ff ff 	add    $0xffffffffffffe000,%rdi
  4046c0:	e9 10 fc ff ff       	jmpq   4042d5 <CASE_2_2>

00000000004046c5 <BLOCK_1_1_0_2>:
  4046c5:	62 e1 fd 48 29 02    	vmovapd %zmm16,(%rdx)
  4046cb:	62 e1 fd 48 29 4a 04 	vmovapd %zmm17,0x100(%rdx)
  4046d2:	62 e1 fd 48 29 52 08 	vmovapd %zmm18,0x200(%rdx)
  4046d9:	62 e1 fd 48 29 5a 0c 	vmovapd %zmm19,0x300(%rdx)
  4046e0:	62 e1 fd 48 29 62 10 	vmovapd %zmm20,0x400(%rdx)
  4046e7:	62 e1 fd 48 29 6a 14 	vmovapd %zmm21,0x500(%rdx)
  4046ee:	62 e1 fd 48 29 72 18 	vmovapd %zmm22,0x600(%rdx)
  4046f5:	62 e1 fd 48 29 7a 1c 	vmovapd %zmm23,0x700(%rdx)
  4046fc:	62 61 fd 48 29 42 20 	vmovapd %zmm24,0x800(%rdx)
  404703:	62 61 fd 48 29 4a 24 	vmovapd %zmm25,0x900(%rdx)
  40470a:	62 61 fd 48 29 52 28 	vmovapd %zmm26,0xa00(%rdx)
  404711:	62 61 fd 48 29 5a 2c 	vmovapd %zmm27,0xb00(%rdx)
  404718:	62 61 fd 48 29 62 30 	vmovapd %zmm28,0xc00(%rdx)
  40471f:	62 61 fd 48 29 6a 34 	vmovapd %zmm29,0xd00(%rdx)
  404726:	62 61 fd 48 29 72 38 	vmovapd %zmm30,0xe00(%rdx)
  40472d:	62 61 fd 48 29 7a 3c 	vmovapd %zmm31,0xf00(%rdx)
  404734:	48 81 c2 40 f0 ff ff 	add    $0xfffffffffffff040,%rdx
  40473b:	62 e1 fd 48 28 02    	vmovapd (%rdx),%zmm16
  404741:	62 e1 fd 48 28 4a 04 	vmovapd 0x100(%rdx),%zmm17
  404748:	62 e1 fd 48 28 52 08 	vmovapd 0x200(%rdx),%zmm18
  40474f:	62 e1 fd 48 28 5a 0c 	vmovapd 0x300(%rdx),%zmm19
  404756:	62 e1 fd 48 28 62 10 	vmovapd 0x400(%rdx),%zmm20
  40475d:	62 e1 fd 48 28 6a 14 	vmovapd 0x500(%rdx),%zmm21
  404764:	62 e1 fd 48 28 72 18 	vmovapd 0x600(%rdx),%zmm22
  40476b:	62 e1 fd 48 28 7a 1c 	vmovapd 0x700(%rdx),%zmm23
  404772:	62 61 fd 48 28 42 20 	vmovapd 0x800(%rdx),%zmm24
  404779:	62 61 fd 48 28 4a 24 	vmovapd 0x900(%rdx),%zmm25
  404780:	62 61 fd 48 28 52 28 	vmovapd 0xa00(%rdx),%zmm26
  404787:	62 61 fd 48 28 5a 2c 	vmovapd 0xb00(%rdx),%zmm27
  40478e:	62 61 fd 48 28 62 30 	vmovapd 0xc00(%rdx),%zmm28
  404795:	62 61 fd 48 28 6a 34 	vmovapd 0xd00(%rdx),%zmm29
  40479c:	62 61 fd 48 28 72 38 	vmovapd 0xe00(%rdx),%zmm30
  4047a3:	62 61 fd 48 28 7a 3c 	vmovapd 0xf00(%rdx),%zmm31
  4047aa:	49 c7 c2 c1 47 40 00 	mov    $0x4047c1,%r10
  4047b1:	48 83 c6 b0          	add    $0xffffffffffffffb0,%rsi
  4047b5:	48 81 c7 40 20 00 00 	add    $0x2040,%rdi
  4047bc:	e9 9b fa ff ff       	jmpq   40425c <CASE_1_2>

00000000004047c1 <BLOCK_2_0_2_2>:
  4047c1:	62 e1 fd 48 29 02    	vmovapd %zmm16,(%rdx)
  4047c7:	62 e1 fd 48 29 4a 04 	vmovapd %zmm17,0x100(%rdx)
  4047ce:	62 e1 fd 48 29 52 08 	vmovapd %zmm18,0x200(%rdx)
  4047d5:	62 e1 fd 48 29 5a 0c 	vmovapd %zmm19,0x300(%rdx)
  4047dc:	62 e1 fd 48 29 62 10 	vmovapd %zmm20,0x400(%rdx)
  4047e3:	62 e1 fd 48 29 6a 14 	vmovapd %zmm21,0x500(%rdx)
  4047ea:	62 e1 fd 48 29 72 18 	vmovapd %zmm22,0x600(%rdx)
  4047f1:	62 e1 fd 48 29 7a 1c 	vmovapd %zmm23,0x700(%rdx)
  4047f8:	62 61 fd 48 29 42 20 	vmovapd %zmm24,0x800(%rdx)
  4047ff:	62 61 fd 48 29 4a 24 	vmovapd %zmm25,0x900(%rdx)
  404806:	62 61 fd 48 29 52 28 	vmovapd %zmm26,0xa00(%rdx)
  40480d:	62 61 fd 48 29 5a 2c 	vmovapd %zmm27,0xb00(%rdx)
  404814:	62 61 fd 48 29 62 30 	vmovapd %zmm28,0xc00(%rdx)
  40481b:	62 61 fd 48 29 6a 34 	vmovapd %zmm29,0xd00(%rdx)
  404822:	62 61 fd 48 29 72 38 	vmovapd %zmm30,0xe00(%rdx)
  404829:	62 61 fd 48 29 7a 3c 	vmovapd %zmm31,0xf00(%rdx)
  404830:	48 81 c2 00 10 00 00 	add    $0x1000,%rdx
  404837:	62 e1 fd 48 28 02    	vmovapd (%rdx),%zmm16
  40483d:	62 e1 fd 48 28 4a 04 	vmovapd 0x100(%rdx),%zmm17
  404844:	62 e1 fd 48 28 52 08 	vmovapd 0x200(%rdx),%zmm18
  40484b:	62 e1 fd 48 28 5a 0c 	vmovapd 0x300(%rdx),%zmm19
  404852:	62 e1 fd 48 28 62 10 	vmovapd 0x400(%rdx),%zmm20
  404859:	62 e1 fd 48 28 6a 14 	vmovapd 0x500(%rdx),%zmm21
  404860:	62 e1 fd 48 28 72 18 	vmovapd 0x600(%rdx),%zmm22
  404867:	62 e1 fd 48 28 7a 1c 	vmovapd 0x700(%rdx),%zmm23
  40486e:	62 61 fd 48 28 42 20 	vmovapd 0x800(%rdx),%zmm24
  404875:	62 61 fd 48 28 4a 24 	vmovapd 0x900(%rdx),%zmm25
  40487c:	62 61 fd 48 28 52 28 	vmovapd 0xa00(%rdx),%zmm26
  404883:	62 61 fd 48 28 5a 2c 	vmovapd 0xb00(%rdx),%zmm27
  40488a:	62 61 fd 48 28 62 30 	vmovapd 0xc00(%rdx),%zmm28
  404891:	62 61 fd 48 28 6a 34 	vmovapd 0xd00(%rdx),%zmm29
  404898:	62 61 fd 48 28 72 38 	vmovapd 0xe00(%rdx),%zmm30
  40489f:	62 61 fd 48 28 7a 3c 	vmovapd 0xf00(%rdx),%zmm31
  4048a6:	49 c7 c2 bd 48 40 00 	mov    $0x4048bd,%r10
  4048ad:	48 83 c6 50          	add    $0x50,%rsi
  4048b1:	48 81 c7 00 e0 ff ff 	add    $0xffffffffffffe000,%rdi
  4048b8:	e9 18 fa ff ff       	jmpq   4042d5 <CASE_2_2>

00000000004048bd <BLOCK_2_1_0_2>:
  4048bd:	62 e1 fd 48 29 02    	vmovapd %zmm16,(%rdx)
  4048c3:	62 e1 fd 48 29 4a 04 	vmovapd %zmm17,0x100(%rdx)
  4048ca:	62 e1 fd 48 29 52 08 	vmovapd %zmm18,0x200(%rdx)
  4048d1:	62 e1 fd 48 29 5a 0c 	vmovapd %zmm19,0x300(%rdx)
  4048d8:	62 e1 fd 48 29 62 10 	vmovapd %zmm20,0x400(%rdx)
  4048df:	62 e1 fd 48 29 6a 14 	vmovapd %zmm21,0x500(%rdx)
  4048e6:	62 e1 fd 48 29 72 18 	vmovapd %zmm22,0x600(%rdx)
  4048ed:	62 e1 fd 48 29 7a 1c 	vmovapd %zmm23,0x700(%rdx)
  4048f4:	62 61 fd 48 29 42 20 	vmovapd %zmm24,0x800(%rdx)
  4048fb:	62 61 fd 48 29 4a 24 	vmovapd %zmm25,0x900(%rdx)
  404902:	62 61 fd 48 29 52 28 	vmovapd %zmm26,0xa00(%rdx)
  404909:	62 61 fd 48 29 5a 2c 	vmovapd %zmm27,0xb00(%rdx)
  404910:	62 61 fd 48 29 62 30 	vmovapd %zmm28,0xc00(%rdx)
  404917:	62 61 fd 48 29 6a 34 	vmovapd %zmm29,0xd00(%rdx)
  40491e:	62 61 fd 48 29 72 38 	vmovapd %zmm30,0xe00(%rdx)
  404925:	62 61 fd 48 29 7a 3c 	vmovapd %zmm31,0xf00(%rdx)
  40492c:	48 81 c2 40 f0 ff ff 	add    $0xfffffffffffff040,%rdx
  404933:	62 e1 fd 48 28 02    	vmovapd (%rdx),%zmm16
  404939:	62 e1 fd 48 28 4a 04 	vmovapd 0x100(%rdx),%zmm17
  404940:	62 e1 fd 48 28 52 08 	vmovapd 0x200(%rdx),%zmm18
  404947:	62 e1 fd 48 28 5a 0c 	vmovapd 0x300(%rdx),%zmm19
  40494e:	62 e1 fd 48 28 62 10 	vmovapd 0x400(%rdx),%zmm20
  404955:	62 e1 fd 48 28 6a 14 	vmovapd 0x500(%rdx),%zmm21
  40495c:	62 e1 fd 48 28 72 18 	vmovapd 0x600(%rdx),%zmm22
  404963:	62 e1 fd 48 28 7a 1c 	vmovapd 0x700(%rdx),%zmm23
  40496a:	62 61 fd 48 28 42 20 	vmovapd 0x800(%rdx),%zmm24
  404971:	62 61 fd 48 28 4a 24 	vmovapd 0x900(%rdx),%zmm25
  404978:	62 61 fd 48 28 52 28 	vmovapd 0xa00(%rdx),%zmm26
  40497f:	62 61 fd 48 28 5a 2c 	vmovapd 0xb00(%rdx),%zmm27
  404986:	62 61 fd 48 28 62 30 	vmovapd 0xc00(%rdx),%zmm28
  40498d:	62 61 fd 48 28 6a 34 	vmovapd 0xd00(%rdx),%zmm29
  404994:	62 61 fd 48 28 72 38 	vmovapd 0xe00(%rdx),%zmm30
  40499b:	62 61 fd 48 28 7a 3c 	vmovapd 0xf00(%rdx),%zmm31
  4049a2:	49 c7 c2 b9 49 40 00 	mov    $0x4049b9,%r10
  4049a9:	48 83 c6 b0          	add    $0xffffffffffffffb0,%rsi
  4049ad:	48 81 c7 40 20 00 00 	add    $0x2040,%rdi
  4049b4:	e9 a3 f8 ff ff       	jmpq   40425c <CASE_1_2>

00000000004049b9 <BLOCK_3_0_2_2>:
  4049b9:	62 e1 fd 48 29 02    	vmovapd %zmm16,(%rdx)
  4049bf:	62 e1 fd 48 29 4a 04 	vmovapd %zmm17,0x100(%rdx)
  4049c6:	62 e1 fd 48 29 52 08 	vmovapd %zmm18,0x200(%rdx)
  4049cd:	62 e1 fd 48 29 5a 0c 	vmovapd %zmm19,0x300(%rdx)
  4049d4:	62 e1 fd 48 29 62 10 	vmovapd %zmm20,0x400(%rdx)
  4049db:	62 e1 fd 48 29 6a 14 	vmovapd %zmm21,0x500(%rdx)
  4049e2:	62 e1 fd 48 29 72 18 	vmovapd %zmm22,0x600(%rdx)
  4049e9:	62 e1 fd 48 29 7a 1c 	vmovapd %zmm23,0x700(%rdx)
  4049f0:	62 61 fd 48 29 42 20 	vmovapd %zmm24,0x800(%rdx)
  4049f7:	62 61 fd 48 29 4a 24 	vmovapd %zmm25,0x900(%rdx)
  4049fe:	62 61 fd 48 29 52 28 	vmovapd %zmm26,0xa00(%rdx)
  404a05:	62 61 fd 48 29 5a 2c 	vmovapd %zmm27,0xb00(%rdx)
  404a0c:	62 61 fd 48 29 62 30 	vmovapd %zmm28,0xc00(%rdx)
  404a13:	62 61 fd 48 29 6a 34 	vmovapd %zmm29,0xd00(%rdx)
  404a1a:	62 61 fd 48 29 72 38 	vmovapd %zmm30,0xe00(%rdx)
  404a21:	62 61 fd 48 29 7a 3c 	vmovapd %zmm31,0xf00(%rdx)
  404a28:	48 81 c2 00 10 00 00 	add    $0x1000,%rdx
  404a2f:	62 e1 fd 48 28 02    	vmovapd (%rdx),%zmm16
  404a35:	62 e1 fd 48 28 4a 04 	vmovapd 0x100(%rdx),%zmm17
  404a3c:	62 e1 fd 48 28 52 08 	vmovapd 0x200(%rdx),%zmm18
  404a43:	62 e1 fd 48 28 5a 0c 	vmovapd 0x300(%rdx),%zmm19
  404a4a:	62 e1 fd 48 28 62 10 	vmovapd 0x400(%rdx),%zmm20
  404a51:	62 e1 fd 48 28 6a 14 	vmovapd 0x500(%rdx),%zmm21
  404a58:	62 e1 fd 48 28 72 18 	vmovapd 0x600(%rdx),%zmm22
  404a5f:	62 e1 fd 48 28 7a 1c 	vmovapd 0x700(%rdx),%zmm23
  404a66:	62 61 fd 48 28 42 20 	vmovapd 0x800(%rdx),%zmm24
  404a6d:	62 61 fd 48 28 4a 24 	vmovapd 0x900(%rdx),%zmm25
  404a74:	62 61 fd 48 28 52 28 	vmovapd 0xa00(%rdx),%zmm26
  404a7b:	62 61 fd 48 28 5a 2c 	vmovapd 0xb00(%rdx),%zmm27
  404a82:	62 61 fd 48 28 62 30 	vmovapd 0xc00(%rdx),%zmm28
  404a89:	62 61 fd 48 28 6a 34 	vmovapd 0xd00(%rdx),%zmm29
  404a90:	62 61 fd 48 28 72 38 	vmovapd 0xe00(%rdx),%zmm30
  404a97:	62 61 fd 48 28 7a 3c 	vmovapd 0xf00(%rdx),%zmm31
  404a9e:	49 c7 c2 b5 4a 40 00 	mov    $0x404ab5,%r10
  404aa5:	48 83 c6 50          	add    $0x50,%rsi
  404aa9:	48 81 c7 00 e0 ff ff 	add    $0xffffffffffffe000,%rdi
  404ab0:	e9 20 f8 ff ff       	jmpq   4042d5 <CASE_2_2>

0000000000404ab5 <BLOCK_3_1_0_2>:
  404ab5:	62 e1 fd 48 29 02    	vmovapd %zmm16,(%rdx)
  404abb:	62 e1 fd 48 29 4a 04 	vmovapd %zmm17,0x100(%rdx)
  404ac2:	62 e1 fd 48 29 52 08 	vmovapd %zmm18,0x200(%rdx)
  404ac9:	62 e1 fd 48 29 5a 0c 	vmovapd %zmm19,0x300(%rdx)
  404ad0:	62 e1 fd 48 29 62 10 	vmovapd %zmm20,0x400(%rdx)
  404ad7:	62 e1 fd 48 29 6a 14 	vmovapd %zmm21,0x500(%rdx)
  404ade:	62 e1 fd 48 29 72 18 	vmovapd %zmm22,0x600(%rdx)
  404ae5:	62 e1 fd 48 29 7a 1c 	vmovapd %zmm23,0x700(%rdx)
  404aec:	62 61 fd 48 29 42 20 	vmovapd %zmm24,0x800(%rdx)
  404af3:	62 61 fd 48 29 4a 24 	vmovapd %zmm25,0x900(%rdx)
  404afa:	62 61 fd 48 29 52 28 	vmovapd %zmm26,0xa00(%rdx)
  404b01:	62 61 fd 48 29 5a 2c 	vmovapd %zmm27,0xb00(%rdx)
  404b08:	62 61 fd 48 29 62 30 	vmovapd %zmm28,0xc00(%rdx)
  404b0f:	62 61 fd 48 29 6a 34 	vmovapd %zmm29,0xd00(%rdx)
  404b16:	62 61 fd 48 29 72 38 	vmovapd %zmm30,0xe00(%rdx)
  404b1d:	62 61 fd 48 29 7a 3c 	vmovapd %zmm31,0xf00(%rdx)
  404b24:	c3                   	retq   

0000000000404b25 <_ZlsRSoRK12SparseMatrix>:
  404b25:	48 83 ec 18          	sub    $0x18,%rsp
  404b29:	4c 89 3c 24          	mov    %r15,(%rsp)
  404b2d:	4c 89 74 24 08       	mov    %r14,0x8(%rsp)
  404b32:	4c 89 6c 24 10       	mov    %r13,0x10(%rsp)
  404b37:	49 89 f7             	mov    %rsi,%r15
  404b3a:	49 89 fd             	mov    %rdi,%r13
  404b3d:	45 31 f6             	xor    %r14d,%r14d
  404b40:	41 83 7f 10 00       	cmpl   $0x0,0x10(%r15)
  404b45:	7e 2c                	jle    404b73 <_ZlsRSoRK12SparseMatrix+0x4e>
  404b47:	49 8b 57 18          	mov    0x18(%r15),%rdx
  404b4b:	4c 89 ef             	mov    %r13,%rdi
  404b4e:	c4 a1 7b 10 04 f2    	vmovsd (%rdx,%r14,8),%xmm0
  404b54:	e8 97 cb ff ff       	callq  4016f0 <_ZNSolsEd@plt>
  404b59:	48 89 c7             	mov    %rax,%rdi
  404b5c:	be 7c 69 40 00       	mov    $0x40697c,%esi
  404b61:	e8 da c9 ff ff       	callq  401540 <_ZStlsISt11char_traitsIcEERSt13basic_ostreamIcT_ES5_PKc@plt>
  404b66:	49 63 57 10          	movslq 0x10(%r15),%rdx
  404b6a:	49 83 c6 01          	add    $0x1,%r14
  404b6e:	49 39 d6             	cmp    %rdx,%r14
  404b71:	7c d4                	jl     404b47 <_ZlsRSoRK12SparseMatrix+0x22>
  404b73:	4c 89 e8             	mov    %r13,%rax
  404b76:	4c 8b 6c 24 10       	mov    0x10(%rsp),%r13
  404b7b:	4c 8b 74 24 08       	mov    0x8(%rsp),%r14
  404b80:	4c 8b 3c 24          	mov    (%rsp),%r15
  404b84:	48 83 c4 18          	add    $0x18,%rsp
  404b88:	c3                   	retq   

0000000000404b89 <_Z6to_cscRK6Matrix>:
  404b89:	48 83 ec 28          	sub    $0x28,%rsp
  404b8d:	48 89 5c 24 20       	mov    %rbx,0x20(%rsp)
  404b92:	48 89 6c 24 18       	mov    %rbp,0x18(%rsp)
  404b97:	4c 89 6c 24 08       	mov    %r13,0x8(%rsp)
  404b9c:	4c 89 64 24 10       	mov    %r12,0x10(%rsp)
  404ba1:	48 89 fb             	mov    %rdi,%rbx
  404ba4:	6a 30                	pushq  $0x30
  404ba6:	5f                   	pop    %rdi
  404ba7:	48 89 f5             	mov    %rsi,%rbp
  404baa:	e8 b1 c9 ff ff       	callq  401560 <_Znwm@plt>
  404baf:	49 89 c4             	mov    %rax,%r12
  404bb2:	8b 75 08             	mov    0x8(%rbp),%esi
  404bb5:	8b 55 0c             	mov    0xc(%rbp),%edx
  404bb8:	4c 89 e7             	mov    %r12,%rdi
  404bbb:	89 f1                	mov    %esi,%ecx
  404bbd:	0f af ca             	imul   %edx,%ecx
  404bc0:	e8 e7 02 00 00       	callq  404eac <_ZN12SparseMatrixC1Eiii>
  404bc5:	48 89 df             	mov    %rbx,%rdi
  404bc8:	4c 89 e6             	mov    %r12,%rsi
  404bcb:	e8 0c 05 00 00       	callq  4050dc <_ZNSt10unique_ptrI12SparseMatrixSt14default_deleteIS0_EEC1IS2_vEEPS0_>
  404bd0:	8b 4d 0c             	mov    0xc(%rbp),%ecx
  404bd3:	45 31 e4             	xor    %r12d,%r12d
  404bd6:	85 c9                	test   %ecx,%ecx
  404bd8:	7e 4c                	jle    404c26 <_Z6to_cscRK6Matrix+0x9d>
  404bda:	8b 45 08             	mov    0x8(%rbp),%eax
  404bdd:	45 31 ed             	xor    %r13d,%r13d
  404be0:	85 c0                	test   %eax,%eax
  404be2:	7e 39                	jle    404c1d <_Z6to_cscRK6Matrix+0x94>
  404be4:	48 8b 45 00          	mov    0x0(%rbp),%rax
  404be8:	48 89 ef             	mov    %rbp,%rdi
  404beb:	44 89 ee             	mov    %r13d,%esi
  404bee:	44 89 e2             	mov    %r12d,%edx
  404bf1:	ff 10                	callq  *(%rax)
  404bf3:	c5 fb 11 04 24       	vmovsd %xmm0,(%rsp)
  404bf8:	e8 93 05 00 00       	callq  405190 <fabs>
  404bfd:	62 f1 ff 08 c2 05 00 	vcmpgtsd 0x1500(%rip),%xmm0,%k0        # 406108 <__$Uf.0.32+0x18>
  404c04:	15 00 00 0e 
  404c08:	c5 f8 98 c0          	kortestw %k0,%k0
  404c0c:	75 31                	jne    404c3f <_Z6to_cscRK6Matrix+0xb6>
  404c0e:	8b 45 08             	mov    0x8(%rbp),%eax
  404c11:	41 83 c5 01          	add    $0x1,%r13d
  404c15:	41 39 c5             	cmp    %eax,%r13d
  404c18:	7c ca                	jl     404be4 <_Z6to_cscRK6Matrix+0x5b>
  404c1a:	8b 4d 0c             	mov    0xc(%rbp),%ecx
  404c1d:	41 83 c4 01          	add    $0x1,%r12d
  404c21:	41 39 cc             	cmp    %ecx,%r12d
  404c24:	7c b7                	jl     404bdd <_Z6to_cscRK6Matrix+0x54>
  404c26:	48 8b 5c 24 20       	mov    0x20(%rsp),%rbx
  404c2b:	48 8b 6c 24 18       	mov    0x18(%rsp),%rbp
  404c30:	4c 8b 64 24 10       	mov    0x10(%rsp),%r12
  404c35:	4c 8b 6c 24 08       	mov    0x8(%rsp),%r13
  404c3a:	48 83 c4 28          	add    $0x28,%rsp
  404c3e:	c3                   	retq   
  404c3f:	48 89 df             	mov    %rbx,%rdi
  404c42:	e8 b5 04 00 00       	callq  4050fc <_ZNKSt10unique_ptrI12SparseMatrixSt14default_deleteIS0_EEptEv>
  404c47:	48 8b 08             	mov    (%rax),%rcx
  404c4a:	48 89 c7             	mov    %rax,%rdi
  404c4d:	44 89 ee             	mov    %r13d,%esi
  404c50:	c5 fb 10 04 24       	vmovsd (%rsp),%xmm0
  404c55:	44 89 e2             	mov    %r12d,%edx
  404c58:	ff 51 08             	callq  *0x8(%rcx)
  404c5b:	eb b1                	jmp    404c0e <_Z6to_cscRK6Matrix+0x85>
  404c5d:	48 89 04 24          	mov    %rax,(%rsp)
  404c61:	48 89 df             	mov    %rbx,%rdi
  404c64:	e8 9f 04 00 00       	callq  405108 <_ZNSt10unique_ptrI12SparseMatrixSt14default_deleteIS0_EED1Ev>
  404c69:	eb 0c                	jmp    404c77 <_Z6to_cscRK6Matrix+0xee>
  404c6b:	48 89 04 24          	mov    %rax,(%rsp)
  404c6f:	4c 89 e7             	mov    %r12,%rdi
  404c72:	e8 b9 c8 ff ff       	callq  401530 <_ZdlPv@plt>
  404c77:	48 8b 3c 24          	mov    (%rsp),%rdi
  404c7b:	e8 40 ca ff ff       	callq  4016c0 <_Unwind_Resume@plt>

0000000000404c80 <_Z6cyclesl>:
  404c80:	6a 16                	pushq  $0x16
  404c82:	58                   	pop    %rax
  404c83:	c3                   	retq   

0000000000404c84 <_Z6gflopslli>:
  404c84:	6a 16                	pushq  $0x16
  404c86:	58                   	pop    %rax
  404c87:	c3                   	retq   

0000000000404c88 <__sti__$E>:
  404c88:	56                   	push   %rsi
  404c89:	bf 89 93 60 00       	mov    $0x609389,%edi
  404c8e:	e8 ad c9 ff ff       	callq  401640 <_ZNSt8ios_base4InitC1Ev@plt>
  404c93:	bf 10 17 40 00       	mov    $0x401710,%edi
  404c98:	be 89 93 60 00       	mov    $0x609389,%esi
  404c9d:	ba 80 91 60 00       	mov    $0x609180,%edx
  404ca2:	48 83 c4 08          	add    $0x8,%rsp
  404ca6:	e9 75 c8 ff ff       	jmpq   401520 <__cxa_atexit@plt>
  404cab:	90                   	nop

0000000000404cac <_ZN11DenseMatrix4zeroEv>:
  404cac:	49 89 f9             	mov    %rdi,%r9
  404caf:	41 8b 79 0c          	mov    0xc(%r9),%edi
  404cb3:	45 31 c0             	xor    %r8d,%r8d
  404cb6:	85 ff                	test   %edi,%edi
  404cb8:	7e 39                	jle    404cf3 <_ZN11DenseMatrix4zeroEv+0x47>
  404cba:	41 8b 71 08          	mov    0x8(%r9),%esi
  404cbe:	31 d2                	xor    %edx,%edx
  404cc0:	48 63 ce             	movslq %esi,%rcx
  404cc3:	48 89 d0             	mov    %rdx,%rax
  404cc6:	85 f6                	test   %esi,%esi
  404cc8:	7e 20                	jle    404cea <_ZN11DenseMatrix4zeroEv+0x3e>
  404cca:	45 89 c2             	mov    %r8d,%r10d
  404ccd:	4d 8b 59 18          	mov    0x18(%r9),%r11
  404cd1:	45 0f af 51 10       	imul   0x10(%r9),%r10d
  404cd6:	4d 63 d2             	movslq %r10d,%r10
  404cd9:	4f 8d 14 d3          	lea    (%r11,%r10,8),%r10
  404cdd:	49 89 14 c2          	mov    %rdx,(%r10,%rax,8)
  404ce1:	48 83 c0 01          	add    $0x1,%rax
  404ce5:	48 39 c8             	cmp    %rcx,%rax
  404ce8:	7c f3                	jl     404cdd <_ZN11DenseMatrix4zeroEv+0x31>
  404cea:	41 83 c0 01          	add    $0x1,%r8d
  404cee:	41 39 f8             	cmp    %edi,%r8d
  404cf1:	7c d0                	jl     404cc3 <_ZN11DenseMatrix4zeroEv+0x17>
  404cf3:	c3                   	retq   

0000000000404cf4 <_ZN11DenseMatrixD1Ev>:
  404cf4:	48 8d 05 1d 45 20 00 	lea    0x20451d(%rip),%rax        # 609218 <_ZTV11DenseMatrix+0x10>
  404cfb:	48 89 07             	mov    %rax,(%rdi)
  404cfe:	48 8b 7f 18          	mov    0x18(%rdi),%rdi
  404d02:	e9 b9 c8 ff ff       	jmpq   4015c0 <free@plt>
  404d07:	90                   	nop

0000000000404d08 <_ZN11DenseMatrix6randomEv>:
  404d08:	48 83 ec 18          	sub    $0x18,%rsp
  404d0c:	4c 89 34 24          	mov    %r14,(%rsp)
  404d10:	4c 89 6c 24 08       	mov    %r13,0x8(%rsp)
  404d15:	4c 89 64 24 10       	mov    %r12,0x10(%rsp)
  404d1a:	49 89 fe             	mov    %rdi,%r14
  404d1d:	45 31 ed             	xor    %r13d,%r13d
  404d20:	41 8b 56 0c          	mov    0xc(%r14),%edx
  404d24:	85 d2                	test   %edx,%edx
  404d26:	7e 51                	jle    404d79 <_ZN11DenseMatrix6randomEv+0x71>
  404d28:	49 63 46 08          	movslq 0x8(%r14),%rax
  404d2c:	45 31 e4             	xor    %r12d,%r12d
  404d2f:	48 85 c0             	test   %rax,%rax
  404d32:	7e 3c                	jle    404d70 <_ZN11DenseMatrix6randomEv+0x68>
  404d34:	e8 47 c7 ff ff       	callq  401480 <rand@plt>
  404d39:	c5 f9 57 c0          	vxorpd %xmm0,%xmm0,%xmm0
  404d3d:	c5 fb 2a c0          	vcvtsi2sd %eax,%xmm0,%xmm0
  404d41:	44 89 e8             	mov    %r13d,%eax
  404d44:	49 8b 56 18          	mov    0x18(%r14),%rdx
  404d48:	c5 fb 5e 0d b0 13 00 	vdivsd 0x13b0(%rip),%xmm0,%xmm1        # 406100 <__$Uf.0.32+0x10>
  404d4f:	00 
  404d50:	41 0f af 46 10       	imul   0x10(%r14),%eax
  404d55:	48 98                	cltq   
  404d57:	4c 01 e0             	add    %r12,%rax
  404d5a:	c5 fb 11 0c c2       	vmovsd %xmm1,(%rdx,%rax,8)
  404d5f:	49 63 46 08          	movslq 0x8(%r14),%rax
  404d63:	49 83 c4 01          	add    $0x1,%r12
  404d67:	49 39 c4             	cmp    %rax,%r12
  404d6a:	7c c8                	jl     404d34 <_ZN11DenseMatrix6randomEv+0x2c>
  404d6c:	41 8b 56 0c          	mov    0xc(%r14),%edx
  404d70:	41 83 c5 01          	add    $0x1,%r13d
  404d74:	41 39 d5             	cmp    %edx,%r13d
  404d77:	7c b3                	jl     404d2c <_ZN11DenseMatrix6randomEv+0x24>
  404d79:	4c 8b 64 24 10       	mov    0x10(%rsp),%r12
  404d7e:	4c 8b 6c 24 08       	mov    0x8(%rsp),%r13
  404d83:	4c 8b 34 24          	mov    (%rsp),%r14
  404d87:	48 83 c4 18          	add    $0x18,%rsp
  404d8b:	c3                   	retq   

0000000000404d8c <_ZN11DenseMatrixC1EPKc>:
  404d8c:	48 81 ec 18 04 00 00 	sub    $0x418,%rsp
  404d93:	4c 89 7c 24 20       	mov    %r15,0x20(%rsp)
  404d98:	48 89 5c 24 18       	mov    %rbx,0x18(%rsp)
  404d9d:	4c 89 74 24 28       	mov    %r14,0x28(%rsp)
  404da2:	49 89 ff             	mov    %rdi,%r15
  404da5:	48 8d 05 6c 44 20 00 	lea    0x20446c(%rip),%rax        # 609218 <_ZTV11DenseMatrix+0x10>
  404dac:	49 89 07             	mov    %rax,(%r15)
  404daf:	48 89 f7             	mov    %rsi,%rdi
  404db2:	be 70 61 40 00       	mov    $0x406170,%esi
  404db7:	e8 f4 c7 ff ff       	callq  4015b0 <fopen@plt>
  404dbc:	49 89 c6             	mov    %rax,%r14
  404dbf:	48 8d 7c 24 30       	lea    0x30(%rsp),%rdi
  404dc4:	be e8 03 00 00       	mov    $0x3e8,%esi
  404dc9:	4c 89 f2             	mov    %r14,%rdx
  404dcc:	e8 7f c8 ff ff       	callq  401650 <fgets@plt>
  404dd1:	48 8d 7c 24 30       	lea    0x30(%rsp),%rdi
  404dd6:	be e8 03 00 00       	mov    $0x3e8,%esi
  404ddb:	4c 89 f2             	mov    %r14,%rdx
  404dde:	e8 6d c8 ff ff       	callq  401650 <fgets@plt>
  404de3:	49 8d 57 08          	lea    0x8(%r15),%rdx
  404de7:	49 8d 4f 0c          	lea    0xc(%r15),%rcx
  404deb:	4c 89 f7             	mov    %r14,%rdi
  404dee:	be 74 61 40 00       	mov    $0x406174,%esi
  404df3:	4c 8d 04 24          	lea    (%rsp),%r8
  404df7:	31 c0                	xor    %eax,%eax
  404df9:	e8 02 c9 ff ff       	callq  401700 <fscanf@plt>
  404dfe:	49 8d 7f 18          	lea    0x18(%r15),%rdi
  404e02:	41 8b 57 08          	mov    0x8(%r15),%edx
  404e06:	41 89 57 10          	mov    %edx,0x10(%r15)
  404e0a:	8b 47 f4             	mov    -0xc(%rdi),%eax
  404e0d:	6a 40                	pushq  $0x40
  404e0f:	5e                   	pop    %rsi
  404e10:	0f af d0             	imul   %eax,%edx
  404e13:	48 63 d2             	movslq %edx,%rdx
  404e16:	48 c1 e2 03          	shl    $0x3,%rdx
  404e1a:	e8 d1 c6 ff ff       	callq  4014f0 <posix_memalign@plt>
  404e1f:	4c 89 ff             	mov    %r15,%rdi
  404e22:	e8 85 fe ff ff       	callq  404cac <_ZN11DenseMatrix4zeroEv>
  404e27:	31 db                	xor    %ebx,%ebx
  404e29:	83 3c 24 00          	cmpl   $0x0,(%rsp)
  404e2d:	7e 44                	jle    404e73 <_ZN11DenseMatrixC1EPKc+0xe7>
  404e2f:	48 8d 54 24 04       	lea    0x4(%rsp),%rdx
  404e34:	4c 89 f7             	mov    %r14,%rdi
  404e37:	be 80 61 40 00       	mov    $0x406180,%esi
  404e3c:	48 8d 4a 04          	lea    0x4(%rdx),%rcx
  404e40:	4c 8d 42 0c          	lea    0xc(%rdx),%r8
  404e44:	31 c0                	xor    %eax,%eax
  404e46:	e8 b5 c8 ff ff       	callq  401700 <fscanf@plt>
  404e4b:	8b 44 24 08          	mov    0x8(%rsp),%eax
  404e4f:	48 8b 4c 24 10       	mov    0x10(%rsp),%rcx
  404e54:	83 c3 01             	add    $0x1,%ebx
  404e57:	83 c0 ff             	add    $0xffffffff,%eax
  404e5a:	49 8b 77 18          	mov    0x18(%r15),%rsi
  404e5e:	41 0f af 47 10       	imul   0x10(%r15),%eax
  404e63:	03 44 24 04          	add    0x4(%rsp),%eax
  404e67:	48 98                	cltq   
  404e69:	48 89 4c c6 f8       	mov    %rcx,-0x8(%rsi,%rax,8)
  404e6e:	3b 1c 24             	cmp    (%rsp),%ebx
  404e71:	7c bc                	jl     404e2f <_ZN11DenseMatrixC1EPKc+0xa3>
  404e73:	4c 89 f7             	mov    %r14,%rdi
  404e76:	e8 d5 c6 ff ff       	callq  401550 <fclose@plt>
  404e7b:	48 8b 5c 24 18       	mov    0x18(%rsp),%rbx
  404e80:	4c 8b 74 24 28       	mov    0x28(%rsp),%r14
  404e85:	4c 8b 7c 24 20       	mov    0x20(%rsp),%r15
  404e8a:	48 81 c4 18 04 00 00 	add    $0x418,%rsp
  404e91:	c3                   	retq   

0000000000404e92 <_ZNSt11char_traitsIcE6lengthEPKc>:
  404e92:	e9 19 c6 ff ff       	jmpq   4014b0 <strlen@plt>
  404e97:	90                   	nop

0000000000404e98 <_ZNSt8ios_base9precisionEl>:
  404e98:	48 8b 47 08          	mov    0x8(%rdi),%rax
  404e9c:	48 89 77 08          	mov    %rsi,0x8(%rdi)
  404ea0:	c3                   	retq   
  404ea1:	90                   	nop

0000000000404ea2 <_ZNSt8ios_base5widthEl>:
  404ea2:	48 8b 47 10          	mov    0x10(%rdi),%rax
  404ea6:	48 89 77 10          	mov    %rsi,0x10(%rdi)
  404eaa:	c3                   	retq   
  404eab:	90                   	nop

0000000000404eac <_ZN12SparseMatrixC1Eiii>:
  404eac:	48 83 ec 28          	sub    $0x28,%rsp
  404eb0:	4c 89 64 24 08       	mov    %r12,0x8(%rsp)
  404eb5:	48 89 6c 24 10       	mov    %rbp,0x10(%rsp)
  404eba:	48 89 5c 24 18       	mov    %rbx,0x18(%rsp)
  404ebf:	4c 89 2c 24          	mov    %r13,(%rsp)
  404ec3:	4c 63 e1             	movslq %ecx,%r12
  404ec6:	49 b8 ff ff ff ff ff 	movabs $0xfffffffffffffff,%r8
  404ecd:	ff ff 0f 
  404ed0:	49 89 fd             	mov    %rdi,%r13
  404ed3:	45 89 65 14          	mov    %r12d,0x14(%r13)
  404ed7:	48 8d 05 f2 42 20 00 	lea    0x2042f2(%rip),%rax        # 6091d0 <_ZTV12SparseMatrix+0x10>
  404ede:	49 89 45 00          	mov    %rax,0x0(%r13)
  404ee2:	4d 39 e0             	cmp    %r12,%r8
  404ee5:	41 c7 45 10 00 00 00 	movl   $0x0,0x10(%r13)
  404eec:	00 
  404eed:	41 89 75 08          	mov    %esi,0x8(%r13)
  404ef1:	41 89 55 0c          	mov    %edx,0xc(%r13)
  404ef5:	72 05                	jb     404efc <_ZN12SparseMatrixC1Eiii+0x50>
  404ef7:	4d 85 e4             	test   %r12,%r12
  404efa:	7d 2c                	jge    404f28 <_ZN12SparseMatrixC1Eiii+0x7c>
  404efc:	e8 1f c7 ff ff       	callq  401620 <__cxa_throw_bad_array_new_length@plt>
  404f01:	4a 8d 3c e5 00 00 00 	lea    0x0(,%r12,8),%rdi
  404f08:	00 
  404f09:	e8 62 c5 ff ff       	callq  401470 <_Znam@plt>
  404f0e:	48 bd ff ff ff ff ff 	movabs $0x1fffffffffffffff,%rbp
  404f15:	ff ff 1f 
  404f18:	49 89 45 18          	mov    %rax,0x18(%r13)
  404f1c:	4c 39 e5             	cmp    %r12,%rbp
  404f1f:	72 27                	jb     404f48 <_ZN12SparseMatrixC1Eiii+0x9c>
  404f21:	4d 85 e4             	test   %r12,%r12
  404f24:	7c 22                	jl     404f48 <_ZN12SparseMatrixC1Eiii+0x9c>
  404f26:	eb 45                	jmp    404f6d <_ZN12SparseMatrixC1Eiii+0xc1>
  404f28:	4a 8d 3c e5 00 00 00 	lea    0x0(,%r12,8),%rdi
  404f2f:	00 
  404f30:	e8 3b c5 ff ff       	callq  401470 <_Znam@plt>
  404f35:	48 bd ff ff ff ff ff 	movabs $0x1fffffffffffffff,%rbp
  404f3c:	ff ff 1f 
  404f3f:	49 89 45 18          	mov    %rax,0x18(%r13)
  404f43:	4c 39 e5             	cmp    %r12,%rbp
  404f46:	73 25                	jae    404f6d <_ZN12SparseMatrixC1Eiii+0xc1>
  404f48:	e8 d3 c6 ff ff       	callq  401620 <__cxa_throw_bad_array_new_length@plt>
  404f4d:	4a 8d 1c a5 00 00 00 	lea    0x0(,%r12,4),%rbx
  404f54:	00 
  404f55:	48 89 df             	mov    %rbx,%rdi
  404f58:	e8 13 c5 ff ff       	callq  401470 <_Znam@plt>
  404f5d:	49 89 45 20          	mov    %rax,0x20(%r13)
  404f61:	4c 39 e5             	cmp    %r12,%rbp
  404f64:	72 20                	jb     404f86 <_ZN12SparseMatrixC1Eiii+0xda>
  404f66:	4d 85 e4             	test   %r12,%r12
  404f69:	7c 1b                	jl     404f86 <_ZN12SparseMatrixC1Eiii+0xda>
  404f6b:	eb 1e                	jmp    404f8b <_ZN12SparseMatrixC1Eiii+0xdf>
  404f6d:	4a 8d 1c a5 00 00 00 	lea    0x0(,%r12,4),%rbx
  404f74:	00 
  404f75:	48 89 df             	mov    %rbx,%rdi
  404f78:	e8 f3 c4 ff ff       	callq  401470 <_Znam@plt>
  404f7d:	49 89 45 20          	mov    %rax,0x20(%r13)
  404f81:	4c 39 e5             	cmp    %r12,%rbp
  404f84:	73 05                	jae    404f8b <_ZN12SparseMatrixC1Eiii+0xdf>
  404f86:	e8 95 c6 ff ff       	callq  401620 <__cxa_throw_bad_array_new_length@plt>
  404f8b:	48 89 df             	mov    %rbx,%rdi
  404f8e:	e8 dd c4 ff ff       	callq  401470 <_Znam@plt>
  404f93:	49 89 45 28          	mov    %rax,0x28(%r13)
  404f97:	48 8b 5c 24 18       	mov    0x18(%rsp),%rbx
  404f9c:	48 8b 6c 24 10       	mov    0x10(%rsp),%rbp
  404fa1:	4c 8b 64 24 08       	mov    0x8(%rsp),%r12
  404fa6:	4c 8b 2c 24          	mov    (%rsp),%r13
  404faa:	48 83 c4 28          	add    $0x28,%rsp
  404fae:	c3                   	retq   
  404faf:	90                   	nop

0000000000404fb0 <_ZNK12SparseMatrix3getEii>:
  404fb0:	48 63 4f 10          	movslq 0x10(%rdi),%rcx
  404fb4:	41 89 d0             	mov    %edx,%r8d
  404fb7:	45 31 c9             	xor    %r9d,%r9d
  404fba:	48 85 c9             	test   %rcx,%rcx
  404fbd:	7e 1d                	jle    404fdc <_ZNK12SparseMatrix3getEii+0x2c>
  404fbf:	48 8b 57 20          	mov    0x20(%rdi),%rdx
  404fc3:	42 3b 34 8a          	cmp    (%rdx,%r9,4),%esi
  404fc7:	75 0a                	jne    404fd3 <_ZNK12SparseMatrix3getEii+0x23>
  404fc9:	48 8b 47 28          	mov    0x28(%rdi),%rax
  404fcd:	46 3b 04 88          	cmp    (%rax,%r9,4),%r8d
  404fd1:	74 0e                	je     404fe1 <_ZNK12SparseMatrix3getEii+0x31>
  404fd3:	49 83 c1 01          	add    $0x1,%r9
  404fd7:	49 39 c9             	cmp    %rcx,%r9
  404fda:	7c e7                	jl     404fc3 <_ZNK12SparseMatrix3getEii+0x13>
  404fdc:	c5 f9 57 c0          	vxorpd %xmm0,%xmm0,%xmm0
  404fe0:	c3                   	retq   
  404fe1:	48 8b 47 18          	mov    0x18(%rdi),%rax
  404fe5:	c4 a1 7b 10 04 c8    	vmovsd (%rax,%r9,8),%xmm0
  404feb:	c3                   	retq   

0000000000404fec <_ZN12SparseMatrix3setEiid>:
  404fec:	89 d1                	mov    %edx,%ecx
  404fee:	48 63 57 10          	movslq 0x10(%rdi),%rdx
  404ff2:	48 8b 47 20          	mov    0x20(%rdi),%rax
  404ff6:	45 30 d2             	xor    %r10b,%r10b
  404ff9:	45 31 c9             	xor    %r9d,%r9d
  404ffc:	48 85 d2             	test   %rdx,%rdx
  404fff:	7e 36                	jle    405037 <_ZN12SparseMatrix3setEiid+0x4b>
  405001:	42 3b 34 88          	cmp    (%rax,%r9,4),%esi
  405005:	75 22                	jne    405029 <_ZN12SparseMatrix3setEiid+0x3d>
  405007:	4c 8b 47 28          	mov    0x28(%rdi),%r8
  40500b:	43 3b 0c 88          	cmp    (%r8,%r9,4),%ecx
  40500f:	75 18                	jne    405029 <_ZN12SparseMatrix3setEiid+0x3d>
  405011:	4c 8b 47 18          	mov    0x18(%rdi),%r8
  405015:	c4 81 7b 11 04 c8    	vmovsd %xmm0,(%r8,%r9,8)
  40501b:	49 83 c1 01          	add    $0x1,%r9
  40501f:	41 b2 01             	mov    $0x1,%r10b
  405022:	49 39 d1             	cmp    %rdx,%r9
  405025:	7c da                	jl     405001 <_ZN12SparseMatrix3setEiid+0x15>
  405027:	eb 2a                	jmp    405053 <_ZN12SparseMatrix3setEiid+0x67>
  405029:	49 83 c1 01          	add    $0x1,%r9
  40502d:	49 39 d1             	cmp    %rdx,%r9
  405030:	7c cf                	jl     405001 <_ZN12SparseMatrix3setEiid+0x15>
  405032:	45 84 d2             	test   %r10b,%r10b
  405035:	75 1c                	jne    405053 <_ZN12SparseMatrix3setEiid+0x67>
  405037:	4c 8b 47 18          	mov    0x18(%rdi),%r8
  40503b:	89 34 90             	mov    %esi,(%rax,%rdx,4)
  40503e:	48 8b 47 28          	mov    0x28(%rdi),%rax
  405042:	c4 c1 7b 11 04 d0    	vmovsd %xmm0,(%r8,%rdx,8)
  405048:	48 63 57 10          	movslq 0x10(%rdi),%rdx
  40504c:	89 0c 90             	mov    %ecx,(%rax,%rdx,4)
  40504f:	83 47 10 01          	addl   $0x1,0x10(%rdi)
  405053:	c3                   	retq   

0000000000405054 <_ZNK11DenseMatrix3getEii>:
  405054:	56                   	push   %rsi
  405055:	48 89 1c 24          	mov    %rbx,(%rsp)
  405059:	3b 77 08             	cmp    0x8(%rdi),%esi
  40505c:	7d 05                	jge    405063 <_ZNK11DenseMatrix3getEii+0xf>
  40505e:	3b 57 0c             	cmp    0xc(%rdi),%edx
  405061:	7c 2a                	jl     40508d <_ZNK11DenseMatrix3getEii+0x39>
  405063:	6a 10                	pushq  $0x10
  405065:	5f                   	pop    %rdi
  405066:	e8 75 c4 ff ff       	callq  4014e0 <__cxa_allocate_exception@plt>
  40506b:	48 89 c3             	mov    %rax,%rbx
  40506e:	48 89 df             	mov    %rbx,%rdi
  405071:	be 18 62 40 00       	mov    $0x406218,%esi
  405076:	e8 65 c6 ff ff       	callq  4016e0 <_ZNSt16invalid_argumentC1EPKc@plt>
  40507b:	48 89 df             	mov    %rbx,%rdi
  40507e:	be 70 93 60 00       	mov    $0x609370,%esi
  405083:	ba 90 16 40 00       	mov    $0x401690,%edx
  405088:	e8 13 c6 ff ff       	callq  4016a0 <__cxa_throw@plt>
  40508d:	8b 47 10             	mov    0x10(%rdi),%eax
  405090:	48 63 f6             	movslq %esi,%rsi
  405093:	0f af c2             	imul   %edx,%eax
  405096:	48 8b 57 18          	mov    0x18(%rdi),%rdx
  40509a:	48 98                	cltq   
  40509c:	48 01 c6             	add    %rax,%rsi
  40509f:	c5 fb 10 04 f2       	vmovsd (%rdx,%rsi,8),%xmm0
  4050a4:	59                   	pop    %rcx
  4050a5:	c3                   	retq   

00000000004050a6 <_ZN11DenseMatrix3setEiid>:
  4050a6:	0f af 57 10          	imul   0x10(%rdi),%edx
  4050aa:	48 8b 47 18          	mov    0x18(%rdi),%rax
  4050ae:	48 63 f6             	movslq %esi,%rsi
  4050b1:	48 63 d2             	movslq %edx,%rdx
  4050b4:	48 01 f2             	add    %rsi,%rdx
  4050b7:	c5 fb 11 04 d0       	vmovsd %xmm0,(%rax,%rdx,8)
  4050bc:	c3                   	retq   
  4050bd:	90                   	nop

00000000004050be <_ZSt5fixedRSt8ios_base>:
  4050be:	8b 57 18             	mov    0x18(%rdi),%edx
  4050c1:	48 89 f8             	mov    %rdi,%rax
  4050c4:	81 e2 fb fe ff ff    	and    $0xfffffefb,%edx
  4050ca:	83 c2 04             	add    $0x4,%edx
  4050cd:	89 57 18             	mov    %edx,0x18(%rdi)
  4050d0:	c3                   	retq   

00000000004050d1 <_ZSt3getILm1EJP12SparseMatrixSt14default_deleteIS0_EEERNSt13tuple_elementIXT_ESt5tupleIJDpT0_EEE4typeERS8_>:
  4050d1:	e9 ae 00 00 00       	jmpq   405184 <_ZNSt11_Tuple_implILm1EJSt14default_deleteI12SparseMatrixEEE7_M_headERS3_>

00000000004050d6 <_ZSt3getILm0EJP12SparseMatrixSt14default_deleteIS0_EEERKNSt13tuple_elementIXT_ESt5tupleIJDpT0_EEE4typeERKS8_>:
  4050d6:	e9 a1 00 00 00       	jmpq   40517c <_ZNSt11_Tuple_implILm0EJP12SparseMatrixSt14default_deleteIS0_EEE7_M_headERKS4_>
  4050db:	90                   	nop

00000000004050dc <_ZNSt10unique_ptrI12SparseMatrixSt14default_deleteIS0_EEC1IS2_vEEPS0_>:
  4050dc:	56                   	push   %rsi
  4050dd:	48 89 2c 24          	mov    %rbp,(%rsp)
  4050e1:	48 8b 05 08 10 00 00 	mov    0x1008(%rip),%rax        # 4060f0 <__$Uf.0.32>
  4050e8:	48 89 07             	mov    %rax,(%rdi)
  4050eb:	48 89 f5             	mov    %rsi,%rbp
  4050ee:	e8 83 00 00 00       	callq  405176 <_ZNSt15__uniq_ptr_implI12SparseMatrixSt14default_deleteIS0_EE6_M_ptrEv>
  4050f3:	48 89 28             	mov    %rbp,(%rax)
  4050f6:	48 8b 2c 24          	mov    (%rsp),%rbp
  4050fa:	59                   	pop    %rcx
  4050fb:	c3                   	retq   

00000000004050fc <_ZNKSt10unique_ptrI12SparseMatrixSt14default_deleteIS0_EEptEv>:
  4050fc:	56                   	push   %rsi
  4050fd:	e8 d4 ff ff ff       	callq  4050d6 <_ZSt3getILm0EJP12SparseMatrixSt14default_deleteIS0_EEERKNSt13tuple_elementIXT_ESt5tupleIJDpT0_EEE4typeERKS8_>
  405102:	48 8b 00             	mov    (%rax),%rax
  405105:	59                   	pop    %rcx
  405106:	c3                   	retq   
  405107:	90                   	nop

0000000000405108 <_ZNSt10unique_ptrI12SparseMatrixSt14default_deleteIS0_EED1Ev>:
  405108:	48 83 ec 18          	sub    $0x18,%rsp
  40510c:	4c 89 3c 24          	mov    %r15,(%rsp)
  405110:	4c 89 74 24 08       	mov    %r14,0x8(%rsp)
  405115:	e8 5c 00 00 00       	callq  405176 <_ZNSt15__uniq_ptr_implI12SparseMatrixSt14default_deleteIS0_EE6_M_ptrEv>
  40511a:	49 89 c7             	mov    %rax,%r15
  40511d:	4d 8b 37             	mov    (%r15),%r14
  405120:	4d 85 f6             	test   %r14,%r14
  405123:	74 3c                	je     405161 <_ZNSt10unique_ptrI12SparseMatrixSt14default_deleteIS0_EED1Ev+0x59>
  405125:	49 8b 7e 18          	mov    0x18(%r14),%rdi
  405129:	48 8d 05 a0 40 20 00 	lea    0x2040a0(%rip),%rax        # 6091d0 <_ZTV12SparseMatrix+0x10>
  405130:	49 89 06             	mov    %rax,(%r14)
  405133:	48 85 ff             	test   %rdi,%rdi
  405136:	74 05                	je     40513d <_ZNSt10unique_ptrI12SparseMatrixSt14default_deleteIS0_EED1Ev+0x35>
  405138:	e8 b3 c4 ff ff       	callq  4015f0 <_ZdaPv@plt>
  40513d:	49 8b 7e 20          	mov    0x20(%r14),%rdi
  405141:	48 85 ff             	test   %rdi,%rdi
  405144:	74 05                	je     40514b <_ZNSt10unique_ptrI12SparseMatrixSt14default_deleteIS0_EED1Ev+0x43>
  405146:	e8 a5 c4 ff ff       	callq  4015f0 <_ZdaPv@plt>
  40514b:	49 8b 7e 28          	mov    0x28(%r14),%rdi
  40514f:	48 85 ff             	test   %rdi,%rdi
  405152:	74 05                	je     405159 <_ZNSt10unique_ptrI12SparseMatrixSt14default_deleteIS0_EED1Ev+0x51>
  405154:	e8 97 c4 ff ff       	callq  4015f0 <_ZdaPv@plt>
  405159:	4c 89 f7             	mov    %r14,%rdi
  40515c:	e8 cf c3 ff ff       	callq  401530 <_ZdlPv@plt>
  405161:	49 c7 07 00 00 00 00 	movq   $0x0,(%r15)
  405168:	4c 8b 74 24 08       	mov    0x8(%rsp),%r14
  40516d:	4c 8b 3c 24          	mov    (%rsp),%r15
  405171:	48 83 c4 18          	add    $0x18,%rsp
  405175:	c3                   	retq   

0000000000405176 <_ZNSt15__uniq_ptr_implI12SparseMatrixSt14default_deleteIS0_EE6_M_ptrEv>:
  405176:	e9 05 00 00 00       	jmpq   405180 <_ZNSt11_Tuple_implILm0EJP12SparseMatrixSt14default_deleteIS0_EEE7_M_headERS4_>
  40517b:	90                   	nop

000000000040517c <_ZNSt11_Tuple_implILm0EJP12SparseMatrixSt14default_deleteIS0_EEE7_M_headERKS4_>:
  40517c:	48 89 f8             	mov    %rdi,%rax
  40517f:	c3                   	retq   

0000000000405180 <_ZNSt11_Tuple_implILm0EJP12SparseMatrixSt14default_deleteIS0_EEE7_M_headERS4_>:
  405180:	48 89 f8             	mov    %rdi,%rax
  405183:	c3                   	retq   

0000000000405184 <_ZNSt11_Tuple_implILm1EJSt14default_deleteI12SparseMatrixEEE7_M_headERS3_>:
  405184:	48 89 f8             	mov    %rdi,%rax
  405187:	c3                   	retq   
  405188:	0f 1f 84 00 00 00 00 	nopl   0x0(%rax,%rax,1)
  40518f:	00 

0000000000405190 <fabs>:
  405190:	e9 0b 00 00 00       	jmpq   4051a0 <__libm_fabs_ex>
  405195:	0f 1f 40 00          	nopl   0x0(%rax)
  405199:	0f 1f 80 00 00 00 00 	nopl   0x0(%rax)

00000000004051a0 <__libm_fabs_ex>:
  4051a0:	f3 0f 7e 0d 98 10 00 	movq   0x1098(%rip),%xmm1        # 406240 <MASK>
  4051a7:	00 
  4051a8:	f3 0f 7e 15 a0 10 00 	movq   0x10a0(%rip),%xmm2        # 406250 <ONE>
  4051af:	00 
  4051b0:	66 0f 54 c1          	andpd  %xmm1,%xmm0
  4051b4:	f2 0f 59 c2          	mulsd  %xmm2,%xmm0
  4051b8:	c3                   	retq   
  4051b9:	0f 1f 80 00 00 00 00 	nopl   0x0(%rax)

00000000004051c0 <__intel_new_feature_proc_init>:
  4051c0:	41 54                	push   %r12
  4051c2:	41 55                	push   %r13
  4051c4:	41 56                	push   %r14
  4051c6:	41 57                	push   %r15
  4051c8:	48 81 ec 38 04 00 00 	sub    $0x438,%rsp
  4051cf:	49 89 f6             	mov    %rsi,%r14
  4051d2:	4c 8d 3d e7 45 20 00 	lea    0x2045e7(%rip),%r15        # 6097c0 <__intel_cpu_feature_indicator>
  4051d9:	41 89 fd             	mov    %edi,%r13d
  4051dc:	64 48 8b 04 25 28 00 	mov    %fs:0x28,%rax
  4051e3:	00 00 
  4051e5:	48 33 c4             	xor    %rsp,%rax
  4051e8:	4d 8b 27             	mov    (%r15),%r12
  4051eb:	48 89 84 24 28 04 00 	mov    %rax,0x428(%rsp)
  4051f2:	00 
  4051f3:	4d 85 e4             	test   %r12,%r12
  4051f6:	0f 84 f8 02 00 00    	je     4054f4 <__intel_new_feature_proc_init+0x334>
  4051fc:	4c 89 e0             	mov    %r12,%rax
  4051ff:	49 23 c6             	and    %r14,%rax
  405202:	49 3b c6             	cmp    %r14,%rax
  405205:	0f 84 4c 02 00 00    	je     405457 <__intel_new_feature_proc_init+0x297>
  40520b:	49 f7 c6 01 00 00 00 	test   $0x1,%r14
  405212:	0f 85 b3 02 00 00    	jne    4054cb <__intel_new_feature_proc_init+0x30b>
  405218:	45 33 ff             	xor    %r15d,%r15d
  40521b:	49 f7 d4             	not    %r12
  40521e:	bf 39 00 00 00       	mov    $0x39,%edi
  405223:	33 f6                	xor    %esi,%esi
  405225:	33 c0                	xor    %eax,%eax
  405227:	4d 23 e6             	and    %r14,%r12
  40522a:	45 33 f6             	xor    %r14d,%r14d
  40522d:	e8 fe 02 00 00       	callq  405530 <__libirc_get_msg>
  405232:	c6 44 24 28 00       	movb   $0x0,0x28(%rsp)
  405237:	4c 89 f2             	mov    %r14,%rdx
  40523a:	48 89 44 24 20       	mov    %rax,0x20(%rsp)
  40523f:	41 bd 01 00 00 00    	mov    $0x1,%r13d
  405245:	48 89 5c 24 18       	mov    %rbx,0x18(%rsp)
  40524a:	48 89 6c 24 10       	mov    %rbp,0x10(%rsp)
  40524f:	4c 89 f5             	mov    %r14,%rbp
  405252:	b8 01 00 00 00       	mov    $0x1,%eax
  405257:	41 8d 4d 3f          	lea    0x3f(%r13),%ecx
  40525b:	48 d3 e0             	shl    %cl,%rax
  40525e:	41 83 fd 2b          	cmp    $0x2b,%r13d
  405262:	48 0f 47 c5          	cmova  %rbp,%rax
  405266:	4c 85 e0             	test   %r12,%rax
  405269:	0f 84 ff 00 00 00    	je     40536e <__intel_new_feature_proc_init+0x1ae>
  40526f:	48 8d 05 ca 35 20 00 	lea    0x2035ca(%rip),%rax        # 608840 <c_feature_names>
  405276:	4a 8b 1c e8          	mov    (%rax,%r13,8),%rbx
  40527a:	48 85 db             	test   %rbx,%rbx
  40527d:	0f 84 39 02 00 00    	je     4054bc <__intel_new_feature_proc_init+0x2fc>
  405283:	80 3b 00             	cmpb   $0x0,(%rbx)
  405286:	0f 84 30 02 00 00    	je     4054bc <__intel_new_feature_proc_init+0x2fc>
  40528c:	80 7c 24 28 00       	cmpb   $0x0,0x28(%rsp)
  405291:	0f 84 ab 00 00 00    	je     405342 <__intel_new_feature_proc_init+0x182>
  405297:	4d 85 ff             	test   %r15,%r15
  40529a:	0f 84 9d 00 00 00    	je     40533d <__intel_new_feature_proc_init+0x17d>
  4052a0:	4c 89 ff             	mov    %r15,%rdi
  4052a3:	e8 08 c2 ff ff       	callq  4014b0 <strlen@plt>
  4052a8:	48 8b 7c 24 20       	mov    0x20(%rsp),%rdi
  4052ad:	48 89 44 24 08       	mov    %rax,0x8(%rsp)
  4052b2:	e8 f9 c1 ff ff       	callq  4014b0 <strlen@plt>
  4052b7:	48 89 df             	mov    %rbx,%rdi
  4052ba:	48 89 04 24          	mov    %rax,(%rsp)
  4052be:	e8 ed c1 ff ff       	callq  4014b0 <strlen@plt>
  4052c3:	48 89 c1             	mov    %rax,%rcx
  4052c6:	48 8b 44 24 08       	mov    0x8(%rsp),%rax
  4052cb:	49 03 c6             	add    %r14,%rax
  4052ce:	48 03 04 24          	add    (%rsp),%rax
  4052d2:	4c 8d 44 08 02       	lea    0x2(%rax,%rcx,1),%r8
  4052d7:	49 81 f8 00 04 00 00 	cmp    $0x400,%r8
  4052de:	0f 83 a6 01 00 00    	jae    40548a <__intel_new_feature_proc_init+0x2ca>
  4052e4:	49 f7 de             	neg    %r14
  4052e7:	48 8d 7c 24 28       	lea    0x28(%rsp),%rdi
  4052ec:	49 81 c6 ff 03 00 00 	add    $0x3ff,%r14
  4052f3:	48 8d 35 e2 10 00 00 	lea    0x10e2(%rip),%rsi        # 4063dc <ONE+0x18c>
  4052fa:	4c 89 f2             	mov    %r14,%rdx
  4052fd:	b9 00 04 00 00       	mov    $0x400,%ecx
  405302:	e8 b9 c1 ff ff       	callq  4014c0 <__strncat_chk@plt>
  405307:	48 8d 7c 24 28       	lea    0x28(%rsp),%rdi
  40530c:	e8 9f c1 ff ff       	callq  4014b0 <strlen@plt>
  405311:	48 63 d0             	movslq %eax,%rdx
  405314:	48 8d 7c 24 28       	lea    0x28(%rsp),%rdi
  405319:	48 f7 da             	neg    %rdx
  40531c:	4c 89 fe             	mov    %r15,%rsi
  40531f:	48 81 c2 ff 03 00 00 	add    $0x3ff,%rdx
  405326:	b9 00 04 00 00       	mov    $0x400,%ecx
  40532b:	e8 90 c1 ff ff       	callq  4014c0 <__strncat_chk@plt>
  405330:	48 8d 7c 24 28       	lea    0x28(%rsp),%rdi
  405335:	e8 76 c1 ff ff       	callq  4014b0 <strlen@plt>
  40533a:	4c 63 f0             	movslq %eax,%r14
  40533d:	49 89 df             	mov    %rbx,%r15
  405340:	eb 2c                	jmp    40536e <__intel_new_feature_proc_init+0x1ae>
  405342:	49 f7 de             	neg    %r14
  405345:	48 8d 7c 24 28       	lea    0x28(%rsp),%rdi
  40534a:	49 81 c6 ff 03 00 00 	add    $0x3ff,%r14
  405351:	48 89 de             	mov    %rbx,%rsi
  405354:	4c 89 f2             	mov    %r14,%rdx
  405357:	b9 00 04 00 00       	mov    $0x400,%ecx
  40535c:	e8 5f c1 ff ff       	callq  4014c0 <__strncat_chk@plt>
  405361:	48 8d 7c 24 28       	lea    0x28(%rsp),%rdi
  405366:	e8 45 c1 ff ff       	callq  4014b0 <strlen@plt>
  40536b:	4c 63 f0             	movslq %eax,%r14
  40536e:	41 ff c5             	inc    %r13d
  405371:	41 83 fd 2b          	cmp    $0x2b,%r13d
  405375:	0f 8e d7 fe ff ff    	jle    405252 <__intel_new_feature_proc_init+0x92>
  40537b:	48 8b 44 24 20       	mov    0x20(%rsp),%rax
  405380:	4c 89 f2             	mov    %r14,%rdx
  405383:	48 8b 5c 24 18       	mov    0x18(%rsp),%rbx
  405388:	48 8b 6c 24 10       	mov    0x10(%rsp),%rbp
  40538d:	4d 85 ff             	test   %r15,%r15
  405390:	74 45                	je     4053d7 <__intel_new_feature_proc_init+0x217>
  405392:	48 f7 da             	neg    %rdx
  405395:	48 8d 7c 24 28       	lea    0x28(%rsp),%rdi
  40539a:	48 81 c2 ff 03 00 00 	add    $0x3ff,%rdx
  4053a1:	48 89 c6             	mov    %rax,%rsi
  4053a4:	b9 00 04 00 00       	mov    $0x400,%ecx
  4053a9:	e8 12 c1 ff ff       	callq  4014c0 <__strncat_chk@plt>
  4053ae:	48 8d 7c 24 28       	lea    0x28(%rsp),%rdi
  4053b3:	e8 f8 c0 ff ff       	callq  4014b0 <strlen@plt>
  4053b8:	48 63 d0             	movslq %eax,%rdx
  4053bb:	48 8d 7c 24 28       	lea    0x28(%rsp),%rdi
  4053c0:	48 f7 da             	neg    %rdx
  4053c3:	4c 89 fe             	mov    %r15,%rsi
  4053c6:	48 81 c2 ff 03 00 00 	add    $0x3ff,%rdx
  4053cd:	b9 00 04 00 00       	mov    $0x400,%ecx
  4053d2:	e8 e9 c0 ff ff       	callq  4014c0 <__strncat_chk@plt>
  4053d7:	80 7c 24 28 00       	cmpb   $0x0,0x28(%rsp)
  4053dc:	75 3d                	jne    40541b <__intel_new_feature_proc_init+0x25b>
  4053de:	33 f6                	xor    %esi,%esi
  4053e0:	bf 01 00 00 00       	mov    $0x1,%edi
  4053e5:	33 d2                	xor    %edx,%edx
  4053e7:	33 c0                	xor    %eax,%eax
  4053e9:	e8 c2 03 00 00       	callq  4057b0 <__libirc_print>
  4053ee:	bf 01 00 00 00       	mov    $0x1,%edi
  4053f3:	be 3a 00 00 00       	mov    $0x3a,%esi
  4053f8:	33 d2                	xor    %edx,%edx
  4053fa:	33 c0                	xor    %eax,%eax
  4053fc:	e8 af 03 00 00       	callq  4057b0 <__libirc_print>
  405401:	33 f6                	xor    %esi,%esi
  405403:	bf 01 00 00 00       	mov    $0x1,%edi
  405408:	33 d2                	xor    %edx,%edx
  40540a:	33 c0                	xor    %eax,%eax
  40540c:	e8 9f 03 00 00       	callq  4057b0 <__libirc_print>
  405411:	bf 01 00 00 00       	mov    $0x1,%edi
  405416:	e8 b5 c1 ff ff       	callq  4015d0 <exit@plt>
  40541b:	33 f6                	xor    %esi,%esi
  40541d:	bf 01 00 00 00       	mov    $0x1,%edi
  405422:	33 d2                	xor    %edx,%edx
  405424:	33 c0                	xor    %eax,%eax
  405426:	e8 85 03 00 00       	callq  4057b0 <__libirc_print>
  40542b:	bf 01 00 00 00       	mov    $0x1,%edi
  405430:	be 38 00 00 00       	mov    $0x38,%esi
  405435:	89 fa                	mov    %edi,%edx
  405437:	48 8d 4c 24 28       	lea    0x28(%rsp),%rcx
  40543c:	33 c0                	xor    %eax,%eax
  40543e:	e8 6d 03 00 00       	callq  4057b0 <__libirc_print>
  405443:	eb bc                	jmp    405401 <__intel_new_feature_proc_init+0x241>
  405445:	33 f6                	xor    %esi,%esi
  405447:	bf 01 00 00 00       	mov    $0x1,%edi
  40544c:	33 d2                	xor    %edx,%edx
  40544e:	33 c0                	xor    %eax,%eax
  405450:	e8 5b 03 00 00       	callq  4057b0 <__libirc_print>
  405455:	eb 97                	jmp    4053ee <__intel_new_feature_proc_init+0x22e>
  405457:	49 f7 c4 20 00 00 00 	test   $0x20,%r12
  40545e:	0f 85 81 00 00 00    	jne    4054e5 <__intel_new_feature_proc_init+0x325>
  405464:	48 8b 84 24 28 04 00 	mov    0x428(%rsp),%rax
  40546b:	00 
  40546c:	48 33 c4             	xor    %rsp,%rax
  40546f:	64 48 3b 04 25 28 00 	cmp    %fs:0x28,%rax
  405476:	00 00 
  405478:	75 66                	jne    4054e0 <__intel_new_feature_proc_init+0x320>
  40547a:	48 81 c4 38 04 00 00 	add    $0x438,%rsp
  405481:	41 5f                	pop    %r15
  405483:	41 5e                	pop    %r14
  405485:	41 5d                	pop    %r13
  405487:	41 5c                	pop    %r12
  405489:	c3                   	retq   
  40548a:	4c 89 f2             	mov    %r14,%rdx
  40548d:	48 8d 7c 24 28       	lea    0x28(%rsp),%rdi
  405492:	48 f7 da             	neg    %rdx
  405495:	b9 00 04 00 00       	mov    $0x400,%ecx
  40549a:	48 8b 47 f8          	mov    -0x8(%rdi),%rax
  40549e:	48 81 c2 ff 03 00 00 	add    $0x3ff,%rdx
  4054a5:	48 89 c6             	mov    %rax,%rsi
  4054a8:	48 8b 5c 24 18       	mov    0x18(%rsp),%rbx
  4054ad:	48 8b 6c 24 10       	mov    0x10(%rsp),%rbp
  4054b2:	e8 09 c0 ff ff       	callq  4014c0 <__strncat_chk@plt>
  4054b7:	e9 f2 fe ff ff       	jmpq   4053ae <__intel_new_feature_proc_init+0x1ee>
  4054bc:	48 8b 5c 24 18       	mov    0x18(%rsp),%rbx
  4054c1:	48 8b 6c 24 10       	mov    0x10(%rsp),%rbp
  4054c6:	e9 7a ff ff ff       	jmpq   405445 <__intel_new_feature_proc_init+0x285>
  4054cb:	33 f6                	xor    %esi,%esi
  4054cd:	bf 01 00 00 00       	mov    $0x1,%edi
  4054d2:	33 d2                	xor    %edx,%edx
  4054d4:	33 c0                	xor    %eax,%eax
  4054d6:	e8 d5 02 00 00       	callq  4057b0 <__libirc_print>
  4054db:	e9 0e ff ff ff       	jmpq   4053ee <__intel_new_feature_proc_init+0x22e>
  4054e0:	e8 ab c0 ff ff       	callq  401590 <__stack_chk_fail@plt>
  4054e5:	33 ff                	xor    %edi,%edi
  4054e7:	44 89 ee             	mov    %r13d,%esi
  4054ea:	e8 71 0a 00 00       	callq  405f60 <__intel_proc_init_ftzdazule>
  4054ef:	e9 70 ff ff ff       	jmpq   405464 <__intel_new_feature_proc_init+0x2a4>
  4054f4:	33 c0                	xor    %eax,%eax
  4054f6:	e8 c5 05 00 00       	callq  405ac0 <__intel_cpu_features_init>
  4054fb:	4d 8b 27             	mov    (%r15),%r12
  4054fe:	4d 85 e4             	test   %r12,%r12
  405501:	0f 85 f5 fc ff ff    	jne    4051fc <__intel_new_feature_proc_init+0x3c>
  405507:	33 f6                	xor    %esi,%esi
  405509:	bf 01 00 00 00       	mov    $0x1,%edi
  40550e:	33 d2                	xor    %edx,%edx
  405510:	33 c0                	xor    %eax,%eax
  405512:	e8 99 02 00 00       	callq  4057b0 <__libirc_print>
  405517:	bf 01 00 00 00       	mov    $0x1,%edi
  40551c:	be 3b 00 00 00       	mov    $0x3b,%esi
  405521:	33 d2                	xor    %edx,%edx
  405523:	33 c0                	xor    %eax,%eax
  405525:	e8 86 02 00 00       	callq  4057b0 <__libirc_print>
  40552a:	e9 d2 fe ff ff       	jmpq   405401 <__intel_new_feature_proc_init+0x241>
  40552f:	90                   	nop

0000000000405530 <__libirc_get_msg>:
  405530:	41 54                	push   %r12
  405532:	41 55                	push   %r13
  405534:	41 56                	push   %r14
  405536:	48 81 ec 50 01 00 00 	sub    $0x150,%rsp
  40553d:	48 89 54 24 10       	mov    %rdx,0x10(%rsp)
  405542:	48 89 4c 24 18       	mov    %rcx,0x18(%rsp)
  405547:	4c 89 44 24 20       	mov    %r8,0x20(%rsp)
  40554c:	4c 89 4c 24 28       	mov    %r9,0x28(%rsp)
  405551:	44 0f b6 d8          	movzbl %al,%r11d
  405555:	4a 8d 04 9d 00 00 00 	lea    0x0(,%r11,4),%rax
  40555c:	00 
  40555d:	4c 8d 1d 2e 00 00 00 	lea    0x2e(%rip),%r11        # 405592 <__libirc_get_msg+0x62>
  405564:	4c 2b d8             	sub    %rax,%r11
  405567:	48 8d 84 24 af 00 00 	lea    0xaf(%rsp),%rax
  40556e:	00 
  40556f:	41 ff e3             	jmpq   *%r11
  405572:	0f 29 78 f1          	movaps %xmm7,-0xf(%rax)
  405576:	0f 29 70 e1          	movaps %xmm6,-0x1f(%rax)
  40557a:	0f 29 68 d1          	movaps %xmm5,-0x2f(%rax)
  40557e:	0f 29 60 c1          	movaps %xmm4,-0x3f(%rax)
  405582:	0f 29 58 b1          	movaps %xmm3,-0x4f(%rax)
  405586:	0f 29 50 a1          	movaps %xmm2,-0x5f(%rax)
  40558a:	0f 29 48 91          	movaps %xmm1,-0x6f(%rax)
  40558e:	0f 29 40 81          	movaps %xmm0,-0x7f(%rax)
  405592:	41 89 fd             	mov    %edi,%r13d
  405595:	64 48 8b 04 25 28 00 	mov    %fs:0x28,%rax
  40559c:	00 00 
  40559e:	41 89 f6             	mov    %esi,%r14d
  4055a1:	48 33 c4             	xor    %rsp,%rax
  4055a4:	48 89 84 24 48 01 00 	mov    %rax,0x148(%rsp)
  4055ab:	00 
  4055ac:	45 85 ed             	test   %r13d,%r13d
  4055af:	0f 84 87 00 00 00    	je     40563c <__libirc_get_msg+0x10c>
  4055b5:	83 3d 94 3c 20 00 00 	cmpl   $0x0,0x203c94(%rip)        # 609250 <first_msg>
  4055bc:	74 5b                	je     405619 <__libirc_get_msg+0xe9>
  4055be:	48 8d 3d 1b 0e 00 00 	lea    0xe1b(%rip),%rdi        # 4063e0 <ONE+0x190>
  4055c5:	33 f6                	xor    %esi,%esi
  4055c7:	c7 05 7f 3c 20 00 00 	movl   $0x0,0x203c7f(%rip)        # 609250 <first_msg>
  4055ce:	00 00 00 
  4055d1:	e8 2a bf ff ff       	callq  401500 <catopen@plt>
  4055d6:	48 89 05 c3 41 20 00 	mov    %rax,0x2041c3(%rip)        # 6097a0 <message_catalog>
  4055dd:	48 83 f8 ff          	cmp    $0xffffffffffffffff,%rax
  4055e1:	0f 84 0d 01 00 00    	je     4056f4 <__libirc_get_msg+0x1c4>
  4055e7:	48 8b 3d b2 41 20 00 	mov    0x2041b2(%rip),%rdi        # 6097a0 <message_catalog>
  4055ee:	c7 05 5c 3c 20 00 00 	movl   $0x0,0x203c5c(%rip)        # 609254 <use_internal_msg>
  4055f5:	00 00 00 
  4055f8:	49 63 c5             	movslq %r13d,%rax
  4055fb:	4c 8d 05 e6 33 20 00 	lea    0x2033e6(%rip),%r8        # 6089e8 <irc_msgtab+0x8>
  405602:	48 c1 e0 04          	shl    $0x4,%rax
  405606:	be 01 00 00 00       	mov    $0x1,%esi
  40560b:	44 89 ea             	mov    %r13d,%edx
  40560e:	4a 8b 0c 00          	mov    (%rax,%r8,1),%rcx
  405612:	e8 69 bf ff ff       	callq  401580 <catgets@plt>
  405617:	eb 2a                	jmp    405643 <__libirc_get_msg+0x113>
  405619:	8b 05 35 3c 20 00    	mov    0x203c35(%rip),%eax        # 609254 <use_internal_msg>
  40561f:	85 c0                	test   %eax,%eax
  405621:	0f 84 7d 01 00 00    	je     4057a4 <__libirc_get_msg+0x274>
  405627:	4d 63 ed             	movslq %r13d,%r13
  40562a:	48 8d 05 b7 33 20 00 	lea    0x2033b7(%rip),%rax        # 6089e8 <irc_msgtab+0x8>
  405631:	49 c1 e5 04          	shl    $0x4,%r13
  405635:	49 8b 44 05 00       	mov    0x0(%r13,%rax,1),%rax
  40563a:	eb 07                	jmp    405643 <__libirc_get_msg+0x113>
  40563c:	48 8d 05 b5 0b 00 00 	lea    0xbb5(%rip),%rax        # 4061f8 <__$Uf.0.32+0x108>
  405643:	45 85 f6             	test   %r14d,%r14d
  405646:	0f 8e 80 00 00 00    	jle    4056cc <__libirc_get_msg+0x19c>
  40564c:	c7 84 24 b0 00 00 00 	movl   $0x10,0xb0(%rsp)
  405653:	10 00 00 00 
  405657:	48 8d 94 24 70 01 00 	lea    0x170(%rsp),%rdx
  40565e:	00 
  40565f:	c7 84 24 b4 00 00 00 	movl   $0x30,0xb4(%rsp)
  405666:	30 00 00 00 
  40566a:	48 8d 34 24          	lea    (%rsp),%rsi
  40566e:	48 89 96 b8 00 00 00 	mov    %rdx,0xb8(%rsi)
  405675:	48 89 b6 c0 00 00 00 	mov    %rsi,0xc0(%rsi)
  40567c:	48 8d 3d 1d 3d 20 00 	lea    0x203d1d(%rip),%rdi        # 6093a0 <get_msg_buf>
  405683:	be 01 00 00 00       	mov    $0x1,%esi
  405688:	ba 00 02 00 00       	mov    $0x200,%edx
  40568d:	48 89 c1             	mov    %rax,%rcx
  405690:	4c 8d 84 24 b0 00 00 	lea    0xb0(%rsp),%r8
  405697:	00 
  405698:	e8 73 bf ff ff       	callq  401610 <__vsprintf_chk@plt>
  40569d:	48 8b 84 24 48 01 00 	mov    0x148(%rsp),%rax
  4056a4:	00 
  4056a5:	48 33 c4             	xor    %rsp,%rax
  4056a8:	64 48 3b 04 25 28 00 	cmp    %fs:0x28,%rax
  4056af:	00 00 
  4056b1:	0f 85 e8 00 00 00    	jne    40579f <__libirc_get_msg+0x26f>
  4056b7:	48 8d 05 e2 3c 20 00 	lea    0x203ce2(%rip),%rax        # 6093a0 <get_msg_buf>
  4056be:	48 81 c4 50 01 00 00 	add    $0x150,%rsp
  4056c5:	41 5e                	pop    %r14
  4056c7:	41 5d                	pop    %r13
  4056c9:	41 5c                	pop    %r12
  4056cb:	c3                   	retq   
  4056cc:	48 8b 94 24 48 01 00 	mov    0x148(%rsp),%rdx
  4056d3:	00 
  4056d4:	48 33 d4             	xor    %rsp,%rdx
  4056d7:	64 48 3b 14 25 28 00 	cmp    %fs:0x28,%rdx
  4056de:	00 00 
  4056e0:	0f 85 b9 00 00 00    	jne    40579f <__libirc_get_msg+0x26f>
  4056e6:	48 81 c4 50 01 00 00 	add    $0x150,%rsp
  4056ed:	41 5e                	pop    %r14
  4056ef:	41 5d                	pop    %r13
  4056f1:	41 5c                	pop    %r12
  4056f3:	c3                   	retq   
  4056f4:	48 8d 3d 85 12 00 00 	lea    0x1285(%rip),%rdi        # 406980 <ONE+0x730>
  4056fb:	e8 e0 be ff ff       	callq  4015e0 <getenv@plt>
  405700:	48 85 c0             	test   %rax,%rax
  405703:	0f 84 80 00 00 00    	je     405789 <__libirc_get_msg+0x259>
  405709:	48 89 c6             	mov    %rax,%rsi
  40570c:	48 8d bc 24 c8 00 00 	lea    0xc8(%rsp),%rdi
  405713:	00 
  405714:	ba 80 00 00 00       	mov    $0x80,%edx
  405719:	e8 f2 bd ff ff       	callq  401510 <strncpy@plt>
  40571e:	be 2e 00 00 00       	mov    $0x2e,%esi
  405723:	48 8d bc 24 c8 00 00 	lea    0xc8(%rsp),%rdi
  40572a:	00 
  40572b:	e8 70 bd ff ff       	callq  4014a0 <strchr@plt>
  405730:	49 89 c4             	mov    %rax,%r12
  405733:	4d 85 e4             	test   %r12,%r12
  405736:	74 51                	je     405789 <__libirc_get_msg+0x259>
  405738:	48 8d 3d 41 12 00 00 	lea    0x1241(%rip),%rdi        # 406980 <ONE+0x730>
  40573f:	48 8d b4 24 c8 00 00 	lea    0xc8(%rsp),%rsi
  405746:	00 
  405747:	ba 01 00 00 00       	mov    $0x1,%edx
  40574c:	41 c6 04 24 00       	movb   $0x0,(%r12)
  405751:	e8 da be ff ff       	callq  401630 <setenv@plt>
  405756:	48 8d 3d 83 0c 00 00 	lea    0xc83(%rip),%rdi        # 4063e0 <ONE+0x190>
  40575d:	33 f6                	xor    %esi,%esi
  40575f:	e8 9c bd ff ff       	callq  401500 <catopen@plt>
  405764:	48 8d 3d 15 12 00 00 	lea    0x1215(%rip),%rdi        # 406980 <ONE+0x730>
  40576b:	48 8d b4 24 c8 00 00 	lea    0xc8(%rsp),%rsi
  405772:	00 
  405773:	ba 01 00 00 00       	mov    $0x1,%edx
  405778:	48 89 05 21 40 20 00 	mov    %rax,0x204021(%rip)        # 6097a0 <message_catalog>
  40577f:	41 c6 04 24 2e       	movb   $0x2e,(%r12)
  405784:	e8 a7 be ff ff       	callq  401630 <setenv@plt>
  405789:	48 8b 3d 10 40 20 00 	mov    0x204010(%rip),%rdi        # 6097a0 <message_catalog>
  405790:	48 83 ff ff          	cmp    $0xffffffffffffffff,%rdi
  405794:	0f 85 54 fe ff ff    	jne    4055ee <__libirc_get_msg+0xbe>
  40579a:	e9 7a fe ff ff       	jmpq   405619 <__libirc_get_msg+0xe9>
  40579f:	e8 ec bd ff ff       	callq  401590 <__stack_chk_fail@plt>
  4057a4:	48 8b 3d f5 3f 20 00 	mov    0x203ff5(%rip),%rdi        # 6097a0 <message_catalog>
  4057ab:	e9 48 fe ff ff       	jmpq   4055f8 <__libirc_get_msg+0xc8>

00000000004057b0 <__libirc_print>:
  4057b0:	41 56                	push   %r14
  4057b2:	41 57                	push   %r15
  4057b4:	53                   	push   %rbx
  4057b5:	55                   	push   %rbp
  4057b6:	48 81 ec 58 01 00 00 	sub    $0x158,%rsp
  4057bd:	48 89 4c 24 18       	mov    %rcx,0x18(%rsp)
  4057c2:	4c 89 44 24 20       	mov    %r8,0x20(%rsp)
  4057c7:	4c 89 4c 24 28       	mov    %r9,0x28(%rsp)
  4057cc:	44 0f b6 d8          	movzbl %al,%r11d
  4057d0:	4a 8d 04 9d 00 00 00 	lea    0x0(,%r11,4),%rax
  4057d7:	00 
  4057d8:	4c 8d 1d 2e 00 00 00 	lea    0x2e(%rip),%r11        # 40580d <__libirc_print+0x5d>
  4057df:	4c 2b d8             	sub    %rax,%r11
  4057e2:	48 8d 84 24 af 00 00 	lea    0xaf(%rsp),%rax
  4057e9:	00 
  4057ea:	41 ff e3             	jmpq   *%r11
  4057ed:	0f 29 78 f1          	movaps %xmm7,-0xf(%rax)
  4057f1:	0f 29 70 e1          	movaps %xmm6,-0x1f(%rax)
  4057f5:	0f 29 68 d1          	movaps %xmm5,-0x2f(%rax)
  4057f9:	0f 29 60 c1          	movaps %xmm4,-0x3f(%rax)
  4057fd:	0f 29 58 b1          	movaps %xmm3,-0x4f(%rax)
  405801:	0f 29 50 a1          	movaps %xmm2,-0x5f(%rax)
  405805:	0f 29 48 91          	movaps %xmm1,-0x6f(%rax)
  405809:	0f 29 40 81          	movaps %xmm0,-0x7f(%rax)
  40580d:	41 89 f6             	mov    %esi,%r14d
  405810:	64 48 8b 04 25 28 00 	mov    %fs:0x28,%rax
  405817:	00 00 
  405819:	41 89 d7             	mov    %edx,%r15d
  40581c:	48 33 c4             	xor    %rsp,%rax
  40581f:	89 fd                	mov    %edi,%ebp
  405821:	48 89 84 24 48 01 00 	mov    %rax,0x148(%rsp)
  405828:	00 
  405829:	45 85 f6             	test   %r14d,%r14d
  40582c:	75 44                	jne    405872 <__libirc_print+0xc2>
  40582e:	83 fd 01             	cmp    $0x1,%ebp
  405831:	0f 84 72 01 00 00    	je     4059a9 <__libirc_print+0x1f9>
  405837:	bf 01 00 00 00       	mov    $0x1,%edi
  40583c:	48 8d 35 39 09 00 00 	lea    0x939(%rip),%rsi        # 40617c <__$Uf.0.32+0x8c>
  405843:	33 c0                	xor    %eax,%eax
  405845:	e8 16 bc ff ff       	callq  401460 <__printf_chk@plt>
  40584a:	48 8b 84 24 48 01 00 	mov    0x148(%rsp),%rax
  405851:	00 
  405852:	48 33 c4             	xor    %rsp,%rax
  405855:	64 48 3b 04 25 28 00 	cmp    %fs:0x28,%rax
  40585c:	00 00 
  40585e:	0f 85 40 01 00 00    	jne    4059a4 <__libirc_print+0x1f4>
  405864:	48 81 c4 58 01 00 00 	add    $0x158,%rsp
  40586b:	5d                   	pop    %rbp
  40586c:	5b                   	pop    %rbx
  40586d:	41 5f                	pop    %r15
  40586f:	41 5e                	pop    %r14
  405871:	c3                   	retq   
  405872:	83 3d d7 39 20 00 00 	cmpl   $0x0,0x2039d7(%rip)        # 609250 <first_msg>
  405879:	74 3c                	je     4058b7 <__libirc_print+0x107>
  40587b:	48 8d 3d 5e 0b 00 00 	lea    0xb5e(%rip),%rdi        # 4063e0 <ONE+0x190>
  405882:	33 f6                	xor    %esi,%esi
  405884:	c7 05 c2 39 20 00 00 	movl   $0x0,0x2039c2(%rip)        # 609250 <first_msg>
  40588b:	00 00 00 
  40588e:	e8 6d bc ff ff       	callq  401500 <catopen@plt>
  405893:	48 89 05 06 3f 20 00 	mov    %rax,0x203f06(%rip)        # 6097a0 <message_catalog>
  40589a:	48 83 f8 ff          	cmp    $0xffffffffffffffff,%rax
  40589e:	0f 84 27 01 00 00    	je     4059cb <__libirc_print+0x21b>
  4058a4:	48 8b 3d f5 3e 20 00 	mov    0x203ef5(%rip),%rdi        # 6097a0 <message_catalog>
  4058ab:	c7 05 9f 39 20 00 00 	movl   $0x0,0x20399f(%rip)        # 609254 <use_internal_msg>
  4058b2:	00 00 00 
  4058b5:	eb 22                	jmp    4058d9 <__libirc_print+0x129>
  4058b7:	8b 05 97 39 20 00    	mov    0x203997(%rip),%eax        # 609254 <use_internal_msg>
  4058bd:	85 c0                	test   %eax,%eax
  4058bf:	0f 84 dd 01 00 00    	je     405aa2 <__libirc_print+0x2f2>
  4058c5:	4d 63 f6             	movslq %r14d,%r14
  4058c8:	48 8d 05 19 31 20 00 	lea    0x203119(%rip),%rax        # 6089e8 <irc_msgtab+0x8>
  4058cf:	49 c1 e6 04          	shl    $0x4,%r14
  4058d3:	49 8b 0c 06          	mov    (%r14,%rax,1),%rcx
  4058d7:	eb 22                	jmp    4058fb <__libirc_print+0x14b>
  4058d9:	49 63 c6             	movslq %r14d,%rax
  4058dc:	48 8d 1d 05 31 20 00 	lea    0x203105(%rip),%rbx        # 6089e8 <irc_msgtab+0x8>
  4058e3:	48 c1 e0 04          	shl    $0x4,%rax
  4058e7:	be 01 00 00 00       	mov    $0x1,%esi
  4058ec:	44 89 f2             	mov    %r14d,%edx
  4058ef:	48 8b 0c 18          	mov    (%rax,%rbx,1),%rcx
  4058f3:	e8 88 bc ff ff       	callq  401580 <catgets@plt>
  4058f8:	48 89 c1             	mov    %rax,%rcx
  4058fb:	45 85 ff             	test   %r15d,%r15d
  4058fe:	7e 55                	jle    405955 <__libirc_print+0x1a5>
  405900:	c7 84 24 b0 00 00 00 	movl   $0x18,0xb0(%rsp)
  405907:	18 00 00 00 
  40590b:	48 8d 84 24 80 01 00 	lea    0x180(%rsp),%rax
  405912:	00 
  405913:	c7 84 24 b4 00 00 00 	movl   $0x30,0xb4(%rsp)
  40591a:	30 00 00 00 
  40591e:	48 8d 1c 24          	lea    (%rsp),%rbx
  405922:	48 89 83 b8 00 00 00 	mov    %rax,0xb8(%rbx)
  405929:	48 89 9b c0 00 00 00 	mov    %rbx,0xc0(%rbx)
  405930:	48 8d 3d 69 3c 20 00 	lea    0x203c69(%rip),%rdi        # 6095a0 <print_buf>
  405937:	be 01 00 00 00       	mov    $0x1,%esi
  40593c:	ba 00 02 00 00       	mov    $0x200,%edx
  405941:	4c 8d 84 24 b0 00 00 	lea    0xb0(%rsp),%r8
  405948:	00 
  405949:	e8 c2 bc ff ff       	callq  401610 <__vsprintf_chk@plt>
  40594e:	48 8d 0d 4b 3c 20 00 	lea    0x203c4b(%rip),%rcx        # 6095a0 <print_buf>
  405955:	83 fd 01             	cmp    $0x1,%ebp
  405958:	0f 84 10 01 00 00    	je     405a6e <__libirc_print+0x2be>
  40595e:	bf 01 00 00 00       	mov    $0x1,%edi
  405963:	48 89 ce             	mov    %rcx,%rsi
  405966:	33 c0                	xor    %eax,%eax
  405968:	e8 f3 ba ff ff       	callq  401460 <__printf_chk@plt>
  40596d:	bf 01 00 00 00       	mov    $0x1,%edi
  405972:	48 8d 35 03 08 00 00 	lea    0x803(%rip),%rsi        # 40617c <__$Uf.0.32+0x8c>
  405979:	33 c0                	xor    %eax,%eax
  40597b:	e8 e0 ba ff ff       	callq  401460 <__printf_chk@plt>
  405980:	48 8b 84 24 48 01 00 	mov    0x148(%rsp),%rax
  405987:	00 
  405988:	48 33 c4             	xor    %rsp,%rax
  40598b:	64 48 3b 04 25 28 00 	cmp    %fs:0x28,%rax
  405992:	00 00 
  405994:	75 0e                	jne    4059a4 <__libirc_print+0x1f4>
  405996:	48 81 c4 58 01 00 00 	add    $0x158,%rsp
  40599d:	5d                   	pop    %rbp
  40599e:	5b                   	pop    %rbx
  40599f:	41 5f                	pop    %r15
  4059a1:	41 5e                	pop    %r14
  4059a3:	c3                   	retq   
  4059a4:	e8 e7 bb ff ff       	callq  401590 <__stack_chk_fail@plt>
  4059a9:	48 8b 05 40 36 20 00 	mov    0x203640(%rip),%rax        # 608ff0 <_DYNAMIC+0x230>
  4059b0:	be 01 00 00 00       	mov    $0x1,%esi
  4059b5:	48 8d 15 c0 07 00 00 	lea    0x7c0(%rip),%rdx        # 40617c <__$Uf.0.32+0x8c>
  4059bc:	48 8b 38             	mov    (%rax),%rdi
  4059bf:	33 c0                	xor    %eax,%eax
  4059c1:	e8 aa bc ff ff       	callq  401670 <__fprintf_chk@plt>
  4059c6:	e9 7f fe ff ff       	jmpq   40584a <__libirc_print+0x9a>
  4059cb:	48 8d 3d ae 0f 00 00 	lea    0xfae(%rip),%rdi        # 406980 <ONE+0x730>
  4059d2:	e8 09 bc ff ff       	callq  4015e0 <getenv@plt>
  4059d7:	48 85 c0             	test   %rax,%rax
  4059da:	74 7c                	je     405a58 <__libirc_print+0x2a8>
  4059dc:	48 89 c6             	mov    %rax,%rsi
  4059df:	48 8d bc 24 c8 00 00 	lea    0xc8(%rsp),%rdi
  4059e6:	00 
  4059e7:	ba 80 00 00 00       	mov    $0x80,%edx
  4059ec:	e8 1f bb ff ff       	callq  401510 <strncpy@plt>
  4059f1:	be 2e 00 00 00       	mov    $0x2e,%esi
  4059f6:	48 8d bc 24 c8 00 00 	lea    0xc8(%rsp),%rdi
  4059fd:	00 
  4059fe:	e8 9d ba ff ff       	callq  4014a0 <strchr@plt>
  405a03:	48 89 c3             	mov    %rax,%rbx
  405a06:	48 85 db             	test   %rbx,%rbx
  405a09:	74 4d                	je     405a58 <__libirc_print+0x2a8>
  405a0b:	48 8d 3d 6e 0f 00 00 	lea    0xf6e(%rip),%rdi        # 406980 <ONE+0x730>
  405a12:	48 8d b4 24 c8 00 00 	lea    0xc8(%rsp),%rsi
  405a19:	00 
  405a1a:	ba 01 00 00 00       	mov    $0x1,%edx
  405a1f:	c6 03 00             	movb   $0x0,(%rbx)
  405a22:	e8 09 bc ff ff       	callq  401630 <setenv@plt>
  405a27:	48 8d 3d b2 09 00 00 	lea    0x9b2(%rip),%rdi        # 4063e0 <ONE+0x190>
  405a2e:	33 f6                	xor    %esi,%esi
  405a30:	e8 cb ba ff ff       	callq  401500 <catopen@plt>
  405a35:	48 8d 3d 44 0f 00 00 	lea    0xf44(%rip),%rdi        # 406980 <ONE+0x730>
  405a3c:	48 8d b4 24 c8 00 00 	lea    0xc8(%rsp),%rsi
  405a43:	00 
  405a44:	ba 01 00 00 00       	mov    $0x1,%edx
  405a49:	48 89 05 50 3d 20 00 	mov    %rax,0x203d50(%rip)        # 6097a0 <message_catalog>
  405a50:	c6 03 2e             	movb   $0x2e,(%rbx)
  405a53:	e8 d8 bb ff ff       	callq  401630 <setenv@plt>
  405a58:	48 8b 3d 41 3d 20 00 	mov    0x203d41(%rip),%rdi        # 6097a0 <message_catalog>
  405a5f:	48 83 ff ff          	cmp    $0xffffffffffffffff,%rdi
  405a63:	0f 85 42 fe ff ff    	jne    4058ab <__libirc_print+0xfb>
  405a69:	e9 49 fe ff ff       	jmpq   4058b7 <__libirc_print+0x107>
  405a6e:	48 8b 1d 7b 35 20 00 	mov    0x20357b(%rip),%rbx        # 608ff0 <_DYNAMIC+0x230>
  405a75:	be 01 00 00 00       	mov    $0x1,%esi
  405a7a:	48 89 ca             	mov    %rcx,%rdx
  405a7d:	33 c0                	xor    %eax,%eax
  405a7f:	48 8b 3b             	mov    (%rbx),%rdi
  405a82:	e8 e9 bb ff ff       	callq  401670 <__fprintf_chk@plt>
  405a87:	be 01 00 00 00       	mov    $0x1,%esi
  405a8c:	48 8d 15 e9 06 00 00 	lea    0x6e9(%rip),%rdx        # 40617c <__$Uf.0.32+0x8c>
  405a93:	33 c0                	xor    %eax,%eax
  405a95:	48 8b 3b             	mov    (%rbx),%rdi
  405a98:	e8 d3 bb ff ff       	callq  401670 <__fprintf_chk@plt>
  405a9d:	e9 de fe ff ff       	jmpq   405980 <__libirc_print+0x1d0>
  405aa2:	48 8b 3d f7 3c 20 00 	mov    0x203cf7(%rip),%rdi        # 6097a0 <message_catalog>
  405aa9:	e9 2b fe ff ff       	jmpq   4058d9 <__libirc_print+0x129>
  405aae:	66 90                	xchg   %ax,%ax

0000000000405ab0 <__intel_cpu_features_init_x>:
  405ab0:	50                   	push   %rax
  405ab1:	33 c0                	xor    %eax,%eax
  405ab3:	e8 18 00 00 00       	callq  405ad0 <__intel_cpu_features_init_body>
  405ab8:	58                   	pop    %rax
  405ab9:	c3                   	retq   
  405aba:	66 0f 1f 44 00 00    	nopw   0x0(%rax,%rax,1)

0000000000405ac0 <__intel_cpu_features_init>:
  405ac0:	50                   	push   %rax
  405ac1:	b8 01 00 00 00       	mov    $0x1,%eax
  405ac6:	e8 05 00 00 00       	callq  405ad0 <__intel_cpu_features_init_body>
  405acb:	58                   	pop    %rax
  405acc:	c3                   	retq   
  405acd:	0f 1f 00             	nopl   (%rax)

0000000000405ad0 <__intel_cpu_features_init_body>:
  405ad0:	52                   	push   %rdx
  405ad1:	51                   	push   %rcx
  405ad2:	53                   	push   %rbx
  405ad3:	56                   	push   %rsi
  405ad4:	41 51                	push   %r9
  405ad6:	41 54                	push   %r12
  405ad8:	41 56                	push   %r14
  405ada:	55                   	push   %rbp
  405adb:	41 89 c6             	mov    %eax,%r14d
  405ade:	33 c0                	xor    %eax,%eax
  405ae0:	0f a2                	cpuid  
  405ae2:	89 44 24 e8          	mov    %eax,-0x18(%rsp)
  405ae6:	89 5c 24 ec          	mov    %ebx,-0x14(%rsp)
  405aea:	89 4c 24 f0          	mov    %ecx,-0x10(%rsp)
  405aee:	89 54 24 f4          	mov    %edx,-0xc(%rsp)
  405af2:	83 7c 24 e8 00       	cmpl   $0x0,-0x18(%rsp)
  405af7:	0f 84 21 04 00 00    	je     405f1e <__intel_cpu_features_init_body+0x44e>
  405afd:	41 83 fe 01          	cmp    $0x1,%r14d
  405b01:	0f 84 2e 04 00 00    	je     405f35 <__intel_cpu_features_init_body+0x465>
  405b07:	b8 01 00 00 00       	mov    $0x1,%eax
  405b0c:	0f a2                	cpuid  
  405b0e:	89 d6                	mov    %edx,%esi
  405b10:	89 cd                	mov    %ecx,%ebp
  405b12:	83 e6 01             	and    $0x1,%esi
  405b15:	f7 c2 00 80 00 00    	test   $0x8000,%edx
  405b1b:	41 89 c4             	mov    %eax,%r12d
  405b1e:	48 8d 34 75 01 00 00 	lea    0x1(,%rsi,2),%rsi
  405b25:	00 
  405b26:	4c 8d 4e 04          	lea    0x4(%rsi),%r9
  405b2a:	49 0f 45 f1          	cmovne %r9,%rsi
  405b2e:	f7 c2 00 00 80 00    	test   $0x800000,%edx
  405b34:	4c 8d 56 08          	lea    0x8(%rsi),%r10
  405b38:	49 0f 45 f2          	cmovne %r10,%rsi
  405b3c:	f7 c2 00 00 00 01    	test   $0x1000000,%edx
  405b42:	75 28                	jne    405b6c <__intel_cpu_features_init_body+0x9c>
  405b44:	f7 c5 00 00 00 40    	test   $0x40000000,%ebp
  405b4a:	4c 8d 8e 00 00 02 00 	lea    0x20000(%rsi),%r9
  405b51:	49 0f 45 f1          	cmovne %r9,%rsi
  405b55:	b8 07 00 00 00       	mov    $0x7,%eax
  405b5a:	33 c9                	xor    %ecx,%ecx
  405b5c:	0f a2                	cpuid  
  405b5e:	41 89 d3             	mov    %edx,%r11d
  405b61:	41 89 ca             	mov    %ecx,%r10d
  405b64:	41 89 d9             	mov    %ebx,%r9d
  405b67:	e9 03 01 00 00       	jmpq   405c6f <__intel_cpu_features_init_body+0x19f>
  405b6c:	48 83 c6 10          	add    $0x10,%rsi
  405b70:	49 89 f1             	mov    %rsi,%r9
  405b73:	49 83 c9 20          	or     $0x20,%r9
  405b77:	f7 c2 00 00 00 02    	test   $0x2000000,%edx
  405b7d:	49 0f 45 f1          	cmovne %r9,%rsi
  405b81:	49 89 f2             	mov    %rsi,%r10
  405b84:	49 83 ca 40          	or     $0x40,%r10
  405b88:	f7 c2 00 00 00 04    	test   $0x4000000,%edx
  405b8e:	49 0f 45 f2          	cmovne %r10,%rsi
  405b92:	49 89 f3             	mov    %rsi,%r11
  405b95:	49 81 cb 80 00 00 00 	or     $0x80,%r11
  405b9c:	f7 c5 01 00 00 00    	test   $0x1,%ebp
  405ba2:	49 0f 45 f3          	cmovne %r11,%rsi
  405ba6:	49 89 f1             	mov    %rsi,%r9
  405ba9:	49 81 c9 00 01 00 00 	or     $0x100,%r9
  405bb0:	f7 c5 00 02 00 00    	test   $0x200,%ebp
  405bb6:	49 0f 45 f1          	cmovne %r9,%rsi
  405bba:	49 89 f2             	mov    %rsi,%r10
  405bbd:	49 81 ca 00 08 00 00 	or     $0x800,%r10
  405bc4:	f7 c5 00 00 40 00    	test   $0x400000,%ebp
  405bca:	49 0f 45 f2          	cmovne %r10,%rsi
  405bce:	48 89 f0             	mov    %rsi,%rax
  405bd1:	48 0d 00 02 00 00    	or     $0x200,%rax
  405bd7:	f7 c5 00 00 08 00    	test   $0x80000,%ebp
  405bdd:	48 0f 45 f0          	cmovne %rax,%rsi
  405be1:	48 89 f2             	mov    %rsi,%rdx
  405be4:	48 81 ca 00 04 00 00 	or     $0x400,%rdx
  405beb:	f7 c5 00 00 10 00    	test   $0x100000,%ebp
  405bf1:	48 0f 45 f2          	cmovne %rdx,%rsi
  405bf5:	48 89 f1             	mov    %rsi,%rcx
  405bf8:	48 81 c9 00 10 00 00 	or     $0x1000,%rcx
  405bff:	f7 c5 00 00 80 00    	test   $0x800000,%ebp
  405c05:	48 0f 45 f1          	cmovne %rcx,%rsi
  405c09:	48 89 f3             	mov    %rsi,%rbx
  405c0c:	48 81 cb 00 20 00 00 	or     $0x2000,%rbx
  405c13:	f7 c5 02 00 00 00    	test   $0x2,%ebp
  405c19:	48 0f 45 f3          	cmovne %rbx,%rsi
  405c1d:	49 89 f1             	mov    %rsi,%r9
  405c20:	49 81 c9 00 40 00 00 	or     $0x4000,%r9
  405c27:	f7 c5 00 00 00 02    	test   $0x2000000,%ebp
  405c2d:	49 0f 45 f1          	cmovne %r9,%rsi
  405c31:	b8 07 00 00 00       	mov    $0x7,%eax
  405c36:	33 c9                	xor    %ecx,%ecx
  405c38:	0f a2                	cpuid  
  405c3a:	41 89 d3             	mov    %edx,%r11d
  405c3d:	41 89 d9             	mov    %ebx,%r9d
  405c40:	48 ba 00 00 00 00 08 	movabs $0x800000000,%rdx
  405c47:	00 00 00 
  405c4a:	41 89 ca             	mov    %ecx,%r10d
  405c4d:	48 0b d6             	or     %rsi,%rdx
  405c50:	41 f7 c1 00 00 00 20 	test   $0x20000000,%r9d
  405c57:	48 0f 45 f2          	cmovne %rdx,%rsi
  405c5b:	48 89 f1             	mov    %rsi,%rcx
  405c5e:	48 81 c9 00 00 02 00 	or     $0x20000,%rcx
  405c65:	f7 c5 00 00 00 40    	test   $0x40000000,%ebp
  405c6b:	48 0f 45 f1          	cmovne %rcx,%rsi
  405c6f:	44 89 c8             	mov    %r9d,%eax
  405c72:	48 89 f3             	mov    %rsi,%rbx
  405c75:	25 08 01 00 00       	and    $0x108,%eax
  405c7a:	48 81 cb 00 00 08 00 	or     $0x80000,%rbx
  405c81:	3d 08 01 00 00       	cmp    $0x108,%eax
  405c86:	48 0f 44 f3          	cmove  %rbx,%rsi
  405c8a:	b8 01 00 00 80       	mov    $0x80000001,%eax
  405c8f:	0f a2                	cpuid  
  405c91:	48 89 f2             	mov    %rsi,%rdx
  405c94:	48 81 ca 00 00 10 00 	or     $0x100000,%rdx
  405c9b:	f6 c1 20             	test   $0x20,%cl
  405c9e:	48 0f 45 f2          	cmovne %rdx,%rsi
  405ca2:	48 89 f1             	mov    %rsi,%rcx
  405ca5:	48 81 c9 00 00 20 00 	or     $0x200000,%rcx
  405cac:	41 f7 c1 10 00 00 00 	test   $0x10,%r9d
  405cb3:	48 0f 45 f1          	cmovne %rcx,%rsi
  405cb7:	48 89 f0             	mov    %rsi,%rax
  405cba:	48 0d 00 00 40 00    	or     $0x400000,%rax
  405cc0:	41 f7 c1 00 08 00 00 	test   $0x800,%r9d
  405cc7:	48 0f 45 f0          	cmovne %rax,%rsi
  405ccb:	48 89 f2             	mov    %rsi,%rdx
  405cce:	48 81 ca 00 00 00 10 	or     $0x10000000,%rdx
  405cd5:	41 f7 c1 00 00 08 00 	test   $0x80000,%r9d
  405cdc:	48 0f 45 f2          	cmovne %rdx,%rsi
  405ce0:	48 89 f3             	mov    %rsi,%rbx
  405ce3:	48 81 cb 00 00 00 20 	or     $0x20000000,%rbx
  405cea:	41 f7 c1 00 00 04 00 	test   $0x40000,%r9d
  405cf1:	48 0f 45 f3          	cmovne %rbx,%rsi
  405cf5:	f7 c5 00 00 00 08    	test   $0x8000000,%ebp
  405cfb:	0f 84 c0 01 00 00    	je     405ec1 <__intel_cpu_features_init_body+0x3f1>
  405d01:	33 c9                	xor    %ecx,%ecx
  405d03:	0f 01 d0             	xgetbv 
  405d06:	48 83 ce 01          	or     $0x1,%rsi
  405d0a:	89 c2                	mov    %eax,%edx
  405d0c:	83 e2 06             	and    $0x6,%edx
  405d0f:	83 fa 06             	cmp    $0x6,%edx
  405d12:	0f 85 a9 01 00 00    	jne    405ec1 <__intel_cpu_features_init_body+0x3f1>
  405d18:	48 89 f2             	mov    %rsi,%rdx
  405d1b:	48 81 ca 00 00 01 00 	or     $0x10000,%rdx
  405d22:	f7 c5 00 00 00 10    	test   $0x10000000,%ebp
  405d28:	48 0f 45 f2          	cmovne %rdx,%rsi
  405d2c:	48 89 f1             	mov    %rsi,%rcx
  405d2f:	48 81 c9 00 80 00 00 	or     $0x8000,%rcx
  405d36:	f7 c5 00 00 00 20    	test   $0x20000000,%ebp
  405d3c:	48 0f 45 f1          	cmovne %rcx,%rsi
  405d40:	48 89 f3             	mov    %rsi,%rbx
  405d43:	48 81 cb 00 00 80 00 	or     $0x800000,%rbx
  405d4a:	41 f7 c1 20 00 00 00 	test   $0x20,%r9d
  405d51:	48 0f 45 f3          	cmovne %rbx,%rsi
  405d55:	48 89 f2             	mov    %rsi,%rdx
  405d58:	48 81 ca 00 00 04 00 	or     $0x40000,%rdx
  405d5f:	f7 c5 00 10 00 00    	test   $0x1000,%ebp
  405d65:	89 c5                	mov    %eax,%ebp
  405d67:	48 0f 45 f2          	cmovne %rdx,%rsi
  405d6b:	83 e5 18             	and    $0x18,%ebp
  405d6e:	83 fd 18             	cmp    $0x18,%ebp
  405d71:	75 1c                	jne    405d8f <__intel_cpu_features_init_body+0x2bf>
  405d73:	48 83 ce 01          	or     $0x1,%rsi
  405d77:	48 ba 00 00 00 00 10 	movabs $0x1000000000,%rdx
  405d7e:	00 00 00 
  405d81:	48 0b d6             	or     %rsi,%rdx
  405d84:	41 f7 c1 00 40 00 00 	test   $0x4000,%r9d
  405d8b:	48 0f 45 f2          	cmovne %rdx,%rsi
  405d8f:	25 e0 00 00 00       	and    $0xe0,%eax
  405d94:	3d e0 00 00 00       	cmp    $0xe0,%eax
  405d99:	0f 85 22 01 00 00    	jne    405ec1 <__intel_cpu_features_init_body+0x3f1>
  405d9f:	48 83 ce 01          	or     $0x1,%rsi
  405da3:	48 ba 00 00 00 00 04 	movabs $0x400000000,%rdx
  405daa:	00 00 00 
  405dad:	48 89 f0             	mov    %rsi,%rax
  405db0:	48 b9 00 00 00 00 01 	movabs $0x100000000,%rcx
  405db7:	00 00 00 
  405dba:	48 0d 00 00 00 08    	or     $0x8000000,%rax
  405dc0:	41 f7 c1 00 00 01 00 	test   $0x10000,%r9d
  405dc7:	48 bb 00 00 00 00 02 	movabs $0x200000000,%rbx
  405dce:	00 00 00 
  405dd1:	48 0f 45 f0          	cmovne %rax,%rsi
  405dd5:	48 b8 00 00 00 00 20 	movabs $0x2000000000,%rax
  405ddc:	00 00 00 
  405ddf:	48 0b d6             	or     %rsi,%rdx
  405de2:	41 f7 c1 00 00 00 10 	test   $0x10000000,%r9d
  405de9:	48 0f 45 f2          	cmovne %rdx,%rsi
  405ded:	44 89 ca             	mov    %r9d,%edx
  405df0:	48 0b ce             	or     %rsi,%rcx
  405df3:	41 f7 c1 00 00 00 08 	test   $0x8000000,%r9d
  405dfa:	48 0f 45 f1          	cmovne %rcx,%rsi
  405dfe:	48 b9 00 00 00 00 40 	movabs $0x4000000000,%rcx
  405e05:	00 00 00 
  405e08:	48 0b de             	or     %rsi,%rbx
  405e0b:	41 f7 c1 00 00 00 04 	test   $0x4000000,%r9d
  405e12:	48 0f 45 f3          	cmovne %rbx,%rsi
  405e16:	81 e2 00 00 00 80    	and    $0x80000000,%edx
  405e1c:	48 89 f5             	mov    %rsi,%rbp
  405e1f:	48 81 cd 00 00 00 01 	or     $0x1000000,%rbp
  405e26:	41 f7 c1 00 00 02 00 	test   $0x20000,%r9d
  405e2d:	48 0f 45 f5          	cmovne %rbp,%rsi
  405e31:	48 0b c6             	or     %rsi,%rax
  405e34:	41 f7 c1 00 00 00 40 	test   $0x40000000,%r9d
  405e3b:	48 0f 45 f0          	cmovne %rax,%rsi
  405e3f:	48 b8 00 00 00 00 00 	movabs $0x40000000000,%rax
  405e46:	04 00 00 
  405e49:	48 0b ce             	or     %rsi,%rcx
  405e4c:	81 fa 00 00 00 80    	cmp    $0x80000000,%edx
  405e52:	48 0f 44 f1          	cmove  %rcx,%rsi
  405e56:	48 89 f3             	mov    %rsi,%rbx
  405e59:	48 81 cb 00 00 00 40 	or     $0x40000000,%rbx
  405e60:	41 f7 c1 00 00 20 00 	test   $0x200000,%r9d
  405e67:	49 b9 00 00 00 00 80 	movabs $0x8000000000,%r9
  405e6e:	00 00 00 
  405e71:	48 0f 45 f3          	cmovne %rbx,%rsi
  405e75:	4c 0b ce             	or     %rsi,%r9
  405e78:	41 f7 c2 02 00 00 00 	test   $0x2,%r10d
  405e7f:	49 0f 45 f1          	cmovne %r9,%rsi
  405e83:	48 0b c6             	or     %rsi,%rax
  405e86:	41 f7 c2 00 40 00 00 	test   $0x4000,%r10d
  405e8d:	49 ba 00 00 00 00 00 	movabs $0x20000000000,%r10
  405e94:	02 00 00 
  405e97:	48 0f 45 f0          	cmovne %rax,%rsi
  405e9b:	48 b8 00 00 00 00 00 	movabs $0x10000000000,%rax
  405ea2:	01 00 00 
  405ea5:	4c 0b d6             	or     %rsi,%r10
  405ea8:	41 f7 c3 04 00 00 00 	test   $0x4,%r11d
  405eaf:	49 0f 45 f2          	cmovne %r10,%rsi
  405eb3:	48 0b c6             	or     %rsi,%rax
  405eb6:	41 f7 c3 08 00 00 00 	test   $0x8,%r11d
  405ebd:	48 0f 45 f0          	cmovne %rax,%rsi
  405ec1:	44 89 e0             	mov    %r12d,%eax
  405ec4:	c1 e8 0c             	shr    $0xc,%eax
  405ec7:	41 c1 ec 04          	shr    $0x4,%r12d
  405ecb:	25 f0 00 00 00       	and    $0xf0,%eax
  405ed0:	41 83 e4 0f          	and    $0xf,%r12d
  405ed4:	41 03 c4             	add    %r12d,%eax
  405ed7:	83 f8 1c             	cmp    $0x1c,%eax
  405eda:	74 0a                	je     405ee6 <__intel_cpu_features_init_body+0x416>
  405edc:	83 f8 26             	cmp    $0x26,%eax
  405edf:	74 05                	je     405ee6 <__intel_cpu_features_init_body+0x416>
  405ee1:	83 f8 27             	cmp    $0x27,%eax
  405ee4:	75 05                	jne    405eeb <__intel_cpu_features_init_body+0x41b>
  405ee6:	48 0f ba ee 1f       	bts    $0x1f,%rsi
  405eeb:	41 83 fe 01          	cmp    $0x1,%r14d
  405eef:	74 13                	je     405f04 <__intel_cpu_features_init_body+0x434>
  405ef1:	48 89 35 d0 38 20 00 	mov    %rsi,0x2038d0(%rip)        # 6097c8 <__intel_cpu_feature_indicator_x>
  405ef8:	5d                   	pop    %rbp
  405ef9:	41 5e                	pop    %r14
  405efb:	41 5c                	pop    %r12
  405efd:	41 59                	pop    %r9
  405eff:	5e                   	pop    %rsi
  405f00:	5b                   	pop    %rbx
  405f01:	59                   	pop    %rcx
  405f02:	5a                   	pop    %rdx
  405f03:	c3                   	retq   
  405f04:	48 89 35 b5 38 20 00 	mov    %rsi,0x2038b5(%rip)        # 6097c0 <__intel_cpu_feature_indicator>
  405f0b:	48 89 35 b6 38 20 00 	mov    %rsi,0x2038b6(%rip)        # 6097c8 <__intel_cpu_feature_indicator_x>
  405f12:	5d                   	pop    %rbp
  405f13:	41 5e                	pop    %r14
  405f15:	41 5c                	pop    %r12
  405f17:	41 59                	pop    %r9
  405f19:	5e                   	pop    %rsi
  405f1a:	5b                   	pop    %rbx
  405f1b:	59                   	pop    %rcx
  405f1c:	5a                   	pop    %rdx
  405f1d:	c3                   	retq   
  405f1e:	48 c7 05 97 38 20 00 	movq   $0x1,0x203897(%rip)        # 6097c0 <__intel_cpu_feature_indicator>
  405f25:	01 00 00 00 
  405f29:	5d                   	pop    %rbp
  405f2a:	41 5e                	pop    %r14
  405f2c:	41 5c                	pop    %r12
  405f2e:	41 59                	pop    %r9
  405f30:	5e                   	pop    %rsi
  405f31:	5b                   	pop    %rbx
  405f32:	59                   	pop    %rcx
  405f33:	5a                   	pop    %rdx
  405f34:	c3                   	retq   
  405f35:	81 7c 24 ec 47 65 6e 	cmpl   $0x756e6547,-0x14(%rsp)
  405f3c:	75 
  405f3d:	75 df                	jne    405f1e <__intel_cpu_features_init_body+0x44e>
  405f3f:	81 7c 24 f4 69 6e 65 	cmpl   $0x49656e69,-0xc(%rsp)
  405f46:	49 
  405f47:	75 d5                	jne    405f1e <__intel_cpu_features_init_body+0x44e>
  405f49:	81 7c 24 f0 6e 74 65 	cmpl   $0x6c65746e,-0x10(%rsp)
  405f50:	6c 
  405f51:	75 cb                	jne    405f1e <__intel_cpu_features_init_body+0x44e>
  405f53:	e9 af fb ff ff       	jmpq   405b07 <__intel_cpu_features_init_body+0x37>
  405f58:	0f 1f 84 00 00 00 00 	nopl   0x0(%rax,%rax,1)
  405f5f:	00 

0000000000405f60 <__intel_proc_init_ftzdazule>:
  405f60:	48 81 ec 08 02 00 00 	sub    $0x208,%rsp
  405f67:	89 f2                	mov    %esi,%edx
  405f69:	89 f1                	mov    %esi,%ecx
  405f6b:	83 e2 04             	and    $0x4,%edx
  405f6e:	83 e1 02             	and    $0x2,%ecx
  405f71:	74 22                	je     405f95 <__intel_proc_init_ftzdazule+0x35>
  405f73:	f7 c7 02 00 00 00    	test   $0x2,%edi
  405f79:	74 38                	je     405fb3 <__intel_proc_init_ftzdazule+0x53>
  405f7b:	85 d2                	test   %edx,%edx
  405f7d:	74 08                	je     405f87 <__intel_proc_init_ftzdazule+0x27>
  405f7f:	f7 c7 04 00 00 00    	test   $0x4,%edi
  405f85:	74 2c                	je     405fb3 <__intel_proc_init_ftzdazule+0x53>
  405f87:	f7 c6 01 00 00 00    	test   $0x1,%esi
  405f8d:	0f 85 a6 00 00 00    	jne    406039 <__intel_proc_init_ftzdazule+0xd9>
  405f93:	eb 64                	jmp    405ff9 <__intel_proc_init_ftzdazule+0x99>
  405f95:	85 d2                	test   %edx,%edx
  405f97:	0f 84 8c 00 00 00    	je     406029 <__intel_proc_init_ftzdazule+0xc9>
  405f9d:	f7 c7 04 00 00 00    	test   $0x4,%edi
  405fa3:	74 0e                	je     405fb3 <__intel_proc_init_ftzdazule+0x53>
  405fa5:	f7 c6 01 00 00 00    	test   $0x1,%esi
  405fab:	0f 85 88 00 00 00    	jne    406039 <__intel_proc_init_ftzdazule+0xd9>
  405fb1:	eb 5b                	jmp    40600e <__intel_proc_init_ftzdazule+0xae>
  405fb3:	b8 00 02 00 00       	mov    $0x200,%eax
  405fb8:	66 0f ef c0          	pxor   %xmm0,%xmm0
  405fbc:	0f 11 44 04 f0       	movups %xmm0,-0x10(%rsp,%rax,1)
  405fc1:	0f 11 44 04 e0       	movups %xmm0,-0x20(%rsp,%rax,1)
  405fc6:	0f 11 44 04 d0       	movups %xmm0,-0x30(%rsp,%rax,1)
  405fcb:	0f 11 44 04 c0       	movups %xmm0,-0x40(%rsp,%rax,1)
  405fd0:	48 83 e8 40          	sub    $0x40,%rax
  405fd4:	75 e6                	jne    405fbc <__intel_proc_init_ftzdazule+0x5c>
  405fd6:	0f ae 04 24          	fxsave (%rsp)
  405fda:	33 ff                	xor    %edi,%edi
  405fdc:	8b 44 24 1c          	mov    0x1c(%rsp),%eax
  405fe0:	a8 40                	test   $0x40,%al
  405fe2:	0f 44 cf             	cmove  %edi,%ecx
  405fe5:	a9 00 00 02 00       	test   $0x20000,%eax
  405fea:	0f 44 d7             	cmove  %edi,%edx
  405fed:	f7 c6 01 00 00 00    	test   $0x1,%esi
  405ff3:	75 44                	jne    406039 <__intel_proc_init_ftzdazule+0xd9>
  405ff5:	85 c9                	test   %ecx,%ecx
  405ff7:	74 11                	je     40600a <__intel_proc_init_ftzdazule+0xaa>
  405ff9:	0f ae 1c 24          	stmxcsr (%rsp)
  405ffd:	8b 04 24             	mov    (%rsp),%eax
  406000:	83 c8 40             	or     $0x40,%eax
  406003:	89 04 24             	mov    %eax,(%rsp)
  406006:	0f ae 14 24          	ldmxcsr (%rsp)
  40600a:	85 d2                	test   %edx,%edx
  40600c:	74 23                	je     406031 <__intel_proc_init_ftzdazule+0xd1>
  40600e:	0f ae 1c 24          	stmxcsr (%rsp)
  406012:	8b 04 24             	mov    (%rsp),%eax
  406015:	0d 00 00 02 00       	or     $0x20000,%eax
  40601a:	89 04 24             	mov    %eax,(%rsp)
  40601d:	0f ae 14 24          	ldmxcsr (%rsp)
  406021:	48 81 c4 08 02 00 00 	add    $0x208,%rsp
  406028:	c3                   	retq   
  406029:	f7 c6 01 00 00 00    	test   $0x1,%esi
  40602f:	75 08                	jne    406039 <__intel_proc_init_ftzdazule+0xd9>
  406031:	48 81 c4 08 02 00 00 	add    $0x208,%rsp
  406038:	c3                   	retq   
  406039:	0f ae 1c 24          	stmxcsr (%rsp)
  40603d:	8b 04 24             	mov    (%rsp),%eax
  406040:	0d 00 80 00 00       	or     $0x8000,%eax
  406045:	89 04 24             	mov    %eax,(%rsp)
  406048:	0f ae 14 24          	ldmxcsr (%rsp)
  40604c:	eb a7                	jmp    405ff5 <__intel_proc_init_ftzdazule+0x95>
  40604e:	66 90                	xchg   %ax,%ax

0000000000406050 <__libc_csu_init>:
  406050:	41 57                	push   %r15
  406052:	41 89 ff             	mov    %edi,%r15d
  406055:	41 56                	push   %r14
  406057:	49 89 f6             	mov    %rsi,%r14
  40605a:	41 55                	push   %r13
  40605c:	49 89 d5             	mov    %rdx,%r13
  40605f:	41 54                	push   %r12
  406061:	4c 8d 25 c0 27 20 00 	lea    0x2027c0(%rip),%r12        # 608828 <__frame_dummy_init_array_entry>
  406068:	55                   	push   %rbp
  406069:	48 8d 2d c8 27 20 00 	lea    0x2027c8(%rip),%rbp        # 608838 <__init_array_end>
  406070:	53                   	push   %rbx
  406071:	4c 29 e5             	sub    %r12,%rbp
  406074:	31 db                	xor    %ebx,%ebx
  406076:	48 c1 fd 03          	sar    $0x3,%rbp
  40607a:	48 83 ec 08          	sub    $0x8,%rsp
  40607e:	e8 ad b3 ff ff       	callq  401430 <_init>
  406083:	48 85 ed             	test   %rbp,%rbp
  406086:	74 1e                	je     4060a6 <__libc_csu_init+0x56>
  406088:	0f 1f 84 00 00 00 00 	nopl   0x0(%rax,%rax,1)
  40608f:	00 
  406090:	4c 89 ea             	mov    %r13,%rdx
  406093:	4c 89 f6             	mov    %r14,%rsi
  406096:	44 89 ff             	mov    %r15d,%edi
  406099:	41 ff 14 dc          	callq  *(%r12,%rbx,8)
  40609d:	48 83 c3 01          	add    $0x1,%rbx
  4060a1:	48 39 eb             	cmp    %rbp,%rbx
  4060a4:	75 ea                	jne    406090 <__libc_csu_init+0x40>
  4060a6:	48 83 c4 08          	add    $0x8,%rsp
  4060aa:	5b                   	pop    %rbx
  4060ab:	5d                   	pop    %rbp
  4060ac:	41 5c                	pop    %r12
  4060ae:	41 5d                	pop    %r13
  4060b0:	41 5e                	pop    %r14
  4060b2:	41 5f                	pop    %r15
  4060b4:	c3                   	retq   
  4060b5:	90                   	nop
  4060b6:	66 2e 0f 1f 84 00 00 	nopw   %cs:0x0(%rax,%rax,1)
  4060bd:	00 00 00 

00000000004060c0 <__libc_csu_fini>:
  4060c0:	f3 c3                	repz retq 

Disassembly of section .fini:

00000000004060c4 <_fini>:
  4060c4:	48 83 ec 08          	sub    $0x8,%rsp
  4060c8:	48 83 c4 08          	add    $0x8,%rsp
  4060cc:	c3                   	retq   
