
build/exp5:     file format elf64-x86-64


Disassembly of section .init:

0000000000401018 <_init>:
  401018:	48 83 ec 08          	sub    $0x8,%rsp
  40101c:	48 8b 05 d5 6f 20 00 	mov    0x206fd5(%rip),%rax        # 607ff8 <_DYNAMIC+0x220>
  401023:	48 85 c0             	test   %rax,%rax
  401026:	74 05                	je     40102d <_init+0x15>
  401028:	e8 23 02 00 00       	callq  401250 <_ZNSt8ios_base4InitD1Ev@plt+0x10>
  40102d:	48 83 c4 08          	add    $0x8,%rsp
  401031:	c3                   	retq   

Disassembly of section .plt:

0000000000401040 <_Znam@plt-0x10>:
  401040:	ff 35 c2 6f 20 00    	pushq  0x206fc2(%rip)        # 608008 <_GLOBAL_OFFSET_TABLE_+0x8>
  401046:	ff 25 c4 6f 20 00    	jmpq   *0x206fc4(%rip)        # 608010 <_GLOBAL_OFFSET_TABLE_+0x10>
  40104c:	0f 1f 40 00          	nopl   0x0(%rax)

0000000000401050 <_Znam@plt>:
  401050:	ff 25 c2 6f 20 00    	jmpq   *0x206fc2(%rip)        # 608018 <_GLOBAL_OFFSET_TABLE_+0x18>
  401056:	68 00 00 00 00       	pushq  $0x0
  40105b:	e9 e0 ff ff ff       	jmpq   401040 <_init+0x28>

0000000000401060 <_ZNSo3putEc@plt>:
  401060:	ff 25 ba 6f 20 00    	jmpq   *0x206fba(%rip)        # 608020 <_GLOBAL_OFFSET_TABLE_+0x20>
  401066:	68 01 00 00 00       	pushq  $0x1
  40106b:	e9 d0 ff ff ff       	jmpq   401040 <_init+0x28>

0000000000401070 <rand@plt>:
  401070:	ff 25 b2 6f 20 00    	jmpq   *0x206fb2(%rip)        # 608028 <_GLOBAL_OFFSET_TABLE_+0x28>
  401076:	68 02 00 00 00       	pushq  $0x2
  40107b:	e9 c0 ff ff ff       	jmpq   401040 <_init+0x28>

0000000000401080 <__cxa_allocate_exception@plt>:
  401080:	ff 25 aa 6f 20 00    	jmpq   *0x206faa(%rip)        # 608030 <_GLOBAL_OFFSET_TABLE_+0x30>
  401086:	68 03 00 00 00       	pushq  $0x3
  40108b:	e9 b0 ff ff ff       	jmpq   401040 <_init+0x28>

0000000000401090 <posix_memalign@plt>:
  401090:	ff 25 a2 6f 20 00    	jmpq   *0x206fa2(%rip)        # 608038 <_GLOBAL_OFFSET_TABLE_+0x38>
  401096:	68 04 00 00 00       	pushq  $0x4
  40109b:	e9 a0 ff ff ff       	jmpq   401040 <_init+0x28>

00000000004010a0 <memset@plt>:
  4010a0:	ff 25 9a 6f 20 00    	jmpq   *0x206f9a(%rip)        # 608040 <_GLOBAL_OFFSET_TABLE_+0x40>
  4010a6:	68 05 00 00 00       	pushq  $0x5
  4010ab:	e9 90 ff ff ff       	jmpq   401040 <_init+0x28>

00000000004010b0 <_ZNSo5flushEv@plt>:
  4010b0:	ff 25 92 6f 20 00    	jmpq   *0x206f92(%rip)        # 608048 <_GLOBAL_OFFSET_TABLE_+0x48>
  4010b6:	68 06 00 00 00       	pushq  $0x6
  4010bb:	e9 80 ff ff ff       	jmpq   401040 <_init+0x28>

00000000004010c0 <__cxa_free_exception@plt>:
  4010c0:	ff 25 8a 6f 20 00    	jmpq   *0x206f8a(%rip)        # 608050 <_GLOBAL_OFFSET_TABLE_+0x50>
  4010c6:	68 07 00 00 00       	pushq  $0x7
  4010cb:	e9 70 ff ff ff       	jmpq   401040 <_init+0x28>

00000000004010d0 <__cxa_atexit@plt>:
  4010d0:	ff 25 82 6f 20 00    	jmpq   *0x206f82(%rip)        # 608058 <_GLOBAL_OFFSET_TABLE_+0x58>
  4010d6:	68 08 00 00 00       	pushq  $0x8
  4010db:	e9 60 ff ff ff       	jmpq   401040 <_init+0x28>

00000000004010e0 <_ZdlPv@plt>:
  4010e0:	ff 25 7a 6f 20 00    	jmpq   *0x206f7a(%rip)        # 608060 <_GLOBAL_OFFSET_TABLE_+0x60>
  4010e6:	68 09 00 00 00       	pushq  $0x9
  4010eb:	e9 50 ff ff ff       	jmpq   401040 <_init+0x28>

00000000004010f0 <fclose@plt>:
  4010f0:	ff 25 72 6f 20 00    	jmpq   *0x206f72(%rip)        # 608068 <_GLOBAL_OFFSET_TABLE_+0x68>
  4010f6:	68 0a 00 00 00       	pushq  $0xa
  4010fb:	e9 40 ff ff ff       	jmpq   401040 <_init+0x28>

0000000000401100 <_Znwm@plt>:
  401100:	ff 25 6a 6f 20 00    	jmpq   *0x206f6a(%rip)        # 608070 <_GLOBAL_OFFSET_TABLE_+0x70>
  401106:	68 0b 00 00 00       	pushq  $0xb
  40110b:	e9 30 ff ff ff       	jmpq   401040 <_init+0x28>

0000000000401110 <_ZSt16__ostream_insertIcSt11char_traitsIcEERSt13basic_ostreamIT_T0_ES6_PKS3_l@plt>:
  401110:	ff 25 62 6f 20 00    	jmpq   *0x206f62(%rip)        # 608078 <_GLOBAL_OFFSET_TABLE_+0x78>
  401116:	68 0c 00 00 00       	pushq  $0xc
  40111b:	e9 20 ff ff ff       	jmpq   401040 <_init+0x28>

0000000000401120 <_ZNKSt5ctypeIcE13_M_widen_initEv@plt>:
  401120:	ff 25 5a 6f 20 00    	jmpq   *0x206f5a(%rip)        # 608080 <_GLOBAL_OFFSET_TABLE_+0x80>
  401126:	68 0d 00 00 00       	pushq  $0xd
  40112b:	e9 10 ff ff ff       	jmpq   401040 <_init+0x28>

0000000000401130 <fopen@plt>:
  401130:	ff 25 52 6f 20 00    	jmpq   *0x206f52(%rip)        # 608088 <_GLOBAL_OFFSET_TABLE_+0x88>
  401136:	68 0e 00 00 00       	pushq  $0xe
  40113b:	e9 00 ff ff ff       	jmpq   401040 <_init+0x28>

0000000000401140 <free@plt>:
  401140:	ff 25 4a 6f 20 00    	jmpq   *0x206f4a(%rip)        # 608090 <_GLOBAL_OFFSET_TABLE_+0x90>
  401146:	68 0f 00 00 00       	pushq  $0xf
  40114b:	e9 f0 fe ff ff       	jmpq   401040 <_init+0x28>

0000000000401150 <_ZSt16__throw_bad_castv@plt>:
  401150:	ff 25 42 6f 20 00    	jmpq   *0x206f42(%rip)        # 608098 <_GLOBAL_OFFSET_TABLE_+0x98>
  401156:	68 10 00 00 00       	pushq  $0x10
  40115b:	e9 e0 fe ff ff       	jmpq   401040 <_init+0x28>

0000000000401160 <_ZdaPv@plt>:
  401160:	ff 25 3a 6f 20 00    	jmpq   *0x206f3a(%rip)        # 6080a0 <_GLOBAL_OFFSET_TABLE_+0xa0>
  401166:	68 11 00 00 00       	pushq  $0x11
  40116b:	e9 d0 fe ff ff       	jmpq   401040 <_init+0x28>

0000000000401170 <clock_gettime@plt>:
  401170:	ff 25 32 6f 20 00    	jmpq   *0x206f32(%rip)        # 6080a8 <_GLOBAL_OFFSET_TABLE_+0xa8>
  401176:	68 12 00 00 00       	pushq  $0x12
  40117b:	e9 c0 fe ff ff       	jmpq   401040 <_init+0x28>

0000000000401180 <__cxa_throw_bad_array_new_length@plt>:
  401180:	ff 25 2a 6f 20 00    	jmpq   *0x206f2a(%rip)        # 6080b0 <_GLOBAL_OFFSET_TABLE_+0xb0>
  401186:	68 13 00 00 00       	pushq  $0x13
  40118b:	e9 b0 fe ff ff       	jmpq   401040 <_init+0x28>

0000000000401190 <_ZNSt8ios_base4InitC1Ev@plt>:
  401190:	ff 25 22 6f 20 00    	jmpq   *0x206f22(%rip)        # 6080b8 <_GLOBAL_OFFSET_TABLE_+0xb8>
  401196:	68 14 00 00 00       	pushq  $0x14
  40119b:	e9 a0 fe ff ff       	jmpq   401040 <_init+0x28>

00000000004011a0 <fgets@plt>:
  4011a0:	ff 25 1a 6f 20 00    	jmpq   *0x206f1a(%rip)        # 6080c0 <_GLOBAL_OFFSET_TABLE_+0xc0>
  4011a6:	68 15 00 00 00       	pushq  $0x15
  4011ab:	e9 90 fe ff ff       	jmpq   401040 <_init+0x28>

00000000004011b0 <_ZNSo9_M_insertIdEERSoT_@plt>:
  4011b0:	ff 25 12 6f 20 00    	jmpq   *0x206f12(%rip)        # 6080c8 <_GLOBAL_OFFSET_TABLE_+0xc8>
  4011b6:	68 16 00 00 00       	pushq  $0x16
  4011bb:	e9 80 fe ff ff       	jmpq   401040 <_init+0x28>

00000000004011c0 <__gxx_personality_v0@plt>:
  4011c0:	ff 25 0a 6f 20 00    	jmpq   *0x206f0a(%rip)        # 6080d0 <_GLOBAL_OFFSET_TABLE_+0xd0>
  4011c6:	68 17 00 00 00       	pushq  $0x17
  4011cb:	e9 70 fe ff ff       	jmpq   401040 <_init+0x28>

00000000004011d0 <_ZNSt16invalid_argumentD1Ev@plt>:
  4011d0:	ff 25 02 6f 20 00    	jmpq   *0x206f02(%rip)        # 6080d8 <_GLOBAL_OFFSET_TABLE_+0xd8>
  4011d6:	68 18 00 00 00       	pushq  $0x18
  4011db:	e9 60 fe ff ff       	jmpq   401040 <_init+0x28>

00000000004011e0 <__cxa_throw@plt>:
  4011e0:	ff 25 fa 6e 20 00    	jmpq   *0x206efa(%rip)        # 6080e0 <_GLOBAL_OFFSET_TABLE_+0xe0>
  4011e6:	68 19 00 00 00       	pushq  $0x19
  4011eb:	e9 50 fe ff ff       	jmpq   401040 <_init+0x28>

00000000004011f0 <_ZNSolsEi@plt>:
  4011f0:	ff 25 f2 6e 20 00    	jmpq   *0x206ef2(%rip)        # 6080e8 <_GLOBAL_OFFSET_TABLE_+0xe8>
  4011f6:	68 1a 00 00 00       	pushq  $0x1a
  4011fb:	e9 40 fe ff ff       	jmpq   401040 <_init+0x28>

0000000000401200 <_Unwind_Resume@plt>:
  401200:	ff 25 ea 6e 20 00    	jmpq   *0x206eea(%rip)        # 6080f0 <_GLOBAL_OFFSET_TABLE_+0xf0>
  401206:	68 1b 00 00 00       	pushq  $0x1b
  40120b:	e9 30 fe ff ff       	jmpq   401040 <_init+0x28>

0000000000401210 <__libc_start_main@plt>:
  401210:	ff 25 e2 6e 20 00    	jmpq   *0x206ee2(%rip)        # 6080f8 <_GLOBAL_OFFSET_TABLE_+0xf8>
  401216:	68 1c 00 00 00       	pushq  $0x1c
  40121b:	e9 20 fe ff ff       	jmpq   401040 <_init+0x28>

0000000000401220 <_ZNSt16invalid_argumentC1EPKc@plt>:
  401220:	ff 25 da 6e 20 00    	jmpq   *0x206eda(%rip)        # 608100 <_GLOBAL_OFFSET_TABLE_+0x100>
  401226:	68 1d 00 00 00       	pushq  $0x1d
  40122b:	e9 10 fe ff ff       	jmpq   401040 <_init+0x28>

0000000000401230 <fscanf@plt>:
  401230:	ff 25 d2 6e 20 00    	jmpq   *0x206ed2(%rip)        # 608108 <_GLOBAL_OFFSET_TABLE_+0x108>
  401236:	68 1e 00 00 00       	pushq  $0x1e
  40123b:	e9 00 fe ff ff       	jmpq   401040 <_init+0x28>

0000000000401240 <_ZNSt8ios_base4InitD1Ev@plt>:
  401240:	ff 25 ca 6e 20 00    	jmpq   *0x206eca(%rip)        # 608110 <_GLOBAL_OFFSET_TABLE_+0x110>
  401246:	68 1f 00 00 00       	pushq  $0x1f
  40124b:	e9 f0 fd ff ff       	jmpq   401040 <_init+0x28>

Disassembly of section .plt.got:

0000000000401250 <.plt.got>:
  401250:	ff 25 a2 6d 20 00    	jmpq   *0x206da2(%rip)        # 607ff8 <_DYNAMIC+0x220>
  401256:	66 90                	xchg   %ax,%ax

Disassembly of section .text:

0000000000401260 <main>:
  401260:	48 83 ec 08          	sub    $0x8,%rsp
  401264:	e8 c7 38 00 00       	callq  404b30 <_Z30test_jump_penalty_2_20_libxsmmv>
  401269:	e8 22 45 00 00       	callq  405790 <_Z31test_jump_penalty_2_20_unrolledv>
  40126e:	e8 dd 4d 00 00       	callq  406050 <_Z30test_jump_penalty_2_20_generalv>
  401273:	31 c0                	xor    %eax,%eax
  401275:	48 83 c4 08          	add    $0x8,%rsp
  401279:	c3                   	retq   
  40127a:	66 0f 1f 44 00 00    	nopw   0x0(%rax,%rax,1)

0000000000401280 <_GLOBAL__sub_I__ZlsRSoRK6Matrix>:
  401280:	48 83 ec 08          	sub    $0x8,%rsp
  401284:	bf 21 83 60 00       	mov    $0x608321,%edi
  401289:	e8 02 ff ff ff       	callq  401190 <_ZNSt8ios_base4InitC1Ev@plt>
  40128e:	ba 20 81 60 00       	mov    $0x608120,%edx
  401293:	be 21 83 60 00       	mov    $0x608321,%esi
  401298:	bf 40 12 40 00       	mov    $0x401240,%edi
  40129d:	48 83 c4 08          	add    $0x8,%rsp
  4012a1:	e9 2a fe ff ff       	jmpq   4010d0 <__cxa_atexit@plt>
  4012a6:	66 2e 0f 1f 84 00 00 	nopw   %cs:0x0(%rax,%rax,1)
  4012ad:	00 00 00 

00000000004012b0 <_start>:
  4012b0:	31 ed                	xor    %ebp,%ebp
  4012b2:	49 89 d1             	mov    %rdx,%r9
  4012b5:	5e                   	pop    %rsi
  4012b6:	48 89 e2             	mov    %rsp,%rdx
  4012b9:	48 83 e4 f0          	and    $0xfffffffffffffff0,%rsp
  4012bd:	50                   	push   %rax
  4012be:	54                   	push   %rsp
  4012bf:	49 c7 c0 20 68 40 00 	mov    $0x406820,%r8
  4012c6:	48 c7 c1 b0 67 40 00 	mov    $0x4067b0,%rcx
  4012cd:	48 c7 c7 60 12 40 00 	mov    $0x401260,%rdi
  4012d4:	e8 37 ff ff ff       	callq  401210 <__libc_start_main@plt>
  4012d9:	f4                   	hlt    
  4012da:	66 0f 1f 44 00 00    	nopw   0x0(%rax,%rax,1)

00000000004012e0 <deregister_tm_clones>:
  4012e0:	55                   	push   %rbp
  4012e1:	b8 28 81 60 00       	mov    $0x608128,%eax
  4012e6:	48 3d 28 81 60 00    	cmp    $0x608128,%rax
  4012ec:	48 89 e5             	mov    %rsp,%rbp
  4012ef:	74 17                	je     401308 <deregister_tm_clones+0x28>
  4012f1:	b8 00 00 00 00       	mov    $0x0,%eax
  4012f6:	48 85 c0             	test   %rax,%rax
  4012f9:	74 0d                	je     401308 <deregister_tm_clones+0x28>
  4012fb:	5d                   	pop    %rbp
  4012fc:	bf 28 81 60 00       	mov    $0x608128,%edi
  401301:	ff e0                	jmpq   *%rax
  401303:	0f 1f 44 00 00       	nopl   0x0(%rax,%rax,1)
  401308:	5d                   	pop    %rbp
  401309:	c3                   	retq   
  40130a:	66 0f 1f 44 00 00    	nopw   0x0(%rax,%rax,1)

0000000000401310 <register_tm_clones>:
  401310:	be 28 81 60 00       	mov    $0x608128,%esi
  401315:	55                   	push   %rbp
  401316:	48 81 ee 28 81 60 00 	sub    $0x608128,%rsi
  40131d:	48 89 e5             	mov    %rsp,%rbp
  401320:	48 c1 fe 03          	sar    $0x3,%rsi
  401324:	48 89 f0             	mov    %rsi,%rax
  401327:	48 c1 e8 3f          	shr    $0x3f,%rax
  40132b:	48 01 c6             	add    %rax,%rsi
  40132e:	48 d1 fe             	sar    %rsi
  401331:	74 15                	je     401348 <register_tm_clones+0x38>
  401333:	b8 00 00 00 00       	mov    $0x0,%eax
  401338:	48 85 c0             	test   %rax,%rax
  40133b:	74 0b                	je     401348 <register_tm_clones+0x38>
  40133d:	5d                   	pop    %rbp
  40133e:	bf 28 81 60 00       	mov    $0x608128,%edi
  401343:	ff e0                	jmpq   *%rax
  401345:	0f 1f 00             	nopl   (%rax)
  401348:	5d                   	pop    %rbp
  401349:	c3                   	retq   
  40134a:	66 0f 1f 44 00 00    	nopw   0x0(%rax,%rax,1)

0000000000401350 <__do_global_dtors_aux>:
  401350:	80 3d c9 6f 20 00 00 	cmpb   $0x0,0x206fc9(%rip)        # 608320 <completed.6965>
  401357:	75 17                	jne    401370 <__do_global_dtors_aux+0x20>
  401359:	55                   	push   %rbp
  40135a:	48 89 e5             	mov    %rsp,%rbp
  40135d:	e8 7e ff ff ff       	callq  4012e0 <deregister_tm_clones>
  401362:	c6 05 b7 6f 20 00 01 	movb   $0x1,0x206fb7(%rip)        # 608320 <completed.6965>
  401369:	5d                   	pop    %rbp
  40136a:	c3                   	retq   
  40136b:	0f 1f 44 00 00       	nopl   0x0(%rax,%rax,1)
  401370:	f3 c3                	repz retq 
  401372:	0f 1f 40 00          	nopl   0x0(%rax)
  401376:	66 2e 0f 1f 84 00 00 	nopw   %cs:0x0(%rax,%rax,1)
  40137d:	00 00 00 

0000000000401380 <frame_dummy>:
  401380:	55                   	push   %rbp
  401381:	48 89 e5             	mov    %rsp,%rbp
  401384:	5d                   	pop    %rbp
  401385:	eb 89                	jmp    401310 <register_tm_clones>
  401387:	66 0f 1f 84 00 00 00 	nopw   0x0(%rax,%rax,1)
  40138e:	00 00 

0000000000401390 <_Z4gemmRK6MatrixS1_RS_.constprop.7>:
  401390:	41 57                	push   %r15
  401392:	41 56                	push   %r14
  401394:	41 55                	push   %r13
  401396:	41 54                	push   %r12
  401398:	55                   	push   %rbp
  401399:	53                   	push   %rbx
  40139a:	48 83 ec 18          	sub    $0x18,%rsp
  40139e:	44 8b 52 0c          	mov    0xc(%rdx),%r10d
  4013a2:	44 8b 7a 08          	mov    0x8(%rdx),%r15d
  4013a6:	44 8b 77 0c          	mov    0xc(%rdi),%r14d
  4013aa:	45 85 d2             	test   %r10d,%r10d
  4013ad:	0f 8e dc 00 00 00    	jle    40148f <_Z4gemmRK6MatrixS1_RS_.constprop.7+0xff>
  4013b3:	41 8d 5f ff          	lea    -0x1(%r15),%ebx
  4013b7:	49 89 d5             	mov    %rdx,%r13
  4013ba:	49 89 fc             	mov    %rdi,%r12
  4013bd:	45 31 c0             	xor    %r8d,%r8d
  4013c0:	44 89 54 24 0c       	mov    %r10d,0xc(%rsp)
  4013c5:	48 c1 e3 03          	shl    $0x3,%rbx
  4013c9:	45 85 f6             	test   %r14d,%r14d
  4013cc:	0f 8e ae 00 00 00    	jle    401480 <_Z4gemmRK6MatrixS1_RS_.constprop.7+0xf0>
  4013d2:	45 31 c9             	xor    %r9d,%r9d
  4013d5:	0f 1f 00             	nopl   (%rax)
  4013d8:	45 85 ff             	test   %r15d,%r15d
  4013db:	0f 8e 92 00 00 00    	jle    401473 <_Z4gemmRK6MatrixS1_RS_.constprop.7+0xe3>
  4013e1:	41 8b 45 10          	mov    0x10(%r13),%eax
  4013e5:	49 8b 55 18          	mov    0x18(%r13),%rdx
  4013e9:	41 0f af c0          	imul   %r8d,%eax
  4013ed:	48 98                	cltq   
  4013ef:	48 8d 0c c2          	lea    (%rdx,%rax,8),%rcx
  4013f3:	41 8b 54 24 08       	mov    0x8(%r12),%edx
  4013f8:	c5 fb 10 01          	vmovsd (%rcx),%xmm0
  4013fc:	85 d2                	test   %edx,%edx
  4013fe:	0f 8e 9a 00 00 00    	jle    40149e <_Z4gemmRK6MatrixS1_RS_.constprop.7+0x10e>
  401404:	41 8b 44 24 10       	mov    0x10(%r12),%eax
  401409:	49 8b 7c 24 18       	mov    0x18(%r12),%rdi
  40140e:	41 0f af c1          	imul   %r9d,%eax
  401412:	44 39 4e 08          	cmp    %r9d,0x8(%rsi)
  401416:	0f 8e ae 00 00 00    	jle    4014ca <_Z4gemmRK6MatrixS1_RS_.constprop.7+0x13a>
  40141c:	48 98                	cltq   
  40141e:	83 ea 01             	sub    $0x1,%edx
  401421:	4c 8d 14 c7          	lea    (%rdi,%rax,8),%r10
  401425:	4c 8d 1c d5 08 00 00 	lea    0x8(,%rdx,8),%r11
  40142c:	00 
  40142d:	8b 7e 0c             	mov    0xc(%rsi),%edi
  401430:	31 c0                	xor    %eax,%eax
  401432:	eb 12                	jmp    401446 <_Z4gemmRK6MatrixS1_RS_.constprop.7+0xb6>
  401434:	0f 1f 40 00          	nopl   0x0(%rax)
  401438:	48 83 c0 08          	add    $0x8,%rax
  40143c:	49 39 c3             	cmp    %rax,%r11
  40143f:	c5 fb 10 04 01       	vmovsd (%rcx,%rax,1),%xmm0
  401444:	74 58                	je     40149e <_Z4gemmRK6MatrixS1_RS_.constprop.7+0x10e>
  401446:	44 39 c7             	cmp    %r8d,%edi
  401449:	c4 c1 7b 10 0c 02    	vmovsd (%r10,%rax,1),%xmm1
  40144f:	7e 79                	jle    4014ca <_Z4gemmRK6MatrixS1_RS_.constprop.7+0x13a>
  401451:	8b 56 10             	mov    0x10(%rsi),%edx
  401454:	48 8b 6e 18          	mov    0x18(%rsi),%rbp
  401458:	41 0f af d0          	imul   %r8d,%edx
  40145c:	44 01 ca             	add    %r9d,%edx
  40145f:	48 39 c3             	cmp    %rax,%rbx
  401462:	48 63 d2             	movslq %edx,%rdx
  401465:	c4 e2 f1 b9 44 d5 00 	vfmadd231sd 0x0(%rbp,%rdx,8),%xmm1,%xmm0
  40146c:	c5 fb 11 04 01       	vmovsd %xmm0,(%rcx,%rax,1)
  401471:	75 c5                	jne    401438 <_Z4gemmRK6MatrixS1_RS_.constprop.7+0xa8>
  401473:	41 83 c1 01          	add    $0x1,%r9d
  401477:	45 39 ce             	cmp    %r9d,%r14d
  40147a:	0f 85 58 ff ff ff    	jne    4013d8 <_Z4gemmRK6MatrixS1_RS_.constprop.7+0x48>
  401480:	41 83 c0 01          	add    $0x1,%r8d
  401484:	44 39 44 24 0c       	cmp    %r8d,0xc(%rsp)
  401489:	0f 85 3a ff ff ff    	jne    4013c9 <_Z4gemmRK6MatrixS1_RS_.constprop.7+0x39>
  40148f:	48 83 c4 18          	add    $0x18,%rsp
  401493:	5b                   	pop    %rbx
  401494:	5d                   	pop    %rbp
  401495:	41 5c                	pop    %r12
  401497:	41 5d                	pop    %r13
  401499:	41 5e                	pop    %r14
  40149b:	41 5f                	pop    %r15
  40149d:	c3                   	retq   
  40149e:	bf 10 00 00 00       	mov    $0x10,%edi
  4014a3:	e8 d8 fb ff ff       	callq  401080 <__cxa_allocate_exception@plt>
  4014a8:	be 34 68 40 00       	mov    $0x406834,%esi
  4014ad:	48 89 c7             	mov    %rax,%rdi
  4014b0:	48 89 c3             	mov    %rax,%rbx
  4014b3:	e8 68 fd ff ff       	callq  401220 <_ZNSt16invalid_argumentC1EPKc@plt>
  4014b8:	ba d0 11 40 00       	mov    $0x4011d0,%edx
  4014bd:	be 08 83 60 00       	mov    $0x608308,%esi
  4014c2:	48 89 df             	mov    %rbx,%rdi
  4014c5:	e8 16 fd ff ff       	callq  4011e0 <__cxa_throw@plt>
  4014ca:	bf 10 00 00 00       	mov    $0x10,%edi
  4014cf:	e8 ac fb ff ff       	callq  401080 <__cxa_allocate_exception@plt>
  4014d4:	be 34 68 40 00       	mov    $0x406834,%esi
  4014d9:	48 89 c7             	mov    %rax,%rdi
  4014dc:	48 89 c3             	mov    %rax,%rbx
  4014df:	e8 3c fd ff ff       	callq  401220 <_ZNSt16invalid_argumentC1EPKc@plt>
  4014e4:	eb d2                	jmp    4014b8 <_Z4gemmRK6MatrixS1_RS_.constprop.7+0x128>
  4014e6:	48 89 c5             	mov    %rax,%rbp
  4014e9:	48 89 df             	mov    %rbx,%rdi
  4014ec:	e8 cf fb ff ff       	callq  4010c0 <__cxa_free_exception@plt>
  4014f1:	48 89 ef             	mov    %rbp,%rdi
  4014f4:	e8 07 fd ff ff       	callq  401200 <_Unwind_Resume@plt>
  4014f9:	eb eb                	jmp    4014e6 <_Z4gemmRK6MatrixS1_RS_.constprop.7+0x156>
  4014fb:	0f 1f 44 00 00       	nopl   0x0(%rax,%rax,1)

0000000000401500 <_ZlsRSoRK6Matrix.constprop.9>:
  401500:	41 55                	push   %r13
  401502:	41 54                	push   %r12
  401504:	55                   	push   %rbp
  401505:	53                   	push   %rbx
  401506:	48 89 fd             	mov    %rdi,%rbp
  401509:	48 83 ec 08          	sub    $0x8,%rsp
  40150d:	8b 4e 08             	mov    0x8(%rsi),%ecx
  401510:	85 c9                	test   %ecx,%ecx
  401512:	0f 8e 17 01 00 00    	jle    40162f <_ZlsRSoRK6Matrix.constprop.9+0x12f>
  401518:	49 89 f4             	mov    %rsi,%r12
  40151b:	31 db                	xor    %ebx,%ebx
  40151d:	0f 1f 00             	nopl   (%rax)
  401520:	48 8b 75 00          	mov    0x0(%rbp),%rsi
  401524:	41 8b 54 24 0c       	mov    0xc(%r12),%edx
  401529:	48 8b 46 e8          	mov    -0x18(%rsi),%rax
  40152d:	48 01 e8             	add    %rbp,%rax
  401530:	85 d2                	test   %edx,%edx
  401532:	0f 8e bb 00 00 00    	jle    4015f3 <_ZlsRSoRK6Matrix.constprop.9+0xf3>
  401538:	8b 50 18             	mov    0x18(%rax),%edx
  40153b:	48 c7 40 10 0a 00 00 	movq   $0xa,0x10(%rax)
  401542:	00 
  401543:	81 e2 fb fe ff ff    	and    $0xfffffefb,%edx
  401549:	83 ca 04             	or     $0x4,%edx
  40154c:	39 cb                	cmp    %ecx,%ebx
  40154e:	89 50 18             	mov    %edx,0x18(%rax)
  401551:	48 8b 46 e8          	mov    -0x18(%rsi),%rax
  401555:	48 c7 44 05 08 02 00 	movq   $0x2,0x8(%rbp,%rax,1)
  40155c:	00 00 
  40155e:	0f 8d 03 01 00 00    	jge    401667 <_ZlsRSoRK6Matrix.constprop.9+0x167>
  401564:	45 31 ed             	xor    %r13d,%r13d
  401567:	eb 40                	jmp    4015a9 <_ZlsRSoRK6Matrix.constprop.9+0xa9>
  401569:	0f 1f 80 00 00 00 00 	nopl   0x0(%rax)
  401570:	48 8b 4d 00          	mov    0x0(%rbp),%rcx
  401574:	48 8b 51 e8          	mov    -0x18(%rcx),%rdx
  401578:	48 01 ea             	add    %rbp,%rdx
  40157b:	8b 42 18             	mov    0x18(%rdx),%eax
  40157e:	48 c7 42 10 0a 00 00 	movq   $0xa,0x10(%rdx)
  401585:	00 
  401586:	25 fb fe ff ff       	and    $0xfffffefb,%eax
  40158b:	83 c8 04             	or     $0x4,%eax
  40158e:	41 39 5c 24 08       	cmp    %ebx,0x8(%r12)
  401593:	89 42 18             	mov    %eax,0x18(%rdx)
  401596:	48 8b 41 e8          	mov    -0x18(%rcx),%rax
  40159a:	48 c7 44 05 08 02 00 	movq   $0x2,0x8(%rbp,%rax,1)
  4015a1:	00 00 
  4015a3:	0f 8e be 00 00 00    	jle    401667 <_ZlsRSoRK6Matrix.constprop.9+0x167>
  4015a9:	41 8b 44 24 10       	mov    0x10(%r12),%eax
  4015ae:	49 8b 54 24 18       	mov    0x18(%r12),%rdx
  4015b3:	48 89 ef             	mov    %rbp,%rdi
  4015b6:	41 0f af c5          	imul   %r13d,%eax
  4015ba:	41 83 c5 01          	add    $0x1,%r13d
  4015be:	01 d8                	add    %ebx,%eax
  4015c0:	48 98                	cltq   
  4015c2:	c5 fb 10 04 c2       	vmovsd (%rdx,%rax,8),%xmm0
  4015c7:	e8 e4 fb ff ff       	callq  4011b0 <_ZNSo9_M_insertIdEERSoT_@plt>
  4015cc:	ba 01 00 00 00       	mov    $0x1,%edx
  4015d1:	be e8 68 40 00       	mov    $0x4068e8,%esi
  4015d6:	48 89 c7             	mov    %rax,%rdi
  4015d9:	e8 32 fb ff ff       	callq  401110 <_ZSt16__ostream_insertIcSt11char_traitsIcEERSt13basic_ostreamIT_T0_ES6_PKS3_l@plt>
  4015de:	45 39 6c 24 0c       	cmp    %r13d,0xc(%r12)
  4015e3:	7f 8b                	jg     401570 <_ZlsRSoRK6Matrix.constprop.9+0x70>
  4015e5:	48 8b 45 00          	mov    0x0(%rbp),%rax
  4015e9:	48 8b 70 e8          	mov    -0x18(%rax),%rsi
  4015ed:	48 01 ee             	add    %rbp,%rsi
  4015f0:	48 89 f0             	mov    %rsi,%rax
  4015f3:	4c 8b a8 f0 00 00 00 	mov    0xf0(%rax),%r13
  4015fa:	4d 85 ed             	test   %r13,%r13
  4015fd:	0f 84 90 00 00 00    	je     401693 <_ZlsRSoRK6Matrix.constprop.9+0x193>
  401603:	41 80 7d 38 00       	cmpb   $0x0,0x38(%r13)
  401608:	74 36                	je     401640 <_ZlsRSoRK6Matrix.constprop.9+0x140>
  40160a:	41 0f be 75 43       	movsbl 0x43(%r13),%esi
  40160f:	48 89 ef             	mov    %rbp,%rdi
  401612:	83 c3 01             	add    $0x1,%ebx
  401615:	e8 46 fa ff ff       	callq  401060 <_ZNSo3putEc@plt>
  40161a:	48 89 c7             	mov    %rax,%rdi
  40161d:	e8 8e fa ff ff       	callq  4010b0 <_ZNSo5flushEv@plt>
  401622:	41 8b 4c 24 08       	mov    0x8(%r12),%ecx
  401627:	39 d9                	cmp    %ebx,%ecx
  401629:	0f 8f f1 fe ff ff    	jg     401520 <_ZlsRSoRK6Matrix.constprop.9+0x20>
  40162f:	48 83 c4 08          	add    $0x8,%rsp
  401633:	48 89 e8             	mov    %rbp,%rax
  401636:	5b                   	pop    %rbx
  401637:	5d                   	pop    %rbp
  401638:	41 5c                	pop    %r12
  40163a:	41 5d                	pop    %r13
  40163c:	c3                   	retq   
  40163d:	0f 1f 00             	nopl   (%rax)
  401640:	4c 89 ef             	mov    %r13,%rdi
  401643:	e8 d8 fa ff ff       	callq  401120 <_ZNKSt5ctypeIcE13_M_widen_initEv@plt>
  401648:	49 8b 45 00          	mov    0x0(%r13),%rax
  40164c:	be 0a 00 00 00       	mov    $0xa,%esi
  401651:	48 8b 40 30          	mov    0x30(%rax),%rax
  401655:	48 3d f0 65 40 00    	cmp    $0x4065f0,%rax
  40165b:	74 b2                	je     40160f <_ZlsRSoRK6Matrix.constprop.9+0x10f>
  40165d:	4c 89 ef             	mov    %r13,%rdi
  401660:	ff d0                	callq  *%rax
  401662:	0f be f0             	movsbl %al,%esi
  401665:	eb a8                	jmp    40160f <_ZlsRSoRK6Matrix.constprop.9+0x10f>
  401667:	bf 10 00 00 00       	mov    $0x10,%edi
  40166c:	e8 0f fa ff ff       	callq  401080 <__cxa_allocate_exception@plt>
  401671:	be 34 68 40 00       	mov    $0x406834,%esi
  401676:	48 89 c7             	mov    %rax,%rdi
  401679:	48 89 c3             	mov    %rax,%rbx
  40167c:	e8 9f fb ff ff       	callq  401220 <_ZNSt16invalid_argumentC1EPKc@plt>
  401681:	ba d0 11 40 00       	mov    $0x4011d0,%edx
  401686:	be 08 83 60 00       	mov    $0x608308,%esi
  40168b:	48 89 df             	mov    %rbx,%rdi
  40168e:	e8 4d fb ff ff       	callq  4011e0 <__cxa_throw@plt>
  401693:	e8 b8 fa ff ff       	callq  401150 <_ZSt16__throw_bad_castv@plt>
  401698:	48 89 c5             	mov    %rax,%rbp
  40169b:	48 89 df             	mov    %rbx,%rdi
  40169e:	e8 1d fa ff ff       	callq  4010c0 <__cxa_free_exception@plt>
  4016a3:	48 89 ef             	mov    %rbp,%rdi
  4016a6:	e8 55 fb ff ff       	callq  401200 <_Unwind_Resume@plt>
  4016ab:	0f 1f 44 00 00       	nopl   0x0(%rax,%rax,1)

00000000004016b0 <_Z13assert_equalsRK6MatrixS1_.constprop.8>:
  4016b0:	41 55                	push   %r13
  4016b2:	41 54                	push   %r12
  4016b4:	55                   	push   %rbp
  4016b5:	53                   	push   %rbx
  4016b6:	48 89 fd             	mov    %rdi,%rbp
  4016b9:	48 89 f3             	mov    %rsi,%rbx
  4016bc:	48 83 ec 08          	sub    $0x8,%rsp
  4016c0:	8b 47 08             	mov    0x8(%rdi),%eax
  4016c3:	3b 46 08             	cmp    0x8(%rsi),%eax
  4016c6:	0f 85 7c 01 00 00    	jne    401848 <_Z13assert_equalsRK6MatrixS1_.constprop.8+0x198>
  4016cc:	44 8b 47 0c          	mov    0xc(%rdi),%r8d
  4016d0:	44 39 46 0c          	cmp    %r8d,0xc(%rsi)
  4016d4:	0f 85 d6 00 00 00    	jne    4017b0 <_Z13assert_equalsRK6MatrixS1_.constprop.8+0x100>
  4016da:	85 c0                	test   %eax,%eax
  4016dc:	0f 8e bb 00 00 00    	jle    40179d <_Z13assert_equalsRK6MatrixS1_.constprop.8+0xed>
  4016e2:	be 01 00 00 00       	mov    $0x1,%esi
  4016e7:	c5 fa 7e 15 01 53 00 	vmovq  0x5301(%rip),%xmm2        # 4069f0 <_ZTV11DenseMatrix+0x20>
  4016ee:	00 
  4016ef:	45 31 c9             	xor    %r9d,%r9d
  4016f2:	45 31 db             	xor    %r11d,%r11d
  4016f5:	c5 fb 10 0d 03 53 00 	vmovsd 0x5303(%rip),%xmm1        # 406a00 <_ZTV11DenseMatrix+0x30>
  4016fc:	00 
  4016fd:	0f 1f 00             	nopl   (%rax)
  401700:	45 85 c0             	test   %r8d,%r8d
  401703:	7e 7e                	jle    401783 <_Z13assert_equalsRK6MatrixS1_.constprop.8+0xd3>
  401705:	44 39 4b 08          	cmp    %r9d,0x8(%rbx)
  401709:	48 8b 4d 18          	mov    0x18(%rbp),%rcx
  40170d:	4a 8d 14 cd 00 00 00 	lea    0x0(,%r9,8),%rdx
  401714:	00 
  401715:	48 63 45 10          	movslq 0x10(%rbp),%rax
  401719:	c4 a1 7b 10 04 c9    	vmovsd (%rcx,%r9,8),%xmm0
  40171f:	0f 8e 3f 05 00 00    	jle    401c64 <_Z13assert_equalsRK6MatrixS1_.constprop.8+0x5b4>
  401725:	44 8b 53 0c          	mov    0xc(%rbx),%r10d
  401729:	45 85 d2             	test   %r10d,%r10d
  40172c:	0f 8e 32 05 00 00    	jle    401c64 <_Z13assert_equalsRK6MatrixS1_.constprop.8+0x5b4>
  401732:	48 63 7b 10          	movslq 0x10(%rbx),%rdi
  401736:	4c 8d 24 c5 00 00 00 	lea    0x0(,%rax,8),%r12
  40173d:	00 
  40173e:	4c 01 c8             	add    %r9,%rax
  401741:	48 8d 0c c1          	lea    (%rcx,%rax,8),%rcx
  401745:	48 03 53 18          	add    0x18(%rbx),%rdx
  401749:	31 c0                	xor    %eax,%eax
  40174b:	48 c1 e7 03          	shl    $0x3,%rdi
  40174f:	eb 1a                	jmp    40176b <_Z13assert_equalsRK6MatrixS1_.constprop.8+0xbb>
  401751:	0f 1f 80 00 00 00 00 	nopl   0x0(%rax)
  401758:	c5 fb 10 01          	vmovsd (%rcx),%xmm0
  40175c:	48 01 fa             	add    %rdi,%rdx
  40175f:	4c 01 e1             	add    %r12,%rcx
  401762:	44 39 d0             	cmp    %r10d,%eax
  401765:	0f 84 f9 04 00 00    	je     401c64 <_Z13assert_equalsRK6MatrixS1_.constprop.8+0x5b4>
  40176b:	c5 fb 5c 02          	vsubsd (%rdx),%xmm0,%xmm0
  40176f:	c5 f9 54 c2          	vandpd %xmm2,%xmm0,%xmm0
  401773:	c5 f9 2e c1          	vucomisd %xmm1,%xmm0
  401777:	41 0f 47 f3          	cmova  %r11d,%esi
  40177b:	83 c0 01             	add    $0x1,%eax
  40177e:	44 39 c0             	cmp    %r8d,%eax
  401781:	75 d5                	jne    401758 <_Z13assert_equalsRK6MatrixS1_.constprop.8+0xa8>
  401783:	41 8d 41 01          	lea    0x1(%r9),%eax
  401787:	49 83 c1 01          	add    $0x1,%r9
  40178b:	39 45 08             	cmp    %eax,0x8(%rbp)
  40178e:	0f 8f 6c ff ff ff    	jg     401700 <_Z13assert_equalsRK6MatrixS1_.constprop.8+0x50>
  401794:	40 84 f6             	test   %sil,%sil
  401797:	0f 84 43 01 00 00    	je     4018e0 <_Z13assert_equalsRK6MatrixS1_.constprop.8+0x230>
  40179d:	48 83 c4 08          	add    $0x8,%rsp
  4017a1:	5b                   	pop    %rbx
  4017a2:	5d                   	pop    %rbp
  4017a3:	41 5c                	pop    %r12
  4017a5:	41 5d                	pop    %r13
  4017a7:	c3                   	retq   
  4017a8:	0f 1f 84 00 00 00 00 	nopl   0x0(%rax,%rax,1)
  4017af:	00 
  4017b0:	ba 1a 00 00 00       	mov    $0x1a,%edx
  4017b5:	be 6d 68 40 00       	mov    $0x40686d,%esi
  4017ba:	bf a0 81 60 00       	mov    $0x6081a0,%edi
  4017bf:	e8 4c f9 ff ff       	callq  401110 <_ZSt16__ostream_insertIcSt11char_traitsIcEERSt13basic_ostreamIT_T0_ES6_PKS3_l@plt>
  4017c4:	8b 75 0c             	mov    0xc(%rbp),%esi
  4017c7:	bf a0 81 60 00       	mov    $0x6081a0,%edi
  4017cc:	e8 1f fa ff ff       	callq  4011f0 <_ZNSolsEi@plt>
  4017d1:	ba 06 00 00 00       	mov    $0x6,%edx
  4017d6:	be 66 68 40 00       	mov    $0x406866,%esi
  4017db:	48 89 c7             	mov    %rax,%rdi
  4017de:	49 89 c4             	mov    %rax,%r12
  4017e1:	e8 2a f9 ff ff       	callq  401110 <_ZSt16__ostream_insertIcSt11char_traitsIcEERSt13basic_ostreamIT_T0_ES6_PKS3_l@plt>
  4017e6:	8b 73 0c             	mov    0xc(%rbx),%esi
  4017e9:	4c 89 e7             	mov    %r12,%rdi
  4017ec:	e8 ff f9 ff ff       	callq  4011f0 <_ZNSolsEi@plt>
  4017f1:	49 89 c5             	mov    %rax,%r13
  4017f4:	48 8b 00             	mov    (%rax),%rax
  4017f7:	48 8b 40 e8          	mov    -0x18(%rax),%rax
  4017fb:	4d 8b a4 05 f0 00 00 	mov    0xf0(%r13,%rax,1),%r12
  401802:	00 
  401803:	4d 85 e4             	test   %r12,%r12
  401806:	0f 84 84 04 00 00    	je     401c90 <_Z13assert_equalsRK6MatrixS1_.constprop.8+0x5e0>
  40180c:	41 80 7c 24 38 00    	cmpb   $0x0,0x38(%r12)
  401812:	0f 84 af 02 00 00    	je     401ac7 <_Z13assert_equalsRK6MatrixS1_.constprop.8+0x417>
  401818:	41 0f be 74 24 43    	movsbl 0x43(%r12),%esi
  40181e:	4c 89 ef             	mov    %r13,%rdi
  401821:	e8 3a f8 ff ff       	callq  401060 <_ZNSo3putEc@plt>
  401826:	48 89 c7             	mov    %rax,%rdi
  401829:	e8 82 f8 ff ff       	callq  4010b0 <_ZNSo5flushEv@plt>
  40182e:	8b 45 08             	mov    0x8(%rbp),%eax
  401831:	85 c0                	test   %eax,%eax
  401833:	0f 8e a7 00 00 00    	jle    4018e0 <_Z13assert_equalsRK6MatrixS1_.constprop.8+0x230>
  401839:	44 8b 45 0c          	mov    0xc(%rbp),%r8d
  40183d:	31 f6                	xor    %esi,%esi
  40183f:	e9 a3 fe ff ff       	jmpq   4016e7 <_Z13assert_equalsRK6MatrixS1_.constprop.8+0x37>
  401844:	0f 1f 40 00          	nopl   0x0(%rax)
  401848:	ba 17 00 00 00       	mov    $0x17,%edx
  40184d:	be 4e 68 40 00       	mov    $0x40684e,%esi
  401852:	bf a0 81 60 00       	mov    $0x6081a0,%edi
  401857:	e8 b4 f8 ff ff       	callq  401110 <_ZSt16__ostream_insertIcSt11char_traitsIcEERSt13basic_ostreamIT_T0_ES6_PKS3_l@plt>
  40185c:	8b 75 08             	mov    0x8(%rbp),%esi
  40185f:	bf a0 81 60 00       	mov    $0x6081a0,%edi
  401864:	e8 87 f9 ff ff       	callq  4011f0 <_ZNSolsEi@plt>
  401869:	ba 06 00 00 00       	mov    $0x6,%edx
  40186e:	be 66 68 40 00       	mov    $0x406866,%esi
  401873:	48 89 c7             	mov    %rax,%rdi
  401876:	49 89 c4             	mov    %rax,%r12
  401879:	e8 92 f8 ff ff       	callq  401110 <_ZSt16__ostream_insertIcSt11char_traitsIcEERSt13basic_ostreamIT_T0_ES6_PKS3_l@plt>
  40187e:	8b 73 08             	mov    0x8(%rbx),%esi
  401881:	4c 89 e7             	mov    %r12,%rdi
  401884:	e8 67 f9 ff ff       	callq  4011f0 <_ZNSolsEi@plt>
  401889:	49 89 c5             	mov    %rax,%r13
  40188c:	48 8b 00             	mov    (%rax),%rax
  40188f:	48 8b 40 e8          	mov    -0x18(%rax),%rax
  401893:	4d 8b a4 05 f0 00 00 	mov    0xf0(%r13,%rax,1),%r12
  40189a:	00 
  40189b:	4d 85 e4             	test   %r12,%r12
  40189e:	0f 84 ec 03 00 00    	je     401c90 <_Z13assert_equalsRK6MatrixS1_.constprop.8+0x5e0>
  4018a4:	41 80 7c 24 38 00    	cmpb   $0x0,0x38(%r12)
  4018aa:	0f 84 45 02 00 00    	je     401af5 <_Z13assert_equalsRK6MatrixS1_.constprop.8+0x445>
  4018b0:	41 0f be 74 24 43    	movsbl 0x43(%r12),%esi
  4018b6:	4c 89 ef             	mov    %r13,%rdi
  4018b9:	e8 a2 f7 ff ff       	callq  401060 <_ZNSo3putEc@plt>
  4018be:	48 89 c7             	mov    %rax,%rdi
  4018c1:	e8 ea f7 ff ff       	callq  4010b0 <_ZNSo5flushEv@plt>
  4018c6:	44 8b 45 0c          	mov    0xc(%rbp),%r8d
  4018ca:	44 3b 43 0c          	cmp    0xc(%rbx),%r8d
  4018ce:	0f 85 dc fe ff ff    	jne    4017b0 <_Z13assert_equalsRK6MatrixS1_.constprop.8+0x100>
  4018d4:	8b 55 08             	mov    0x8(%rbp),%edx
  4018d7:	85 d2                	test   %edx,%edx
  4018d9:	0f 8f 5e ff ff ff    	jg     40183d <_Z13assert_equalsRK6MatrixS1_.constprop.8+0x18d>
  4018df:	90                   	nop
  4018e0:	48 8b 05 b9 68 20 00 	mov    0x2068b9(%rip),%rax        # 6081a0 <_ZSt4cout@@GLIBCXX_3.4>
  4018e7:	48 8b 40 e8          	mov    -0x18(%rax),%rax
  4018eb:	4c 8b a0 90 82 60 00 	mov    0x608290(%rax),%r12
  4018f2:	4d 85 e4             	test   %r12,%r12
  4018f5:	0f 84 95 03 00 00    	je     401c90 <_Z13assert_equalsRK6MatrixS1_.constprop.8+0x5e0>
  4018fb:	41 80 7c 24 38 00    	cmpb   $0x0,0x38(%r12)
  401901:	0f 84 1c 02 00 00    	je     401b23 <_Z13assert_equalsRK6MatrixS1_.constprop.8+0x473>
  401907:	41 0f be 74 24 43    	movsbl 0x43(%r12),%esi
  40190d:	bf a0 81 60 00       	mov    $0x6081a0,%edi
  401912:	e8 49 f7 ff ff       	callq  401060 <_ZNSo3putEc@plt>
  401917:	48 89 c7             	mov    %rax,%rdi
  40191a:	e8 91 f7 ff ff       	callq  4010b0 <_ZNSo5flushEv@plt>
  40191f:	49 89 c5             	mov    %rax,%r13
  401922:	48 8b 00             	mov    (%rax),%rax
  401925:	48 8b 40 e8          	mov    -0x18(%rax),%rax
  401929:	4d 8b a4 05 f0 00 00 	mov    0xf0(%r13,%rax,1),%r12
  401930:	00 
  401931:	4d 85 e4             	test   %r12,%r12
  401934:	0f 84 56 03 00 00    	je     401c90 <_Z13assert_equalsRK6MatrixS1_.constprop.8+0x5e0>
  40193a:	41 80 7c 24 38 00    	cmpb   $0x0,0x38(%r12)
  401940:	0f 84 39 02 00 00    	je     401b7f <_Z13assert_equalsRK6MatrixS1_.constprop.8+0x4cf>
  401946:	41 0f be 74 24 43    	movsbl 0x43(%r12),%esi
  40194c:	4c 89 ef             	mov    %r13,%rdi
  40194f:	e8 0c f7 ff ff       	callq  401060 <_ZNSo3putEc@plt>
  401954:	48 89 c7             	mov    %rax,%rdi
  401957:	e8 54 f7 ff ff       	callq  4010b0 <_ZNSo5flushEv@plt>
  40195c:	ba 09 00 00 00       	mov    $0x9,%edx
  401961:	49 89 c4             	mov    %rax,%r12
  401964:	be 88 68 40 00       	mov    $0x406888,%esi
  401969:	48 89 c7             	mov    %rax,%rdi
  40196c:	e8 9f f7 ff ff       	callq  401110 <_ZSt16__ostream_insertIcSt11char_traitsIcEERSt13basic_ostreamIT_T0_ES6_PKS3_l@plt>
  401971:	49 8b 04 24          	mov    (%r12),%rax
  401975:	48 8b 40 e8          	mov    -0x18(%rax),%rax
  401979:	4d 8b ac 04 f0 00 00 	mov    0xf0(%r12,%rax,1),%r13
  401980:	00 
  401981:	4d 85 ed             	test   %r13,%r13
  401984:	0f 84 06 03 00 00    	je     401c90 <_Z13assert_equalsRK6MatrixS1_.constprop.8+0x5e0>
  40198a:	41 80 7d 38 00       	cmpb   $0x0,0x38(%r13)
  40198f:	0f 84 bc 01 00 00    	je     401b51 <_Z13assert_equalsRK6MatrixS1_.constprop.8+0x4a1>
  401995:	41 0f be 75 43       	movsbl 0x43(%r13),%esi
  40199a:	4c 89 e7             	mov    %r12,%rdi
  40199d:	e8 be f6 ff ff       	callq  401060 <_ZNSo3putEc@plt>
  4019a2:	48 89 c7             	mov    %rax,%rdi
  4019a5:	e8 06 f7 ff ff       	callq  4010b0 <_ZNSo5flushEv@plt>
  4019aa:	48 89 ee             	mov    %rbp,%rsi
  4019ad:	48 89 c7             	mov    %rax,%rdi
  4019b0:	e8 4b fb ff ff       	callq  401500 <_ZlsRSoRK6Matrix.constprop.9>
  4019b5:	48 8b 05 e4 67 20 00 	mov    0x2067e4(%rip),%rax        # 6081a0 <_ZSt4cout@@GLIBCXX_3.4>
  4019bc:	48 8b 40 e8          	mov    -0x18(%rax),%rax
  4019c0:	48 8b a8 90 82 60 00 	mov    0x608290(%rax),%rbp
  4019c7:	48 85 ed             	test   %rbp,%rbp
  4019ca:	0f 84 c0 02 00 00    	je     401c90 <_Z13assert_equalsRK6MatrixS1_.constprop.8+0x5e0>
  4019d0:	80 7d 38 00          	cmpb   $0x0,0x38(%rbp)
  4019d4:	0f 84 5c 02 00 00    	je     401c36 <_Z13assert_equalsRK6MatrixS1_.constprop.8+0x586>
  4019da:	0f be 75 43          	movsbl 0x43(%rbp),%esi
  4019de:	bf a0 81 60 00       	mov    $0x6081a0,%edi
  4019e3:	e8 78 f6 ff ff       	callq  401060 <_ZNSo3putEc@plt>
  4019e8:	48 89 c7             	mov    %rax,%rdi
  4019eb:	e8 c0 f6 ff ff       	callq  4010b0 <_ZNSo5flushEv@plt>
  4019f0:	49 89 c4             	mov    %rax,%r12
  4019f3:	48 8b 00             	mov    (%rax),%rax
  4019f6:	48 8b 40 e8          	mov    -0x18(%rax),%rax
  4019fa:	49 8b ac 04 f0 00 00 	mov    0xf0(%r12,%rax,1),%rbp
  401a01:	00 
  401a02:	48 85 ed             	test   %rbp,%rbp
  401a05:	0f 84 85 02 00 00    	je     401c90 <_Z13assert_equalsRK6MatrixS1_.constprop.8+0x5e0>
  401a0b:	80 7d 38 00          	cmpb   $0x0,0x38(%rbp)
  401a0f:	0f 84 f3 01 00 00    	je     401c08 <_Z13assert_equalsRK6MatrixS1_.constprop.8+0x558>
  401a15:	0f be 75 43          	movsbl 0x43(%rbp),%esi
  401a19:	4c 89 e7             	mov    %r12,%rdi
  401a1c:	e8 3f f6 ff ff       	callq  401060 <_ZNSo3putEc@plt>
  401a21:	48 89 c7             	mov    %rax,%rdi
  401a24:	e8 87 f6 ff ff       	callq  4010b0 <_ZNSo5flushEv@plt>
  401a29:	ba 07 00 00 00       	mov    $0x7,%edx
  401a2e:	48 89 c5             	mov    %rax,%rbp
  401a31:	be 92 68 40 00       	mov    $0x406892,%esi
  401a36:	48 89 c7             	mov    %rax,%rdi
  401a39:	e8 d2 f6 ff ff       	callq  401110 <_ZSt16__ostream_insertIcSt11char_traitsIcEERSt13basic_ostreamIT_T0_ES6_PKS3_l@plt>
  401a3e:	48 8b 45 00          	mov    0x0(%rbp),%rax
  401a42:	48 8b 40 e8          	mov    -0x18(%rax),%rax
  401a46:	4c 8b a4 05 f0 00 00 	mov    0xf0(%rbp,%rax,1),%r12
  401a4d:	00 
  401a4e:	4d 85 e4             	test   %r12,%r12
  401a51:	0f 84 39 02 00 00    	je     401c90 <_Z13assert_equalsRK6MatrixS1_.constprop.8+0x5e0>
  401a57:	41 80 7c 24 38 00    	cmpb   $0x0,0x38(%r12)
  401a5d:	0f 84 77 01 00 00    	je     401bda <_Z13assert_equalsRK6MatrixS1_.constprop.8+0x52a>
  401a63:	41 0f be 74 24 43    	movsbl 0x43(%r12),%esi
  401a69:	48 89 ef             	mov    %rbp,%rdi
  401a6c:	e8 ef f5 ff ff       	callq  401060 <_ZNSo3putEc@plt>
  401a71:	48 89 c7             	mov    %rax,%rdi
  401a74:	e8 37 f6 ff ff       	callq  4010b0 <_ZNSo5flushEv@plt>
  401a79:	48 89 de             	mov    %rbx,%rsi
  401a7c:	48 89 c7             	mov    %rax,%rdi
  401a7f:	e8 7c fa ff ff       	callq  401500 <_ZlsRSoRK6Matrix.constprop.9>
  401a84:	48 89 c5             	mov    %rax,%rbp
  401a87:	48 8b 00             	mov    (%rax),%rax
  401a8a:	48 8b 40 e8          	mov    -0x18(%rax),%rax
  401a8e:	48 8b 9c 05 f0 00 00 	mov    0xf0(%rbp,%rax,1),%rbx
  401a95:	00 
  401a96:	48 85 db             	test   %rbx,%rbx
  401a99:	0f 84 f1 01 00 00    	je     401c90 <_Z13assert_equalsRK6MatrixS1_.constprop.8+0x5e0>
  401a9f:	80 7b 38 00          	cmpb   $0x0,0x38(%rbx)
  401aa3:	0f 84 04 01 00 00    	je     401bad <_Z13assert_equalsRK6MatrixS1_.constprop.8+0x4fd>
  401aa9:	0f be 73 43          	movsbl 0x43(%rbx),%esi
  401aad:	48 89 ef             	mov    %rbp,%rdi
  401ab0:	e8 ab f5 ff ff       	callq  401060 <_ZNSo3putEc@plt>
  401ab5:	48 83 c4 08          	add    $0x8,%rsp
  401ab9:	48 89 c7             	mov    %rax,%rdi
  401abc:	5b                   	pop    %rbx
  401abd:	5d                   	pop    %rbp
  401abe:	41 5c                	pop    %r12
  401ac0:	41 5d                	pop    %r13
  401ac2:	e9 e9 f5 ff ff       	jmpq   4010b0 <_ZNSo5flushEv@plt>
  401ac7:	4c 89 e7             	mov    %r12,%rdi
  401aca:	e8 51 f6 ff ff       	callq  401120 <_ZNKSt5ctypeIcE13_M_widen_initEv@plt>
  401acf:	49 8b 04 24          	mov    (%r12),%rax
  401ad3:	be 0a 00 00 00       	mov    $0xa,%esi
  401ad8:	48 8b 40 30          	mov    0x30(%rax),%rax
  401adc:	48 3d f0 65 40 00    	cmp    $0x4065f0,%rax
  401ae2:	0f 84 36 fd ff ff    	je     40181e <_Z13assert_equalsRK6MatrixS1_.constprop.8+0x16e>
  401ae8:	4c 89 e7             	mov    %r12,%rdi
  401aeb:	ff d0                	callq  *%rax
  401aed:	0f be f0             	movsbl %al,%esi
  401af0:	e9 29 fd ff ff       	jmpq   40181e <_Z13assert_equalsRK6MatrixS1_.constprop.8+0x16e>
  401af5:	4c 89 e7             	mov    %r12,%rdi
  401af8:	e8 23 f6 ff ff       	callq  401120 <_ZNKSt5ctypeIcE13_M_widen_initEv@plt>
  401afd:	49 8b 04 24          	mov    (%r12),%rax
  401b01:	be 0a 00 00 00       	mov    $0xa,%esi
  401b06:	48 8b 40 30          	mov    0x30(%rax),%rax
  401b0a:	48 3d f0 65 40 00    	cmp    $0x4065f0,%rax
  401b10:	0f 84 a0 fd ff ff    	je     4018b6 <_Z13assert_equalsRK6MatrixS1_.constprop.8+0x206>
  401b16:	4c 89 e7             	mov    %r12,%rdi
  401b19:	ff d0                	callq  *%rax
  401b1b:	0f be f0             	movsbl %al,%esi
  401b1e:	e9 93 fd ff ff       	jmpq   4018b6 <_Z13assert_equalsRK6MatrixS1_.constprop.8+0x206>
  401b23:	4c 89 e7             	mov    %r12,%rdi
  401b26:	e8 f5 f5 ff ff       	callq  401120 <_ZNKSt5ctypeIcE13_M_widen_initEv@plt>
  401b2b:	49 8b 04 24          	mov    (%r12),%rax
  401b2f:	be 0a 00 00 00       	mov    $0xa,%esi
  401b34:	48 8b 40 30          	mov    0x30(%rax),%rax
  401b38:	48 3d f0 65 40 00    	cmp    $0x4065f0,%rax
  401b3e:	0f 84 c9 fd ff ff    	je     40190d <_Z13assert_equalsRK6MatrixS1_.constprop.8+0x25d>
  401b44:	4c 89 e7             	mov    %r12,%rdi
  401b47:	ff d0                	callq  *%rax
  401b49:	0f be f0             	movsbl %al,%esi
  401b4c:	e9 bc fd ff ff       	jmpq   40190d <_Z13assert_equalsRK6MatrixS1_.constprop.8+0x25d>
  401b51:	4c 89 ef             	mov    %r13,%rdi
  401b54:	e8 c7 f5 ff ff       	callq  401120 <_ZNKSt5ctypeIcE13_M_widen_initEv@plt>
  401b59:	49 8b 45 00          	mov    0x0(%r13),%rax
  401b5d:	be 0a 00 00 00       	mov    $0xa,%esi
  401b62:	48 8b 40 30          	mov    0x30(%rax),%rax
  401b66:	48 3d f0 65 40 00    	cmp    $0x4065f0,%rax
  401b6c:	0f 84 28 fe ff ff    	je     40199a <_Z13assert_equalsRK6MatrixS1_.constprop.8+0x2ea>
  401b72:	4c 89 ef             	mov    %r13,%rdi
  401b75:	ff d0                	callq  *%rax
  401b77:	0f be f0             	movsbl %al,%esi
  401b7a:	e9 1b fe ff ff       	jmpq   40199a <_Z13assert_equalsRK6MatrixS1_.constprop.8+0x2ea>
  401b7f:	4c 89 e7             	mov    %r12,%rdi
  401b82:	e8 99 f5 ff ff       	callq  401120 <_ZNKSt5ctypeIcE13_M_widen_initEv@plt>
  401b87:	49 8b 04 24          	mov    (%r12),%rax
  401b8b:	be 0a 00 00 00       	mov    $0xa,%esi
  401b90:	48 8b 40 30          	mov    0x30(%rax),%rax
  401b94:	48 3d f0 65 40 00    	cmp    $0x4065f0,%rax
  401b9a:	0f 84 ac fd ff ff    	je     40194c <_Z13assert_equalsRK6MatrixS1_.constprop.8+0x29c>
  401ba0:	4c 89 e7             	mov    %r12,%rdi
  401ba3:	ff d0                	callq  *%rax
  401ba5:	0f be f0             	movsbl %al,%esi
  401ba8:	e9 9f fd ff ff       	jmpq   40194c <_Z13assert_equalsRK6MatrixS1_.constprop.8+0x29c>
  401bad:	48 89 df             	mov    %rbx,%rdi
  401bb0:	e8 6b f5 ff ff       	callq  401120 <_ZNKSt5ctypeIcE13_M_widen_initEv@plt>
  401bb5:	48 8b 03             	mov    (%rbx),%rax
  401bb8:	be 0a 00 00 00       	mov    $0xa,%esi
  401bbd:	48 8b 40 30          	mov    0x30(%rax),%rax
  401bc1:	48 3d f0 65 40 00    	cmp    $0x4065f0,%rax
  401bc7:	0f 84 e0 fe ff ff    	je     401aad <_Z13assert_equalsRK6MatrixS1_.constprop.8+0x3fd>
  401bcd:	48 89 df             	mov    %rbx,%rdi
  401bd0:	ff d0                	callq  *%rax
  401bd2:	0f be f0             	movsbl %al,%esi
  401bd5:	e9 d3 fe ff ff       	jmpq   401aad <_Z13assert_equalsRK6MatrixS1_.constprop.8+0x3fd>
  401bda:	4c 89 e7             	mov    %r12,%rdi
  401bdd:	e8 3e f5 ff ff       	callq  401120 <_ZNKSt5ctypeIcE13_M_widen_initEv@plt>
  401be2:	49 8b 04 24          	mov    (%r12),%rax
  401be6:	be 0a 00 00 00       	mov    $0xa,%esi
  401beb:	48 8b 40 30          	mov    0x30(%rax),%rax
  401bef:	48 3d f0 65 40 00    	cmp    $0x4065f0,%rax
  401bf5:	0f 84 6e fe ff ff    	je     401a69 <_Z13assert_equalsRK6MatrixS1_.constprop.8+0x3b9>
  401bfb:	4c 89 e7             	mov    %r12,%rdi
  401bfe:	ff d0                	callq  *%rax
  401c00:	0f be f0             	movsbl %al,%esi
  401c03:	e9 61 fe ff ff       	jmpq   401a69 <_Z13assert_equalsRK6MatrixS1_.constprop.8+0x3b9>
  401c08:	48 89 ef             	mov    %rbp,%rdi
  401c0b:	e8 10 f5 ff ff       	callq  401120 <_ZNKSt5ctypeIcE13_M_widen_initEv@plt>
  401c10:	48 8b 45 00          	mov    0x0(%rbp),%rax
  401c14:	be 0a 00 00 00       	mov    $0xa,%esi
  401c19:	48 8b 40 30          	mov    0x30(%rax),%rax
  401c1d:	48 3d f0 65 40 00    	cmp    $0x4065f0,%rax
  401c23:	0f 84 f0 fd ff ff    	je     401a19 <_Z13assert_equalsRK6MatrixS1_.constprop.8+0x369>
  401c29:	48 89 ef             	mov    %rbp,%rdi
  401c2c:	ff d0                	callq  *%rax
  401c2e:	0f be f0             	movsbl %al,%esi
  401c31:	e9 e3 fd ff ff       	jmpq   401a19 <_Z13assert_equalsRK6MatrixS1_.constprop.8+0x369>
  401c36:	48 89 ef             	mov    %rbp,%rdi
  401c39:	e8 e2 f4 ff ff       	callq  401120 <_ZNKSt5ctypeIcE13_M_widen_initEv@plt>
  401c3e:	48 8b 45 00          	mov    0x0(%rbp),%rax
  401c42:	be 0a 00 00 00       	mov    $0xa,%esi
  401c47:	48 8b 40 30          	mov    0x30(%rax),%rax
  401c4b:	48 3d f0 65 40 00    	cmp    $0x4065f0,%rax
  401c51:	0f 84 87 fd ff ff    	je     4019de <_Z13assert_equalsRK6MatrixS1_.constprop.8+0x32e>
  401c57:	48 89 ef             	mov    %rbp,%rdi
  401c5a:	ff d0                	callq  *%rax
  401c5c:	0f be f0             	movsbl %al,%esi
  401c5f:	e9 7a fd ff ff       	jmpq   4019de <_Z13assert_equalsRK6MatrixS1_.constprop.8+0x32e>
  401c64:	bf 10 00 00 00       	mov    $0x10,%edi
  401c69:	e8 12 f4 ff ff       	callq  401080 <__cxa_allocate_exception@plt>
  401c6e:	be 34 68 40 00       	mov    $0x406834,%esi
  401c73:	48 89 c7             	mov    %rax,%rdi
  401c76:	48 89 c3             	mov    %rax,%rbx
  401c79:	e8 a2 f5 ff ff       	callq  401220 <_ZNSt16invalid_argumentC1EPKc@plt>
  401c7e:	ba d0 11 40 00       	mov    $0x4011d0,%edx
  401c83:	be 08 83 60 00       	mov    $0x608308,%esi
  401c88:	48 89 df             	mov    %rbx,%rdi
  401c8b:	e8 50 f5 ff ff       	callq  4011e0 <__cxa_throw@plt>
  401c90:	e8 bb f4 ff ff       	callq  401150 <_ZSt16__throw_bad_castv@plt>
  401c95:	48 89 c5             	mov    %rax,%rbp
  401c98:	48 89 df             	mov    %rbx,%rdi
  401c9b:	e8 20 f4 ff ff       	callq  4010c0 <__cxa_free_exception@plt>
  401ca0:	48 89 ef             	mov    %rbp,%rdi
  401ca3:	e8 58 f5 ff ff       	callq  401200 <_Unwind_Resume@plt>
  401ca8:	0f 1f 84 00 00 00 00 	nopl   0x0(%rax,%rax,1)
  401caf:	00 

0000000000401cb0 <_ZlsRSoRK6Matrix>:
  401cb0:	41 55                	push   %r13
  401cb2:	41 54                	push   %r12
  401cb4:	55                   	push   %rbp
  401cb5:	53                   	push   %rbx
  401cb6:	48 89 fb             	mov    %rdi,%rbx
  401cb9:	48 83 ec 08          	sub    $0x8,%rsp
  401cbd:	8b 56 08             	mov    0x8(%rsi),%edx
  401cc0:	85 d2                	test   %edx,%edx
  401cc2:	0f 8e b2 00 00 00    	jle    401d7a <_ZlsRSoRK6Matrix+0xca>
  401cc8:	49 89 f5             	mov    %rsi,%r13
  401ccb:	45 31 e4             	xor    %r12d,%r12d
  401cce:	66 90                	xchg   %ax,%ax
  401cd0:	41 8b 45 0c          	mov    0xc(%r13),%eax
  401cd4:	85 c0                	test   %eax,%eax
  401cd6:	7e 66                	jle    401d3e <_ZlsRSoRK6Matrix+0x8e>
  401cd8:	31 ed                	xor    %ebp,%ebp
  401cda:	66 0f 1f 44 00 00    	nopw   0x0(%rax,%rax,1)
  401ce0:	48 8b 0b             	mov    (%rbx),%rcx
  401ce3:	44 89 e6             	mov    %r12d,%esi
  401ce6:	4c 89 ef             	mov    %r13,%rdi
  401ce9:	48 8b 51 e8          	mov    -0x18(%rcx),%rdx
  401ced:	48 01 da             	add    %rbx,%rdx
  401cf0:	8b 42 18             	mov    0x18(%rdx),%eax
  401cf3:	48 c7 42 10 0a 00 00 	movq   $0xa,0x10(%rdx)
  401cfa:	00 
  401cfb:	25 fb fe ff ff       	and    $0xfffffefb,%eax
  401d00:	83 c8 04             	or     $0x4,%eax
  401d03:	89 42 18             	mov    %eax,0x18(%rdx)
  401d06:	48 8b 41 e8          	mov    -0x18(%rcx),%rax
  401d0a:	89 ea                	mov    %ebp,%edx
  401d0c:	83 c5 01             	add    $0x1,%ebp
  401d0f:	48 c7 44 03 08 02 00 	movq   $0x2,0x8(%rbx,%rax,1)
  401d16:	00 00 
  401d18:	49 8b 45 00          	mov    0x0(%r13),%rax
  401d1c:	ff 10                	callq  *(%rax)
  401d1e:	48 89 df             	mov    %rbx,%rdi
  401d21:	e8 8a f4 ff ff       	callq  4011b0 <_ZNSo9_M_insertIdEERSoT_@plt>
  401d26:	ba 01 00 00 00       	mov    $0x1,%edx
  401d2b:	be e8 68 40 00       	mov    $0x4068e8,%esi
  401d30:	48 89 c7             	mov    %rax,%rdi
  401d33:	e8 d8 f3 ff ff       	callq  401110 <_ZSt16__ostream_insertIcSt11char_traitsIcEERSt13basic_ostreamIT_T0_ES6_PKS3_l@plt>
  401d38:	41 39 6d 0c          	cmp    %ebp,0xc(%r13)
  401d3c:	7f a2                	jg     401ce0 <_ZlsRSoRK6Matrix+0x30>
  401d3e:	48 8b 03             	mov    (%rbx),%rax
  401d41:	48 8b 40 e8          	mov    -0x18(%rax),%rax
  401d45:	48 8b ac 03 f0 00 00 	mov    0xf0(%rbx,%rax,1),%rbp
  401d4c:	00 
  401d4d:	48 85 ed             	test   %rbp,%rbp
  401d50:	74 65                	je     401db7 <_ZlsRSoRK6Matrix+0x107>
  401d52:	80 7d 38 00          	cmpb   $0x0,0x38(%rbp)
  401d56:	74 38                	je     401d90 <_ZlsRSoRK6Matrix+0xe0>
  401d58:	0f be 75 43          	movsbl 0x43(%rbp),%esi
  401d5c:	48 89 df             	mov    %rbx,%rdi
  401d5f:	41 83 c4 01          	add    $0x1,%r12d
  401d63:	e8 f8 f2 ff ff       	callq  401060 <_ZNSo3putEc@plt>
  401d68:	48 89 c7             	mov    %rax,%rdi
  401d6b:	e8 40 f3 ff ff       	callq  4010b0 <_ZNSo5flushEv@plt>
  401d70:	45 39 65 08          	cmp    %r12d,0x8(%r13)
  401d74:	0f 8f 56 ff ff ff    	jg     401cd0 <_ZlsRSoRK6Matrix+0x20>
  401d7a:	48 83 c4 08          	add    $0x8,%rsp
  401d7e:	48 89 d8             	mov    %rbx,%rax
  401d81:	5b                   	pop    %rbx
  401d82:	5d                   	pop    %rbp
  401d83:	41 5c                	pop    %r12
  401d85:	41 5d                	pop    %r13
  401d87:	c3                   	retq   
  401d88:	0f 1f 84 00 00 00 00 	nopl   0x0(%rax,%rax,1)
  401d8f:	00 
  401d90:	48 89 ef             	mov    %rbp,%rdi
  401d93:	e8 88 f3 ff ff       	callq  401120 <_ZNKSt5ctypeIcE13_M_widen_initEv@plt>
  401d98:	48 8b 45 00          	mov    0x0(%rbp),%rax
  401d9c:	be 0a 00 00 00       	mov    $0xa,%esi
  401da1:	48 8b 40 30          	mov    0x30(%rax),%rax
  401da5:	48 3d f0 65 40 00    	cmp    $0x4065f0,%rax
  401dab:	74 af                	je     401d5c <_ZlsRSoRK6Matrix+0xac>
  401dad:	48 89 ef             	mov    %rbp,%rdi
  401db0:	ff d0                	callq  *%rax
  401db2:	0f be f0             	movsbl %al,%esi
  401db5:	eb a5                	jmp    401d5c <_ZlsRSoRK6Matrix+0xac>
  401db7:	e8 94 f3 ff ff       	callq  401150 <_ZSt16__throw_bad_castv@plt>
  401dbc:	0f 1f 40 00          	nopl   0x0(%rax)

0000000000401dc0 <_Z13assert_equalsRK6MatrixS1_>:
  401dc0:	41 57                	push   %r15
  401dc2:	41 56                	push   %r14
  401dc4:	41 55                	push   %r13
  401dc6:	41 54                	push   %r12
  401dc8:	49 89 f5             	mov    %rsi,%r13
  401dcb:	55                   	push   %rbp
  401dcc:	53                   	push   %rbx
  401dcd:	48 89 fd             	mov    %rdi,%rbp
  401dd0:	48 83 ec 18          	sub    $0x18,%rsp
  401dd4:	8b 57 08             	mov    0x8(%rdi),%edx
  401dd7:	3b 56 08             	cmp    0x8(%rsi),%edx
  401dda:	0f 85 38 01 00 00    	jne    401f18 <_Z13assert_equalsRK6MatrixS1_+0x158>
  401de0:	8b 47 0c             	mov    0xc(%rdi),%eax
  401de3:	39 46 0c             	cmp    %eax,0xc(%rsi)
  401de6:	0f 85 94 00 00 00    	jne    401e80 <_Z13assert_equalsRK6MatrixS1_+0xc0>
  401dec:	85 d2                	test   %edx,%edx
  401dee:	7e 7d                	jle    401e6d <_Z13assert_equalsRK6MatrixS1_+0xad>
  401df0:	41 bf 01 00 00 00    	mov    $0x1,%r15d
  401df6:	45 31 e4             	xor    %r12d,%r12d
  401df9:	0f 1f 80 00 00 00 00 	nopl   0x0(%rax)
  401e00:	85 c0                	test   %eax,%eax
  401e02:	7e 56                	jle    401e5a <_Z13assert_equalsRK6MatrixS1_+0x9a>
  401e04:	31 db                	xor    %ebx,%ebx
  401e06:	45 31 f6             	xor    %r14d,%r14d
  401e09:	0f 1f 80 00 00 00 00 	nopl   0x0(%rax)
  401e10:	48 8b 45 00          	mov    0x0(%rbp),%rax
  401e14:	89 da                	mov    %ebx,%edx
  401e16:	44 89 e6             	mov    %r12d,%esi
  401e19:	48 89 ef             	mov    %rbp,%rdi
  401e1c:	ff 10                	callq  *(%rax)
  401e1e:	49 8b 45 00          	mov    0x0(%r13),%rax
  401e22:	89 da                	mov    %ebx,%edx
  401e24:	c5 fb 11 44 24 08    	vmovsd %xmm0,0x8(%rsp)
  401e2a:	44 89 e6             	mov    %r12d,%esi
  401e2d:	4c 89 ef             	mov    %r13,%rdi
  401e30:	ff 10                	callq  *(%rax)
  401e32:	c5 fb 10 4c 24 08    	vmovsd 0x8(%rsp),%xmm1
  401e38:	8b 45 0c             	mov    0xc(%rbp),%eax
  401e3b:	c5 f3 5c c8          	vsubsd %xmm0,%xmm1,%xmm1
  401e3f:	c5 f1 54 0d a9 4b 00 	vandpd 0x4ba9(%rip),%xmm1,%xmm1        # 4069f0 <_ZTV11DenseMatrix+0x20>
  401e46:	00 
  401e47:	c5 f9 2e 0d b1 4b 00 	vucomisd 0x4bb1(%rip),%xmm1        # 406a00 <_ZTV11DenseMatrix+0x30>
  401e4e:	00 
  401e4f:	45 0f 47 fe          	cmova  %r14d,%r15d
  401e53:	83 c3 01             	add    $0x1,%ebx
  401e56:	39 d8                	cmp    %ebx,%eax
  401e58:	7f b6                	jg     401e10 <_Z13assert_equalsRK6MatrixS1_+0x50>
  401e5a:	41 83 c4 01          	add    $0x1,%r12d
  401e5e:	44 39 65 08          	cmp    %r12d,0x8(%rbp)
  401e62:	7f 9c                	jg     401e00 <_Z13assert_equalsRK6MatrixS1_+0x40>
  401e64:	45 84 ff             	test   %r15b,%r15b
  401e67:	0f 84 43 01 00 00    	je     401fb0 <_Z13assert_equalsRK6MatrixS1_+0x1f0>
  401e6d:	48 83 c4 18          	add    $0x18,%rsp
  401e71:	5b                   	pop    %rbx
  401e72:	5d                   	pop    %rbp
  401e73:	41 5c                	pop    %r12
  401e75:	41 5d                	pop    %r13
  401e77:	41 5e                	pop    %r14
  401e79:	41 5f                	pop    %r15
  401e7b:	c3                   	retq   
  401e7c:	0f 1f 40 00          	nopl   0x0(%rax)
  401e80:	ba 1a 00 00 00       	mov    $0x1a,%edx
  401e85:	be 6d 68 40 00       	mov    $0x40686d,%esi
  401e8a:	bf a0 81 60 00       	mov    $0x6081a0,%edi
  401e8f:	e8 7c f2 ff ff       	callq  401110 <_ZSt16__ostream_insertIcSt11char_traitsIcEERSt13basic_ostreamIT_T0_ES6_PKS3_l@plt>
  401e94:	8b 75 0c             	mov    0xc(%rbp),%esi
  401e97:	bf a0 81 60 00       	mov    $0x6081a0,%edi
  401e9c:	e8 4f f3 ff ff       	callq  4011f0 <_ZNSolsEi@plt>
  401ea1:	ba 06 00 00 00       	mov    $0x6,%edx
  401ea6:	be 66 68 40 00       	mov    $0x406866,%esi
  401eab:	48 89 c7             	mov    %rax,%rdi
  401eae:	48 89 c3             	mov    %rax,%rbx
  401eb1:	e8 5a f2 ff ff       	callq  401110 <_ZSt16__ostream_insertIcSt11char_traitsIcEERSt13basic_ostreamIT_T0_ES6_PKS3_l@plt>
  401eb6:	41 8b 75 0c          	mov    0xc(%r13),%esi
  401eba:	48 89 df             	mov    %rbx,%rdi
  401ebd:	e8 2e f3 ff ff       	callq  4011f0 <_ZNSolsEi@plt>
  401ec2:	49 89 c4             	mov    %rax,%r12
  401ec5:	48 8b 00             	mov    (%rax),%rax
  401ec8:	48 8b 40 e8          	mov    -0x18(%rax),%rax
  401ecc:	49 8b 9c 04 f0 00 00 	mov    0xf0(%r12,%rax,1),%rbx
  401ed3:	00 
  401ed4:	48 85 db             	test   %rbx,%rbx
  401ed7:	0f 84 49 04 00 00    	je     402326 <_Z13assert_equalsRK6MatrixS1_+0x566>
  401edd:	80 7b 38 00          	cmpb   $0x0,0x38(%rbx)
  401ee1:	0f 84 a8 02 00 00    	je     40218f <_Z13assert_equalsRK6MatrixS1_+0x3cf>
  401ee7:	0f be 73 43          	movsbl 0x43(%rbx),%esi
  401eeb:	4c 89 e7             	mov    %r12,%rdi
  401eee:	e8 6d f1 ff ff       	callq  401060 <_ZNSo3putEc@plt>
  401ef3:	48 89 c7             	mov    %rax,%rdi
  401ef6:	e8 b5 f1 ff ff       	callq  4010b0 <_ZNSo5flushEv@plt>
  401efb:	8b 45 08             	mov    0x8(%rbp),%eax
  401efe:	85 c0                	test   %eax,%eax
  401f00:	0f 8e aa 00 00 00    	jle    401fb0 <_Z13assert_equalsRK6MatrixS1_+0x1f0>
  401f06:	8b 45 0c             	mov    0xc(%rbp),%eax
  401f09:	45 31 ff             	xor    %r15d,%r15d
  401f0c:	e9 e5 fe ff ff       	jmpq   401df6 <_Z13assert_equalsRK6MatrixS1_+0x36>
  401f11:	0f 1f 80 00 00 00 00 	nopl   0x0(%rax)
  401f18:	ba 17 00 00 00       	mov    $0x17,%edx
  401f1d:	be 4e 68 40 00       	mov    $0x40684e,%esi
  401f22:	bf a0 81 60 00       	mov    $0x6081a0,%edi
  401f27:	e8 e4 f1 ff ff       	callq  401110 <_ZSt16__ostream_insertIcSt11char_traitsIcEERSt13basic_ostreamIT_T0_ES6_PKS3_l@plt>
  401f2c:	8b 75 08             	mov    0x8(%rbp),%esi
  401f2f:	bf a0 81 60 00       	mov    $0x6081a0,%edi
  401f34:	e8 b7 f2 ff ff       	callq  4011f0 <_ZNSolsEi@plt>
  401f39:	ba 06 00 00 00       	mov    $0x6,%edx
  401f3e:	be 66 68 40 00       	mov    $0x406866,%esi
  401f43:	48 89 c7             	mov    %rax,%rdi
  401f46:	48 89 c3             	mov    %rax,%rbx
  401f49:	e8 c2 f1 ff ff       	callq  401110 <_ZSt16__ostream_insertIcSt11char_traitsIcEERSt13basic_ostreamIT_T0_ES6_PKS3_l@plt>
  401f4e:	41 8b 75 08          	mov    0x8(%r13),%esi
  401f52:	48 89 df             	mov    %rbx,%rdi
  401f55:	e8 96 f2 ff ff       	callq  4011f0 <_ZNSolsEi@plt>
  401f5a:	49 89 c4             	mov    %rax,%r12
  401f5d:	48 8b 00             	mov    (%rax),%rax
  401f60:	48 8b 40 e8          	mov    -0x18(%rax),%rax
  401f64:	49 8b 9c 04 f0 00 00 	mov    0xf0(%r12,%rax,1),%rbx
  401f6b:	00 
  401f6c:	48 85 db             	test   %rbx,%rbx
  401f6f:	0f 84 b1 03 00 00    	je     402326 <_Z13assert_equalsRK6MatrixS1_+0x566>
  401f75:	80 7b 38 00          	cmpb   $0x0,0x38(%rbx)
  401f79:	0f 84 3d 02 00 00    	je     4021bc <_Z13assert_equalsRK6MatrixS1_+0x3fc>
  401f7f:	0f be 73 43          	movsbl 0x43(%rbx),%esi
  401f83:	4c 89 e7             	mov    %r12,%rdi
  401f86:	e8 d5 f0 ff ff       	callq  401060 <_ZNSo3putEc@plt>
  401f8b:	48 89 c7             	mov    %rax,%rdi
  401f8e:	e8 1d f1 ff ff       	callq  4010b0 <_ZNSo5flushEv@plt>
  401f93:	8b 45 0c             	mov    0xc(%rbp),%eax
  401f96:	41 3b 45 0c          	cmp    0xc(%r13),%eax
  401f9a:	0f 85 e0 fe ff ff    	jne    401e80 <_Z13assert_equalsRK6MatrixS1_+0xc0>
  401fa0:	8b 55 08             	mov    0x8(%rbp),%edx
  401fa3:	85 d2                	test   %edx,%edx
  401fa5:	0f 8f 5e ff ff ff    	jg     401f09 <_Z13assert_equalsRK6MatrixS1_+0x149>
  401fab:	0f 1f 44 00 00       	nopl   0x0(%rax,%rax,1)
  401fb0:	48 8b 05 e9 61 20 00 	mov    0x2061e9(%rip),%rax        # 6081a0 <_ZSt4cout@@GLIBCXX_3.4>
  401fb7:	48 8b 40 e8          	mov    -0x18(%rax),%rax
  401fbb:	48 8b 98 90 82 60 00 	mov    0x608290(%rax),%rbx
  401fc2:	48 85 db             	test   %rbx,%rbx
  401fc5:	0f 84 5b 03 00 00    	je     402326 <_Z13assert_equalsRK6MatrixS1_+0x566>
  401fcb:	80 7b 38 00          	cmpb   $0x0,0x38(%rbx)
  401fcf:	0f 84 14 02 00 00    	je     4021e9 <_Z13assert_equalsRK6MatrixS1_+0x429>
  401fd5:	0f be 73 43          	movsbl 0x43(%rbx),%esi
  401fd9:	bf a0 81 60 00       	mov    $0x6081a0,%edi
  401fde:	e8 7d f0 ff ff       	callq  401060 <_ZNSo3putEc@plt>
  401fe3:	48 89 c7             	mov    %rax,%rdi
  401fe6:	e8 c5 f0 ff ff       	callq  4010b0 <_ZNSo5flushEv@plt>
  401feb:	49 89 c4             	mov    %rax,%r12
  401fee:	48 8b 00             	mov    (%rax),%rax
  401ff1:	48 8b 40 e8          	mov    -0x18(%rax),%rax
  401ff5:	49 8b 9c 04 f0 00 00 	mov    0xf0(%r12,%rax,1),%rbx
  401ffc:	00 
  401ffd:	48 85 db             	test   %rbx,%rbx
  402000:	0f 84 20 03 00 00    	je     402326 <_Z13assert_equalsRK6MatrixS1_+0x566>
  402006:	80 7b 38 00          	cmpb   $0x0,0x38(%rbx)
  40200a:	0f 84 06 02 00 00    	je     402216 <_Z13assert_equalsRK6MatrixS1_+0x456>
  402010:	0f be 73 43          	movsbl 0x43(%rbx),%esi
  402014:	4c 89 e7             	mov    %r12,%rdi
  402017:	e8 44 f0 ff ff       	callq  401060 <_ZNSo3putEc@plt>
  40201c:	48 89 c7             	mov    %rax,%rdi
  40201f:	e8 8c f0 ff ff       	callq  4010b0 <_ZNSo5flushEv@plt>
  402024:	ba 09 00 00 00       	mov    $0x9,%edx
  402029:	48 89 c3             	mov    %rax,%rbx
  40202c:	be 88 68 40 00       	mov    $0x406888,%esi
  402031:	48 89 c7             	mov    %rax,%rdi
  402034:	e8 d7 f0 ff ff       	callq  401110 <_ZSt16__ostream_insertIcSt11char_traitsIcEERSt13basic_ostreamIT_T0_ES6_PKS3_l@plt>
  402039:	48 8b 03             	mov    (%rbx),%rax
  40203c:	48 8b 40 e8          	mov    -0x18(%rax),%rax
  402040:	4c 8b a4 03 f0 00 00 	mov    0xf0(%rbx,%rax,1),%r12
  402047:	00 
  402048:	4d 85 e4             	test   %r12,%r12
  40204b:	0f 84 d5 02 00 00    	je     402326 <_Z13assert_equalsRK6MatrixS1_+0x566>
  402051:	41 80 7c 24 38 00    	cmpb   $0x0,0x38(%r12)
  402057:	0f 84 e6 01 00 00    	je     402243 <_Z13assert_equalsRK6MatrixS1_+0x483>
  40205d:	41 0f be 74 24 43    	movsbl 0x43(%r12),%esi
  402063:	48 89 df             	mov    %rbx,%rdi
  402066:	e8 f5 ef ff ff       	callq  401060 <_ZNSo3putEc@plt>
  40206b:	48 89 c7             	mov    %rax,%rdi
  40206e:	e8 3d f0 ff ff       	callq  4010b0 <_ZNSo5flushEv@plt>
  402073:	48 89 ee             	mov    %rbp,%rsi
  402076:	48 89 c7             	mov    %rax,%rdi
  402079:	e8 32 fc ff ff       	callq  401cb0 <_ZlsRSoRK6Matrix>
  40207e:	48 8b 05 1b 61 20 00 	mov    0x20611b(%rip),%rax        # 6081a0 <_ZSt4cout@@GLIBCXX_3.4>
  402085:	48 8b 40 e8          	mov    -0x18(%rax),%rax
  402089:	48 8b 98 90 82 60 00 	mov    0x608290(%rax),%rbx
  402090:	48 85 db             	test   %rbx,%rbx
  402093:	0f 84 8d 02 00 00    	je     402326 <_Z13assert_equalsRK6MatrixS1_+0x566>
  402099:	80 7b 38 00          	cmpb   $0x0,0x38(%rbx)
  40209d:	0f 84 56 02 00 00    	je     4022f9 <_Z13assert_equalsRK6MatrixS1_+0x539>
  4020a3:	0f be 73 43          	movsbl 0x43(%rbx),%esi
  4020a7:	bf a0 81 60 00       	mov    $0x6081a0,%edi
  4020ac:	e8 af ef ff ff       	callq  401060 <_ZNSo3putEc@plt>
  4020b1:	48 89 c7             	mov    %rax,%rdi
  4020b4:	e8 f7 ef ff ff       	callq  4010b0 <_ZNSo5flushEv@plt>
  4020b9:	48 89 c5             	mov    %rax,%rbp
  4020bc:	48 8b 00             	mov    (%rax),%rax
  4020bf:	48 8b 40 e8          	mov    -0x18(%rax),%rax
  4020c3:	48 8b 9c 05 f0 00 00 	mov    0xf0(%rbp,%rax,1),%rbx
  4020ca:	00 
  4020cb:	48 85 db             	test   %rbx,%rbx
  4020ce:	0f 84 52 02 00 00    	je     402326 <_Z13assert_equalsRK6MatrixS1_+0x566>
  4020d4:	80 7b 38 00          	cmpb   $0x0,0x38(%rbx)
  4020d8:	0f 84 ee 01 00 00    	je     4022cc <_Z13assert_equalsRK6MatrixS1_+0x50c>
  4020de:	0f be 73 43          	movsbl 0x43(%rbx),%esi
  4020e2:	48 89 ef             	mov    %rbp,%rdi
  4020e5:	e8 76 ef ff ff       	callq  401060 <_ZNSo3putEc@plt>
  4020ea:	48 89 c7             	mov    %rax,%rdi
  4020ed:	e8 be ef ff ff       	callq  4010b0 <_ZNSo5flushEv@plt>
  4020f2:	ba 07 00 00 00       	mov    $0x7,%edx
  4020f7:	48 89 c3             	mov    %rax,%rbx
  4020fa:	be 92 68 40 00       	mov    $0x406892,%esi
  4020ff:	48 89 c7             	mov    %rax,%rdi
  402102:	e8 09 f0 ff ff       	callq  401110 <_ZSt16__ostream_insertIcSt11char_traitsIcEERSt13basic_ostreamIT_T0_ES6_PKS3_l@plt>
  402107:	48 8b 03             	mov    (%rbx),%rax
  40210a:	48 8b 40 e8          	mov    -0x18(%rax),%rax
  40210e:	48 8b ac 03 f0 00 00 	mov    0xf0(%rbx,%rax,1),%rbp
  402115:	00 
  402116:	48 85 ed             	test   %rbp,%rbp
  402119:	0f 84 07 02 00 00    	je     402326 <_Z13assert_equalsRK6MatrixS1_+0x566>
  40211f:	80 7d 38 00          	cmpb   $0x0,0x38(%rbp)
  402123:	0f 84 75 01 00 00    	je     40229e <_Z13assert_equalsRK6MatrixS1_+0x4de>
  402129:	0f be 75 43          	movsbl 0x43(%rbp),%esi
  40212d:	48 89 df             	mov    %rbx,%rdi
  402130:	e8 2b ef ff ff       	callq  401060 <_ZNSo3putEc@plt>
  402135:	48 89 c7             	mov    %rax,%rdi
  402138:	e8 73 ef ff ff       	callq  4010b0 <_ZNSo5flushEv@plt>
  40213d:	4c 89 ee             	mov    %r13,%rsi
  402140:	48 89 c7             	mov    %rax,%rdi
  402143:	e8 68 fb ff ff       	callq  401cb0 <_ZlsRSoRK6Matrix>
  402148:	48 89 c5             	mov    %rax,%rbp
  40214b:	48 8b 00             	mov    (%rax),%rax
  40214e:	48 8b 40 e8          	mov    -0x18(%rax),%rax
  402152:	48 8b 9c 05 f0 00 00 	mov    0xf0(%rbp,%rax,1),%rbx
  402159:	00 
  40215a:	48 85 db             	test   %rbx,%rbx
  40215d:	0f 84 c3 01 00 00    	je     402326 <_Z13assert_equalsRK6MatrixS1_+0x566>
  402163:	80 7b 38 00          	cmpb   $0x0,0x38(%rbx)
  402167:	0f 84 04 01 00 00    	je     402271 <_Z13assert_equalsRK6MatrixS1_+0x4b1>
  40216d:	0f be 73 43          	movsbl 0x43(%rbx),%esi
  402171:	48 89 ef             	mov    %rbp,%rdi
  402174:	e8 e7 ee ff ff       	callq  401060 <_ZNSo3putEc@plt>
  402179:	48 83 c4 18          	add    $0x18,%rsp
  40217d:	48 89 c7             	mov    %rax,%rdi
  402180:	5b                   	pop    %rbx
  402181:	5d                   	pop    %rbp
  402182:	41 5c                	pop    %r12
  402184:	41 5d                	pop    %r13
  402186:	41 5e                	pop    %r14
  402188:	41 5f                	pop    %r15
  40218a:	e9 21 ef ff ff       	jmpq   4010b0 <_ZNSo5flushEv@plt>
  40218f:	48 89 df             	mov    %rbx,%rdi
  402192:	e8 89 ef ff ff       	callq  401120 <_ZNKSt5ctypeIcE13_M_widen_initEv@plt>
  402197:	48 8b 03             	mov    (%rbx),%rax
  40219a:	be 0a 00 00 00       	mov    $0xa,%esi
  40219f:	48 8b 40 30          	mov    0x30(%rax),%rax
  4021a3:	48 3d f0 65 40 00    	cmp    $0x4065f0,%rax
  4021a9:	0f 84 3c fd ff ff    	je     401eeb <_Z13assert_equalsRK6MatrixS1_+0x12b>
  4021af:	48 89 df             	mov    %rbx,%rdi
  4021b2:	ff d0                	callq  *%rax
  4021b4:	0f be f0             	movsbl %al,%esi
  4021b7:	e9 2f fd ff ff       	jmpq   401eeb <_Z13assert_equalsRK6MatrixS1_+0x12b>
  4021bc:	48 89 df             	mov    %rbx,%rdi
  4021bf:	e8 5c ef ff ff       	callq  401120 <_ZNKSt5ctypeIcE13_M_widen_initEv@plt>
  4021c4:	48 8b 03             	mov    (%rbx),%rax
  4021c7:	be 0a 00 00 00       	mov    $0xa,%esi
  4021cc:	48 8b 40 30          	mov    0x30(%rax),%rax
  4021d0:	48 3d f0 65 40 00    	cmp    $0x4065f0,%rax
  4021d6:	0f 84 a7 fd ff ff    	je     401f83 <_Z13assert_equalsRK6MatrixS1_+0x1c3>
  4021dc:	48 89 df             	mov    %rbx,%rdi
  4021df:	ff d0                	callq  *%rax
  4021e1:	0f be f0             	movsbl %al,%esi
  4021e4:	e9 9a fd ff ff       	jmpq   401f83 <_Z13assert_equalsRK6MatrixS1_+0x1c3>
  4021e9:	48 89 df             	mov    %rbx,%rdi
  4021ec:	e8 2f ef ff ff       	callq  401120 <_ZNKSt5ctypeIcE13_M_widen_initEv@plt>
  4021f1:	48 8b 03             	mov    (%rbx),%rax
  4021f4:	be 0a 00 00 00       	mov    $0xa,%esi
  4021f9:	48 8b 40 30          	mov    0x30(%rax),%rax
  4021fd:	48 3d f0 65 40 00    	cmp    $0x4065f0,%rax
  402203:	0f 84 d0 fd ff ff    	je     401fd9 <_Z13assert_equalsRK6MatrixS1_+0x219>
  402209:	48 89 df             	mov    %rbx,%rdi
  40220c:	ff d0                	callq  *%rax
  40220e:	0f be f0             	movsbl %al,%esi
  402211:	e9 c3 fd ff ff       	jmpq   401fd9 <_Z13assert_equalsRK6MatrixS1_+0x219>
  402216:	48 89 df             	mov    %rbx,%rdi
  402219:	e8 02 ef ff ff       	callq  401120 <_ZNKSt5ctypeIcE13_M_widen_initEv@plt>
  40221e:	48 8b 03             	mov    (%rbx),%rax
  402221:	be 0a 00 00 00       	mov    $0xa,%esi
  402226:	48 8b 40 30          	mov    0x30(%rax),%rax
  40222a:	48 3d f0 65 40 00    	cmp    $0x4065f0,%rax
  402230:	0f 84 de fd ff ff    	je     402014 <_Z13assert_equalsRK6MatrixS1_+0x254>
  402236:	48 89 df             	mov    %rbx,%rdi
  402239:	ff d0                	callq  *%rax
  40223b:	0f be f0             	movsbl %al,%esi
  40223e:	e9 d1 fd ff ff       	jmpq   402014 <_Z13assert_equalsRK6MatrixS1_+0x254>
  402243:	4c 89 e7             	mov    %r12,%rdi
  402246:	e8 d5 ee ff ff       	callq  401120 <_ZNKSt5ctypeIcE13_M_widen_initEv@plt>
  40224b:	49 8b 04 24          	mov    (%r12),%rax
  40224f:	be 0a 00 00 00       	mov    $0xa,%esi
  402254:	48 8b 40 30          	mov    0x30(%rax),%rax
  402258:	48 3d f0 65 40 00    	cmp    $0x4065f0,%rax
  40225e:	0f 84 ff fd ff ff    	je     402063 <_Z13assert_equalsRK6MatrixS1_+0x2a3>
  402264:	4c 89 e7             	mov    %r12,%rdi
  402267:	ff d0                	callq  *%rax
  402269:	0f be f0             	movsbl %al,%esi
  40226c:	e9 f2 fd ff ff       	jmpq   402063 <_Z13assert_equalsRK6MatrixS1_+0x2a3>
  402271:	48 89 df             	mov    %rbx,%rdi
  402274:	e8 a7 ee ff ff       	callq  401120 <_ZNKSt5ctypeIcE13_M_widen_initEv@plt>
  402279:	48 8b 03             	mov    (%rbx),%rax
  40227c:	be 0a 00 00 00       	mov    $0xa,%esi
  402281:	48 8b 40 30          	mov    0x30(%rax),%rax
  402285:	48 3d f0 65 40 00    	cmp    $0x4065f0,%rax
  40228b:	0f 84 e0 fe ff ff    	je     402171 <_Z13assert_equalsRK6MatrixS1_+0x3b1>
  402291:	48 89 df             	mov    %rbx,%rdi
  402294:	ff d0                	callq  *%rax
  402296:	0f be f0             	movsbl %al,%esi
  402299:	e9 d3 fe ff ff       	jmpq   402171 <_Z13assert_equalsRK6MatrixS1_+0x3b1>
  40229e:	48 89 ef             	mov    %rbp,%rdi
  4022a1:	e8 7a ee ff ff       	callq  401120 <_ZNKSt5ctypeIcE13_M_widen_initEv@plt>
  4022a6:	48 8b 45 00          	mov    0x0(%rbp),%rax
  4022aa:	be 0a 00 00 00       	mov    $0xa,%esi
  4022af:	48 8b 40 30          	mov    0x30(%rax),%rax
  4022b3:	48 3d f0 65 40 00    	cmp    $0x4065f0,%rax
  4022b9:	0f 84 6e fe ff ff    	je     40212d <_Z13assert_equalsRK6MatrixS1_+0x36d>
  4022bf:	48 89 ef             	mov    %rbp,%rdi
  4022c2:	ff d0                	callq  *%rax
  4022c4:	0f be f0             	movsbl %al,%esi
  4022c7:	e9 61 fe ff ff       	jmpq   40212d <_Z13assert_equalsRK6MatrixS1_+0x36d>
  4022cc:	48 89 df             	mov    %rbx,%rdi
  4022cf:	e8 4c ee ff ff       	callq  401120 <_ZNKSt5ctypeIcE13_M_widen_initEv@plt>
  4022d4:	48 8b 03             	mov    (%rbx),%rax
  4022d7:	be 0a 00 00 00       	mov    $0xa,%esi
  4022dc:	48 8b 40 30          	mov    0x30(%rax),%rax
  4022e0:	48 3d f0 65 40 00    	cmp    $0x4065f0,%rax
  4022e6:	0f 84 f6 fd ff ff    	je     4020e2 <_Z13assert_equalsRK6MatrixS1_+0x322>
  4022ec:	48 89 df             	mov    %rbx,%rdi
  4022ef:	ff d0                	callq  *%rax
  4022f1:	0f be f0             	movsbl %al,%esi
  4022f4:	e9 e9 fd ff ff       	jmpq   4020e2 <_Z13assert_equalsRK6MatrixS1_+0x322>
  4022f9:	48 89 df             	mov    %rbx,%rdi
  4022fc:	e8 1f ee ff ff       	callq  401120 <_ZNKSt5ctypeIcE13_M_widen_initEv@plt>
  402301:	48 8b 03             	mov    (%rbx),%rax
  402304:	be 0a 00 00 00       	mov    $0xa,%esi
  402309:	48 8b 40 30          	mov    0x30(%rax),%rax
  40230d:	48 3d f0 65 40 00    	cmp    $0x4065f0,%rax
  402313:	0f 84 8e fd ff ff    	je     4020a7 <_Z13assert_equalsRK6MatrixS1_+0x2e7>
  402319:	48 89 df             	mov    %rbx,%rdi
  40231c:	ff d0                	callq  *%rax
  40231e:	0f be f0             	movsbl %al,%esi
  402321:	e9 81 fd ff ff       	jmpq   4020a7 <_Z13assert_equalsRK6MatrixS1_+0x2e7>
  402326:	e8 25 ee ff ff       	callq  401150 <_ZSt16__throw_bad_castv@plt>
  40232b:	0f 1f 44 00 00       	nopl   0x0(%rax,%rax,1)

0000000000402330 <_Z4gemmRK6MatrixS1_RS_>:
  402330:	41 57                	push   %r15
  402332:	41 56                	push   %r14
  402334:	41 55                	push   %r13
  402336:	41 54                	push   %r12
  402338:	55                   	push   %rbp
  402339:	53                   	push   %rbx
  40233a:	48 83 ec 28          	sub    $0x28,%rsp
  40233e:	8b 42 0c             	mov    0xc(%rdx),%eax
  402341:	8b 4a 08             	mov    0x8(%rdx),%ecx
  402344:	8b 5f 0c             	mov    0xc(%rdi),%ebx
  402347:	85 c0                	test   %eax,%eax
  402349:	89 4c 24 14          	mov    %ecx,0x14(%rsp)
  40234d:	89 44 24 1c          	mov    %eax,0x1c(%rsp)
  402351:	89 5c 24 18          	mov    %ebx,0x18(%rsp)
  402355:	0f 8e 9d 00 00 00    	jle    4023f8 <_Z4gemmRK6MatrixS1_RS_+0xc8>
  40235b:	85 db                	test   %ebx,%ebx
  40235d:	0f 8e 95 00 00 00    	jle    4023f8 <_Z4gemmRK6MatrixS1_RS_+0xc8>
  402363:	85 c9                	test   %ecx,%ecx
  402365:	0f 8e 8d 00 00 00    	jle    4023f8 <_Z4gemmRK6MatrixS1_RS_+0xc8>
  40236b:	49 89 d7             	mov    %rdx,%r15
  40236e:	49 89 f6             	mov    %rsi,%r14
  402371:	49 89 fd             	mov    %rdi,%r13
  402374:	31 ed                	xor    %ebp,%ebp
  402376:	66 2e 0f 1f 84 00 00 	nopw   %cs:0x0(%rax,%rax,1)
  40237d:	00 00 00 
  402380:	45 31 e4             	xor    %r12d,%r12d
  402383:	0f 1f 44 00 00       	nopl   0x0(%rax,%rax,1)
  402388:	31 db                	xor    %ebx,%ebx
  40238a:	66 0f 1f 44 00 00    	nopw   0x0(%rax,%rax,1)
  402390:	49 8b 0f             	mov    (%r15),%rcx
  402393:	89 de                	mov    %ebx,%esi
  402395:	89 ea                	mov    %ebp,%edx
  402397:	4c 89 ff             	mov    %r15,%rdi
  40239a:	ff 11                	callq  *(%rcx)
  40239c:	49 8b 4d 00          	mov    0x0(%r13),%rcx
  4023a0:	89 de                	mov    %ebx,%esi
  4023a2:	44 89 e2             	mov    %r12d,%edx
  4023a5:	4c 89 ef             	mov    %r13,%rdi
  4023a8:	c5 fb 11 04 24       	vmovsd %xmm0,(%rsp)
  4023ad:	ff 11                	callq  *(%rcx)
  4023af:	49 8b 0e             	mov    (%r14),%rcx
  4023b2:	89 ea                	mov    %ebp,%edx
  4023b4:	44 89 e6             	mov    %r12d,%esi
  4023b7:	4c 89 f7             	mov    %r14,%rdi
  4023ba:	c5 fb 11 44 24 08    	vmovsd %xmm0,0x8(%rsp)
  4023c0:	ff 11                	callq  *(%rcx)
  4023c2:	49 8b 0f             	mov    (%r15),%rcx
  4023c5:	c5 fb 10 14 24       	vmovsd (%rsp),%xmm2
  4023ca:	89 de                	mov    %ebx,%esi
  4023cc:	89 ea                	mov    %ebp,%edx
  4023ce:	4c 89 ff             	mov    %r15,%rdi
  4023d1:	c4 e2 e9 99 44 24 08 	vfmadd132sd 0x8(%rsp),%xmm2,%xmm0
  4023d8:	83 c3 01             	add    $0x1,%ebx
  4023db:	ff 51 08             	callq  *0x8(%rcx)
  4023de:	39 5c 24 14          	cmp    %ebx,0x14(%rsp)
  4023e2:	75 ac                	jne    402390 <_Z4gemmRK6MatrixS1_RS_+0x60>
  4023e4:	41 83 c4 01          	add    $0x1,%r12d
  4023e8:	44 39 64 24 18       	cmp    %r12d,0x18(%rsp)
  4023ed:	75 99                	jne    402388 <_Z4gemmRK6MatrixS1_RS_+0x58>
  4023ef:	83 c5 01             	add    $0x1,%ebp
  4023f2:	39 6c 24 1c          	cmp    %ebp,0x1c(%rsp)
  4023f6:	75 88                	jne    402380 <_Z4gemmRK6MatrixS1_RS_+0x50>
  4023f8:	48 83 c4 28          	add    $0x28,%rsp
  4023fc:	5b                   	pop    %rbx
  4023fd:	5d                   	pop    %rbp
  4023fe:	41 5c                	pop    %r12
  402400:	41 5d                	pop    %r13
  402402:	41 5e                	pop    %r14
  402404:	41 5f                	pop    %r15
  402406:	c3                   	retq   
  402407:	66 0f 1f 84 00 00 00 	nopw   0x0(%rax,%rax,1)
  40240e:	00 00 

0000000000402410 <_ZlsRSoRK12SparseMatrix>:
  402410:	41 54                	push   %r12
  402412:	55                   	push   %rbp
  402413:	49 89 fc             	mov    %rdi,%r12
  402416:	53                   	push   %rbx
  402417:	8b 46 10             	mov    0x10(%rsi),%eax
  40241a:	85 c0                	test   %eax,%eax
  40241c:	7e 39                	jle    402457 <_ZlsRSoRK12SparseMatrix+0x47>
  40241e:	48 89 f5             	mov    %rsi,%rbp
  402421:	31 db                	xor    %ebx,%ebx
  402423:	0f 1f 44 00 00       	nopl   0x0(%rax,%rax,1)
  402428:	48 8b 45 18          	mov    0x18(%rbp),%rax
  40242c:	4c 89 e7             	mov    %r12,%rdi
  40242f:	c5 fb 10 04 d8       	vmovsd (%rax,%rbx,8),%xmm0
  402434:	e8 77 ed ff ff       	callq  4011b0 <_ZNSo9_M_insertIdEERSoT_@plt>
  402439:	ba 01 00 00 00       	mov    $0x1,%edx
  40243e:	be e8 68 40 00       	mov    $0x4068e8,%esi
  402443:	48 89 c7             	mov    %rax,%rdi
  402446:	e8 c5 ec ff ff       	callq  401110 <_ZSt16__ostream_insertIcSt11char_traitsIcEERSt13basic_ostreamIT_T0_ES6_PKS3_l@plt>
  40244b:	8d 43 01             	lea    0x1(%rbx),%eax
  40244e:	48 83 c3 01          	add    $0x1,%rbx
  402452:	39 45 10             	cmp    %eax,0x10(%rbp)
  402455:	7f d1                	jg     402428 <_ZlsRSoRK12SparseMatrix+0x18>
  402457:	4c 89 e0             	mov    %r12,%rax
  40245a:	5b                   	pop    %rbx
  40245b:	5d                   	pop    %rbp
  40245c:	41 5c                	pop    %r12
  40245e:	c3                   	retq   
  40245f:	90                   	nop

0000000000402460 <_Z9microsecs8timespecS_>:
  402460:	48 29 fa             	sub    %rdi,%rdx
  402463:	c5 f9 57 c0          	vxorpd %xmm0,%xmm0,%xmm0
  402467:	48 69 d2 00 ca 9a 3b 	imul   $0x3b9aca00,%rdx,%rdx
  40246e:	48 01 d1             	add    %rdx,%rcx
  402471:	48 29 f1             	sub    %rsi,%rcx
  402474:	c4 e1 fb 2a c1       	vcvtsi2sd %rcx,%xmm0,%xmm0
  402479:	c5 fb 59 05 87 45 00 	vmulsd 0x4587(%rip),%xmm0,%xmm0        # 406a08 <_ZTV11DenseMatrix+0x38>
  402480:	00 
  402481:	c3                   	retq   
  402482:	0f 1f 40 00          	nopl   0x0(%rax)
  402486:	66 2e 0f 1f 84 00 00 	nopw   %cs:0x0(%rax,%rax,1)
  40248d:	00 00 00 

0000000000402490 <_Z6cyclesl>:
  402490:	b8 16 00 00 00       	mov    $0x16,%eax
  402495:	c3                   	retq   
  402496:	66 2e 0f 1f 84 00 00 	nopw   %cs:0x0(%rax,%rax,1)
  40249d:	00 00 00 

00000000004024a0 <_Z6gflopslli>:
  4024a0:	b8 16 00 00 00       	mov    $0x16,%eax
  4024a5:	c3                   	retq   
  4024a6:	66 2e 0f 1f 84 00 00 	nopw   %cs:0x0(%rax,%rax,1)
  4024ad:	00 00 00 

00000000004024b0 <_Z25jump_penalty_2_20_libxsmmPKdS0_Pd>:
  4024b0:	41 57                	push   %r15
  4024b2:	41 56                	push   %r14
  4024b4:	41 55                	push   %r13
  4024b6:	41 54                	push   %r12
  4024b8:	53                   	push   %rbx
  4024b9:	48 89 7c 24 f8       	mov    %rdi,-0x8(%rsp)
  4024be:	48 89 74 24 f0       	mov    %rsi,-0x10(%rsp)
  4024c3:	48 89 54 24 e8       	mov    %rdx,-0x18(%rsp)
  4024c8:	48 8b 7c 24 f8       	mov    -0x8(%rsp),%rdi
  4024cd:	48 8b 74 24 f0       	mov    -0x10(%rsp),%rsi
  4024d2:	48 8b 54 24 e8       	mov    -0x18(%rsp),%rdx
  4024d7:	49 c7 c4 00 00 00 00 	mov    $0x0,%r12
  4024de:	49 c7 c5 00 00 00 00 	mov    $0x0,%r13
  4024e5:	49 c7 c6 00 00 00 00 	mov    $0x0,%r14
  4024ec:	49 83 c5 10          	add    $0x10,%r13
  4024f0:	49 c7 c4 00 00 00 00 	mov    $0x0,%r12
  4024f7:	49 83 c4 08          	add    $0x8,%r12
  4024fb:	62 e1 fd 48 28 02    	vmovapd (%rdx),%zmm16
  402501:	62 e1 fd 48 28 4a 04 	vmovapd 0x100(%rdx),%zmm17
  402508:	62 e1 fd 48 28 52 08 	vmovapd 0x200(%rdx),%zmm18
  40250f:	62 e1 fd 48 28 5a 0c 	vmovapd 0x300(%rdx),%zmm19
  402516:	62 e1 fd 48 28 62 10 	vmovapd 0x400(%rdx),%zmm20
  40251d:	62 e1 fd 48 28 6a 14 	vmovapd 0x500(%rdx),%zmm21
  402524:	62 e1 fd 48 28 72 18 	vmovapd 0x600(%rdx),%zmm22
  40252b:	62 e1 fd 48 28 7a 1c 	vmovapd 0x700(%rdx),%zmm23
  402532:	62 61 fd 48 28 42 20 	vmovapd 0x800(%rdx),%zmm24
  402539:	62 61 fd 48 28 4a 24 	vmovapd 0x900(%rdx),%zmm25
  402540:	62 61 fd 48 28 52 28 	vmovapd 0xa00(%rdx),%zmm26
  402547:	62 61 fd 48 28 5a 2c 	vmovapd 0xb00(%rdx),%zmm27
  40254e:	62 61 fd 48 28 62 30 	vmovapd 0xc00(%rdx),%zmm28
  402555:	62 61 fd 48 28 6a 34 	vmovapd 0xd00(%rdx),%zmm29
  40255c:	62 61 fd 48 28 72 38 	vmovapd 0xe00(%rdx),%zmm30
  402563:	62 61 fd 48 28 7a 3c 	vmovapd 0xf00(%rdx),%zmm31
  40256a:	49 c7 c7 80 01 00 00 	mov    $0x180,%r15
  402571:	48 c7 c0 80 04 00 00 	mov    $0x480,%rax
  402578:	48 c7 c3 80 07 00 00 	mov    $0x780,%rbx
  40257f:	49 c7 c3 80 0a 00 00 	mov    $0xa80,%r11
  402586:	49 89 f2             	mov    %rsi,%r10
  402589:	49 81 c2 80 0d 00 00 	add    $0xd80,%r10
  402590:	62 f1 fd 48 28 07    	vmovapd (%rdi),%zmm0
  402596:	62 f1 fd 48 28 4f 04 	vmovapd 0x100(%rdi),%zmm1
  40259d:	62 e2 fd 58 b8 06    	vfmadd231pd (%rsi){1to8},%zmm0,%zmm16
  4025a3:	62 a2 fd 58 b8 0c 3e 	vfmadd231pd (%rsi,%r15,1){1to8},%zmm0,%zmm17
  4025aa:	62 a2 fd 58 b8 14 7e 	vfmadd231pd (%rsi,%r15,2){1to8},%zmm0,%zmm18
  4025b1:	62 e2 fd 58 b8 1c 06 	vfmadd231pd (%rsi,%rax,1){1to8},%zmm0,%zmm19
  4025b8:	62 a2 fd 58 b8 24 be 	vfmadd231pd (%rsi,%r15,4){1to8},%zmm0,%zmm20
  4025bf:	62 e2 fd 58 b8 2c 1e 	vfmadd231pd (%rsi,%rbx,1){1to8},%zmm0,%zmm21
  4025c6:	62 e2 fd 58 b8 34 46 	vfmadd231pd (%rsi,%rax,2){1to8},%zmm0,%zmm22
  4025cd:	62 a2 fd 58 b8 3c 1e 	vfmadd231pd (%rsi,%r11,1){1to8},%zmm0,%zmm23
  4025d4:	62 22 fd 58 b8 04 fe 	vfmadd231pd (%rsi,%r15,8){1to8},%zmm0,%zmm24
  4025db:	62 42 fd 58 b8 0a    	vfmadd231pd (%r10){1to8},%zmm0,%zmm25
  4025e1:	62 02 fd 58 b8 14 3a 	vfmadd231pd (%r10,%r15,1){1to8},%zmm0,%zmm26
  4025e8:	62 02 fd 58 b8 1c 7a 	vfmadd231pd (%r10,%r15,2){1to8},%zmm0,%zmm27
  4025ef:	62 42 fd 58 b8 24 02 	vfmadd231pd (%r10,%rax,1){1to8},%zmm0,%zmm28
  4025f6:	62 02 fd 58 b8 2c ba 	vfmadd231pd (%r10,%r15,4){1to8},%zmm0,%zmm29
  4025fd:	62 42 fd 58 b8 34 1a 	vfmadd231pd (%r10,%rbx,1){1to8},%zmm0,%zmm30
  402604:	62 42 fd 58 b8 3c 42 	vfmadd231pd (%r10,%rax,2){1to8},%zmm0,%zmm31
  40260b:	62 f1 fd 48 28 47 08 	vmovapd 0x200(%rdi),%zmm0
  402612:	62 e2 f5 58 b8 46 01 	vfmadd231pd 0x8(%rsi){1to8},%zmm1,%zmm16
  402619:	62 a2 f5 58 b8 4c 3e 	vfmadd231pd 0x8(%rsi,%r15,1){1to8},%zmm1,%zmm17
  402620:	01 
  402621:	62 a2 f5 58 b8 54 7e 	vfmadd231pd 0x8(%rsi,%r15,2){1to8},%zmm1,%zmm18
  402628:	01 
  402629:	62 e2 f5 58 b8 5c 06 	vfmadd231pd 0x8(%rsi,%rax,1){1to8},%zmm1,%zmm19
  402630:	01 
  402631:	62 a2 f5 58 b8 64 be 	vfmadd231pd 0x8(%rsi,%r15,4){1to8},%zmm1,%zmm20
  402638:	01 
  402639:	62 e2 f5 58 b8 6c 1e 	vfmadd231pd 0x8(%rsi,%rbx,1){1to8},%zmm1,%zmm21
  402640:	01 
  402641:	62 e2 f5 58 b8 74 46 	vfmadd231pd 0x8(%rsi,%rax,2){1to8},%zmm1,%zmm22
  402648:	01 
  402649:	62 a2 f5 58 b8 7c 1e 	vfmadd231pd 0x8(%rsi,%r11,1){1to8},%zmm1,%zmm23
  402650:	01 
  402651:	62 22 f5 58 b8 44 fe 	vfmadd231pd 0x8(%rsi,%r15,8){1to8},%zmm1,%zmm24
  402658:	01 
  402659:	62 42 f5 58 b8 4a 01 	vfmadd231pd 0x8(%r10){1to8},%zmm1,%zmm25
  402660:	62 02 f5 58 b8 54 3a 	vfmadd231pd 0x8(%r10,%r15,1){1to8},%zmm1,%zmm26
  402667:	01 
  402668:	62 02 f5 58 b8 5c 7a 	vfmadd231pd 0x8(%r10,%r15,2){1to8},%zmm1,%zmm27
  40266f:	01 
  402670:	62 42 f5 58 b8 64 02 	vfmadd231pd 0x8(%r10,%rax,1){1to8},%zmm1,%zmm28
  402677:	01 
  402678:	62 02 f5 58 b8 6c ba 	vfmadd231pd 0x8(%r10,%r15,4){1to8},%zmm1,%zmm29
  40267f:	01 
  402680:	62 42 f5 58 b8 74 1a 	vfmadd231pd 0x8(%r10,%rbx,1){1to8},%zmm1,%zmm30
  402687:	01 
  402688:	62 42 f5 58 b8 7c 42 	vfmadd231pd 0x8(%r10,%rax,2){1to8},%zmm1,%zmm31
  40268f:	01 
  402690:	62 f1 fd 48 28 4f 0c 	vmovapd 0x300(%rdi),%zmm1
  402697:	62 e2 fd 58 b8 46 02 	vfmadd231pd 0x10(%rsi){1to8},%zmm0,%zmm16
  40269e:	62 a2 fd 58 b8 4c 3e 	vfmadd231pd 0x10(%rsi,%r15,1){1to8},%zmm0,%zmm17
  4026a5:	02 
  4026a6:	62 a2 fd 58 b8 54 7e 	vfmadd231pd 0x10(%rsi,%r15,2){1to8},%zmm0,%zmm18
  4026ad:	02 
  4026ae:	62 e2 fd 58 b8 5c 06 	vfmadd231pd 0x10(%rsi,%rax,1){1to8},%zmm0,%zmm19
  4026b5:	02 
  4026b6:	62 a2 fd 58 b8 64 be 	vfmadd231pd 0x10(%rsi,%r15,4){1to8},%zmm0,%zmm20
  4026bd:	02 
  4026be:	62 e2 fd 58 b8 6c 1e 	vfmadd231pd 0x10(%rsi,%rbx,1){1to8},%zmm0,%zmm21
  4026c5:	02 
  4026c6:	62 e2 fd 58 b8 74 46 	vfmadd231pd 0x10(%rsi,%rax,2){1to8},%zmm0,%zmm22
  4026cd:	02 
  4026ce:	62 a2 fd 58 b8 7c 1e 	vfmadd231pd 0x10(%rsi,%r11,1){1to8},%zmm0,%zmm23
  4026d5:	02 
  4026d6:	62 22 fd 58 b8 44 fe 	vfmadd231pd 0x10(%rsi,%r15,8){1to8},%zmm0,%zmm24
  4026dd:	02 
  4026de:	62 42 fd 58 b8 4a 02 	vfmadd231pd 0x10(%r10){1to8},%zmm0,%zmm25
  4026e5:	62 02 fd 58 b8 54 3a 	vfmadd231pd 0x10(%r10,%r15,1){1to8},%zmm0,%zmm26
  4026ec:	02 
  4026ed:	62 02 fd 58 b8 5c 7a 	vfmadd231pd 0x10(%r10,%r15,2){1to8},%zmm0,%zmm27
  4026f4:	02 
  4026f5:	62 42 fd 58 b8 64 02 	vfmadd231pd 0x10(%r10,%rax,1){1to8},%zmm0,%zmm28
  4026fc:	02 
  4026fd:	62 02 fd 58 b8 6c ba 	vfmadd231pd 0x10(%r10,%r15,4){1to8},%zmm0,%zmm29
  402704:	02 
  402705:	62 42 fd 58 b8 74 1a 	vfmadd231pd 0x10(%r10,%rbx,1){1to8},%zmm0,%zmm30
  40270c:	02 
  40270d:	62 42 fd 58 b8 7c 42 	vfmadd231pd 0x10(%r10,%rax,2){1to8},%zmm0,%zmm31
  402714:	02 
  402715:	62 f1 fd 48 28 47 10 	vmovapd 0x400(%rdi),%zmm0
  40271c:	62 e2 f5 58 b8 46 03 	vfmadd231pd 0x18(%rsi){1to8},%zmm1,%zmm16
  402723:	62 a2 f5 58 b8 4c 3e 	vfmadd231pd 0x18(%rsi,%r15,1){1to8},%zmm1,%zmm17
  40272a:	03 
  40272b:	62 a2 f5 58 b8 54 7e 	vfmadd231pd 0x18(%rsi,%r15,2){1to8},%zmm1,%zmm18
  402732:	03 
  402733:	62 e2 f5 58 b8 5c 06 	vfmadd231pd 0x18(%rsi,%rax,1){1to8},%zmm1,%zmm19
  40273a:	03 
  40273b:	62 a2 f5 58 b8 64 be 	vfmadd231pd 0x18(%rsi,%r15,4){1to8},%zmm1,%zmm20
  402742:	03 
  402743:	62 e2 f5 58 b8 6c 1e 	vfmadd231pd 0x18(%rsi,%rbx,1){1to8},%zmm1,%zmm21
  40274a:	03 
  40274b:	62 e2 f5 58 b8 74 46 	vfmadd231pd 0x18(%rsi,%rax,2){1to8},%zmm1,%zmm22
  402752:	03 
  402753:	62 a2 f5 58 b8 7c 1e 	vfmadd231pd 0x18(%rsi,%r11,1){1to8},%zmm1,%zmm23
  40275a:	03 
  40275b:	62 22 f5 58 b8 44 fe 	vfmadd231pd 0x18(%rsi,%r15,8){1to8},%zmm1,%zmm24
  402762:	03 
  402763:	62 42 f5 58 b8 4a 03 	vfmadd231pd 0x18(%r10){1to8},%zmm1,%zmm25
  40276a:	62 02 f5 58 b8 54 3a 	vfmadd231pd 0x18(%r10,%r15,1){1to8},%zmm1,%zmm26
  402771:	03 
  402772:	62 02 f5 58 b8 5c 7a 	vfmadd231pd 0x18(%r10,%r15,2){1to8},%zmm1,%zmm27
  402779:	03 
  40277a:	62 42 f5 58 b8 64 02 	vfmadd231pd 0x18(%r10,%rax,1){1to8},%zmm1,%zmm28
  402781:	03 
  402782:	62 02 f5 58 b8 6c ba 	vfmadd231pd 0x18(%r10,%r15,4){1to8},%zmm1,%zmm29
  402789:	03 
  40278a:	62 42 f5 58 b8 74 1a 	vfmadd231pd 0x18(%r10,%rbx,1){1to8},%zmm1,%zmm30
  402791:	03 
  402792:	62 42 f5 58 b8 7c 42 	vfmadd231pd 0x18(%r10,%rax,2){1to8},%zmm1,%zmm31
  402799:	03 
  40279a:	62 f1 fd 48 28 4f 14 	vmovapd 0x500(%rdi),%zmm1
  4027a1:	62 e2 fd 58 b8 46 04 	vfmadd231pd 0x20(%rsi){1to8},%zmm0,%zmm16
  4027a8:	62 a2 fd 58 b8 4c 3e 	vfmadd231pd 0x20(%rsi,%r15,1){1to8},%zmm0,%zmm17
  4027af:	04 
  4027b0:	62 a2 fd 58 b8 54 7e 	vfmadd231pd 0x20(%rsi,%r15,2){1to8},%zmm0,%zmm18
  4027b7:	04 
  4027b8:	62 e2 fd 58 b8 5c 06 	vfmadd231pd 0x20(%rsi,%rax,1){1to8},%zmm0,%zmm19
  4027bf:	04 
  4027c0:	62 a2 fd 58 b8 64 be 	vfmadd231pd 0x20(%rsi,%r15,4){1to8},%zmm0,%zmm20
  4027c7:	04 
  4027c8:	62 e2 fd 58 b8 6c 1e 	vfmadd231pd 0x20(%rsi,%rbx,1){1to8},%zmm0,%zmm21
  4027cf:	04 
  4027d0:	62 e2 fd 58 b8 74 46 	vfmadd231pd 0x20(%rsi,%rax,2){1to8},%zmm0,%zmm22
  4027d7:	04 
  4027d8:	62 a2 fd 58 b8 7c 1e 	vfmadd231pd 0x20(%rsi,%r11,1){1to8},%zmm0,%zmm23
  4027df:	04 
  4027e0:	62 22 fd 58 b8 44 fe 	vfmadd231pd 0x20(%rsi,%r15,8){1to8},%zmm0,%zmm24
  4027e7:	04 
  4027e8:	62 42 fd 58 b8 4a 04 	vfmadd231pd 0x20(%r10){1to8},%zmm0,%zmm25
  4027ef:	62 02 fd 58 b8 54 3a 	vfmadd231pd 0x20(%r10,%r15,1){1to8},%zmm0,%zmm26
  4027f6:	04 
  4027f7:	62 02 fd 58 b8 5c 7a 	vfmadd231pd 0x20(%r10,%r15,2){1to8},%zmm0,%zmm27
  4027fe:	04 
  4027ff:	62 42 fd 58 b8 64 02 	vfmadd231pd 0x20(%r10,%rax,1){1to8},%zmm0,%zmm28
  402806:	04 
  402807:	62 02 fd 58 b8 6c ba 	vfmadd231pd 0x20(%r10,%r15,4){1to8},%zmm0,%zmm29
  40280e:	04 
  40280f:	62 42 fd 58 b8 74 1a 	vfmadd231pd 0x20(%r10,%rbx,1){1to8},%zmm0,%zmm30
  402816:	04 
  402817:	62 42 fd 58 b8 7c 42 	vfmadd231pd 0x20(%r10,%rax,2){1to8},%zmm0,%zmm31
  40281e:	04 
  40281f:	62 f1 fd 48 28 47 18 	vmovapd 0x600(%rdi),%zmm0
  402826:	62 e2 f5 58 b8 46 05 	vfmadd231pd 0x28(%rsi){1to8},%zmm1,%zmm16
  40282d:	62 a2 f5 58 b8 4c 3e 	vfmadd231pd 0x28(%rsi,%r15,1){1to8},%zmm1,%zmm17
  402834:	05 
  402835:	62 a2 f5 58 b8 54 7e 	vfmadd231pd 0x28(%rsi,%r15,2){1to8},%zmm1,%zmm18
  40283c:	05 
  40283d:	62 e2 f5 58 b8 5c 06 	vfmadd231pd 0x28(%rsi,%rax,1){1to8},%zmm1,%zmm19
  402844:	05 
  402845:	62 a2 f5 58 b8 64 be 	vfmadd231pd 0x28(%rsi,%r15,4){1to8},%zmm1,%zmm20
  40284c:	05 
  40284d:	62 e2 f5 58 b8 6c 1e 	vfmadd231pd 0x28(%rsi,%rbx,1){1to8},%zmm1,%zmm21
  402854:	05 
  402855:	62 e2 f5 58 b8 74 46 	vfmadd231pd 0x28(%rsi,%rax,2){1to8},%zmm1,%zmm22
  40285c:	05 
  40285d:	62 a2 f5 58 b8 7c 1e 	vfmadd231pd 0x28(%rsi,%r11,1){1to8},%zmm1,%zmm23
  402864:	05 
  402865:	62 22 f5 58 b8 44 fe 	vfmadd231pd 0x28(%rsi,%r15,8){1to8},%zmm1,%zmm24
  40286c:	05 
  40286d:	62 42 f5 58 b8 4a 05 	vfmadd231pd 0x28(%r10){1to8},%zmm1,%zmm25
  402874:	62 02 f5 58 b8 54 3a 	vfmadd231pd 0x28(%r10,%r15,1){1to8},%zmm1,%zmm26
  40287b:	05 
  40287c:	62 02 f5 58 b8 5c 7a 	vfmadd231pd 0x28(%r10,%r15,2){1to8},%zmm1,%zmm27
  402883:	05 
  402884:	62 42 f5 58 b8 64 02 	vfmadd231pd 0x28(%r10,%rax,1){1to8},%zmm1,%zmm28
  40288b:	05 
  40288c:	62 02 f5 58 b8 6c ba 	vfmadd231pd 0x28(%r10,%r15,4){1to8},%zmm1,%zmm29
  402893:	05 
  402894:	62 42 f5 58 b8 74 1a 	vfmadd231pd 0x28(%r10,%rbx,1){1to8},%zmm1,%zmm30
  40289b:	05 
  40289c:	62 42 f5 58 b8 7c 42 	vfmadd231pd 0x28(%r10,%rax,2){1to8},%zmm1,%zmm31
  4028a3:	05 
  4028a4:	62 f1 fd 48 28 4f 1c 	vmovapd 0x700(%rdi),%zmm1
  4028ab:	62 e2 fd 58 b8 46 06 	vfmadd231pd 0x30(%rsi){1to8},%zmm0,%zmm16
  4028b2:	62 a2 fd 58 b8 4c 3e 	vfmadd231pd 0x30(%rsi,%r15,1){1to8},%zmm0,%zmm17
  4028b9:	06 
  4028ba:	62 a2 fd 58 b8 54 7e 	vfmadd231pd 0x30(%rsi,%r15,2){1to8},%zmm0,%zmm18
  4028c1:	06 
  4028c2:	62 e2 fd 58 b8 5c 06 	vfmadd231pd 0x30(%rsi,%rax,1){1to8},%zmm0,%zmm19
  4028c9:	06 
  4028ca:	62 a2 fd 58 b8 64 be 	vfmadd231pd 0x30(%rsi,%r15,4){1to8},%zmm0,%zmm20
  4028d1:	06 
  4028d2:	62 e2 fd 58 b8 6c 1e 	vfmadd231pd 0x30(%rsi,%rbx,1){1to8},%zmm0,%zmm21
  4028d9:	06 
  4028da:	62 e2 fd 58 b8 74 46 	vfmadd231pd 0x30(%rsi,%rax,2){1to8},%zmm0,%zmm22
  4028e1:	06 
  4028e2:	62 a2 fd 58 b8 7c 1e 	vfmadd231pd 0x30(%rsi,%r11,1){1to8},%zmm0,%zmm23
  4028e9:	06 
  4028ea:	62 22 fd 58 b8 44 fe 	vfmadd231pd 0x30(%rsi,%r15,8){1to8},%zmm0,%zmm24
  4028f1:	06 
  4028f2:	62 42 fd 58 b8 4a 06 	vfmadd231pd 0x30(%r10){1to8},%zmm0,%zmm25
  4028f9:	62 02 fd 58 b8 54 3a 	vfmadd231pd 0x30(%r10,%r15,1){1to8},%zmm0,%zmm26
  402900:	06 
  402901:	62 02 fd 58 b8 5c 7a 	vfmadd231pd 0x30(%r10,%r15,2){1to8},%zmm0,%zmm27
  402908:	06 
  402909:	62 42 fd 58 b8 64 02 	vfmadd231pd 0x30(%r10,%rax,1){1to8},%zmm0,%zmm28
  402910:	06 
  402911:	62 02 fd 58 b8 6c ba 	vfmadd231pd 0x30(%r10,%r15,4){1to8},%zmm0,%zmm29
  402918:	06 
  402919:	62 42 fd 58 b8 74 1a 	vfmadd231pd 0x30(%r10,%rbx,1){1to8},%zmm0,%zmm30
  402920:	06 
  402921:	62 42 fd 58 b8 7c 42 	vfmadd231pd 0x30(%r10,%rax,2){1to8},%zmm0,%zmm31
  402928:	06 
  402929:	62 f1 fd 48 28 47 20 	vmovapd 0x800(%rdi),%zmm0
  402930:	62 e2 f5 58 b8 46 07 	vfmadd231pd 0x38(%rsi){1to8},%zmm1,%zmm16
  402937:	62 a2 f5 58 b8 4c 3e 	vfmadd231pd 0x38(%rsi,%r15,1){1to8},%zmm1,%zmm17
  40293e:	07 
  40293f:	62 a2 f5 58 b8 54 7e 	vfmadd231pd 0x38(%rsi,%r15,2){1to8},%zmm1,%zmm18
  402946:	07 
  402947:	62 e2 f5 58 b8 5c 06 	vfmadd231pd 0x38(%rsi,%rax,1){1to8},%zmm1,%zmm19
  40294e:	07 
  40294f:	62 a2 f5 58 b8 64 be 	vfmadd231pd 0x38(%rsi,%r15,4){1to8},%zmm1,%zmm20
  402956:	07 
  402957:	62 e2 f5 58 b8 6c 1e 	vfmadd231pd 0x38(%rsi,%rbx,1){1to8},%zmm1,%zmm21
  40295e:	07 
  40295f:	62 e2 f5 58 b8 74 46 	vfmadd231pd 0x38(%rsi,%rax,2){1to8},%zmm1,%zmm22
  402966:	07 
  402967:	62 a2 f5 58 b8 7c 1e 	vfmadd231pd 0x38(%rsi,%r11,1){1to8},%zmm1,%zmm23
  40296e:	07 
  40296f:	62 22 f5 58 b8 44 fe 	vfmadd231pd 0x38(%rsi,%r15,8){1to8},%zmm1,%zmm24
  402976:	07 
  402977:	62 42 f5 58 b8 4a 07 	vfmadd231pd 0x38(%r10){1to8},%zmm1,%zmm25
  40297e:	62 02 f5 58 b8 54 3a 	vfmadd231pd 0x38(%r10,%r15,1){1to8},%zmm1,%zmm26
  402985:	07 
  402986:	62 02 f5 58 b8 5c 7a 	vfmadd231pd 0x38(%r10,%r15,2){1to8},%zmm1,%zmm27
  40298d:	07 
  40298e:	62 42 f5 58 b8 64 02 	vfmadd231pd 0x38(%r10,%rax,1){1to8},%zmm1,%zmm28
  402995:	07 
  402996:	62 02 f5 58 b8 6c ba 	vfmadd231pd 0x38(%r10,%r15,4){1to8},%zmm1,%zmm29
  40299d:	07 
  40299e:	62 42 f5 58 b8 74 1a 	vfmadd231pd 0x38(%r10,%rbx,1){1to8},%zmm1,%zmm30
  4029a5:	07 
  4029a6:	62 42 f5 58 b8 7c 42 	vfmadd231pd 0x38(%r10,%rax,2){1to8},%zmm1,%zmm31
  4029ad:	07 
  4029ae:	62 f1 fd 48 28 4f 24 	vmovapd 0x900(%rdi),%zmm1
  4029b5:	62 e2 fd 58 b8 46 08 	vfmadd231pd 0x40(%rsi){1to8},%zmm0,%zmm16
  4029bc:	62 a2 fd 58 b8 4c 3e 	vfmadd231pd 0x40(%rsi,%r15,1){1to8},%zmm0,%zmm17
  4029c3:	08 
  4029c4:	62 a2 fd 58 b8 54 7e 	vfmadd231pd 0x40(%rsi,%r15,2){1to8},%zmm0,%zmm18
  4029cb:	08 
  4029cc:	62 e2 fd 58 b8 5c 06 	vfmadd231pd 0x40(%rsi,%rax,1){1to8},%zmm0,%zmm19
  4029d3:	08 
  4029d4:	62 a2 fd 58 b8 64 be 	vfmadd231pd 0x40(%rsi,%r15,4){1to8},%zmm0,%zmm20
  4029db:	08 
  4029dc:	62 e2 fd 58 b8 6c 1e 	vfmadd231pd 0x40(%rsi,%rbx,1){1to8},%zmm0,%zmm21
  4029e3:	08 
  4029e4:	62 e2 fd 58 b8 74 46 	vfmadd231pd 0x40(%rsi,%rax,2){1to8},%zmm0,%zmm22
  4029eb:	08 
  4029ec:	62 a2 fd 58 b8 7c 1e 	vfmadd231pd 0x40(%rsi,%r11,1){1to8},%zmm0,%zmm23
  4029f3:	08 
  4029f4:	62 22 fd 58 b8 44 fe 	vfmadd231pd 0x40(%rsi,%r15,8){1to8},%zmm0,%zmm24
  4029fb:	08 
  4029fc:	62 42 fd 58 b8 4a 08 	vfmadd231pd 0x40(%r10){1to8},%zmm0,%zmm25
  402a03:	62 02 fd 58 b8 54 3a 	vfmadd231pd 0x40(%r10,%r15,1){1to8},%zmm0,%zmm26
  402a0a:	08 
  402a0b:	62 02 fd 58 b8 5c 7a 	vfmadd231pd 0x40(%r10,%r15,2){1to8},%zmm0,%zmm27
  402a12:	08 
  402a13:	62 42 fd 58 b8 64 02 	vfmadd231pd 0x40(%r10,%rax,1){1to8},%zmm0,%zmm28
  402a1a:	08 
  402a1b:	62 02 fd 58 b8 6c ba 	vfmadd231pd 0x40(%r10,%r15,4){1to8},%zmm0,%zmm29
  402a22:	08 
  402a23:	62 42 fd 58 b8 74 1a 	vfmadd231pd 0x40(%r10,%rbx,1){1to8},%zmm0,%zmm30
  402a2a:	08 
  402a2b:	62 42 fd 58 b8 7c 42 	vfmadd231pd 0x40(%r10,%rax,2){1to8},%zmm0,%zmm31
  402a32:	08 
  402a33:	62 f1 fd 48 28 47 28 	vmovapd 0xa00(%rdi),%zmm0
  402a3a:	62 e2 f5 58 b8 46 09 	vfmadd231pd 0x48(%rsi){1to8},%zmm1,%zmm16
  402a41:	62 a2 f5 58 b8 4c 3e 	vfmadd231pd 0x48(%rsi,%r15,1){1to8},%zmm1,%zmm17
  402a48:	09 
  402a49:	62 a2 f5 58 b8 54 7e 	vfmadd231pd 0x48(%rsi,%r15,2){1to8},%zmm1,%zmm18
  402a50:	09 
  402a51:	62 e2 f5 58 b8 5c 06 	vfmadd231pd 0x48(%rsi,%rax,1){1to8},%zmm1,%zmm19
  402a58:	09 
  402a59:	62 a2 f5 58 b8 64 be 	vfmadd231pd 0x48(%rsi,%r15,4){1to8},%zmm1,%zmm20
  402a60:	09 
  402a61:	62 e2 f5 58 b8 6c 1e 	vfmadd231pd 0x48(%rsi,%rbx,1){1to8},%zmm1,%zmm21
  402a68:	09 
  402a69:	62 e2 f5 58 b8 74 46 	vfmadd231pd 0x48(%rsi,%rax,2){1to8},%zmm1,%zmm22
  402a70:	09 
  402a71:	62 a2 f5 58 b8 7c 1e 	vfmadd231pd 0x48(%rsi,%r11,1){1to8},%zmm1,%zmm23
  402a78:	09 
  402a79:	62 22 f5 58 b8 44 fe 	vfmadd231pd 0x48(%rsi,%r15,8){1to8},%zmm1,%zmm24
  402a80:	09 
  402a81:	62 42 f5 58 b8 4a 09 	vfmadd231pd 0x48(%r10){1to8},%zmm1,%zmm25
  402a88:	62 02 f5 58 b8 54 3a 	vfmadd231pd 0x48(%r10,%r15,1){1to8},%zmm1,%zmm26
  402a8f:	09 
  402a90:	62 02 f5 58 b8 5c 7a 	vfmadd231pd 0x48(%r10,%r15,2){1to8},%zmm1,%zmm27
  402a97:	09 
  402a98:	62 42 f5 58 b8 64 02 	vfmadd231pd 0x48(%r10,%rax,1){1to8},%zmm1,%zmm28
  402a9f:	09 
  402aa0:	62 02 f5 58 b8 6c ba 	vfmadd231pd 0x48(%r10,%r15,4){1to8},%zmm1,%zmm29
  402aa7:	09 
  402aa8:	62 42 f5 58 b8 74 1a 	vfmadd231pd 0x48(%r10,%rbx,1){1to8},%zmm1,%zmm30
  402aaf:	09 
  402ab0:	62 42 f5 58 b8 7c 42 	vfmadd231pd 0x48(%r10,%rax,2){1to8},%zmm1,%zmm31
  402ab7:	09 
  402ab8:	62 f1 fd 48 28 4f 2c 	vmovapd 0xb00(%rdi),%zmm1
  402abf:	62 e2 fd 58 b8 46 0a 	vfmadd231pd 0x50(%rsi){1to8},%zmm0,%zmm16
  402ac6:	62 a2 fd 58 b8 4c 3e 	vfmadd231pd 0x50(%rsi,%r15,1){1to8},%zmm0,%zmm17
  402acd:	0a 
  402ace:	62 a2 fd 58 b8 54 7e 	vfmadd231pd 0x50(%rsi,%r15,2){1to8},%zmm0,%zmm18
  402ad5:	0a 
  402ad6:	62 e2 fd 58 b8 5c 06 	vfmadd231pd 0x50(%rsi,%rax,1){1to8},%zmm0,%zmm19
  402add:	0a 
  402ade:	62 a2 fd 58 b8 64 be 	vfmadd231pd 0x50(%rsi,%r15,4){1to8},%zmm0,%zmm20
  402ae5:	0a 
  402ae6:	62 e2 fd 58 b8 6c 1e 	vfmadd231pd 0x50(%rsi,%rbx,1){1to8},%zmm0,%zmm21
  402aed:	0a 
  402aee:	62 e2 fd 58 b8 74 46 	vfmadd231pd 0x50(%rsi,%rax,2){1to8},%zmm0,%zmm22
  402af5:	0a 
  402af6:	62 a2 fd 58 b8 7c 1e 	vfmadd231pd 0x50(%rsi,%r11,1){1to8},%zmm0,%zmm23
  402afd:	0a 
  402afe:	62 22 fd 58 b8 44 fe 	vfmadd231pd 0x50(%rsi,%r15,8){1to8},%zmm0,%zmm24
  402b05:	0a 
  402b06:	62 42 fd 58 b8 4a 0a 	vfmadd231pd 0x50(%r10){1to8},%zmm0,%zmm25
  402b0d:	62 02 fd 58 b8 54 3a 	vfmadd231pd 0x50(%r10,%r15,1){1to8},%zmm0,%zmm26
  402b14:	0a 
  402b15:	62 02 fd 58 b8 5c 7a 	vfmadd231pd 0x50(%r10,%r15,2){1to8},%zmm0,%zmm27
  402b1c:	0a 
  402b1d:	62 42 fd 58 b8 64 02 	vfmadd231pd 0x50(%r10,%rax,1){1to8},%zmm0,%zmm28
  402b24:	0a 
  402b25:	62 02 fd 58 b8 6c ba 	vfmadd231pd 0x50(%r10,%r15,4){1to8},%zmm0,%zmm29
  402b2c:	0a 
  402b2d:	62 42 fd 58 b8 74 1a 	vfmadd231pd 0x50(%r10,%rbx,1){1to8},%zmm0,%zmm30
  402b34:	0a 
  402b35:	62 42 fd 58 b8 7c 42 	vfmadd231pd 0x50(%r10,%rax,2){1to8},%zmm0,%zmm31
  402b3c:	0a 
  402b3d:	62 f1 fd 48 28 47 30 	vmovapd 0xc00(%rdi),%zmm0
  402b44:	62 e2 f5 58 b8 46 0b 	vfmadd231pd 0x58(%rsi){1to8},%zmm1,%zmm16
  402b4b:	62 a2 f5 58 b8 4c 3e 	vfmadd231pd 0x58(%rsi,%r15,1){1to8},%zmm1,%zmm17
  402b52:	0b 
  402b53:	62 a2 f5 58 b8 54 7e 	vfmadd231pd 0x58(%rsi,%r15,2){1to8},%zmm1,%zmm18
  402b5a:	0b 
  402b5b:	62 e2 f5 58 b8 5c 06 	vfmadd231pd 0x58(%rsi,%rax,1){1to8},%zmm1,%zmm19
  402b62:	0b 
  402b63:	62 a2 f5 58 b8 64 be 	vfmadd231pd 0x58(%rsi,%r15,4){1to8},%zmm1,%zmm20
  402b6a:	0b 
  402b6b:	62 e2 f5 58 b8 6c 1e 	vfmadd231pd 0x58(%rsi,%rbx,1){1to8},%zmm1,%zmm21
  402b72:	0b 
  402b73:	62 e2 f5 58 b8 74 46 	vfmadd231pd 0x58(%rsi,%rax,2){1to8},%zmm1,%zmm22
  402b7a:	0b 
  402b7b:	62 a2 f5 58 b8 7c 1e 	vfmadd231pd 0x58(%rsi,%r11,1){1to8},%zmm1,%zmm23
  402b82:	0b 
  402b83:	62 22 f5 58 b8 44 fe 	vfmadd231pd 0x58(%rsi,%r15,8){1to8},%zmm1,%zmm24
  402b8a:	0b 
  402b8b:	62 42 f5 58 b8 4a 0b 	vfmadd231pd 0x58(%r10){1to8},%zmm1,%zmm25
  402b92:	62 02 f5 58 b8 54 3a 	vfmadd231pd 0x58(%r10,%r15,1){1to8},%zmm1,%zmm26
  402b99:	0b 
  402b9a:	62 02 f5 58 b8 5c 7a 	vfmadd231pd 0x58(%r10,%r15,2){1to8},%zmm1,%zmm27
  402ba1:	0b 
  402ba2:	62 42 f5 58 b8 64 02 	vfmadd231pd 0x58(%r10,%rax,1){1to8},%zmm1,%zmm28
  402ba9:	0b 
  402baa:	62 02 f5 58 b8 6c ba 	vfmadd231pd 0x58(%r10,%r15,4){1to8},%zmm1,%zmm29
  402bb1:	0b 
  402bb2:	62 42 f5 58 b8 74 1a 	vfmadd231pd 0x58(%r10,%rbx,1){1to8},%zmm1,%zmm30
  402bb9:	0b 
  402bba:	62 42 f5 58 b8 7c 42 	vfmadd231pd 0x58(%r10,%rax,2){1to8},%zmm1,%zmm31
  402bc1:	0b 
  402bc2:	62 f1 fd 48 28 4f 34 	vmovapd 0xd00(%rdi),%zmm1
  402bc9:	62 e2 fd 58 b8 46 0c 	vfmadd231pd 0x60(%rsi){1to8},%zmm0,%zmm16
  402bd0:	62 a2 fd 58 b8 4c 3e 	vfmadd231pd 0x60(%rsi,%r15,1){1to8},%zmm0,%zmm17
  402bd7:	0c 
  402bd8:	62 a2 fd 58 b8 54 7e 	vfmadd231pd 0x60(%rsi,%r15,2){1to8},%zmm0,%zmm18
  402bdf:	0c 
  402be0:	62 e2 fd 58 b8 5c 06 	vfmadd231pd 0x60(%rsi,%rax,1){1to8},%zmm0,%zmm19
  402be7:	0c 
  402be8:	62 a2 fd 58 b8 64 be 	vfmadd231pd 0x60(%rsi,%r15,4){1to8},%zmm0,%zmm20
  402bef:	0c 
  402bf0:	62 e2 fd 58 b8 6c 1e 	vfmadd231pd 0x60(%rsi,%rbx,1){1to8},%zmm0,%zmm21
  402bf7:	0c 
  402bf8:	62 e2 fd 58 b8 74 46 	vfmadd231pd 0x60(%rsi,%rax,2){1to8},%zmm0,%zmm22
  402bff:	0c 
  402c00:	62 a2 fd 58 b8 7c 1e 	vfmadd231pd 0x60(%rsi,%r11,1){1to8},%zmm0,%zmm23
  402c07:	0c 
  402c08:	62 22 fd 58 b8 44 fe 	vfmadd231pd 0x60(%rsi,%r15,8){1to8},%zmm0,%zmm24
  402c0f:	0c 
  402c10:	62 42 fd 58 b8 4a 0c 	vfmadd231pd 0x60(%r10){1to8},%zmm0,%zmm25
  402c17:	62 02 fd 58 b8 54 3a 	vfmadd231pd 0x60(%r10,%r15,1){1to8},%zmm0,%zmm26
  402c1e:	0c 
  402c1f:	62 02 fd 58 b8 5c 7a 	vfmadd231pd 0x60(%r10,%r15,2){1to8},%zmm0,%zmm27
  402c26:	0c 
  402c27:	62 42 fd 58 b8 64 02 	vfmadd231pd 0x60(%r10,%rax,1){1to8},%zmm0,%zmm28
  402c2e:	0c 
  402c2f:	62 02 fd 58 b8 6c ba 	vfmadd231pd 0x60(%r10,%r15,4){1to8},%zmm0,%zmm29
  402c36:	0c 
  402c37:	62 42 fd 58 b8 74 1a 	vfmadd231pd 0x60(%r10,%rbx,1){1to8},%zmm0,%zmm30
  402c3e:	0c 
  402c3f:	62 42 fd 58 b8 7c 42 	vfmadd231pd 0x60(%r10,%rax,2){1to8},%zmm0,%zmm31
  402c46:	0c 
  402c47:	62 f1 fd 48 28 47 38 	vmovapd 0xe00(%rdi),%zmm0
  402c4e:	62 e2 f5 58 b8 46 0d 	vfmadd231pd 0x68(%rsi){1to8},%zmm1,%zmm16
  402c55:	62 a2 f5 58 b8 4c 3e 	vfmadd231pd 0x68(%rsi,%r15,1){1to8},%zmm1,%zmm17
  402c5c:	0d 
  402c5d:	62 a2 f5 58 b8 54 7e 	vfmadd231pd 0x68(%rsi,%r15,2){1to8},%zmm1,%zmm18
  402c64:	0d 
  402c65:	62 e2 f5 58 b8 5c 06 	vfmadd231pd 0x68(%rsi,%rax,1){1to8},%zmm1,%zmm19
  402c6c:	0d 
  402c6d:	62 a2 f5 58 b8 64 be 	vfmadd231pd 0x68(%rsi,%r15,4){1to8},%zmm1,%zmm20
  402c74:	0d 
  402c75:	62 e2 f5 58 b8 6c 1e 	vfmadd231pd 0x68(%rsi,%rbx,1){1to8},%zmm1,%zmm21
  402c7c:	0d 
  402c7d:	62 e2 f5 58 b8 74 46 	vfmadd231pd 0x68(%rsi,%rax,2){1to8},%zmm1,%zmm22
  402c84:	0d 
  402c85:	62 a2 f5 58 b8 7c 1e 	vfmadd231pd 0x68(%rsi,%r11,1){1to8},%zmm1,%zmm23
  402c8c:	0d 
  402c8d:	62 22 f5 58 b8 44 fe 	vfmadd231pd 0x68(%rsi,%r15,8){1to8},%zmm1,%zmm24
  402c94:	0d 
  402c95:	62 42 f5 58 b8 4a 0d 	vfmadd231pd 0x68(%r10){1to8},%zmm1,%zmm25
  402c9c:	62 02 f5 58 b8 54 3a 	vfmadd231pd 0x68(%r10,%r15,1){1to8},%zmm1,%zmm26
  402ca3:	0d 
  402ca4:	62 02 f5 58 b8 5c 7a 	vfmadd231pd 0x68(%r10,%r15,2){1to8},%zmm1,%zmm27
  402cab:	0d 
  402cac:	62 42 f5 58 b8 64 02 	vfmadd231pd 0x68(%r10,%rax,1){1to8},%zmm1,%zmm28
  402cb3:	0d 
  402cb4:	62 02 f5 58 b8 6c ba 	vfmadd231pd 0x68(%r10,%r15,4){1to8},%zmm1,%zmm29
  402cbb:	0d 
  402cbc:	62 42 f5 58 b8 74 1a 	vfmadd231pd 0x68(%r10,%rbx,1){1to8},%zmm1,%zmm30
  402cc3:	0d 
  402cc4:	62 42 f5 58 b8 7c 42 	vfmadd231pd 0x68(%r10,%rax,2){1to8},%zmm1,%zmm31
  402ccb:	0d 
  402ccc:	62 f1 fd 48 28 4f 3c 	vmovapd 0xf00(%rdi),%zmm1
  402cd3:	62 e2 fd 58 b8 46 0e 	vfmadd231pd 0x70(%rsi){1to8},%zmm0,%zmm16
  402cda:	62 a2 fd 58 b8 4c 3e 	vfmadd231pd 0x70(%rsi,%r15,1){1to8},%zmm0,%zmm17
  402ce1:	0e 
  402ce2:	62 a2 fd 58 b8 54 7e 	vfmadd231pd 0x70(%rsi,%r15,2){1to8},%zmm0,%zmm18
  402ce9:	0e 
  402cea:	62 e2 fd 58 b8 5c 06 	vfmadd231pd 0x70(%rsi,%rax,1){1to8},%zmm0,%zmm19
  402cf1:	0e 
  402cf2:	62 a2 fd 58 b8 64 be 	vfmadd231pd 0x70(%rsi,%r15,4){1to8},%zmm0,%zmm20
  402cf9:	0e 
  402cfa:	62 e2 fd 58 b8 6c 1e 	vfmadd231pd 0x70(%rsi,%rbx,1){1to8},%zmm0,%zmm21
  402d01:	0e 
  402d02:	62 e2 fd 58 b8 74 46 	vfmadd231pd 0x70(%rsi,%rax,2){1to8},%zmm0,%zmm22
  402d09:	0e 
  402d0a:	62 a2 fd 58 b8 7c 1e 	vfmadd231pd 0x70(%rsi,%r11,1){1to8},%zmm0,%zmm23
  402d11:	0e 
  402d12:	62 22 fd 58 b8 44 fe 	vfmadd231pd 0x70(%rsi,%r15,8){1to8},%zmm0,%zmm24
  402d19:	0e 
  402d1a:	62 42 fd 58 b8 4a 0e 	vfmadd231pd 0x70(%r10){1to8},%zmm0,%zmm25
  402d21:	62 02 fd 58 b8 54 3a 	vfmadd231pd 0x70(%r10,%r15,1){1to8},%zmm0,%zmm26
  402d28:	0e 
  402d29:	62 02 fd 58 b8 5c 7a 	vfmadd231pd 0x70(%r10,%r15,2){1to8},%zmm0,%zmm27
  402d30:	0e 
  402d31:	62 42 fd 58 b8 64 02 	vfmadd231pd 0x70(%r10,%rax,1){1to8},%zmm0,%zmm28
  402d38:	0e 
  402d39:	62 02 fd 58 b8 6c ba 	vfmadd231pd 0x70(%r10,%r15,4){1to8},%zmm0,%zmm29
  402d40:	0e 
  402d41:	62 42 fd 58 b8 74 1a 	vfmadd231pd 0x70(%r10,%rbx,1){1to8},%zmm0,%zmm30
  402d48:	0e 
  402d49:	62 42 fd 58 b8 7c 42 	vfmadd231pd 0x70(%r10,%rax,2){1to8},%zmm0,%zmm31
  402d50:	0e 
  402d51:	62 f1 fd 48 28 47 40 	vmovapd 0x1000(%rdi),%zmm0
  402d58:	62 e2 f5 58 b8 46 0f 	vfmadd231pd 0x78(%rsi){1to8},%zmm1,%zmm16
  402d5f:	62 a2 f5 58 b8 4c 3e 	vfmadd231pd 0x78(%rsi,%r15,1){1to8},%zmm1,%zmm17
  402d66:	0f 
  402d67:	62 a2 f5 58 b8 54 7e 	vfmadd231pd 0x78(%rsi,%r15,2){1to8},%zmm1,%zmm18
  402d6e:	0f 
  402d6f:	62 e2 f5 58 b8 5c 06 	vfmadd231pd 0x78(%rsi,%rax,1){1to8},%zmm1,%zmm19
  402d76:	0f 
  402d77:	62 a2 f5 58 b8 64 be 	vfmadd231pd 0x78(%rsi,%r15,4){1to8},%zmm1,%zmm20
  402d7e:	0f 
  402d7f:	62 e2 f5 58 b8 6c 1e 	vfmadd231pd 0x78(%rsi,%rbx,1){1to8},%zmm1,%zmm21
  402d86:	0f 
  402d87:	62 e2 f5 58 b8 74 46 	vfmadd231pd 0x78(%rsi,%rax,2){1to8},%zmm1,%zmm22
  402d8e:	0f 
  402d8f:	62 a2 f5 58 b8 7c 1e 	vfmadd231pd 0x78(%rsi,%r11,1){1to8},%zmm1,%zmm23
  402d96:	0f 
  402d97:	62 22 f5 58 b8 44 fe 	vfmadd231pd 0x78(%rsi,%r15,8){1to8},%zmm1,%zmm24
  402d9e:	0f 
  402d9f:	62 42 f5 58 b8 4a 0f 	vfmadd231pd 0x78(%r10){1to8},%zmm1,%zmm25
  402da6:	62 02 f5 58 b8 54 3a 	vfmadd231pd 0x78(%r10,%r15,1){1to8},%zmm1,%zmm26
  402dad:	0f 
  402dae:	62 02 f5 58 b8 5c 7a 	vfmadd231pd 0x78(%r10,%r15,2){1to8},%zmm1,%zmm27
  402db5:	0f 
  402db6:	62 42 f5 58 b8 64 02 	vfmadd231pd 0x78(%r10,%rax,1){1to8},%zmm1,%zmm28
  402dbd:	0f 
  402dbe:	62 02 f5 58 b8 6c ba 	vfmadd231pd 0x78(%r10,%r15,4){1to8},%zmm1,%zmm29
  402dc5:	0f 
  402dc6:	62 42 f5 58 b8 74 1a 	vfmadd231pd 0x78(%r10,%rbx,1){1to8},%zmm1,%zmm30
  402dcd:	0f 
  402dce:	62 42 f5 58 b8 7c 42 	vfmadd231pd 0x78(%r10,%rax,2){1to8},%zmm1,%zmm31
  402dd5:	0f 
  402dd6:	62 f1 fd 48 28 4f 44 	vmovapd 0x1100(%rdi),%zmm1
  402ddd:	62 e2 fd 58 b8 46 10 	vfmadd231pd 0x80(%rsi){1to8},%zmm0,%zmm16
  402de4:	62 a2 fd 58 b8 4c 3e 	vfmadd231pd 0x80(%rsi,%r15,1){1to8},%zmm0,%zmm17
  402deb:	10 
  402dec:	62 a2 fd 58 b8 54 7e 	vfmadd231pd 0x80(%rsi,%r15,2){1to8},%zmm0,%zmm18
  402df3:	10 
  402df4:	62 e2 fd 58 b8 5c 06 	vfmadd231pd 0x80(%rsi,%rax,1){1to8},%zmm0,%zmm19
  402dfb:	10 
  402dfc:	62 a2 fd 58 b8 64 be 	vfmadd231pd 0x80(%rsi,%r15,4){1to8},%zmm0,%zmm20
  402e03:	10 
  402e04:	62 e2 fd 58 b8 6c 1e 	vfmadd231pd 0x80(%rsi,%rbx,1){1to8},%zmm0,%zmm21
  402e0b:	10 
  402e0c:	62 e2 fd 58 b8 74 46 	vfmadd231pd 0x80(%rsi,%rax,2){1to8},%zmm0,%zmm22
  402e13:	10 
  402e14:	62 a2 fd 58 b8 7c 1e 	vfmadd231pd 0x80(%rsi,%r11,1){1to8},%zmm0,%zmm23
  402e1b:	10 
  402e1c:	62 22 fd 58 b8 44 fe 	vfmadd231pd 0x80(%rsi,%r15,8){1to8},%zmm0,%zmm24
  402e23:	10 
  402e24:	62 42 fd 58 b8 4a 10 	vfmadd231pd 0x80(%r10){1to8},%zmm0,%zmm25
  402e2b:	62 02 fd 58 b8 54 3a 	vfmadd231pd 0x80(%r10,%r15,1){1to8},%zmm0,%zmm26
  402e32:	10 
  402e33:	62 02 fd 58 b8 5c 7a 	vfmadd231pd 0x80(%r10,%r15,2){1to8},%zmm0,%zmm27
  402e3a:	10 
  402e3b:	62 42 fd 58 b8 64 02 	vfmadd231pd 0x80(%r10,%rax,1){1to8},%zmm0,%zmm28
  402e42:	10 
  402e43:	62 02 fd 58 b8 6c ba 	vfmadd231pd 0x80(%r10,%r15,4){1to8},%zmm0,%zmm29
  402e4a:	10 
  402e4b:	62 42 fd 58 b8 74 1a 	vfmadd231pd 0x80(%r10,%rbx,1){1to8},%zmm0,%zmm30
  402e52:	10 
  402e53:	62 42 fd 58 b8 7c 42 	vfmadd231pd 0x80(%r10,%rax,2){1to8},%zmm0,%zmm31
  402e5a:	10 
  402e5b:	62 f1 fd 48 28 47 48 	vmovapd 0x1200(%rdi),%zmm0
  402e62:	62 e2 f5 58 b8 46 11 	vfmadd231pd 0x88(%rsi){1to8},%zmm1,%zmm16
  402e69:	62 a2 f5 58 b8 4c 3e 	vfmadd231pd 0x88(%rsi,%r15,1){1to8},%zmm1,%zmm17
  402e70:	11 
  402e71:	62 a2 f5 58 b8 54 7e 	vfmadd231pd 0x88(%rsi,%r15,2){1to8},%zmm1,%zmm18
  402e78:	11 
  402e79:	62 e2 f5 58 b8 5c 06 	vfmadd231pd 0x88(%rsi,%rax,1){1to8},%zmm1,%zmm19
  402e80:	11 
  402e81:	62 a2 f5 58 b8 64 be 	vfmadd231pd 0x88(%rsi,%r15,4){1to8},%zmm1,%zmm20
  402e88:	11 
  402e89:	62 e2 f5 58 b8 6c 1e 	vfmadd231pd 0x88(%rsi,%rbx,1){1to8},%zmm1,%zmm21
  402e90:	11 
  402e91:	62 e2 f5 58 b8 74 46 	vfmadd231pd 0x88(%rsi,%rax,2){1to8},%zmm1,%zmm22
  402e98:	11 
  402e99:	62 a2 f5 58 b8 7c 1e 	vfmadd231pd 0x88(%rsi,%r11,1){1to8},%zmm1,%zmm23
  402ea0:	11 
  402ea1:	62 22 f5 58 b8 44 fe 	vfmadd231pd 0x88(%rsi,%r15,8){1to8},%zmm1,%zmm24
  402ea8:	11 
  402ea9:	62 42 f5 58 b8 4a 11 	vfmadd231pd 0x88(%r10){1to8},%zmm1,%zmm25
  402eb0:	62 02 f5 58 b8 54 3a 	vfmadd231pd 0x88(%r10,%r15,1){1to8},%zmm1,%zmm26
  402eb7:	11 
  402eb8:	62 02 f5 58 b8 5c 7a 	vfmadd231pd 0x88(%r10,%r15,2){1to8},%zmm1,%zmm27
  402ebf:	11 
  402ec0:	62 42 f5 58 b8 64 02 	vfmadd231pd 0x88(%r10,%rax,1){1to8},%zmm1,%zmm28
  402ec7:	11 
  402ec8:	62 02 f5 58 b8 6c ba 	vfmadd231pd 0x88(%r10,%r15,4){1to8},%zmm1,%zmm29
  402ecf:	11 
  402ed0:	62 42 f5 58 b8 74 1a 	vfmadd231pd 0x88(%r10,%rbx,1){1to8},%zmm1,%zmm30
  402ed7:	11 
  402ed8:	62 42 f5 58 b8 7c 42 	vfmadd231pd 0x88(%r10,%rax,2){1to8},%zmm1,%zmm31
  402edf:	11 
  402ee0:	62 f1 fd 48 28 4f 4c 	vmovapd 0x1300(%rdi),%zmm1
  402ee7:	62 e2 fd 58 b8 46 12 	vfmadd231pd 0x90(%rsi){1to8},%zmm0,%zmm16
  402eee:	62 a2 fd 58 b8 4c 3e 	vfmadd231pd 0x90(%rsi,%r15,1){1to8},%zmm0,%zmm17
  402ef5:	12 
  402ef6:	62 a2 fd 58 b8 54 7e 	vfmadd231pd 0x90(%rsi,%r15,2){1to8},%zmm0,%zmm18
  402efd:	12 
  402efe:	62 e2 fd 58 b8 5c 06 	vfmadd231pd 0x90(%rsi,%rax,1){1to8},%zmm0,%zmm19
  402f05:	12 
  402f06:	62 a2 fd 58 b8 64 be 	vfmadd231pd 0x90(%rsi,%r15,4){1to8},%zmm0,%zmm20
  402f0d:	12 
  402f0e:	62 e2 fd 58 b8 6c 1e 	vfmadd231pd 0x90(%rsi,%rbx,1){1to8},%zmm0,%zmm21
  402f15:	12 
  402f16:	62 e2 fd 58 b8 74 46 	vfmadd231pd 0x90(%rsi,%rax,2){1to8},%zmm0,%zmm22
  402f1d:	12 
  402f1e:	62 a2 fd 58 b8 7c 1e 	vfmadd231pd 0x90(%rsi,%r11,1){1to8},%zmm0,%zmm23
  402f25:	12 
  402f26:	62 22 fd 58 b8 44 fe 	vfmadd231pd 0x90(%rsi,%r15,8){1to8},%zmm0,%zmm24
  402f2d:	12 
  402f2e:	62 42 fd 58 b8 4a 12 	vfmadd231pd 0x90(%r10){1to8},%zmm0,%zmm25
  402f35:	62 02 fd 58 b8 54 3a 	vfmadd231pd 0x90(%r10,%r15,1){1to8},%zmm0,%zmm26
  402f3c:	12 
  402f3d:	62 02 fd 58 b8 5c 7a 	vfmadd231pd 0x90(%r10,%r15,2){1to8},%zmm0,%zmm27
  402f44:	12 
  402f45:	62 42 fd 58 b8 64 02 	vfmadd231pd 0x90(%r10,%rax,1){1to8},%zmm0,%zmm28
  402f4c:	12 
  402f4d:	62 02 fd 58 b8 6c ba 	vfmadd231pd 0x90(%r10,%r15,4){1to8},%zmm0,%zmm29
  402f54:	12 
  402f55:	62 42 fd 58 b8 74 1a 	vfmadd231pd 0x90(%r10,%rbx,1){1to8},%zmm0,%zmm30
  402f5c:	12 
  402f5d:	62 42 fd 58 b8 7c 42 	vfmadd231pd 0x90(%r10,%rax,2){1to8},%zmm0,%zmm31
  402f64:	12 
  402f65:	62 f1 fd 48 28 47 50 	vmovapd 0x1400(%rdi),%zmm0
  402f6c:	62 e2 f5 58 b8 46 13 	vfmadd231pd 0x98(%rsi){1to8},%zmm1,%zmm16
  402f73:	62 a2 f5 58 b8 4c 3e 	vfmadd231pd 0x98(%rsi,%r15,1){1to8},%zmm1,%zmm17
  402f7a:	13 
  402f7b:	62 a2 f5 58 b8 54 7e 	vfmadd231pd 0x98(%rsi,%r15,2){1to8},%zmm1,%zmm18
  402f82:	13 
  402f83:	62 e2 f5 58 b8 5c 06 	vfmadd231pd 0x98(%rsi,%rax,1){1to8},%zmm1,%zmm19
  402f8a:	13 
  402f8b:	62 a2 f5 58 b8 64 be 	vfmadd231pd 0x98(%rsi,%r15,4){1to8},%zmm1,%zmm20
  402f92:	13 
  402f93:	62 e2 f5 58 b8 6c 1e 	vfmadd231pd 0x98(%rsi,%rbx,1){1to8},%zmm1,%zmm21
  402f9a:	13 
  402f9b:	62 e2 f5 58 b8 74 46 	vfmadd231pd 0x98(%rsi,%rax,2){1to8},%zmm1,%zmm22
  402fa2:	13 
  402fa3:	62 a2 f5 58 b8 7c 1e 	vfmadd231pd 0x98(%rsi,%r11,1){1to8},%zmm1,%zmm23
  402faa:	13 
  402fab:	62 22 f5 58 b8 44 fe 	vfmadd231pd 0x98(%rsi,%r15,8){1to8},%zmm1,%zmm24
  402fb2:	13 
  402fb3:	62 42 f5 58 b8 4a 13 	vfmadd231pd 0x98(%r10){1to8},%zmm1,%zmm25
  402fba:	62 02 f5 58 b8 54 3a 	vfmadd231pd 0x98(%r10,%r15,1){1to8},%zmm1,%zmm26
  402fc1:	13 
  402fc2:	62 02 f5 58 b8 5c 7a 	vfmadd231pd 0x98(%r10,%r15,2){1to8},%zmm1,%zmm27
  402fc9:	13 
  402fca:	62 42 f5 58 b8 64 02 	vfmadd231pd 0x98(%r10,%rax,1){1to8},%zmm1,%zmm28
  402fd1:	13 
  402fd2:	62 02 f5 58 b8 6c ba 	vfmadd231pd 0x98(%r10,%r15,4){1to8},%zmm1,%zmm29
  402fd9:	13 
  402fda:	62 42 f5 58 b8 74 1a 	vfmadd231pd 0x98(%r10,%rbx,1){1to8},%zmm1,%zmm30
  402fe1:	13 
  402fe2:	62 42 f5 58 b8 7c 42 	vfmadd231pd 0x98(%r10,%rax,2){1to8},%zmm1,%zmm31
  402fe9:	13 
  402fea:	62 f1 fd 48 28 4f 54 	vmovapd 0x1500(%rdi),%zmm1
  402ff1:	62 e2 fd 58 b8 46 14 	vfmadd231pd 0xa0(%rsi){1to8},%zmm0,%zmm16
  402ff8:	62 a2 fd 58 b8 4c 3e 	vfmadd231pd 0xa0(%rsi,%r15,1){1to8},%zmm0,%zmm17
  402fff:	14 
  403000:	62 a2 fd 58 b8 54 7e 	vfmadd231pd 0xa0(%rsi,%r15,2){1to8},%zmm0,%zmm18
  403007:	14 
  403008:	62 e2 fd 58 b8 5c 06 	vfmadd231pd 0xa0(%rsi,%rax,1){1to8},%zmm0,%zmm19
  40300f:	14 
  403010:	62 a2 fd 58 b8 64 be 	vfmadd231pd 0xa0(%rsi,%r15,4){1to8},%zmm0,%zmm20
  403017:	14 
  403018:	62 e2 fd 58 b8 6c 1e 	vfmadd231pd 0xa0(%rsi,%rbx,1){1to8},%zmm0,%zmm21
  40301f:	14 
  403020:	62 e2 fd 58 b8 74 46 	vfmadd231pd 0xa0(%rsi,%rax,2){1to8},%zmm0,%zmm22
  403027:	14 
  403028:	62 a2 fd 58 b8 7c 1e 	vfmadd231pd 0xa0(%rsi,%r11,1){1to8},%zmm0,%zmm23
  40302f:	14 
  403030:	62 22 fd 58 b8 44 fe 	vfmadd231pd 0xa0(%rsi,%r15,8){1to8},%zmm0,%zmm24
  403037:	14 
  403038:	62 42 fd 58 b8 4a 14 	vfmadd231pd 0xa0(%r10){1to8},%zmm0,%zmm25
  40303f:	62 02 fd 58 b8 54 3a 	vfmadd231pd 0xa0(%r10,%r15,1){1to8},%zmm0,%zmm26
  403046:	14 
  403047:	62 02 fd 58 b8 5c 7a 	vfmadd231pd 0xa0(%r10,%r15,2){1to8},%zmm0,%zmm27
  40304e:	14 
  40304f:	62 42 fd 58 b8 64 02 	vfmadd231pd 0xa0(%r10,%rax,1){1to8},%zmm0,%zmm28
  403056:	14 
  403057:	62 02 fd 58 b8 6c ba 	vfmadd231pd 0xa0(%r10,%r15,4){1to8},%zmm0,%zmm29
  40305e:	14 
  40305f:	62 42 fd 58 b8 74 1a 	vfmadd231pd 0xa0(%r10,%rbx,1){1to8},%zmm0,%zmm30
  403066:	14 
  403067:	62 42 fd 58 b8 7c 42 	vfmadd231pd 0xa0(%r10,%rax,2){1to8},%zmm0,%zmm31
  40306e:	14 
  40306f:	62 f1 fd 48 28 47 58 	vmovapd 0x1600(%rdi),%zmm0
  403076:	62 e2 f5 58 b8 46 15 	vfmadd231pd 0xa8(%rsi){1to8},%zmm1,%zmm16
  40307d:	62 a2 f5 58 b8 4c 3e 	vfmadd231pd 0xa8(%rsi,%r15,1){1to8},%zmm1,%zmm17
  403084:	15 
  403085:	62 a2 f5 58 b8 54 7e 	vfmadd231pd 0xa8(%rsi,%r15,2){1to8},%zmm1,%zmm18
  40308c:	15 
  40308d:	62 e2 f5 58 b8 5c 06 	vfmadd231pd 0xa8(%rsi,%rax,1){1to8},%zmm1,%zmm19
  403094:	15 
  403095:	62 a2 f5 58 b8 64 be 	vfmadd231pd 0xa8(%rsi,%r15,4){1to8},%zmm1,%zmm20
  40309c:	15 
  40309d:	62 e2 f5 58 b8 6c 1e 	vfmadd231pd 0xa8(%rsi,%rbx,1){1to8},%zmm1,%zmm21
  4030a4:	15 
  4030a5:	62 e2 f5 58 b8 74 46 	vfmadd231pd 0xa8(%rsi,%rax,2){1to8},%zmm1,%zmm22
  4030ac:	15 
  4030ad:	62 a2 f5 58 b8 7c 1e 	vfmadd231pd 0xa8(%rsi,%r11,1){1to8},%zmm1,%zmm23
  4030b4:	15 
  4030b5:	62 22 f5 58 b8 44 fe 	vfmadd231pd 0xa8(%rsi,%r15,8){1to8},%zmm1,%zmm24
  4030bc:	15 
  4030bd:	62 42 f5 58 b8 4a 15 	vfmadd231pd 0xa8(%r10){1to8},%zmm1,%zmm25
  4030c4:	62 02 f5 58 b8 54 3a 	vfmadd231pd 0xa8(%r10,%r15,1){1to8},%zmm1,%zmm26
  4030cb:	15 
  4030cc:	62 02 f5 58 b8 5c 7a 	vfmadd231pd 0xa8(%r10,%r15,2){1to8},%zmm1,%zmm27
  4030d3:	15 
  4030d4:	62 42 f5 58 b8 64 02 	vfmadd231pd 0xa8(%r10,%rax,1){1to8},%zmm1,%zmm28
  4030db:	15 
  4030dc:	62 02 f5 58 b8 6c ba 	vfmadd231pd 0xa8(%r10,%r15,4){1to8},%zmm1,%zmm29
  4030e3:	15 
  4030e4:	62 42 f5 58 b8 74 1a 	vfmadd231pd 0xa8(%r10,%rbx,1){1to8},%zmm1,%zmm30
  4030eb:	15 
  4030ec:	62 42 f5 58 b8 7c 42 	vfmadd231pd 0xa8(%r10,%rax,2){1to8},%zmm1,%zmm31
  4030f3:	15 
  4030f4:	62 f1 fd 48 28 4f 5c 	vmovapd 0x1700(%rdi),%zmm1
  4030fb:	62 e2 fd 58 b8 46 16 	vfmadd231pd 0xb0(%rsi){1to8},%zmm0,%zmm16
  403102:	62 a2 fd 58 b8 4c 3e 	vfmadd231pd 0xb0(%rsi,%r15,1){1to8},%zmm0,%zmm17
  403109:	16 
  40310a:	62 a2 fd 58 b8 54 7e 	vfmadd231pd 0xb0(%rsi,%r15,2){1to8},%zmm0,%zmm18
  403111:	16 
  403112:	62 e2 fd 58 b8 5c 06 	vfmadd231pd 0xb0(%rsi,%rax,1){1to8},%zmm0,%zmm19
  403119:	16 
  40311a:	62 a2 fd 58 b8 64 be 	vfmadd231pd 0xb0(%rsi,%r15,4){1to8},%zmm0,%zmm20
  403121:	16 
  403122:	62 e2 fd 58 b8 6c 1e 	vfmadd231pd 0xb0(%rsi,%rbx,1){1to8},%zmm0,%zmm21
  403129:	16 
  40312a:	62 e2 fd 58 b8 74 46 	vfmadd231pd 0xb0(%rsi,%rax,2){1to8},%zmm0,%zmm22
  403131:	16 
  403132:	62 a2 fd 58 b8 7c 1e 	vfmadd231pd 0xb0(%rsi,%r11,1){1to8},%zmm0,%zmm23
  403139:	16 
  40313a:	62 22 fd 58 b8 44 fe 	vfmadd231pd 0xb0(%rsi,%r15,8){1to8},%zmm0,%zmm24
  403141:	16 
  403142:	62 42 fd 58 b8 4a 16 	vfmadd231pd 0xb0(%r10){1to8},%zmm0,%zmm25
  403149:	62 02 fd 58 b8 54 3a 	vfmadd231pd 0xb0(%r10,%r15,1){1to8},%zmm0,%zmm26
  403150:	16 
  403151:	62 02 fd 58 b8 5c 7a 	vfmadd231pd 0xb0(%r10,%r15,2){1to8},%zmm0,%zmm27
  403158:	16 
  403159:	62 42 fd 58 b8 64 02 	vfmadd231pd 0xb0(%r10,%rax,1){1to8},%zmm0,%zmm28
  403160:	16 
  403161:	62 02 fd 58 b8 6c ba 	vfmadd231pd 0xb0(%r10,%r15,4){1to8},%zmm0,%zmm29
  403168:	16 
  403169:	62 42 fd 58 b8 74 1a 	vfmadd231pd 0xb0(%r10,%rbx,1){1to8},%zmm0,%zmm30
  403170:	16 
  403171:	62 42 fd 58 b8 7c 42 	vfmadd231pd 0xb0(%r10,%rax,2){1to8},%zmm0,%zmm31
  403178:	16 
  403179:	62 f1 fd 48 28 47 60 	vmovapd 0x1800(%rdi),%zmm0
  403180:	62 e2 f5 58 b8 46 17 	vfmadd231pd 0xb8(%rsi){1to8},%zmm1,%zmm16
  403187:	62 a2 f5 58 b8 4c 3e 	vfmadd231pd 0xb8(%rsi,%r15,1){1to8},%zmm1,%zmm17
  40318e:	17 
  40318f:	62 a2 f5 58 b8 54 7e 	vfmadd231pd 0xb8(%rsi,%r15,2){1to8},%zmm1,%zmm18
  403196:	17 
  403197:	62 e2 f5 58 b8 5c 06 	vfmadd231pd 0xb8(%rsi,%rax,1){1to8},%zmm1,%zmm19
  40319e:	17 
  40319f:	62 a2 f5 58 b8 64 be 	vfmadd231pd 0xb8(%rsi,%r15,4){1to8},%zmm1,%zmm20
  4031a6:	17 
  4031a7:	62 e2 f5 58 b8 6c 1e 	vfmadd231pd 0xb8(%rsi,%rbx,1){1to8},%zmm1,%zmm21
  4031ae:	17 
  4031af:	62 e2 f5 58 b8 74 46 	vfmadd231pd 0xb8(%rsi,%rax,2){1to8},%zmm1,%zmm22
  4031b6:	17 
  4031b7:	62 a2 f5 58 b8 7c 1e 	vfmadd231pd 0xb8(%rsi,%r11,1){1to8},%zmm1,%zmm23
  4031be:	17 
  4031bf:	62 22 f5 58 b8 44 fe 	vfmadd231pd 0xb8(%rsi,%r15,8){1to8},%zmm1,%zmm24
  4031c6:	17 
  4031c7:	62 42 f5 58 b8 4a 17 	vfmadd231pd 0xb8(%r10){1to8},%zmm1,%zmm25
  4031ce:	62 02 f5 58 b8 54 3a 	vfmadd231pd 0xb8(%r10,%r15,1){1to8},%zmm1,%zmm26
  4031d5:	17 
  4031d6:	62 02 f5 58 b8 5c 7a 	vfmadd231pd 0xb8(%r10,%r15,2){1to8},%zmm1,%zmm27
  4031dd:	17 
  4031de:	62 42 f5 58 b8 64 02 	vfmadd231pd 0xb8(%r10,%rax,1){1to8},%zmm1,%zmm28
  4031e5:	17 
  4031e6:	62 02 f5 58 b8 6c ba 	vfmadd231pd 0xb8(%r10,%r15,4){1to8},%zmm1,%zmm29
  4031ed:	17 
  4031ee:	62 42 f5 58 b8 74 1a 	vfmadd231pd 0xb8(%r10,%rbx,1){1to8},%zmm1,%zmm30
  4031f5:	17 
  4031f6:	62 42 f5 58 b8 7c 42 	vfmadd231pd 0xb8(%r10,%rax,2){1to8},%zmm1,%zmm31
  4031fd:	17 
  4031fe:	62 f1 fd 48 28 4f 64 	vmovapd 0x1900(%rdi),%zmm1
  403205:	62 e2 fd 58 b8 46 18 	vfmadd231pd 0xc0(%rsi){1to8},%zmm0,%zmm16
  40320c:	62 a2 fd 58 b8 4c 3e 	vfmadd231pd 0xc0(%rsi,%r15,1){1to8},%zmm0,%zmm17
  403213:	18 
  403214:	62 a2 fd 58 b8 54 7e 	vfmadd231pd 0xc0(%rsi,%r15,2){1to8},%zmm0,%zmm18
  40321b:	18 
  40321c:	62 e2 fd 58 b8 5c 06 	vfmadd231pd 0xc0(%rsi,%rax,1){1to8},%zmm0,%zmm19
  403223:	18 
  403224:	62 a2 fd 58 b8 64 be 	vfmadd231pd 0xc0(%rsi,%r15,4){1to8},%zmm0,%zmm20
  40322b:	18 
  40322c:	62 e2 fd 58 b8 6c 1e 	vfmadd231pd 0xc0(%rsi,%rbx,1){1to8},%zmm0,%zmm21
  403233:	18 
  403234:	62 e2 fd 58 b8 74 46 	vfmadd231pd 0xc0(%rsi,%rax,2){1to8},%zmm0,%zmm22
  40323b:	18 
  40323c:	62 a2 fd 58 b8 7c 1e 	vfmadd231pd 0xc0(%rsi,%r11,1){1to8},%zmm0,%zmm23
  403243:	18 
  403244:	62 22 fd 58 b8 44 fe 	vfmadd231pd 0xc0(%rsi,%r15,8){1to8},%zmm0,%zmm24
  40324b:	18 
  40324c:	62 42 fd 58 b8 4a 18 	vfmadd231pd 0xc0(%r10){1to8},%zmm0,%zmm25
  403253:	62 02 fd 58 b8 54 3a 	vfmadd231pd 0xc0(%r10,%r15,1){1to8},%zmm0,%zmm26
  40325a:	18 
  40325b:	62 02 fd 58 b8 5c 7a 	vfmadd231pd 0xc0(%r10,%r15,2){1to8},%zmm0,%zmm27
  403262:	18 
  403263:	62 42 fd 58 b8 64 02 	vfmadd231pd 0xc0(%r10,%rax,1){1to8},%zmm0,%zmm28
  40326a:	18 
  40326b:	62 02 fd 58 b8 6c ba 	vfmadd231pd 0xc0(%r10,%r15,4){1to8},%zmm0,%zmm29
  403272:	18 
  403273:	62 42 fd 58 b8 74 1a 	vfmadd231pd 0xc0(%r10,%rbx,1){1to8},%zmm0,%zmm30
  40327a:	18 
  40327b:	62 42 fd 58 b8 7c 42 	vfmadd231pd 0xc0(%r10,%rax,2){1to8},%zmm0,%zmm31
  403282:	18 
  403283:	62 f1 fd 48 28 47 68 	vmovapd 0x1a00(%rdi),%zmm0
  40328a:	62 e2 f5 58 b8 46 19 	vfmadd231pd 0xc8(%rsi){1to8},%zmm1,%zmm16
  403291:	62 a2 f5 58 b8 4c 3e 	vfmadd231pd 0xc8(%rsi,%r15,1){1to8},%zmm1,%zmm17
  403298:	19 
  403299:	62 a2 f5 58 b8 54 7e 	vfmadd231pd 0xc8(%rsi,%r15,2){1to8},%zmm1,%zmm18
  4032a0:	19 
  4032a1:	62 e2 f5 58 b8 5c 06 	vfmadd231pd 0xc8(%rsi,%rax,1){1to8},%zmm1,%zmm19
  4032a8:	19 
  4032a9:	62 a2 f5 58 b8 64 be 	vfmadd231pd 0xc8(%rsi,%r15,4){1to8},%zmm1,%zmm20
  4032b0:	19 
  4032b1:	62 e2 f5 58 b8 6c 1e 	vfmadd231pd 0xc8(%rsi,%rbx,1){1to8},%zmm1,%zmm21
  4032b8:	19 
  4032b9:	62 e2 f5 58 b8 74 46 	vfmadd231pd 0xc8(%rsi,%rax,2){1to8},%zmm1,%zmm22
  4032c0:	19 
  4032c1:	62 a2 f5 58 b8 7c 1e 	vfmadd231pd 0xc8(%rsi,%r11,1){1to8},%zmm1,%zmm23
  4032c8:	19 
  4032c9:	62 22 f5 58 b8 44 fe 	vfmadd231pd 0xc8(%rsi,%r15,8){1to8},%zmm1,%zmm24
  4032d0:	19 
  4032d1:	62 42 f5 58 b8 4a 19 	vfmadd231pd 0xc8(%r10){1to8},%zmm1,%zmm25
  4032d8:	62 02 f5 58 b8 54 3a 	vfmadd231pd 0xc8(%r10,%r15,1){1to8},%zmm1,%zmm26
  4032df:	19 
  4032e0:	62 02 f5 58 b8 5c 7a 	vfmadd231pd 0xc8(%r10,%r15,2){1to8},%zmm1,%zmm27
  4032e7:	19 
  4032e8:	62 42 f5 58 b8 64 02 	vfmadd231pd 0xc8(%r10,%rax,1){1to8},%zmm1,%zmm28
  4032ef:	19 
  4032f0:	62 02 f5 58 b8 6c ba 	vfmadd231pd 0xc8(%r10,%r15,4){1to8},%zmm1,%zmm29
  4032f7:	19 
  4032f8:	62 42 f5 58 b8 74 1a 	vfmadd231pd 0xc8(%r10,%rbx,1){1to8},%zmm1,%zmm30
  4032ff:	19 
  403300:	62 42 f5 58 b8 7c 42 	vfmadd231pd 0xc8(%r10,%rax,2){1to8},%zmm1,%zmm31
  403307:	19 
  403308:	62 f1 fd 48 28 4f 6c 	vmovapd 0x1b00(%rdi),%zmm1
  40330f:	62 e2 fd 58 b8 46 1a 	vfmadd231pd 0xd0(%rsi){1to8},%zmm0,%zmm16
  403316:	62 a2 fd 58 b8 4c 3e 	vfmadd231pd 0xd0(%rsi,%r15,1){1to8},%zmm0,%zmm17
  40331d:	1a 
  40331e:	62 a2 fd 58 b8 54 7e 	vfmadd231pd 0xd0(%rsi,%r15,2){1to8},%zmm0,%zmm18
  403325:	1a 
  403326:	62 e2 fd 58 b8 5c 06 	vfmadd231pd 0xd0(%rsi,%rax,1){1to8},%zmm0,%zmm19
  40332d:	1a 
  40332e:	62 a2 fd 58 b8 64 be 	vfmadd231pd 0xd0(%rsi,%r15,4){1to8},%zmm0,%zmm20
  403335:	1a 
  403336:	62 e2 fd 58 b8 6c 1e 	vfmadd231pd 0xd0(%rsi,%rbx,1){1to8},%zmm0,%zmm21
  40333d:	1a 
  40333e:	62 e2 fd 58 b8 74 46 	vfmadd231pd 0xd0(%rsi,%rax,2){1to8},%zmm0,%zmm22
  403345:	1a 
  403346:	62 a2 fd 58 b8 7c 1e 	vfmadd231pd 0xd0(%rsi,%r11,1){1to8},%zmm0,%zmm23
  40334d:	1a 
  40334e:	62 22 fd 58 b8 44 fe 	vfmadd231pd 0xd0(%rsi,%r15,8){1to8},%zmm0,%zmm24
  403355:	1a 
  403356:	62 42 fd 58 b8 4a 1a 	vfmadd231pd 0xd0(%r10){1to8},%zmm0,%zmm25
  40335d:	62 02 fd 58 b8 54 3a 	vfmadd231pd 0xd0(%r10,%r15,1){1to8},%zmm0,%zmm26
  403364:	1a 
  403365:	62 02 fd 58 b8 5c 7a 	vfmadd231pd 0xd0(%r10,%r15,2){1to8},%zmm0,%zmm27
  40336c:	1a 
  40336d:	62 42 fd 58 b8 64 02 	vfmadd231pd 0xd0(%r10,%rax,1){1to8},%zmm0,%zmm28
  403374:	1a 
  403375:	62 02 fd 58 b8 6c ba 	vfmadd231pd 0xd0(%r10,%r15,4){1to8},%zmm0,%zmm29
  40337c:	1a 
  40337d:	62 42 fd 58 b8 74 1a 	vfmadd231pd 0xd0(%r10,%rbx,1){1to8},%zmm0,%zmm30
  403384:	1a 
  403385:	62 42 fd 58 b8 7c 42 	vfmadd231pd 0xd0(%r10,%rax,2){1to8},%zmm0,%zmm31
  40338c:	1a 
  40338d:	62 f1 fd 48 28 47 70 	vmovapd 0x1c00(%rdi),%zmm0
  403394:	62 e2 f5 58 b8 46 1b 	vfmadd231pd 0xd8(%rsi){1to8},%zmm1,%zmm16
  40339b:	62 a2 f5 58 b8 4c 3e 	vfmadd231pd 0xd8(%rsi,%r15,1){1to8},%zmm1,%zmm17
  4033a2:	1b 
  4033a3:	62 a2 f5 58 b8 54 7e 	vfmadd231pd 0xd8(%rsi,%r15,2){1to8},%zmm1,%zmm18
  4033aa:	1b 
  4033ab:	62 e2 f5 58 b8 5c 06 	vfmadd231pd 0xd8(%rsi,%rax,1){1to8},%zmm1,%zmm19
  4033b2:	1b 
  4033b3:	62 a2 f5 58 b8 64 be 	vfmadd231pd 0xd8(%rsi,%r15,4){1to8},%zmm1,%zmm20
  4033ba:	1b 
  4033bb:	62 e2 f5 58 b8 6c 1e 	vfmadd231pd 0xd8(%rsi,%rbx,1){1to8},%zmm1,%zmm21
  4033c2:	1b 
  4033c3:	62 e2 f5 58 b8 74 46 	vfmadd231pd 0xd8(%rsi,%rax,2){1to8},%zmm1,%zmm22
  4033ca:	1b 
  4033cb:	62 a2 f5 58 b8 7c 1e 	vfmadd231pd 0xd8(%rsi,%r11,1){1to8},%zmm1,%zmm23
  4033d2:	1b 
  4033d3:	62 22 f5 58 b8 44 fe 	vfmadd231pd 0xd8(%rsi,%r15,8){1to8},%zmm1,%zmm24
  4033da:	1b 
  4033db:	62 42 f5 58 b8 4a 1b 	vfmadd231pd 0xd8(%r10){1to8},%zmm1,%zmm25
  4033e2:	62 02 f5 58 b8 54 3a 	vfmadd231pd 0xd8(%r10,%r15,1){1to8},%zmm1,%zmm26
  4033e9:	1b 
  4033ea:	62 02 f5 58 b8 5c 7a 	vfmadd231pd 0xd8(%r10,%r15,2){1to8},%zmm1,%zmm27
  4033f1:	1b 
  4033f2:	62 42 f5 58 b8 64 02 	vfmadd231pd 0xd8(%r10,%rax,1){1to8},%zmm1,%zmm28
  4033f9:	1b 
  4033fa:	62 02 f5 58 b8 6c ba 	vfmadd231pd 0xd8(%r10,%r15,4){1to8},%zmm1,%zmm29
  403401:	1b 
  403402:	62 42 f5 58 b8 74 1a 	vfmadd231pd 0xd8(%r10,%rbx,1){1to8},%zmm1,%zmm30
  403409:	1b 
  40340a:	62 42 f5 58 b8 7c 42 	vfmadd231pd 0xd8(%r10,%rax,2){1to8},%zmm1,%zmm31
  403411:	1b 
  403412:	62 f1 fd 48 28 4f 74 	vmovapd 0x1d00(%rdi),%zmm1
  403419:	62 e2 fd 58 b8 46 1c 	vfmadd231pd 0xe0(%rsi){1to8},%zmm0,%zmm16
  403420:	62 a2 fd 58 b8 4c 3e 	vfmadd231pd 0xe0(%rsi,%r15,1){1to8},%zmm0,%zmm17
  403427:	1c 
  403428:	62 a2 fd 58 b8 54 7e 	vfmadd231pd 0xe0(%rsi,%r15,2){1to8},%zmm0,%zmm18
  40342f:	1c 
  403430:	62 e2 fd 58 b8 5c 06 	vfmadd231pd 0xe0(%rsi,%rax,1){1to8},%zmm0,%zmm19
  403437:	1c 
  403438:	62 a2 fd 58 b8 64 be 	vfmadd231pd 0xe0(%rsi,%r15,4){1to8},%zmm0,%zmm20
  40343f:	1c 
  403440:	62 e2 fd 58 b8 6c 1e 	vfmadd231pd 0xe0(%rsi,%rbx,1){1to8},%zmm0,%zmm21
  403447:	1c 
  403448:	62 e2 fd 58 b8 74 46 	vfmadd231pd 0xe0(%rsi,%rax,2){1to8},%zmm0,%zmm22
  40344f:	1c 
  403450:	62 a2 fd 58 b8 7c 1e 	vfmadd231pd 0xe0(%rsi,%r11,1){1to8},%zmm0,%zmm23
  403457:	1c 
  403458:	62 22 fd 58 b8 44 fe 	vfmadd231pd 0xe0(%rsi,%r15,8){1to8},%zmm0,%zmm24
  40345f:	1c 
  403460:	62 42 fd 58 b8 4a 1c 	vfmadd231pd 0xe0(%r10){1to8},%zmm0,%zmm25
  403467:	62 02 fd 58 b8 54 3a 	vfmadd231pd 0xe0(%r10,%r15,1){1to8},%zmm0,%zmm26
  40346e:	1c 
  40346f:	62 02 fd 58 b8 5c 7a 	vfmadd231pd 0xe0(%r10,%r15,2){1to8},%zmm0,%zmm27
  403476:	1c 
  403477:	62 42 fd 58 b8 64 02 	vfmadd231pd 0xe0(%r10,%rax,1){1to8},%zmm0,%zmm28
  40347e:	1c 
  40347f:	62 02 fd 58 b8 6c ba 	vfmadd231pd 0xe0(%r10,%r15,4){1to8},%zmm0,%zmm29
  403486:	1c 
  403487:	62 42 fd 58 b8 74 1a 	vfmadd231pd 0xe0(%r10,%rbx,1){1to8},%zmm0,%zmm30
  40348e:	1c 
  40348f:	62 42 fd 58 b8 7c 42 	vfmadd231pd 0xe0(%r10,%rax,2){1to8},%zmm0,%zmm31
  403496:	1c 
  403497:	62 f1 fd 48 28 47 78 	vmovapd 0x1e00(%rdi),%zmm0
  40349e:	62 e2 f5 58 b8 46 1d 	vfmadd231pd 0xe8(%rsi){1to8},%zmm1,%zmm16
  4034a5:	62 a2 f5 58 b8 4c 3e 	vfmadd231pd 0xe8(%rsi,%r15,1){1to8},%zmm1,%zmm17
  4034ac:	1d 
  4034ad:	62 a2 f5 58 b8 54 7e 	vfmadd231pd 0xe8(%rsi,%r15,2){1to8},%zmm1,%zmm18
  4034b4:	1d 
  4034b5:	62 e2 f5 58 b8 5c 06 	vfmadd231pd 0xe8(%rsi,%rax,1){1to8},%zmm1,%zmm19
  4034bc:	1d 
  4034bd:	62 a2 f5 58 b8 64 be 	vfmadd231pd 0xe8(%rsi,%r15,4){1to8},%zmm1,%zmm20
  4034c4:	1d 
  4034c5:	62 e2 f5 58 b8 6c 1e 	vfmadd231pd 0xe8(%rsi,%rbx,1){1to8},%zmm1,%zmm21
  4034cc:	1d 
  4034cd:	62 e2 f5 58 b8 74 46 	vfmadd231pd 0xe8(%rsi,%rax,2){1to8},%zmm1,%zmm22
  4034d4:	1d 
  4034d5:	62 a2 f5 58 b8 7c 1e 	vfmadd231pd 0xe8(%rsi,%r11,1){1to8},%zmm1,%zmm23
  4034dc:	1d 
  4034dd:	62 22 f5 58 b8 44 fe 	vfmadd231pd 0xe8(%rsi,%r15,8){1to8},%zmm1,%zmm24
  4034e4:	1d 
  4034e5:	62 42 f5 58 b8 4a 1d 	vfmadd231pd 0xe8(%r10){1to8},%zmm1,%zmm25
  4034ec:	62 02 f5 58 b8 54 3a 	vfmadd231pd 0xe8(%r10,%r15,1){1to8},%zmm1,%zmm26
  4034f3:	1d 
  4034f4:	62 02 f5 58 b8 5c 7a 	vfmadd231pd 0xe8(%r10,%r15,2){1to8},%zmm1,%zmm27
  4034fb:	1d 
  4034fc:	62 42 f5 58 b8 64 02 	vfmadd231pd 0xe8(%r10,%rax,1){1to8},%zmm1,%zmm28
  403503:	1d 
  403504:	62 02 f5 58 b8 6c ba 	vfmadd231pd 0xe8(%r10,%r15,4){1to8},%zmm1,%zmm29
  40350b:	1d 
  40350c:	62 42 f5 58 b8 74 1a 	vfmadd231pd 0xe8(%r10,%rbx,1){1to8},%zmm1,%zmm30
  403513:	1d 
  403514:	62 42 f5 58 b8 7c 42 	vfmadd231pd 0xe8(%r10,%rax,2){1to8},%zmm1,%zmm31
  40351b:	1d 
  40351c:	62 f1 fd 48 28 4f 7c 	vmovapd 0x1f00(%rdi),%zmm1
  403523:	48 81 c7 00 20 00 00 	add    $0x2000,%rdi
  40352a:	62 e2 fd 58 b8 46 1e 	vfmadd231pd 0xf0(%rsi){1to8},%zmm0,%zmm16
  403531:	62 a2 fd 58 b8 4c 3e 	vfmadd231pd 0xf0(%rsi,%r15,1){1to8},%zmm0,%zmm17
  403538:	1e 
  403539:	62 a2 fd 58 b8 54 7e 	vfmadd231pd 0xf0(%rsi,%r15,2){1to8},%zmm0,%zmm18
  403540:	1e 
  403541:	62 e2 fd 58 b8 5c 06 	vfmadd231pd 0xf0(%rsi,%rax,1){1to8},%zmm0,%zmm19
  403548:	1e 
  403549:	62 a2 fd 58 b8 64 be 	vfmadd231pd 0xf0(%rsi,%r15,4){1to8},%zmm0,%zmm20
  403550:	1e 
  403551:	62 e2 fd 58 b8 6c 1e 	vfmadd231pd 0xf0(%rsi,%rbx,1){1to8},%zmm0,%zmm21
  403558:	1e 
  403559:	62 e2 fd 58 b8 74 46 	vfmadd231pd 0xf0(%rsi,%rax,2){1to8},%zmm0,%zmm22
  403560:	1e 
  403561:	62 a2 fd 58 b8 7c 1e 	vfmadd231pd 0xf0(%rsi,%r11,1){1to8},%zmm0,%zmm23
  403568:	1e 
  403569:	62 22 fd 58 b8 44 fe 	vfmadd231pd 0xf0(%rsi,%r15,8){1to8},%zmm0,%zmm24
  403570:	1e 
  403571:	62 42 fd 58 b8 4a 1e 	vfmadd231pd 0xf0(%r10){1to8},%zmm0,%zmm25
  403578:	62 02 fd 58 b8 54 3a 	vfmadd231pd 0xf0(%r10,%r15,1){1to8},%zmm0,%zmm26
  40357f:	1e 
  403580:	62 02 fd 58 b8 5c 7a 	vfmadd231pd 0xf0(%r10,%r15,2){1to8},%zmm0,%zmm27
  403587:	1e 
  403588:	62 42 fd 58 b8 64 02 	vfmadd231pd 0xf0(%r10,%rax,1){1to8},%zmm0,%zmm28
  40358f:	1e 
  403590:	62 02 fd 58 b8 6c ba 	vfmadd231pd 0xf0(%r10,%r15,4){1to8},%zmm0,%zmm29
  403597:	1e 
  403598:	62 42 fd 58 b8 74 1a 	vfmadd231pd 0xf0(%r10,%rbx,1){1to8},%zmm0,%zmm30
  40359f:	1e 
  4035a0:	62 42 fd 58 b8 7c 42 	vfmadd231pd 0xf0(%r10,%rax,2){1to8},%zmm0,%zmm31
  4035a7:	1e 
  4035a8:	62 f1 fd 48 28 07    	vmovapd (%rdi),%zmm0
  4035ae:	62 e2 f5 58 b8 46 1f 	vfmadd231pd 0xf8(%rsi){1to8},%zmm1,%zmm16
  4035b5:	62 a2 f5 58 b8 4c 3e 	vfmadd231pd 0xf8(%rsi,%r15,1){1to8},%zmm1,%zmm17
  4035bc:	1f 
  4035bd:	62 a2 f5 58 b8 54 7e 	vfmadd231pd 0xf8(%rsi,%r15,2){1to8},%zmm1,%zmm18
  4035c4:	1f 
  4035c5:	62 e2 f5 58 b8 5c 06 	vfmadd231pd 0xf8(%rsi,%rax,1){1to8},%zmm1,%zmm19
  4035cc:	1f 
  4035cd:	62 a2 f5 58 b8 64 be 	vfmadd231pd 0xf8(%rsi,%r15,4){1to8},%zmm1,%zmm20
  4035d4:	1f 
  4035d5:	62 e2 f5 58 b8 6c 1e 	vfmadd231pd 0xf8(%rsi,%rbx,1){1to8},%zmm1,%zmm21
  4035dc:	1f 
  4035dd:	62 e2 f5 58 b8 74 46 	vfmadd231pd 0xf8(%rsi,%rax,2){1to8},%zmm1,%zmm22
  4035e4:	1f 
  4035e5:	62 a2 f5 58 b8 7c 1e 	vfmadd231pd 0xf8(%rsi,%r11,1){1to8},%zmm1,%zmm23
  4035ec:	1f 
  4035ed:	62 22 f5 58 b8 44 fe 	vfmadd231pd 0xf8(%rsi,%r15,8){1to8},%zmm1,%zmm24
  4035f4:	1f 
  4035f5:	62 42 f5 58 b8 4a 1f 	vfmadd231pd 0xf8(%r10){1to8},%zmm1,%zmm25
  4035fc:	62 02 f5 58 b8 54 3a 	vfmadd231pd 0xf8(%r10,%r15,1){1to8},%zmm1,%zmm26
  403603:	1f 
  403604:	62 02 f5 58 b8 5c 7a 	vfmadd231pd 0xf8(%r10,%r15,2){1to8},%zmm1,%zmm27
  40360b:	1f 
  40360c:	62 42 f5 58 b8 64 02 	vfmadd231pd 0xf8(%r10,%rax,1){1to8},%zmm1,%zmm28
  403613:	1f 
  403614:	62 02 f5 58 b8 6c ba 	vfmadd231pd 0xf8(%r10,%r15,4){1to8},%zmm1,%zmm29
  40361b:	1f 
  40361c:	62 42 f5 58 b8 74 1a 	vfmadd231pd 0xf8(%r10,%rbx,1){1to8},%zmm1,%zmm30
  403623:	1f 
  403624:	62 42 f5 58 b8 7c 42 	vfmadd231pd 0xf8(%r10,%rax,2){1to8},%zmm1,%zmm31
  40362b:	1f 
  40362c:	62 f1 fd 48 28 4f 04 	vmovapd 0x100(%rdi),%zmm1
  403633:	62 e2 fd 58 b8 46 20 	vfmadd231pd 0x100(%rsi){1to8},%zmm0,%zmm16
  40363a:	62 a2 fd 58 b8 4c 3e 	vfmadd231pd 0x100(%rsi,%r15,1){1to8},%zmm0,%zmm17
  403641:	20 
  403642:	62 a2 fd 58 b8 54 7e 	vfmadd231pd 0x100(%rsi,%r15,2){1to8},%zmm0,%zmm18
  403649:	20 
  40364a:	62 e2 fd 58 b8 5c 06 	vfmadd231pd 0x100(%rsi,%rax,1){1to8},%zmm0,%zmm19
  403651:	20 
  403652:	62 a2 fd 58 b8 64 be 	vfmadd231pd 0x100(%rsi,%r15,4){1to8},%zmm0,%zmm20
  403659:	20 
  40365a:	62 e2 fd 58 b8 6c 1e 	vfmadd231pd 0x100(%rsi,%rbx,1){1to8},%zmm0,%zmm21
  403661:	20 
  403662:	62 e2 fd 58 b8 74 46 	vfmadd231pd 0x100(%rsi,%rax,2){1to8},%zmm0,%zmm22
  403669:	20 
  40366a:	62 a2 fd 58 b8 7c 1e 	vfmadd231pd 0x100(%rsi,%r11,1){1to8},%zmm0,%zmm23
  403671:	20 
  403672:	62 22 fd 58 b8 44 fe 	vfmadd231pd 0x100(%rsi,%r15,8){1to8},%zmm0,%zmm24
  403679:	20 
  40367a:	62 42 fd 58 b8 4a 20 	vfmadd231pd 0x100(%r10){1to8},%zmm0,%zmm25
  403681:	62 02 fd 58 b8 54 3a 	vfmadd231pd 0x100(%r10,%r15,1){1to8},%zmm0,%zmm26
  403688:	20 
  403689:	62 02 fd 58 b8 5c 7a 	vfmadd231pd 0x100(%r10,%r15,2){1to8},%zmm0,%zmm27
  403690:	20 
  403691:	62 42 fd 58 b8 64 02 	vfmadd231pd 0x100(%r10,%rax,1){1to8},%zmm0,%zmm28
  403698:	20 
  403699:	62 02 fd 58 b8 6c ba 	vfmadd231pd 0x100(%r10,%r15,4){1to8},%zmm0,%zmm29
  4036a0:	20 
  4036a1:	62 42 fd 58 b8 74 1a 	vfmadd231pd 0x100(%r10,%rbx,1){1to8},%zmm0,%zmm30
  4036a8:	20 
  4036a9:	62 42 fd 58 b8 7c 42 	vfmadd231pd 0x100(%r10,%rax,2){1to8},%zmm0,%zmm31
  4036b0:	20 
  4036b1:	62 f1 fd 48 28 47 08 	vmovapd 0x200(%rdi),%zmm0
  4036b8:	62 e2 f5 58 b8 46 21 	vfmadd231pd 0x108(%rsi){1to8},%zmm1,%zmm16
  4036bf:	62 a2 f5 58 b8 4c 3e 	vfmadd231pd 0x108(%rsi,%r15,1){1to8},%zmm1,%zmm17
  4036c6:	21 
  4036c7:	62 a2 f5 58 b8 54 7e 	vfmadd231pd 0x108(%rsi,%r15,2){1to8},%zmm1,%zmm18
  4036ce:	21 
  4036cf:	62 e2 f5 58 b8 5c 06 	vfmadd231pd 0x108(%rsi,%rax,1){1to8},%zmm1,%zmm19
  4036d6:	21 
  4036d7:	62 a2 f5 58 b8 64 be 	vfmadd231pd 0x108(%rsi,%r15,4){1to8},%zmm1,%zmm20
  4036de:	21 
  4036df:	62 e2 f5 58 b8 6c 1e 	vfmadd231pd 0x108(%rsi,%rbx,1){1to8},%zmm1,%zmm21
  4036e6:	21 
  4036e7:	62 e2 f5 58 b8 74 46 	vfmadd231pd 0x108(%rsi,%rax,2){1to8},%zmm1,%zmm22
  4036ee:	21 
  4036ef:	62 a2 f5 58 b8 7c 1e 	vfmadd231pd 0x108(%rsi,%r11,1){1to8},%zmm1,%zmm23
  4036f6:	21 
  4036f7:	62 22 f5 58 b8 44 fe 	vfmadd231pd 0x108(%rsi,%r15,8){1to8},%zmm1,%zmm24
  4036fe:	21 
  4036ff:	62 42 f5 58 b8 4a 21 	vfmadd231pd 0x108(%r10){1to8},%zmm1,%zmm25
  403706:	62 02 f5 58 b8 54 3a 	vfmadd231pd 0x108(%r10,%r15,1){1to8},%zmm1,%zmm26
  40370d:	21 
  40370e:	62 02 f5 58 b8 5c 7a 	vfmadd231pd 0x108(%r10,%r15,2){1to8},%zmm1,%zmm27
  403715:	21 
  403716:	62 42 f5 58 b8 64 02 	vfmadd231pd 0x108(%r10,%rax,1){1to8},%zmm1,%zmm28
  40371d:	21 
  40371e:	62 02 f5 58 b8 6c ba 	vfmadd231pd 0x108(%r10,%r15,4){1to8},%zmm1,%zmm29
  403725:	21 
  403726:	62 42 f5 58 b8 74 1a 	vfmadd231pd 0x108(%r10,%rbx,1){1to8},%zmm1,%zmm30
  40372d:	21 
  40372e:	62 42 f5 58 b8 7c 42 	vfmadd231pd 0x108(%r10,%rax,2){1to8},%zmm1,%zmm31
  403735:	21 
  403736:	62 f1 fd 48 28 4f 0c 	vmovapd 0x300(%rdi),%zmm1
  40373d:	62 e2 fd 58 b8 46 22 	vfmadd231pd 0x110(%rsi){1to8},%zmm0,%zmm16
  403744:	62 a2 fd 58 b8 4c 3e 	vfmadd231pd 0x110(%rsi,%r15,1){1to8},%zmm0,%zmm17
  40374b:	22 
  40374c:	62 a2 fd 58 b8 54 7e 	vfmadd231pd 0x110(%rsi,%r15,2){1to8},%zmm0,%zmm18
  403753:	22 
  403754:	62 e2 fd 58 b8 5c 06 	vfmadd231pd 0x110(%rsi,%rax,1){1to8},%zmm0,%zmm19
  40375b:	22 
  40375c:	62 a2 fd 58 b8 64 be 	vfmadd231pd 0x110(%rsi,%r15,4){1to8},%zmm0,%zmm20
  403763:	22 
  403764:	62 e2 fd 58 b8 6c 1e 	vfmadd231pd 0x110(%rsi,%rbx,1){1to8},%zmm0,%zmm21
  40376b:	22 
  40376c:	62 e2 fd 58 b8 74 46 	vfmadd231pd 0x110(%rsi,%rax,2){1to8},%zmm0,%zmm22
  403773:	22 
  403774:	62 a2 fd 58 b8 7c 1e 	vfmadd231pd 0x110(%rsi,%r11,1){1to8},%zmm0,%zmm23
  40377b:	22 
  40377c:	62 22 fd 58 b8 44 fe 	vfmadd231pd 0x110(%rsi,%r15,8){1to8},%zmm0,%zmm24
  403783:	22 
  403784:	62 42 fd 58 b8 4a 22 	vfmadd231pd 0x110(%r10){1to8},%zmm0,%zmm25
  40378b:	62 02 fd 58 b8 54 3a 	vfmadd231pd 0x110(%r10,%r15,1){1to8},%zmm0,%zmm26
  403792:	22 
  403793:	62 02 fd 58 b8 5c 7a 	vfmadd231pd 0x110(%r10,%r15,2){1to8},%zmm0,%zmm27
  40379a:	22 
  40379b:	62 42 fd 58 b8 64 02 	vfmadd231pd 0x110(%r10,%rax,1){1to8},%zmm0,%zmm28
  4037a2:	22 
  4037a3:	62 02 fd 58 b8 6c ba 	vfmadd231pd 0x110(%r10,%r15,4){1to8},%zmm0,%zmm29
  4037aa:	22 
  4037ab:	62 42 fd 58 b8 74 1a 	vfmadd231pd 0x110(%r10,%rbx,1){1to8},%zmm0,%zmm30
  4037b2:	22 
  4037b3:	62 42 fd 58 b8 7c 42 	vfmadd231pd 0x110(%r10,%rax,2){1to8},%zmm0,%zmm31
  4037ba:	22 
  4037bb:	62 f1 fd 48 28 47 10 	vmovapd 0x400(%rdi),%zmm0
  4037c2:	62 e2 f5 58 b8 46 23 	vfmadd231pd 0x118(%rsi){1to8},%zmm1,%zmm16
  4037c9:	62 a2 f5 58 b8 4c 3e 	vfmadd231pd 0x118(%rsi,%r15,1){1to8},%zmm1,%zmm17
  4037d0:	23 
  4037d1:	62 a2 f5 58 b8 54 7e 	vfmadd231pd 0x118(%rsi,%r15,2){1to8},%zmm1,%zmm18
  4037d8:	23 
  4037d9:	62 e2 f5 58 b8 5c 06 	vfmadd231pd 0x118(%rsi,%rax,1){1to8},%zmm1,%zmm19
  4037e0:	23 
  4037e1:	62 a2 f5 58 b8 64 be 	vfmadd231pd 0x118(%rsi,%r15,4){1to8},%zmm1,%zmm20
  4037e8:	23 
  4037e9:	62 e2 f5 58 b8 6c 1e 	vfmadd231pd 0x118(%rsi,%rbx,1){1to8},%zmm1,%zmm21
  4037f0:	23 
  4037f1:	62 e2 f5 58 b8 74 46 	vfmadd231pd 0x118(%rsi,%rax,2){1to8},%zmm1,%zmm22
  4037f8:	23 
  4037f9:	62 a2 f5 58 b8 7c 1e 	vfmadd231pd 0x118(%rsi,%r11,1){1to8},%zmm1,%zmm23
  403800:	23 
  403801:	62 22 f5 58 b8 44 fe 	vfmadd231pd 0x118(%rsi,%r15,8){1to8},%zmm1,%zmm24
  403808:	23 
  403809:	62 42 f5 58 b8 4a 23 	vfmadd231pd 0x118(%r10){1to8},%zmm1,%zmm25
  403810:	62 02 f5 58 b8 54 3a 	vfmadd231pd 0x118(%r10,%r15,1){1to8},%zmm1,%zmm26
  403817:	23 
  403818:	62 02 f5 58 b8 5c 7a 	vfmadd231pd 0x118(%r10,%r15,2){1to8},%zmm1,%zmm27
  40381f:	23 
  403820:	62 42 f5 58 b8 64 02 	vfmadd231pd 0x118(%r10,%rax,1){1to8},%zmm1,%zmm28
  403827:	23 
  403828:	62 02 f5 58 b8 6c ba 	vfmadd231pd 0x118(%r10,%r15,4){1to8},%zmm1,%zmm29
  40382f:	23 
  403830:	62 42 f5 58 b8 74 1a 	vfmadd231pd 0x118(%r10,%rbx,1){1to8},%zmm1,%zmm30
  403837:	23 
  403838:	62 42 f5 58 b8 7c 42 	vfmadd231pd 0x118(%r10,%rax,2){1to8},%zmm1,%zmm31
  40383f:	23 
  403840:	62 f1 fd 48 28 4f 14 	vmovapd 0x500(%rdi),%zmm1
  403847:	62 e2 fd 58 b8 46 24 	vfmadd231pd 0x120(%rsi){1to8},%zmm0,%zmm16
  40384e:	62 a2 fd 58 b8 4c 3e 	vfmadd231pd 0x120(%rsi,%r15,1){1to8},%zmm0,%zmm17
  403855:	24 
  403856:	62 a2 fd 58 b8 54 7e 	vfmadd231pd 0x120(%rsi,%r15,2){1to8},%zmm0,%zmm18
  40385d:	24 
  40385e:	62 e2 fd 58 b8 5c 06 	vfmadd231pd 0x120(%rsi,%rax,1){1to8},%zmm0,%zmm19
  403865:	24 
  403866:	62 a2 fd 58 b8 64 be 	vfmadd231pd 0x120(%rsi,%r15,4){1to8},%zmm0,%zmm20
  40386d:	24 
  40386e:	62 e2 fd 58 b8 6c 1e 	vfmadd231pd 0x120(%rsi,%rbx,1){1to8},%zmm0,%zmm21
  403875:	24 
  403876:	62 e2 fd 58 b8 74 46 	vfmadd231pd 0x120(%rsi,%rax,2){1to8},%zmm0,%zmm22
  40387d:	24 
  40387e:	62 a2 fd 58 b8 7c 1e 	vfmadd231pd 0x120(%rsi,%r11,1){1to8},%zmm0,%zmm23
  403885:	24 
  403886:	62 22 fd 58 b8 44 fe 	vfmadd231pd 0x120(%rsi,%r15,8){1to8},%zmm0,%zmm24
  40388d:	24 
  40388e:	62 42 fd 58 b8 4a 24 	vfmadd231pd 0x120(%r10){1to8},%zmm0,%zmm25
  403895:	62 02 fd 58 b8 54 3a 	vfmadd231pd 0x120(%r10,%r15,1){1to8},%zmm0,%zmm26
  40389c:	24 
  40389d:	62 02 fd 58 b8 5c 7a 	vfmadd231pd 0x120(%r10,%r15,2){1to8},%zmm0,%zmm27
  4038a4:	24 
  4038a5:	62 42 fd 58 b8 64 02 	vfmadd231pd 0x120(%r10,%rax,1){1to8},%zmm0,%zmm28
  4038ac:	24 
  4038ad:	62 02 fd 58 b8 6c ba 	vfmadd231pd 0x120(%r10,%r15,4){1to8},%zmm0,%zmm29
  4038b4:	24 
  4038b5:	62 42 fd 58 b8 74 1a 	vfmadd231pd 0x120(%r10,%rbx,1){1to8},%zmm0,%zmm30
  4038bc:	24 
  4038bd:	62 42 fd 58 b8 7c 42 	vfmadd231pd 0x120(%r10,%rax,2){1to8},%zmm0,%zmm31
  4038c4:	24 
  4038c5:	62 f1 fd 48 28 47 18 	vmovapd 0x600(%rdi),%zmm0
  4038cc:	62 e2 f5 58 b8 46 25 	vfmadd231pd 0x128(%rsi){1to8},%zmm1,%zmm16
  4038d3:	62 a2 f5 58 b8 4c 3e 	vfmadd231pd 0x128(%rsi,%r15,1){1to8},%zmm1,%zmm17
  4038da:	25 
  4038db:	62 a2 f5 58 b8 54 7e 	vfmadd231pd 0x128(%rsi,%r15,2){1to8},%zmm1,%zmm18
  4038e2:	25 
  4038e3:	62 e2 f5 58 b8 5c 06 	vfmadd231pd 0x128(%rsi,%rax,1){1to8},%zmm1,%zmm19
  4038ea:	25 
  4038eb:	62 a2 f5 58 b8 64 be 	vfmadd231pd 0x128(%rsi,%r15,4){1to8},%zmm1,%zmm20
  4038f2:	25 
  4038f3:	62 e2 f5 58 b8 6c 1e 	vfmadd231pd 0x128(%rsi,%rbx,1){1to8},%zmm1,%zmm21
  4038fa:	25 
  4038fb:	62 e2 f5 58 b8 74 46 	vfmadd231pd 0x128(%rsi,%rax,2){1to8},%zmm1,%zmm22
  403902:	25 
  403903:	62 a2 f5 58 b8 7c 1e 	vfmadd231pd 0x128(%rsi,%r11,1){1to8},%zmm1,%zmm23
  40390a:	25 
  40390b:	62 22 f5 58 b8 44 fe 	vfmadd231pd 0x128(%rsi,%r15,8){1to8},%zmm1,%zmm24
  403912:	25 
  403913:	62 42 f5 58 b8 4a 25 	vfmadd231pd 0x128(%r10){1to8},%zmm1,%zmm25
  40391a:	62 02 f5 58 b8 54 3a 	vfmadd231pd 0x128(%r10,%r15,1){1to8},%zmm1,%zmm26
  403921:	25 
  403922:	62 02 f5 58 b8 5c 7a 	vfmadd231pd 0x128(%r10,%r15,2){1to8},%zmm1,%zmm27
  403929:	25 
  40392a:	62 42 f5 58 b8 64 02 	vfmadd231pd 0x128(%r10,%rax,1){1to8},%zmm1,%zmm28
  403931:	25 
  403932:	62 02 f5 58 b8 6c ba 	vfmadd231pd 0x128(%r10,%r15,4){1to8},%zmm1,%zmm29
  403939:	25 
  40393a:	62 42 f5 58 b8 74 1a 	vfmadd231pd 0x128(%r10,%rbx,1){1to8},%zmm1,%zmm30
  403941:	25 
  403942:	62 42 f5 58 b8 7c 42 	vfmadd231pd 0x128(%r10,%rax,2){1to8},%zmm1,%zmm31
  403949:	25 
  40394a:	62 f1 fd 48 28 4f 1c 	vmovapd 0x700(%rdi),%zmm1
  403951:	62 e2 fd 58 b8 46 26 	vfmadd231pd 0x130(%rsi){1to8},%zmm0,%zmm16
  403958:	62 a2 fd 58 b8 4c 3e 	vfmadd231pd 0x130(%rsi,%r15,1){1to8},%zmm0,%zmm17
  40395f:	26 
  403960:	62 a2 fd 58 b8 54 7e 	vfmadd231pd 0x130(%rsi,%r15,2){1to8},%zmm0,%zmm18
  403967:	26 
  403968:	62 e2 fd 58 b8 5c 06 	vfmadd231pd 0x130(%rsi,%rax,1){1to8},%zmm0,%zmm19
  40396f:	26 
  403970:	62 a2 fd 58 b8 64 be 	vfmadd231pd 0x130(%rsi,%r15,4){1to8},%zmm0,%zmm20
  403977:	26 
  403978:	62 e2 fd 58 b8 6c 1e 	vfmadd231pd 0x130(%rsi,%rbx,1){1to8},%zmm0,%zmm21
  40397f:	26 
  403980:	62 e2 fd 58 b8 74 46 	vfmadd231pd 0x130(%rsi,%rax,2){1to8},%zmm0,%zmm22
  403987:	26 
  403988:	62 a2 fd 58 b8 7c 1e 	vfmadd231pd 0x130(%rsi,%r11,1){1to8},%zmm0,%zmm23
  40398f:	26 
  403990:	62 22 fd 58 b8 44 fe 	vfmadd231pd 0x130(%rsi,%r15,8){1to8},%zmm0,%zmm24
  403997:	26 
  403998:	62 42 fd 58 b8 4a 26 	vfmadd231pd 0x130(%r10){1to8},%zmm0,%zmm25
  40399f:	62 02 fd 58 b8 54 3a 	vfmadd231pd 0x130(%r10,%r15,1){1to8},%zmm0,%zmm26
  4039a6:	26 
  4039a7:	62 02 fd 58 b8 5c 7a 	vfmadd231pd 0x130(%r10,%r15,2){1to8},%zmm0,%zmm27
  4039ae:	26 
  4039af:	62 42 fd 58 b8 64 02 	vfmadd231pd 0x130(%r10,%rax,1){1to8},%zmm0,%zmm28
  4039b6:	26 
  4039b7:	62 02 fd 58 b8 6c ba 	vfmadd231pd 0x130(%r10,%r15,4){1to8},%zmm0,%zmm29
  4039be:	26 
  4039bf:	62 42 fd 58 b8 74 1a 	vfmadd231pd 0x130(%r10,%rbx,1){1to8},%zmm0,%zmm30
  4039c6:	26 
  4039c7:	62 42 fd 58 b8 7c 42 	vfmadd231pd 0x130(%r10,%rax,2){1to8},%zmm0,%zmm31
  4039ce:	26 
  4039cf:	62 f1 fd 48 28 47 20 	vmovapd 0x800(%rdi),%zmm0
  4039d6:	62 e2 f5 58 b8 46 27 	vfmadd231pd 0x138(%rsi){1to8},%zmm1,%zmm16
  4039dd:	62 a2 f5 58 b8 4c 3e 	vfmadd231pd 0x138(%rsi,%r15,1){1to8},%zmm1,%zmm17
  4039e4:	27 
  4039e5:	62 a2 f5 58 b8 54 7e 	vfmadd231pd 0x138(%rsi,%r15,2){1to8},%zmm1,%zmm18
  4039ec:	27 
  4039ed:	62 e2 f5 58 b8 5c 06 	vfmadd231pd 0x138(%rsi,%rax,1){1to8},%zmm1,%zmm19
  4039f4:	27 
  4039f5:	62 a2 f5 58 b8 64 be 	vfmadd231pd 0x138(%rsi,%r15,4){1to8},%zmm1,%zmm20
  4039fc:	27 
  4039fd:	62 e2 f5 58 b8 6c 1e 	vfmadd231pd 0x138(%rsi,%rbx,1){1to8},%zmm1,%zmm21
  403a04:	27 
  403a05:	62 e2 f5 58 b8 74 46 	vfmadd231pd 0x138(%rsi,%rax,2){1to8},%zmm1,%zmm22
  403a0c:	27 
  403a0d:	62 a2 f5 58 b8 7c 1e 	vfmadd231pd 0x138(%rsi,%r11,1){1to8},%zmm1,%zmm23
  403a14:	27 
  403a15:	62 22 f5 58 b8 44 fe 	vfmadd231pd 0x138(%rsi,%r15,8){1to8},%zmm1,%zmm24
  403a1c:	27 
  403a1d:	62 42 f5 58 b8 4a 27 	vfmadd231pd 0x138(%r10){1to8},%zmm1,%zmm25
  403a24:	62 02 f5 58 b8 54 3a 	vfmadd231pd 0x138(%r10,%r15,1){1to8},%zmm1,%zmm26
  403a2b:	27 
  403a2c:	62 02 f5 58 b8 5c 7a 	vfmadd231pd 0x138(%r10,%r15,2){1to8},%zmm1,%zmm27
  403a33:	27 
  403a34:	62 42 f5 58 b8 64 02 	vfmadd231pd 0x138(%r10,%rax,1){1to8},%zmm1,%zmm28
  403a3b:	27 
  403a3c:	62 02 f5 58 b8 6c ba 	vfmadd231pd 0x138(%r10,%r15,4){1to8},%zmm1,%zmm29
  403a43:	27 
  403a44:	62 42 f5 58 b8 74 1a 	vfmadd231pd 0x138(%r10,%rbx,1){1to8},%zmm1,%zmm30
  403a4b:	27 
  403a4c:	62 42 f5 58 b8 7c 42 	vfmadd231pd 0x138(%r10,%rax,2){1to8},%zmm1,%zmm31
  403a53:	27 
  403a54:	62 f1 fd 48 28 4f 24 	vmovapd 0x900(%rdi),%zmm1
  403a5b:	62 e2 fd 58 b8 46 28 	vfmadd231pd 0x140(%rsi){1to8},%zmm0,%zmm16
  403a62:	62 a2 fd 58 b8 4c 3e 	vfmadd231pd 0x140(%rsi,%r15,1){1to8},%zmm0,%zmm17
  403a69:	28 
  403a6a:	62 a2 fd 58 b8 54 7e 	vfmadd231pd 0x140(%rsi,%r15,2){1to8},%zmm0,%zmm18
  403a71:	28 
  403a72:	62 e2 fd 58 b8 5c 06 	vfmadd231pd 0x140(%rsi,%rax,1){1to8},%zmm0,%zmm19
  403a79:	28 
  403a7a:	62 a2 fd 58 b8 64 be 	vfmadd231pd 0x140(%rsi,%r15,4){1to8},%zmm0,%zmm20
  403a81:	28 
  403a82:	62 e2 fd 58 b8 6c 1e 	vfmadd231pd 0x140(%rsi,%rbx,1){1to8},%zmm0,%zmm21
  403a89:	28 
  403a8a:	62 e2 fd 58 b8 74 46 	vfmadd231pd 0x140(%rsi,%rax,2){1to8},%zmm0,%zmm22
  403a91:	28 
  403a92:	62 a2 fd 58 b8 7c 1e 	vfmadd231pd 0x140(%rsi,%r11,1){1to8},%zmm0,%zmm23
  403a99:	28 
  403a9a:	62 22 fd 58 b8 44 fe 	vfmadd231pd 0x140(%rsi,%r15,8){1to8},%zmm0,%zmm24
  403aa1:	28 
  403aa2:	62 42 fd 58 b8 4a 28 	vfmadd231pd 0x140(%r10){1to8},%zmm0,%zmm25
  403aa9:	62 02 fd 58 b8 54 3a 	vfmadd231pd 0x140(%r10,%r15,1){1to8},%zmm0,%zmm26
  403ab0:	28 
  403ab1:	62 02 fd 58 b8 5c 7a 	vfmadd231pd 0x140(%r10,%r15,2){1to8},%zmm0,%zmm27
  403ab8:	28 
  403ab9:	62 42 fd 58 b8 64 02 	vfmadd231pd 0x140(%r10,%rax,1){1to8},%zmm0,%zmm28
  403ac0:	28 
  403ac1:	62 02 fd 58 b8 6c ba 	vfmadd231pd 0x140(%r10,%r15,4){1to8},%zmm0,%zmm29
  403ac8:	28 
  403ac9:	62 42 fd 58 b8 74 1a 	vfmadd231pd 0x140(%r10,%rbx,1){1to8},%zmm0,%zmm30
  403ad0:	28 
  403ad1:	62 42 fd 58 b8 7c 42 	vfmadd231pd 0x140(%r10,%rax,2){1to8},%zmm0,%zmm31
  403ad8:	28 
  403ad9:	62 f1 fd 48 28 47 28 	vmovapd 0xa00(%rdi),%zmm0
  403ae0:	62 e2 f5 58 b8 46 29 	vfmadd231pd 0x148(%rsi){1to8},%zmm1,%zmm16
  403ae7:	62 a2 f5 58 b8 4c 3e 	vfmadd231pd 0x148(%rsi,%r15,1){1to8},%zmm1,%zmm17
  403aee:	29 
  403aef:	62 a2 f5 58 b8 54 7e 	vfmadd231pd 0x148(%rsi,%r15,2){1to8},%zmm1,%zmm18
  403af6:	29 
  403af7:	62 e2 f5 58 b8 5c 06 	vfmadd231pd 0x148(%rsi,%rax,1){1to8},%zmm1,%zmm19
  403afe:	29 
  403aff:	62 a2 f5 58 b8 64 be 	vfmadd231pd 0x148(%rsi,%r15,4){1to8},%zmm1,%zmm20
  403b06:	29 
  403b07:	62 e2 f5 58 b8 6c 1e 	vfmadd231pd 0x148(%rsi,%rbx,1){1to8},%zmm1,%zmm21
  403b0e:	29 
  403b0f:	62 e2 f5 58 b8 74 46 	vfmadd231pd 0x148(%rsi,%rax,2){1to8},%zmm1,%zmm22
  403b16:	29 
  403b17:	62 a2 f5 58 b8 7c 1e 	vfmadd231pd 0x148(%rsi,%r11,1){1to8},%zmm1,%zmm23
  403b1e:	29 
  403b1f:	62 22 f5 58 b8 44 fe 	vfmadd231pd 0x148(%rsi,%r15,8){1to8},%zmm1,%zmm24
  403b26:	29 
  403b27:	62 42 f5 58 b8 4a 29 	vfmadd231pd 0x148(%r10){1to8},%zmm1,%zmm25
  403b2e:	62 02 f5 58 b8 54 3a 	vfmadd231pd 0x148(%r10,%r15,1){1to8},%zmm1,%zmm26
  403b35:	29 
  403b36:	62 02 f5 58 b8 5c 7a 	vfmadd231pd 0x148(%r10,%r15,2){1to8},%zmm1,%zmm27
  403b3d:	29 
  403b3e:	62 42 f5 58 b8 64 02 	vfmadd231pd 0x148(%r10,%rax,1){1to8},%zmm1,%zmm28
  403b45:	29 
  403b46:	62 02 f5 58 b8 6c ba 	vfmadd231pd 0x148(%r10,%r15,4){1to8},%zmm1,%zmm29
  403b4d:	29 
  403b4e:	62 42 f5 58 b8 74 1a 	vfmadd231pd 0x148(%r10,%rbx,1){1to8},%zmm1,%zmm30
  403b55:	29 
  403b56:	62 42 f5 58 b8 7c 42 	vfmadd231pd 0x148(%r10,%rax,2){1to8},%zmm1,%zmm31
  403b5d:	29 
  403b5e:	62 f1 fd 48 28 4f 2c 	vmovapd 0xb00(%rdi),%zmm1
  403b65:	62 e2 fd 58 b8 46 2a 	vfmadd231pd 0x150(%rsi){1to8},%zmm0,%zmm16
  403b6c:	62 a2 fd 58 b8 4c 3e 	vfmadd231pd 0x150(%rsi,%r15,1){1to8},%zmm0,%zmm17
  403b73:	2a 
  403b74:	62 a2 fd 58 b8 54 7e 	vfmadd231pd 0x150(%rsi,%r15,2){1to8},%zmm0,%zmm18
  403b7b:	2a 
  403b7c:	62 e2 fd 58 b8 5c 06 	vfmadd231pd 0x150(%rsi,%rax,1){1to8},%zmm0,%zmm19
  403b83:	2a 
  403b84:	62 a2 fd 58 b8 64 be 	vfmadd231pd 0x150(%rsi,%r15,4){1to8},%zmm0,%zmm20
  403b8b:	2a 
  403b8c:	62 e2 fd 58 b8 6c 1e 	vfmadd231pd 0x150(%rsi,%rbx,1){1to8},%zmm0,%zmm21
  403b93:	2a 
  403b94:	62 e2 fd 58 b8 74 46 	vfmadd231pd 0x150(%rsi,%rax,2){1to8},%zmm0,%zmm22
  403b9b:	2a 
  403b9c:	62 a2 fd 58 b8 7c 1e 	vfmadd231pd 0x150(%rsi,%r11,1){1to8},%zmm0,%zmm23
  403ba3:	2a 
  403ba4:	62 22 fd 58 b8 44 fe 	vfmadd231pd 0x150(%rsi,%r15,8){1to8},%zmm0,%zmm24
  403bab:	2a 
  403bac:	62 42 fd 58 b8 4a 2a 	vfmadd231pd 0x150(%r10){1to8},%zmm0,%zmm25
  403bb3:	62 02 fd 58 b8 54 3a 	vfmadd231pd 0x150(%r10,%r15,1){1to8},%zmm0,%zmm26
  403bba:	2a 
  403bbb:	62 02 fd 58 b8 5c 7a 	vfmadd231pd 0x150(%r10,%r15,2){1to8},%zmm0,%zmm27
  403bc2:	2a 
  403bc3:	62 42 fd 58 b8 64 02 	vfmadd231pd 0x150(%r10,%rax,1){1to8},%zmm0,%zmm28
  403bca:	2a 
  403bcb:	62 02 fd 58 b8 6c ba 	vfmadd231pd 0x150(%r10,%r15,4){1to8},%zmm0,%zmm29
  403bd2:	2a 
  403bd3:	62 42 fd 58 b8 74 1a 	vfmadd231pd 0x150(%r10,%rbx,1){1to8},%zmm0,%zmm30
  403bda:	2a 
  403bdb:	62 42 fd 58 b8 7c 42 	vfmadd231pd 0x150(%r10,%rax,2){1to8},%zmm0,%zmm31
  403be2:	2a 
  403be3:	62 f1 fd 48 28 47 30 	vmovapd 0xc00(%rdi),%zmm0
  403bea:	62 e2 f5 58 b8 46 2b 	vfmadd231pd 0x158(%rsi){1to8},%zmm1,%zmm16
  403bf1:	62 a2 f5 58 b8 4c 3e 	vfmadd231pd 0x158(%rsi,%r15,1){1to8},%zmm1,%zmm17
  403bf8:	2b 
  403bf9:	62 a2 f5 58 b8 54 7e 	vfmadd231pd 0x158(%rsi,%r15,2){1to8},%zmm1,%zmm18
  403c00:	2b 
  403c01:	62 e2 f5 58 b8 5c 06 	vfmadd231pd 0x158(%rsi,%rax,1){1to8},%zmm1,%zmm19
  403c08:	2b 
  403c09:	62 a2 f5 58 b8 64 be 	vfmadd231pd 0x158(%rsi,%r15,4){1to8},%zmm1,%zmm20
  403c10:	2b 
  403c11:	62 e2 f5 58 b8 6c 1e 	vfmadd231pd 0x158(%rsi,%rbx,1){1to8},%zmm1,%zmm21
  403c18:	2b 
  403c19:	62 e2 f5 58 b8 74 46 	vfmadd231pd 0x158(%rsi,%rax,2){1to8},%zmm1,%zmm22
  403c20:	2b 
  403c21:	62 a2 f5 58 b8 7c 1e 	vfmadd231pd 0x158(%rsi,%r11,1){1to8},%zmm1,%zmm23
  403c28:	2b 
  403c29:	62 22 f5 58 b8 44 fe 	vfmadd231pd 0x158(%rsi,%r15,8){1to8},%zmm1,%zmm24
  403c30:	2b 
  403c31:	62 42 f5 58 b8 4a 2b 	vfmadd231pd 0x158(%r10){1to8},%zmm1,%zmm25
  403c38:	62 02 f5 58 b8 54 3a 	vfmadd231pd 0x158(%r10,%r15,1){1to8},%zmm1,%zmm26
  403c3f:	2b 
  403c40:	62 02 f5 58 b8 5c 7a 	vfmadd231pd 0x158(%r10,%r15,2){1to8},%zmm1,%zmm27
  403c47:	2b 
  403c48:	62 42 f5 58 b8 64 02 	vfmadd231pd 0x158(%r10,%rax,1){1to8},%zmm1,%zmm28
  403c4f:	2b 
  403c50:	62 02 f5 58 b8 6c ba 	vfmadd231pd 0x158(%r10,%r15,4){1to8},%zmm1,%zmm29
  403c57:	2b 
  403c58:	62 42 f5 58 b8 74 1a 	vfmadd231pd 0x158(%r10,%rbx,1){1to8},%zmm1,%zmm30
  403c5f:	2b 
  403c60:	62 42 f5 58 b8 7c 42 	vfmadd231pd 0x158(%r10,%rax,2){1to8},%zmm1,%zmm31
  403c67:	2b 
  403c68:	62 f1 fd 48 28 4f 34 	vmovapd 0xd00(%rdi),%zmm1
  403c6f:	62 e2 fd 58 b8 46 2c 	vfmadd231pd 0x160(%rsi){1to8},%zmm0,%zmm16
  403c76:	62 a2 fd 58 b8 4c 3e 	vfmadd231pd 0x160(%rsi,%r15,1){1to8},%zmm0,%zmm17
  403c7d:	2c 
  403c7e:	62 a2 fd 58 b8 54 7e 	vfmadd231pd 0x160(%rsi,%r15,2){1to8},%zmm0,%zmm18
  403c85:	2c 
  403c86:	62 e2 fd 58 b8 5c 06 	vfmadd231pd 0x160(%rsi,%rax,1){1to8},%zmm0,%zmm19
  403c8d:	2c 
  403c8e:	62 a2 fd 58 b8 64 be 	vfmadd231pd 0x160(%rsi,%r15,4){1to8},%zmm0,%zmm20
  403c95:	2c 
  403c96:	62 e2 fd 58 b8 6c 1e 	vfmadd231pd 0x160(%rsi,%rbx,1){1to8},%zmm0,%zmm21
  403c9d:	2c 
  403c9e:	62 e2 fd 58 b8 74 46 	vfmadd231pd 0x160(%rsi,%rax,2){1to8},%zmm0,%zmm22
  403ca5:	2c 
  403ca6:	62 a2 fd 58 b8 7c 1e 	vfmadd231pd 0x160(%rsi,%r11,1){1to8},%zmm0,%zmm23
  403cad:	2c 
  403cae:	62 22 fd 58 b8 44 fe 	vfmadd231pd 0x160(%rsi,%r15,8){1to8},%zmm0,%zmm24
  403cb5:	2c 
  403cb6:	62 42 fd 58 b8 4a 2c 	vfmadd231pd 0x160(%r10){1to8},%zmm0,%zmm25
  403cbd:	62 02 fd 58 b8 54 3a 	vfmadd231pd 0x160(%r10,%r15,1){1to8},%zmm0,%zmm26
  403cc4:	2c 
  403cc5:	62 02 fd 58 b8 5c 7a 	vfmadd231pd 0x160(%r10,%r15,2){1to8},%zmm0,%zmm27
  403ccc:	2c 
  403ccd:	62 42 fd 58 b8 64 02 	vfmadd231pd 0x160(%r10,%rax,1){1to8},%zmm0,%zmm28
  403cd4:	2c 
  403cd5:	62 02 fd 58 b8 6c ba 	vfmadd231pd 0x160(%r10,%r15,4){1to8},%zmm0,%zmm29
  403cdc:	2c 
  403cdd:	62 42 fd 58 b8 74 1a 	vfmadd231pd 0x160(%r10,%rbx,1){1to8},%zmm0,%zmm30
  403ce4:	2c 
  403ce5:	62 42 fd 58 b8 7c 42 	vfmadd231pd 0x160(%r10,%rax,2){1to8},%zmm0,%zmm31
  403cec:	2c 
  403ced:	62 f1 fd 48 28 47 38 	vmovapd 0xe00(%rdi),%zmm0
  403cf4:	62 e2 f5 58 b8 46 2d 	vfmadd231pd 0x168(%rsi){1to8},%zmm1,%zmm16
  403cfb:	62 a2 f5 58 b8 4c 3e 	vfmadd231pd 0x168(%rsi,%r15,1){1to8},%zmm1,%zmm17
  403d02:	2d 
  403d03:	62 a2 f5 58 b8 54 7e 	vfmadd231pd 0x168(%rsi,%r15,2){1to8},%zmm1,%zmm18
  403d0a:	2d 
  403d0b:	62 e2 f5 58 b8 5c 06 	vfmadd231pd 0x168(%rsi,%rax,1){1to8},%zmm1,%zmm19
  403d12:	2d 
  403d13:	62 a2 f5 58 b8 64 be 	vfmadd231pd 0x168(%rsi,%r15,4){1to8},%zmm1,%zmm20
  403d1a:	2d 
  403d1b:	62 e2 f5 58 b8 6c 1e 	vfmadd231pd 0x168(%rsi,%rbx,1){1to8},%zmm1,%zmm21
  403d22:	2d 
  403d23:	62 e2 f5 58 b8 74 46 	vfmadd231pd 0x168(%rsi,%rax,2){1to8},%zmm1,%zmm22
  403d2a:	2d 
  403d2b:	62 a2 f5 58 b8 7c 1e 	vfmadd231pd 0x168(%rsi,%r11,1){1to8},%zmm1,%zmm23
  403d32:	2d 
  403d33:	62 22 f5 58 b8 44 fe 	vfmadd231pd 0x168(%rsi,%r15,8){1to8},%zmm1,%zmm24
  403d3a:	2d 
  403d3b:	62 42 f5 58 b8 4a 2d 	vfmadd231pd 0x168(%r10){1to8},%zmm1,%zmm25
  403d42:	62 02 f5 58 b8 54 3a 	vfmadd231pd 0x168(%r10,%r15,1){1to8},%zmm1,%zmm26
  403d49:	2d 
  403d4a:	62 02 f5 58 b8 5c 7a 	vfmadd231pd 0x168(%r10,%r15,2){1to8},%zmm1,%zmm27
  403d51:	2d 
  403d52:	62 42 f5 58 b8 64 02 	vfmadd231pd 0x168(%r10,%rax,1){1to8},%zmm1,%zmm28
  403d59:	2d 
  403d5a:	62 02 f5 58 b8 6c ba 	vfmadd231pd 0x168(%r10,%r15,4){1to8},%zmm1,%zmm29
  403d61:	2d 
  403d62:	62 42 f5 58 b8 74 1a 	vfmadd231pd 0x168(%r10,%rbx,1){1to8},%zmm1,%zmm30
  403d69:	2d 
  403d6a:	62 42 f5 58 b8 7c 42 	vfmadd231pd 0x168(%r10,%rax,2){1to8},%zmm1,%zmm31
  403d71:	2d 
  403d72:	62 f1 fd 48 28 4f 3c 	vmovapd 0xf00(%rdi),%zmm1
  403d79:	62 e2 fd 58 b8 46 2e 	vfmadd231pd 0x170(%rsi){1to8},%zmm0,%zmm16
  403d80:	62 a2 fd 58 b8 4c 3e 	vfmadd231pd 0x170(%rsi,%r15,1){1to8},%zmm0,%zmm17
  403d87:	2e 
  403d88:	62 a2 fd 58 b8 54 7e 	vfmadd231pd 0x170(%rsi,%r15,2){1to8},%zmm0,%zmm18
  403d8f:	2e 
  403d90:	62 e2 fd 58 b8 5c 06 	vfmadd231pd 0x170(%rsi,%rax,1){1to8},%zmm0,%zmm19
  403d97:	2e 
  403d98:	62 a2 fd 58 b8 64 be 	vfmadd231pd 0x170(%rsi,%r15,4){1to8},%zmm0,%zmm20
  403d9f:	2e 
  403da0:	62 e2 fd 58 b8 6c 1e 	vfmadd231pd 0x170(%rsi,%rbx,1){1to8},%zmm0,%zmm21
  403da7:	2e 
  403da8:	62 e2 fd 58 b8 74 46 	vfmadd231pd 0x170(%rsi,%rax,2){1to8},%zmm0,%zmm22
  403daf:	2e 
  403db0:	62 a2 fd 58 b8 7c 1e 	vfmadd231pd 0x170(%rsi,%r11,1){1to8},%zmm0,%zmm23
  403db7:	2e 
  403db8:	62 22 fd 58 b8 44 fe 	vfmadd231pd 0x170(%rsi,%r15,8){1to8},%zmm0,%zmm24
  403dbf:	2e 
  403dc0:	62 42 fd 58 b8 4a 2e 	vfmadd231pd 0x170(%r10){1to8},%zmm0,%zmm25
  403dc7:	62 02 fd 58 b8 54 3a 	vfmadd231pd 0x170(%r10,%r15,1){1to8},%zmm0,%zmm26
  403dce:	2e 
  403dcf:	62 02 fd 58 b8 5c 7a 	vfmadd231pd 0x170(%r10,%r15,2){1to8},%zmm0,%zmm27
  403dd6:	2e 
  403dd7:	62 42 fd 58 b8 64 02 	vfmadd231pd 0x170(%r10,%rax,1){1to8},%zmm0,%zmm28
  403dde:	2e 
  403ddf:	62 02 fd 58 b8 6c ba 	vfmadd231pd 0x170(%r10,%r15,4){1to8},%zmm0,%zmm29
  403de6:	2e 
  403de7:	62 42 fd 58 b8 74 1a 	vfmadd231pd 0x170(%r10,%rbx,1){1to8},%zmm0,%zmm30
  403dee:	2e 
  403def:	62 42 fd 58 b8 7c 42 	vfmadd231pd 0x170(%r10,%rax,2){1to8},%zmm0,%zmm31
  403df6:	2e 
  403df7:	62 e2 f5 58 b8 46 2f 	vfmadd231pd 0x178(%rsi){1to8},%zmm1,%zmm16
  403dfe:	62 a2 f5 58 b8 4c 3e 	vfmadd231pd 0x178(%rsi,%r15,1){1to8},%zmm1,%zmm17
  403e05:	2f 
  403e06:	62 a2 f5 58 b8 54 7e 	vfmadd231pd 0x178(%rsi,%r15,2){1to8},%zmm1,%zmm18
  403e0d:	2f 
  403e0e:	62 e2 f5 58 b8 5c 06 	vfmadd231pd 0x178(%rsi,%rax,1){1to8},%zmm1,%zmm19
  403e15:	2f 
  403e16:	62 a2 f5 58 b8 64 be 	vfmadd231pd 0x178(%rsi,%r15,4){1to8},%zmm1,%zmm20
  403e1d:	2f 
  403e1e:	62 e2 f5 58 b8 6c 1e 	vfmadd231pd 0x178(%rsi,%rbx,1){1to8},%zmm1,%zmm21
  403e25:	2f 
  403e26:	62 e2 f5 58 b8 74 46 	vfmadd231pd 0x178(%rsi,%rax,2){1to8},%zmm1,%zmm22
  403e2d:	2f 
  403e2e:	62 a2 f5 58 b8 7c 1e 	vfmadd231pd 0x178(%rsi,%r11,1){1to8},%zmm1,%zmm23
  403e35:	2f 
  403e36:	62 22 f5 58 b8 44 fe 	vfmadd231pd 0x178(%rsi,%r15,8){1to8},%zmm1,%zmm24
  403e3d:	2f 
  403e3e:	62 42 f5 58 b8 4a 2f 	vfmadd231pd 0x178(%r10){1to8},%zmm1,%zmm25
  403e45:	62 02 f5 58 b8 54 3a 	vfmadd231pd 0x178(%r10,%r15,1){1to8},%zmm1,%zmm26
  403e4c:	2f 
  403e4d:	62 02 f5 58 b8 5c 7a 	vfmadd231pd 0x178(%r10,%r15,2){1to8},%zmm1,%zmm27
  403e54:	2f 
  403e55:	62 42 f5 58 b8 64 02 	vfmadd231pd 0x178(%r10,%rax,1){1to8},%zmm1,%zmm28
  403e5c:	2f 
  403e5d:	62 02 f5 58 b8 6c ba 	vfmadd231pd 0x178(%r10,%r15,4){1to8},%zmm1,%zmm29
  403e64:	2f 
  403e65:	62 42 f5 58 b8 74 1a 	vfmadd231pd 0x178(%r10,%rbx,1){1to8},%zmm1,%zmm30
  403e6c:	2f 
  403e6d:	62 42 f5 58 b8 7c 42 	vfmadd231pd 0x178(%r10,%rax,2){1to8},%zmm1,%zmm31
  403e74:	2f 
  403e75:	48 81 ef 00 20 00 00 	sub    $0x2000,%rdi
  403e7c:	62 e1 fd 48 29 02    	vmovapd %zmm16,(%rdx)
  403e82:	62 e1 fd 48 29 4a 04 	vmovapd %zmm17,0x100(%rdx)
  403e89:	62 e1 fd 48 29 52 08 	vmovapd %zmm18,0x200(%rdx)
  403e90:	62 e1 fd 48 29 5a 0c 	vmovapd %zmm19,0x300(%rdx)
  403e97:	62 e1 fd 48 29 62 10 	vmovapd %zmm20,0x400(%rdx)
  403e9e:	62 e1 fd 48 29 6a 14 	vmovapd %zmm21,0x500(%rdx)
  403ea5:	62 e1 fd 48 29 72 18 	vmovapd %zmm22,0x600(%rdx)
  403eac:	62 e1 fd 48 29 7a 1c 	vmovapd %zmm23,0x700(%rdx)
  403eb3:	62 61 fd 48 29 42 20 	vmovapd %zmm24,0x800(%rdx)
  403eba:	62 61 fd 48 29 4a 24 	vmovapd %zmm25,0x900(%rdx)
  403ec1:	62 61 fd 48 29 52 28 	vmovapd %zmm26,0xa00(%rdx)
  403ec8:	62 61 fd 48 29 5a 2c 	vmovapd %zmm27,0xb00(%rdx)
  403ecf:	62 61 fd 48 29 62 30 	vmovapd %zmm28,0xc00(%rdx)
  403ed6:	62 61 fd 48 29 6a 34 	vmovapd %zmm29,0xd00(%rdx)
  403edd:	62 61 fd 48 29 72 38 	vmovapd %zmm30,0xe00(%rdx)
  403ee4:	62 61 fd 48 29 7a 3c 	vmovapd %zmm31,0xf00(%rdx)
  403eeb:	48 83 c2 40          	add    $0x40,%rdx
  403eef:	48 83 c7 40          	add    $0x40,%rdi
  403ef3:	49 83 fc 20          	cmp    $0x20,%r12
  403ef7:	0f 8c fa e5 ff ff    	jl     4024f7 <_Z25jump_penalty_2_20_libxsmmPKdS0_Pd+0x47>
  403efd:	48 81 c2 00 0f 00 00 	add    $0xf00,%rdx
  403f04:	48 81 c6 00 18 00 00 	add    $0x1800,%rsi
  403f0b:	48 81 ef 00 01 00 00 	sub    $0x100,%rdi
  403f12:	49 83 fd 20          	cmp    $0x20,%r13
  403f16:	0f 8c d0 e5 ff ff    	jl     4024ec <_Z25jump_penalty_2_20_libxsmmPKdS0_Pd+0x3c>
  403f1c:	5b                   	pop    %rbx
  403f1d:	41 5c                	pop    %r12
  403f1f:	41 5d                	pop    %r13
  403f21:	41 5e                	pop    %r14
  403f23:	41 5f                	pop    %r15
  403f25:	c3                   	retq   
  403f26:	66 2e 0f 1f 84 00 00 	nopw   %cs:0x0(%rax,%rax,1)
  403f2d:	00 00 00 

0000000000403f30 <_Z26jump_penalty_2_20_unrolledPKdS0_Pd>:
  403f30:	41 54                	push   %r12
  403f32:	48 89 7c 24 f8       	mov    %rdi,-0x8(%rsp)
  403f37:	48 89 74 24 f0       	mov    %rsi,-0x10(%rsp)
  403f3c:	48 89 54 24 e8       	mov    %rdx,-0x18(%rsp)
  403f41:	48 8b 7c 24 f8       	mov    -0x8(%rsp),%rdi
  403f46:	48 8b 74 24 f0       	mov    -0x10(%rsp),%rsi
  403f4b:	48 8b 54 24 e8       	mov    -0x18(%rsp),%rdx
  403f50:	49 c7 c4 00 00 00 00 	mov    $0x0,%r12

0000000000403f57 <LOOP_TOP_0_1892>:
  403f57:	62 e1 fd 48 28 02    	vmovapd (%rdx),%zmm16
  403f5d:	62 e1 fd 48 28 4a 04 	vmovapd 0x100(%rdx),%zmm17
  403f64:	62 e1 fd 48 28 52 08 	vmovapd 0x200(%rdx),%zmm18
  403f6b:	62 e1 fd 48 28 5a 0c 	vmovapd 0x300(%rdx),%zmm19
  403f72:	62 e1 fd 48 28 62 10 	vmovapd 0x400(%rdx),%zmm20
  403f79:	62 e1 fd 48 28 6a 14 	vmovapd 0x500(%rdx),%zmm21
  403f80:	62 e1 fd 48 28 72 18 	vmovapd 0x600(%rdx),%zmm22
  403f87:	62 e1 fd 48 28 7a 1c 	vmovapd 0x700(%rdx),%zmm23
  403f8e:	62 61 fd 48 28 42 20 	vmovapd 0x800(%rdx),%zmm24
  403f95:	62 61 fd 48 28 4a 24 	vmovapd 0x900(%rdx),%zmm25
  403f9c:	62 61 fd 48 28 52 28 	vmovapd 0xa00(%rdx),%zmm26
  403fa3:	62 61 fd 48 28 5a 2c 	vmovapd 0xb00(%rdx),%zmm27
  403faa:	62 61 fd 48 28 62 30 	vmovapd 0xc00(%rdx),%zmm28
  403fb1:	62 61 fd 48 28 6a 34 	vmovapd 0xd00(%rdx),%zmm29
  403fb8:	62 61 fd 48 28 72 38 	vmovapd 0xe00(%rdx),%zmm30
  403fbf:	62 61 fd 48 28 7a 3c 	vmovapd 0xf00(%rdx),%zmm31
  403fc6:	62 f1 fd 48 28 8f 00 	vmovapd 0x2100(%rdi),%zmm1
  403fcd:	21 00 00 
  403fd0:	62 f1 fd 48 28 97 00 	vmovapd 0x2200(%rdi),%zmm2
  403fd7:	22 00 00 
  403fda:	62 f1 fd 48 28 af 00 	vmovapd 0x2500(%rdi),%zmm5
  403fe1:	25 00 00 
  403fe4:	62 71 fd 48 28 9f 00 	vmovapd 0x2b00(%rdi),%zmm11
  403feb:	2b 00 00 
  403fee:	62 71 fd 48 28 a7 00 	vmovapd 0x2c00(%rdi),%zmm12
  403ff5:	2c 00 00 
  403ff8:	62 71 fd 48 28 af 00 	vmovapd 0x2d00(%rdi),%zmm13
  403fff:	2d 00 00 
  404002:	62 71 fd 48 28 b7 00 	vmovapd 0x2e00(%rdi),%zmm14
  404009:	2e 00 00 
  40400c:	62 e2 f5 58 b8 6e 03 	vfmadd231pd 0x18(%rsi){1to8},%zmm1,%zmm21
  404013:	62 e2 f5 58 b8 7e 05 	vfmadd231pd 0x28(%rsi){1to8},%zmm1,%zmm23
  40401a:	62 62 f5 58 b8 66 07 	vfmadd231pd 0x38(%rsi){1to8},%zmm1,%zmm28
  404021:	62 62 ed 58 b8 76 08 	vfmadd231pd 0x40(%rsi){1to8},%zmm2,%zmm30
  404028:	62 62 d5 58 b8 7e 09 	vfmadd231pd 0x48(%rsi){1to8},%zmm5,%zmm31
  40402f:	62 e2 a5 58 b8 06    	vfmadd231pd (%rsi){1to8},%zmm11,%zmm16
  404035:	62 e2 9d 58 b8 4e 01 	vfmadd231pd 0x8(%rsi){1to8},%zmm12,%zmm17
  40403c:	62 e2 95 58 b8 6e 04 	vfmadd231pd 0x20(%rsi){1to8},%zmm13,%zmm21
  404043:	62 62 95 58 b8 4e 06 	vfmadd231pd 0x30(%rsi){1to8},%zmm13,%zmm25
  40404a:	62 e2 8d 58 b8 5e 02 	vfmadd231pd 0x10(%rsi){1to8},%zmm14,%zmm19
  404051:	62 e1 fd 48 29 02    	vmovapd %zmm16,(%rdx)
  404057:	62 e1 fd 48 29 4a 04 	vmovapd %zmm17,0x100(%rdx)
  40405e:	62 e1 fd 48 29 52 08 	vmovapd %zmm18,0x200(%rdx)
  404065:	62 e1 fd 48 29 5a 0c 	vmovapd %zmm19,0x300(%rdx)
  40406c:	62 e1 fd 48 29 62 10 	vmovapd %zmm20,0x400(%rdx)
  404073:	62 e1 fd 48 29 6a 14 	vmovapd %zmm21,0x500(%rdx)
  40407a:	62 e1 fd 48 29 72 18 	vmovapd %zmm22,0x600(%rdx)
  404081:	62 e1 fd 48 29 7a 1c 	vmovapd %zmm23,0x700(%rdx)
  404088:	62 61 fd 48 29 42 20 	vmovapd %zmm24,0x800(%rdx)
  40408f:	62 61 fd 48 29 4a 24 	vmovapd %zmm25,0x900(%rdx)
  404096:	62 61 fd 48 29 52 28 	vmovapd %zmm26,0xa00(%rdx)
  40409d:	62 61 fd 48 29 5a 2c 	vmovapd %zmm27,0xb00(%rdx)
  4040a4:	62 61 fd 48 29 62 30 	vmovapd %zmm28,0xc00(%rdx)
  4040ab:	62 61 fd 48 29 6a 34 	vmovapd %zmm29,0xd00(%rdx)
  4040b2:	62 61 fd 48 29 72 38 	vmovapd %zmm30,0xe00(%rdx)
  4040b9:	62 61 fd 48 29 7a 3c 	vmovapd %zmm31,0xf00(%rdx)
  4040c0:	48 81 c2 00 10 00 00 	add    $0x1000,%rdx
  4040c7:	62 e1 fd 48 28 02    	vmovapd (%rdx),%zmm16
  4040cd:	62 e1 fd 48 28 4a 04 	vmovapd 0x100(%rdx),%zmm17
  4040d4:	62 e1 fd 48 28 52 08 	vmovapd 0x200(%rdx),%zmm18
  4040db:	62 e1 fd 48 28 5a 0c 	vmovapd 0x300(%rdx),%zmm19
  4040e2:	62 e1 fd 48 28 62 10 	vmovapd 0x400(%rdx),%zmm20
  4040e9:	62 e1 fd 48 28 6a 14 	vmovapd 0x500(%rdx),%zmm21
  4040f0:	62 e1 fd 48 28 72 18 	vmovapd 0x600(%rdx),%zmm22
  4040f7:	62 e1 fd 48 28 7a 1c 	vmovapd 0x700(%rdx),%zmm23
  4040fe:	62 61 fd 48 28 42 20 	vmovapd 0x800(%rdx),%zmm24
  404105:	62 61 fd 48 28 4a 24 	vmovapd 0x900(%rdx),%zmm25
  40410c:	62 61 fd 48 28 52 28 	vmovapd 0xa00(%rdx),%zmm26
  404113:	62 61 fd 48 28 5a 2c 	vmovapd 0xb00(%rdx),%zmm27
  40411a:	62 61 fd 48 28 62 30 	vmovapd 0xc00(%rdx),%zmm28
  404121:	62 61 fd 48 28 6a 34 	vmovapd 0xd00(%rdx),%zmm29
  404128:	62 61 fd 48 28 72 38 	vmovapd 0xe00(%rdx),%zmm30
  40412f:	62 61 fd 48 28 7a 3c 	vmovapd 0xf00(%rdx),%zmm31
  404136:	62 f1 fd 48 28 4f 04 	vmovapd 0x100(%rdi),%zmm1
  40413d:	62 f1 fd 48 28 67 10 	vmovapd 0x400(%rdi),%zmm4
  404144:	62 71 fd 48 28 47 20 	vmovapd 0x800(%rdi),%zmm8
  40414b:	62 71 fd 48 28 4f 24 	vmovapd 0x900(%rdi),%zmm9
  404152:	62 71 fd 48 28 67 30 	vmovapd 0xc00(%rdi),%zmm12
  404159:	62 71 fd 48 28 6f 34 	vmovapd 0xd00(%rdi),%zmm13
  404160:	62 e2 f5 58 b8 46 0a 	vfmadd231pd 0x50(%rsi){1to8},%zmm1,%zmm16
  404167:	62 62 f5 58 b8 7e 12 	vfmadd231pd 0x90(%rsi){1to8},%zmm1,%zmm31
  40416e:	62 e2 dd 58 b8 56 0b 	vfmadd231pd 0x58(%rsi){1to8},%zmm4,%zmm18
  404175:	62 e2 dd 58 b8 66 0e 	vfmadd231pd 0x70(%rsi){1to8},%zmm4,%zmm20
  40417c:	62 e2 bd 58 b8 56 0c 	vfmadd231pd 0x60(%rsi){1to8},%zmm8,%zmm18
  404183:	62 e2 b5 58 b8 56 0d 	vfmadd231pd 0x68(%rsi){1to8},%zmm9,%zmm18
  40418a:	62 e2 9d 58 b8 6e 0f 	vfmadd231pd 0x78(%rsi){1to8},%zmm12,%zmm21
  404191:	62 62 9d 58 b8 4e 10 	vfmadd231pd 0x80(%rsi){1to8},%zmm12,%zmm25
  404198:	62 62 9d 58 b8 7e 13 	vfmadd231pd 0x98(%rsi){1to8},%zmm12,%zmm31
  40419f:	62 62 95 58 b8 56 11 	vfmadd231pd 0x88(%rsi){1to8},%zmm13,%zmm26
  4041a6:	62 e1 fd 48 29 02    	vmovapd %zmm16,(%rdx)
  4041ac:	62 e1 fd 48 29 4a 04 	vmovapd %zmm17,0x100(%rdx)
  4041b3:	62 e1 fd 48 29 52 08 	vmovapd %zmm18,0x200(%rdx)
  4041ba:	62 e1 fd 48 29 5a 0c 	vmovapd %zmm19,0x300(%rdx)
  4041c1:	62 e1 fd 48 29 62 10 	vmovapd %zmm20,0x400(%rdx)
  4041c8:	62 e1 fd 48 29 6a 14 	vmovapd %zmm21,0x500(%rdx)
  4041cf:	62 e1 fd 48 29 72 18 	vmovapd %zmm22,0x600(%rdx)
  4041d6:	62 e1 fd 48 29 7a 1c 	vmovapd %zmm23,0x700(%rdx)
  4041dd:	62 61 fd 48 29 42 20 	vmovapd %zmm24,0x800(%rdx)
  4041e4:	62 61 fd 48 29 4a 24 	vmovapd %zmm25,0x900(%rdx)
  4041eb:	62 61 fd 48 29 52 28 	vmovapd %zmm26,0xa00(%rdx)
  4041f2:	62 61 fd 48 29 5a 2c 	vmovapd %zmm27,0xb00(%rdx)
  4041f9:	62 61 fd 48 29 62 30 	vmovapd %zmm28,0xc00(%rdx)
  404200:	62 61 fd 48 29 6a 34 	vmovapd %zmm29,0xd00(%rdx)
  404207:	62 61 fd 48 29 72 38 	vmovapd %zmm30,0xe00(%rdx)
  40420e:	62 61 fd 48 29 7a 3c 	vmovapd %zmm31,0xf00(%rdx)
  404215:	48 83 c7 40          	add    $0x40,%rdi
  404219:	48 81 c2 40 f0 ff ff 	add    $0xfffffffffffff040,%rdx
  404220:	49 83 c4 01          	add    $0x1,%r12
  404224:	49 83 fc 04          	cmp    $0x4,%r12
  404228:	0f 8c 29 fd ff ff    	jl     403f57 <LOOP_TOP_0_1892>
  40422e:	41 5c                	pop    %r12
  404230:	c3                   	retq   
  404231:	0f 1f 44 00 00       	nopl   0x0(%rax,%rax,1)
  404236:	66 2e 0f 1f 84 00 00 	nopw   %cs:0x0(%rax,%rax,1)
  40423d:	00 00 00 

0000000000404240 <_Z25jump_penalty_2_20_generalPKdS0_Pd>:
  404240:	48 89 7c 24 f8       	mov    %rdi,-0x8(%rsp)
  404245:	48 89 74 24 f0       	mov    %rsi,-0x10(%rsp)
  40424a:	48 89 54 24 e8       	mov    %rdx,-0x18(%rsp)
  40424f:	48 8b 7c 24 f8       	mov    -0x8(%rsp),%rdi
  404254:	48 8b 74 24 f0       	mov    -0x10(%rsp),%rsi
  404259:	48 8b 54 24 e8       	mov    -0x18(%rsp),%rdx
  40425e:	e9 eb 00 00 00       	jmpq   40434e <END_SWITCH_1906>

0000000000404263 <CASE_1_1906>:
  404263:	62 f1 fd 48 28 4f 04 	vmovapd 0x100(%rdi),%zmm1
  40426a:	62 f1 fd 48 28 57 08 	vmovapd 0x200(%rdi),%zmm2
  404271:	62 f1 fd 48 28 6f 14 	vmovapd 0x500(%rdi),%zmm5
  404278:	62 71 fd 48 28 5f 2c 	vmovapd 0xb00(%rdi),%zmm11
  40427f:	62 71 fd 48 28 67 30 	vmovapd 0xc00(%rdi),%zmm12
  404286:	62 71 fd 48 28 6f 34 	vmovapd 0xd00(%rdi),%zmm13
  40428d:	62 71 fd 48 28 77 38 	vmovapd 0xe00(%rdi),%zmm14
  404294:	62 e2 f5 58 b8 6e 03 	vfmadd231pd 0x18(%rsi){1to8},%zmm1,%zmm21
  40429b:	62 e2 f5 58 b8 7e 05 	vfmadd231pd 0x28(%rsi){1to8},%zmm1,%zmm23
  4042a2:	62 62 f5 58 b8 66 07 	vfmadd231pd 0x38(%rsi){1to8},%zmm1,%zmm28
  4042a9:	62 62 ed 58 b8 76 08 	vfmadd231pd 0x40(%rsi){1to8},%zmm2,%zmm30
  4042b0:	62 62 d5 58 b8 7e 09 	vfmadd231pd 0x48(%rsi){1to8},%zmm5,%zmm31
  4042b7:	62 e2 a5 58 b8 06    	vfmadd231pd (%rsi){1to8},%zmm11,%zmm16
  4042bd:	62 e2 9d 58 b8 4e 01 	vfmadd231pd 0x8(%rsi){1to8},%zmm12,%zmm17
  4042c4:	62 e2 95 58 b8 6e 04 	vfmadd231pd 0x20(%rsi){1to8},%zmm13,%zmm21
  4042cb:	62 62 95 58 b8 4e 06 	vfmadd231pd 0x30(%rsi){1to8},%zmm13,%zmm25
  4042d2:	62 e2 8d 58 b8 5e 02 	vfmadd231pd 0x10(%rsi){1to8},%zmm14,%zmm19
  4042d9:	41 ff e2             	jmpq   *%r10

00000000004042dc <CASE_2_1906>:
  4042dc:	62 f1 fd 48 28 4f 04 	vmovapd 0x100(%rdi),%zmm1
  4042e3:	62 f1 fd 48 28 67 10 	vmovapd 0x400(%rdi),%zmm4
  4042ea:	62 71 fd 48 28 47 20 	vmovapd 0x800(%rdi),%zmm8
  4042f1:	62 71 fd 48 28 4f 24 	vmovapd 0x900(%rdi),%zmm9
  4042f8:	62 71 fd 48 28 67 30 	vmovapd 0xc00(%rdi),%zmm12
  4042ff:	62 71 fd 48 28 6f 34 	vmovapd 0xd00(%rdi),%zmm13
  404306:	62 e2 f5 58 b8 06    	vfmadd231pd (%rsi){1to8},%zmm1,%zmm16
  40430c:	62 62 f5 58 b8 7e 08 	vfmadd231pd 0x40(%rsi){1to8},%zmm1,%zmm31
  404313:	62 e2 dd 58 b8 56 01 	vfmadd231pd 0x8(%rsi){1to8},%zmm4,%zmm18
  40431a:	62 e2 dd 58 b8 66 04 	vfmadd231pd 0x20(%rsi){1to8},%zmm4,%zmm20
  404321:	62 e2 bd 58 b8 56 02 	vfmadd231pd 0x10(%rsi){1to8},%zmm8,%zmm18
  404328:	62 e2 b5 58 b8 56 03 	vfmadd231pd 0x18(%rsi){1to8},%zmm9,%zmm18
  40432f:	62 e2 9d 58 b8 6e 05 	vfmadd231pd 0x28(%rsi){1to8},%zmm12,%zmm21
  404336:	62 62 9d 58 b8 4e 06 	vfmadd231pd 0x30(%rsi){1to8},%zmm12,%zmm25
  40433d:	62 62 9d 58 b8 7e 09 	vfmadd231pd 0x48(%rsi){1to8},%zmm12,%zmm31
  404344:	62 62 95 58 b8 56 07 	vfmadd231pd 0x38(%rsi){1to8},%zmm13,%zmm26
  40434b:	41 ff e2             	jmpq   *%r10

000000000040434e <END_SWITCH_1906>:
  40434e:	48 83 c2 00          	add    $0x0,%rdx
  404352:	62 e1 fd 48 28 02    	vmovapd (%rdx),%zmm16
  404358:	62 e1 fd 48 28 4a 04 	vmovapd 0x100(%rdx),%zmm17
  40435f:	62 e1 fd 48 28 52 08 	vmovapd 0x200(%rdx),%zmm18
  404366:	62 e1 fd 48 28 5a 0c 	vmovapd 0x300(%rdx),%zmm19
  40436d:	62 e1 fd 48 28 62 10 	vmovapd 0x400(%rdx),%zmm20
  404374:	62 e1 fd 48 28 6a 14 	vmovapd 0x500(%rdx),%zmm21
  40437b:	62 e1 fd 48 28 72 18 	vmovapd 0x600(%rdx),%zmm22
  404382:	62 e1 fd 48 28 7a 1c 	vmovapd 0x700(%rdx),%zmm23
  404389:	62 61 fd 48 28 42 20 	vmovapd 0x800(%rdx),%zmm24
  404390:	62 61 fd 48 28 4a 24 	vmovapd 0x900(%rdx),%zmm25
  404397:	62 61 fd 48 28 52 28 	vmovapd 0xa00(%rdx),%zmm26
  40439e:	62 61 fd 48 28 5a 2c 	vmovapd 0xb00(%rdx),%zmm27
  4043a5:	62 61 fd 48 28 62 30 	vmovapd 0xc00(%rdx),%zmm28
  4043ac:	62 61 fd 48 28 6a 34 	vmovapd 0xd00(%rdx),%zmm29
  4043b3:	62 61 fd 48 28 72 38 	vmovapd 0xe00(%rdx),%zmm30
  4043ba:	62 61 fd 48 28 7a 3c 	vmovapd 0xf00(%rdx),%zmm31
  4043c1:	49 c7 c2 d8 43 40 00 	mov    $0x4043d8,%r10
  4043c8:	48 83 c6 00          	add    $0x0,%rsi
  4043cc:	48 81 c7 00 20 00 00 	add    $0x2000,%rdi
  4043d3:	e9 8b fe ff ff       	jmpq   404263 <CASE_1_1906>

00000000004043d8 <BLOCK_0_0_2_1906>:
  4043d8:	62 e1 fd 48 29 02    	vmovapd %zmm16,(%rdx)
  4043de:	62 e1 fd 48 29 4a 04 	vmovapd %zmm17,0x100(%rdx)
  4043e5:	62 e1 fd 48 29 52 08 	vmovapd %zmm18,0x200(%rdx)
  4043ec:	62 e1 fd 48 29 5a 0c 	vmovapd %zmm19,0x300(%rdx)
  4043f3:	62 e1 fd 48 29 62 10 	vmovapd %zmm20,0x400(%rdx)
  4043fa:	62 e1 fd 48 29 6a 14 	vmovapd %zmm21,0x500(%rdx)
  404401:	62 e1 fd 48 29 72 18 	vmovapd %zmm22,0x600(%rdx)
  404408:	62 e1 fd 48 29 7a 1c 	vmovapd %zmm23,0x700(%rdx)
  40440f:	62 61 fd 48 29 42 20 	vmovapd %zmm24,0x800(%rdx)
  404416:	62 61 fd 48 29 4a 24 	vmovapd %zmm25,0x900(%rdx)
  40441d:	62 61 fd 48 29 52 28 	vmovapd %zmm26,0xa00(%rdx)
  404424:	62 61 fd 48 29 5a 2c 	vmovapd %zmm27,0xb00(%rdx)
  40442b:	62 61 fd 48 29 62 30 	vmovapd %zmm28,0xc00(%rdx)
  404432:	62 61 fd 48 29 6a 34 	vmovapd %zmm29,0xd00(%rdx)
  404439:	62 61 fd 48 29 72 38 	vmovapd %zmm30,0xe00(%rdx)
  404440:	62 61 fd 48 29 7a 3c 	vmovapd %zmm31,0xf00(%rdx)
  404447:	48 81 c2 00 10 00 00 	add    $0x1000,%rdx
  40444e:	62 e1 fd 48 28 02    	vmovapd (%rdx),%zmm16
  404454:	62 e1 fd 48 28 4a 04 	vmovapd 0x100(%rdx),%zmm17
  40445b:	62 e1 fd 48 28 52 08 	vmovapd 0x200(%rdx),%zmm18
  404462:	62 e1 fd 48 28 5a 0c 	vmovapd 0x300(%rdx),%zmm19
  404469:	62 e1 fd 48 28 62 10 	vmovapd 0x400(%rdx),%zmm20
  404470:	62 e1 fd 48 28 6a 14 	vmovapd 0x500(%rdx),%zmm21
  404477:	62 e1 fd 48 28 72 18 	vmovapd 0x600(%rdx),%zmm22
  40447e:	62 e1 fd 48 28 7a 1c 	vmovapd 0x700(%rdx),%zmm23
  404485:	62 61 fd 48 28 42 20 	vmovapd 0x800(%rdx),%zmm24
  40448c:	62 61 fd 48 28 4a 24 	vmovapd 0x900(%rdx),%zmm25
  404493:	62 61 fd 48 28 52 28 	vmovapd 0xa00(%rdx),%zmm26
  40449a:	62 61 fd 48 28 5a 2c 	vmovapd 0xb00(%rdx),%zmm27
  4044a1:	62 61 fd 48 28 62 30 	vmovapd 0xc00(%rdx),%zmm28
  4044a8:	62 61 fd 48 28 6a 34 	vmovapd 0xd00(%rdx),%zmm29
  4044af:	62 61 fd 48 28 72 38 	vmovapd 0xe00(%rdx),%zmm30
  4044b6:	62 61 fd 48 28 7a 3c 	vmovapd 0xf00(%rdx),%zmm31
  4044bd:	49 c7 c2 d4 44 40 00 	mov    $0x4044d4,%r10
  4044c4:	48 83 c6 50          	add    $0x50,%rsi
  4044c8:	48 81 c7 00 e0 ff ff 	add    $0xffffffffffffe000,%rdi
  4044cf:	e9 08 fe ff ff       	jmpq   4042dc <CASE_2_1906>

00000000004044d4 <BLOCK_0_1_0_1906>:
  4044d4:	62 e1 fd 48 29 02    	vmovapd %zmm16,(%rdx)
  4044da:	62 e1 fd 48 29 4a 04 	vmovapd %zmm17,0x100(%rdx)
  4044e1:	62 e1 fd 48 29 52 08 	vmovapd %zmm18,0x200(%rdx)
  4044e8:	62 e1 fd 48 29 5a 0c 	vmovapd %zmm19,0x300(%rdx)
  4044ef:	62 e1 fd 48 29 62 10 	vmovapd %zmm20,0x400(%rdx)
  4044f6:	62 e1 fd 48 29 6a 14 	vmovapd %zmm21,0x500(%rdx)
  4044fd:	62 e1 fd 48 29 72 18 	vmovapd %zmm22,0x600(%rdx)
  404504:	62 e1 fd 48 29 7a 1c 	vmovapd %zmm23,0x700(%rdx)
  40450b:	62 61 fd 48 29 42 20 	vmovapd %zmm24,0x800(%rdx)
  404512:	62 61 fd 48 29 4a 24 	vmovapd %zmm25,0x900(%rdx)
  404519:	62 61 fd 48 29 52 28 	vmovapd %zmm26,0xa00(%rdx)
  404520:	62 61 fd 48 29 5a 2c 	vmovapd %zmm27,0xb00(%rdx)
  404527:	62 61 fd 48 29 62 30 	vmovapd %zmm28,0xc00(%rdx)
  40452e:	62 61 fd 48 29 6a 34 	vmovapd %zmm29,0xd00(%rdx)
  404535:	62 61 fd 48 29 72 38 	vmovapd %zmm30,0xe00(%rdx)
  40453c:	62 61 fd 48 29 7a 3c 	vmovapd %zmm31,0xf00(%rdx)
  404543:	48 81 c2 40 f0 ff ff 	add    $0xfffffffffffff040,%rdx
  40454a:	62 e1 fd 48 28 02    	vmovapd (%rdx),%zmm16
  404550:	62 e1 fd 48 28 4a 04 	vmovapd 0x100(%rdx),%zmm17
  404557:	62 e1 fd 48 28 52 08 	vmovapd 0x200(%rdx),%zmm18
  40455e:	62 e1 fd 48 28 5a 0c 	vmovapd 0x300(%rdx),%zmm19
  404565:	62 e1 fd 48 28 62 10 	vmovapd 0x400(%rdx),%zmm20
  40456c:	62 e1 fd 48 28 6a 14 	vmovapd 0x500(%rdx),%zmm21
  404573:	62 e1 fd 48 28 72 18 	vmovapd 0x600(%rdx),%zmm22
  40457a:	62 e1 fd 48 28 7a 1c 	vmovapd 0x700(%rdx),%zmm23
  404581:	62 61 fd 48 28 42 20 	vmovapd 0x800(%rdx),%zmm24
  404588:	62 61 fd 48 28 4a 24 	vmovapd 0x900(%rdx),%zmm25
  40458f:	62 61 fd 48 28 52 28 	vmovapd 0xa00(%rdx),%zmm26
  404596:	62 61 fd 48 28 5a 2c 	vmovapd 0xb00(%rdx),%zmm27
  40459d:	62 61 fd 48 28 62 30 	vmovapd 0xc00(%rdx),%zmm28
  4045a4:	62 61 fd 48 28 6a 34 	vmovapd 0xd00(%rdx),%zmm29
  4045ab:	62 61 fd 48 28 72 38 	vmovapd 0xe00(%rdx),%zmm30
  4045b2:	62 61 fd 48 28 7a 3c 	vmovapd 0xf00(%rdx),%zmm31
  4045b9:	49 c7 c2 d0 45 40 00 	mov    $0x4045d0,%r10
  4045c0:	48 83 c6 b0          	add    $0xffffffffffffffb0,%rsi
  4045c4:	48 81 c7 40 20 00 00 	add    $0x2040,%rdi
  4045cb:	e9 93 fc ff ff       	jmpq   404263 <CASE_1_1906>

00000000004045d0 <BLOCK_1_0_2_1906>:
  4045d0:	62 e1 fd 48 29 02    	vmovapd %zmm16,(%rdx)
  4045d6:	62 e1 fd 48 29 4a 04 	vmovapd %zmm17,0x100(%rdx)
  4045dd:	62 e1 fd 48 29 52 08 	vmovapd %zmm18,0x200(%rdx)
  4045e4:	62 e1 fd 48 29 5a 0c 	vmovapd %zmm19,0x300(%rdx)
  4045eb:	62 e1 fd 48 29 62 10 	vmovapd %zmm20,0x400(%rdx)
  4045f2:	62 e1 fd 48 29 6a 14 	vmovapd %zmm21,0x500(%rdx)
  4045f9:	62 e1 fd 48 29 72 18 	vmovapd %zmm22,0x600(%rdx)
  404600:	62 e1 fd 48 29 7a 1c 	vmovapd %zmm23,0x700(%rdx)
  404607:	62 61 fd 48 29 42 20 	vmovapd %zmm24,0x800(%rdx)
  40460e:	62 61 fd 48 29 4a 24 	vmovapd %zmm25,0x900(%rdx)
  404615:	62 61 fd 48 29 52 28 	vmovapd %zmm26,0xa00(%rdx)
  40461c:	62 61 fd 48 29 5a 2c 	vmovapd %zmm27,0xb00(%rdx)
  404623:	62 61 fd 48 29 62 30 	vmovapd %zmm28,0xc00(%rdx)
  40462a:	62 61 fd 48 29 6a 34 	vmovapd %zmm29,0xd00(%rdx)
  404631:	62 61 fd 48 29 72 38 	vmovapd %zmm30,0xe00(%rdx)
  404638:	62 61 fd 48 29 7a 3c 	vmovapd %zmm31,0xf00(%rdx)
  40463f:	48 81 c2 00 10 00 00 	add    $0x1000,%rdx
  404646:	62 e1 fd 48 28 02    	vmovapd (%rdx),%zmm16
  40464c:	62 e1 fd 48 28 4a 04 	vmovapd 0x100(%rdx),%zmm17
  404653:	62 e1 fd 48 28 52 08 	vmovapd 0x200(%rdx),%zmm18
  40465a:	62 e1 fd 48 28 5a 0c 	vmovapd 0x300(%rdx),%zmm19
  404661:	62 e1 fd 48 28 62 10 	vmovapd 0x400(%rdx),%zmm20
  404668:	62 e1 fd 48 28 6a 14 	vmovapd 0x500(%rdx),%zmm21
  40466f:	62 e1 fd 48 28 72 18 	vmovapd 0x600(%rdx),%zmm22
  404676:	62 e1 fd 48 28 7a 1c 	vmovapd 0x700(%rdx),%zmm23
  40467d:	62 61 fd 48 28 42 20 	vmovapd 0x800(%rdx),%zmm24
  404684:	62 61 fd 48 28 4a 24 	vmovapd 0x900(%rdx),%zmm25
  40468b:	62 61 fd 48 28 52 28 	vmovapd 0xa00(%rdx),%zmm26
  404692:	62 61 fd 48 28 5a 2c 	vmovapd 0xb00(%rdx),%zmm27
  404699:	62 61 fd 48 28 62 30 	vmovapd 0xc00(%rdx),%zmm28
  4046a0:	62 61 fd 48 28 6a 34 	vmovapd 0xd00(%rdx),%zmm29
  4046a7:	62 61 fd 48 28 72 38 	vmovapd 0xe00(%rdx),%zmm30
  4046ae:	62 61 fd 48 28 7a 3c 	vmovapd 0xf00(%rdx),%zmm31
  4046b5:	49 c7 c2 cc 46 40 00 	mov    $0x4046cc,%r10
  4046bc:	48 83 c6 50          	add    $0x50,%rsi
  4046c0:	48 81 c7 00 e0 ff ff 	add    $0xffffffffffffe000,%rdi
  4046c7:	e9 10 fc ff ff       	jmpq   4042dc <CASE_2_1906>

00000000004046cc <BLOCK_1_1_0_1906>:
  4046cc:	62 e1 fd 48 29 02    	vmovapd %zmm16,(%rdx)
  4046d2:	62 e1 fd 48 29 4a 04 	vmovapd %zmm17,0x100(%rdx)
  4046d9:	62 e1 fd 48 29 52 08 	vmovapd %zmm18,0x200(%rdx)
  4046e0:	62 e1 fd 48 29 5a 0c 	vmovapd %zmm19,0x300(%rdx)
  4046e7:	62 e1 fd 48 29 62 10 	vmovapd %zmm20,0x400(%rdx)
  4046ee:	62 e1 fd 48 29 6a 14 	vmovapd %zmm21,0x500(%rdx)
  4046f5:	62 e1 fd 48 29 72 18 	vmovapd %zmm22,0x600(%rdx)
  4046fc:	62 e1 fd 48 29 7a 1c 	vmovapd %zmm23,0x700(%rdx)
  404703:	62 61 fd 48 29 42 20 	vmovapd %zmm24,0x800(%rdx)
  40470a:	62 61 fd 48 29 4a 24 	vmovapd %zmm25,0x900(%rdx)
  404711:	62 61 fd 48 29 52 28 	vmovapd %zmm26,0xa00(%rdx)
  404718:	62 61 fd 48 29 5a 2c 	vmovapd %zmm27,0xb00(%rdx)
  40471f:	62 61 fd 48 29 62 30 	vmovapd %zmm28,0xc00(%rdx)
  404726:	62 61 fd 48 29 6a 34 	vmovapd %zmm29,0xd00(%rdx)
  40472d:	62 61 fd 48 29 72 38 	vmovapd %zmm30,0xe00(%rdx)
  404734:	62 61 fd 48 29 7a 3c 	vmovapd %zmm31,0xf00(%rdx)
  40473b:	48 81 c2 40 f0 ff ff 	add    $0xfffffffffffff040,%rdx
  404742:	62 e1 fd 48 28 02    	vmovapd (%rdx),%zmm16
  404748:	62 e1 fd 48 28 4a 04 	vmovapd 0x100(%rdx),%zmm17
  40474f:	62 e1 fd 48 28 52 08 	vmovapd 0x200(%rdx),%zmm18
  404756:	62 e1 fd 48 28 5a 0c 	vmovapd 0x300(%rdx),%zmm19
  40475d:	62 e1 fd 48 28 62 10 	vmovapd 0x400(%rdx),%zmm20
  404764:	62 e1 fd 48 28 6a 14 	vmovapd 0x500(%rdx),%zmm21
  40476b:	62 e1 fd 48 28 72 18 	vmovapd 0x600(%rdx),%zmm22
  404772:	62 e1 fd 48 28 7a 1c 	vmovapd 0x700(%rdx),%zmm23
  404779:	62 61 fd 48 28 42 20 	vmovapd 0x800(%rdx),%zmm24
  404780:	62 61 fd 48 28 4a 24 	vmovapd 0x900(%rdx),%zmm25
  404787:	62 61 fd 48 28 52 28 	vmovapd 0xa00(%rdx),%zmm26
  40478e:	62 61 fd 48 28 5a 2c 	vmovapd 0xb00(%rdx),%zmm27
  404795:	62 61 fd 48 28 62 30 	vmovapd 0xc00(%rdx),%zmm28
  40479c:	62 61 fd 48 28 6a 34 	vmovapd 0xd00(%rdx),%zmm29
  4047a3:	62 61 fd 48 28 72 38 	vmovapd 0xe00(%rdx),%zmm30
  4047aa:	62 61 fd 48 28 7a 3c 	vmovapd 0xf00(%rdx),%zmm31
  4047b1:	49 c7 c2 c8 47 40 00 	mov    $0x4047c8,%r10
  4047b8:	48 83 c6 b0          	add    $0xffffffffffffffb0,%rsi
  4047bc:	48 81 c7 40 20 00 00 	add    $0x2040,%rdi
  4047c3:	e9 9b fa ff ff       	jmpq   404263 <CASE_1_1906>

00000000004047c8 <BLOCK_2_0_2_1906>:
  4047c8:	62 e1 fd 48 29 02    	vmovapd %zmm16,(%rdx)
  4047ce:	62 e1 fd 48 29 4a 04 	vmovapd %zmm17,0x100(%rdx)
  4047d5:	62 e1 fd 48 29 52 08 	vmovapd %zmm18,0x200(%rdx)
  4047dc:	62 e1 fd 48 29 5a 0c 	vmovapd %zmm19,0x300(%rdx)
  4047e3:	62 e1 fd 48 29 62 10 	vmovapd %zmm20,0x400(%rdx)
  4047ea:	62 e1 fd 48 29 6a 14 	vmovapd %zmm21,0x500(%rdx)
  4047f1:	62 e1 fd 48 29 72 18 	vmovapd %zmm22,0x600(%rdx)
  4047f8:	62 e1 fd 48 29 7a 1c 	vmovapd %zmm23,0x700(%rdx)
  4047ff:	62 61 fd 48 29 42 20 	vmovapd %zmm24,0x800(%rdx)
  404806:	62 61 fd 48 29 4a 24 	vmovapd %zmm25,0x900(%rdx)
  40480d:	62 61 fd 48 29 52 28 	vmovapd %zmm26,0xa00(%rdx)
  404814:	62 61 fd 48 29 5a 2c 	vmovapd %zmm27,0xb00(%rdx)
  40481b:	62 61 fd 48 29 62 30 	vmovapd %zmm28,0xc00(%rdx)
  404822:	62 61 fd 48 29 6a 34 	vmovapd %zmm29,0xd00(%rdx)
  404829:	62 61 fd 48 29 72 38 	vmovapd %zmm30,0xe00(%rdx)
  404830:	62 61 fd 48 29 7a 3c 	vmovapd %zmm31,0xf00(%rdx)
  404837:	48 81 c2 00 10 00 00 	add    $0x1000,%rdx
  40483e:	62 e1 fd 48 28 02    	vmovapd (%rdx),%zmm16
  404844:	62 e1 fd 48 28 4a 04 	vmovapd 0x100(%rdx),%zmm17
  40484b:	62 e1 fd 48 28 52 08 	vmovapd 0x200(%rdx),%zmm18
  404852:	62 e1 fd 48 28 5a 0c 	vmovapd 0x300(%rdx),%zmm19
  404859:	62 e1 fd 48 28 62 10 	vmovapd 0x400(%rdx),%zmm20
  404860:	62 e1 fd 48 28 6a 14 	vmovapd 0x500(%rdx),%zmm21
  404867:	62 e1 fd 48 28 72 18 	vmovapd 0x600(%rdx),%zmm22
  40486e:	62 e1 fd 48 28 7a 1c 	vmovapd 0x700(%rdx),%zmm23
  404875:	62 61 fd 48 28 42 20 	vmovapd 0x800(%rdx),%zmm24
  40487c:	62 61 fd 48 28 4a 24 	vmovapd 0x900(%rdx),%zmm25
  404883:	62 61 fd 48 28 52 28 	vmovapd 0xa00(%rdx),%zmm26
  40488a:	62 61 fd 48 28 5a 2c 	vmovapd 0xb00(%rdx),%zmm27
  404891:	62 61 fd 48 28 62 30 	vmovapd 0xc00(%rdx),%zmm28
  404898:	62 61 fd 48 28 6a 34 	vmovapd 0xd00(%rdx),%zmm29
  40489f:	62 61 fd 48 28 72 38 	vmovapd 0xe00(%rdx),%zmm30
  4048a6:	62 61 fd 48 28 7a 3c 	vmovapd 0xf00(%rdx),%zmm31
  4048ad:	49 c7 c2 c4 48 40 00 	mov    $0x4048c4,%r10
  4048b4:	48 83 c6 50          	add    $0x50,%rsi
  4048b8:	48 81 c7 00 e0 ff ff 	add    $0xffffffffffffe000,%rdi
  4048bf:	e9 18 fa ff ff       	jmpq   4042dc <CASE_2_1906>

00000000004048c4 <BLOCK_2_1_0_1906>:
  4048c4:	62 e1 fd 48 29 02    	vmovapd %zmm16,(%rdx)
  4048ca:	62 e1 fd 48 29 4a 04 	vmovapd %zmm17,0x100(%rdx)
  4048d1:	62 e1 fd 48 29 52 08 	vmovapd %zmm18,0x200(%rdx)
  4048d8:	62 e1 fd 48 29 5a 0c 	vmovapd %zmm19,0x300(%rdx)
  4048df:	62 e1 fd 48 29 62 10 	vmovapd %zmm20,0x400(%rdx)
  4048e6:	62 e1 fd 48 29 6a 14 	vmovapd %zmm21,0x500(%rdx)
  4048ed:	62 e1 fd 48 29 72 18 	vmovapd %zmm22,0x600(%rdx)
  4048f4:	62 e1 fd 48 29 7a 1c 	vmovapd %zmm23,0x700(%rdx)
  4048fb:	62 61 fd 48 29 42 20 	vmovapd %zmm24,0x800(%rdx)
  404902:	62 61 fd 48 29 4a 24 	vmovapd %zmm25,0x900(%rdx)
  404909:	62 61 fd 48 29 52 28 	vmovapd %zmm26,0xa00(%rdx)
  404910:	62 61 fd 48 29 5a 2c 	vmovapd %zmm27,0xb00(%rdx)
  404917:	62 61 fd 48 29 62 30 	vmovapd %zmm28,0xc00(%rdx)
  40491e:	62 61 fd 48 29 6a 34 	vmovapd %zmm29,0xd00(%rdx)
  404925:	62 61 fd 48 29 72 38 	vmovapd %zmm30,0xe00(%rdx)
  40492c:	62 61 fd 48 29 7a 3c 	vmovapd %zmm31,0xf00(%rdx)
  404933:	48 81 c2 40 f0 ff ff 	add    $0xfffffffffffff040,%rdx
  40493a:	62 e1 fd 48 28 02    	vmovapd (%rdx),%zmm16
  404940:	62 e1 fd 48 28 4a 04 	vmovapd 0x100(%rdx),%zmm17
  404947:	62 e1 fd 48 28 52 08 	vmovapd 0x200(%rdx),%zmm18
  40494e:	62 e1 fd 48 28 5a 0c 	vmovapd 0x300(%rdx),%zmm19
  404955:	62 e1 fd 48 28 62 10 	vmovapd 0x400(%rdx),%zmm20
  40495c:	62 e1 fd 48 28 6a 14 	vmovapd 0x500(%rdx),%zmm21
  404963:	62 e1 fd 48 28 72 18 	vmovapd 0x600(%rdx),%zmm22
  40496a:	62 e1 fd 48 28 7a 1c 	vmovapd 0x700(%rdx),%zmm23
  404971:	62 61 fd 48 28 42 20 	vmovapd 0x800(%rdx),%zmm24
  404978:	62 61 fd 48 28 4a 24 	vmovapd 0x900(%rdx),%zmm25
  40497f:	62 61 fd 48 28 52 28 	vmovapd 0xa00(%rdx),%zmm26
  404986:	62 61 fd 48 28 5a 2c 	vmovapd 0xb00(%rdx),%zmm27
  40498d:	62 61 fd 48 28 62 30 	vmovapd 0xc00(%rdx),%zmm28
  404994:	62 61 fd 48 28 6a 34 	vmovapd 0xd00(%rdx),%zmm29
  40499b:	62 61 fd 48 28 72 38 	vmovapd 0xe00(%rdx),%zmm30
  4049a2:	62 61 fd 48 28 7a 3c 	vmovapd 0xf00(%rdx),%zmm31
  4049a9:	49 c7 c2 c0 49 40 00 	mov    $0x4049c0,%r10
  4049b0:	48 83 c6 b0          	add    $0xffffffffffffffb0,%rsi
  4049b4:	48 81 c7 40 20 00 00 	add    $0x2040,%rdi
  4049bb:	e9 a3 f8 ff ff       	jmpq   404263 <CASE_1_1906>

00000000004049c0 <BLOCK_3_0_2_1906>:
  4049c0:	62 e1 fd 48 29 02    	vmovapd %zmm16,(%rdx)
  4049c6:	62 e1 fd 48 29 4a 04 	vmovapd %zmm17,0x100(%rdx)
  4049cd:	62 e1 fd 48 29 52 08 	vmovapd %zmm18,0x200(%rdx)
  4049d4:	62 e1 fd 48 29 5a 0c 	vmovapd %zmm19,0x300(%rdx)
  4049db:	62 e1 fd 48 29 62 10 	vmovapd %zmm20,0x400(%rdx)
  4049e2:	62 e1 fd 48 29 6a 14 	vmovapd %zmm21,0x500(%rdx)
  4049e9:	62 e1 fd 48 29 72 18 	vmovapd %zmm22,0x600(%rdx)
  4049f0:	62 e1 fd 48 29 7a 1c 	vmovapd %zmm23,0x700(%rdx)
  4049f7:	62 61 fd 48 29 42 20 	vmovapd %zmm24,0x800(%rdx)
  4049fe:	62 61 fd 48 29 4a 24 	vmovapd %zmm25,0x900(%rdx)
  404a05:	62 61 fd 48 29 52 28 	vmovapd %zmm26,0xa00(%rdx)
  404a0c:	62 61 fd 48 29 5a 2c 	vmovapd %zmm27,0xb00(%rdx)
  404a13:	62 61 fd 48 29 62 30 	vmovapd %zmm28,0xc00(%rdx)
  404a1a:	62 61 fd 48 29 6a 34 	vmovapd %zmm29,0xd00(%rdx)
  404a21:	62 61 fd 48 29 72 38 	vmovapd %zmm30,0xe00(%rdx)
  404a28:	62 61 fd 48 29 7a 3c 	vmovapd %zmm31,0xf00(%rdx)
  404a2f:	48 81 c2 00 10 00 00 	add    $0x1000,%rdx
  404a36:	62 e1 fd 48 28 02    	vmovapd (%rdx),%zmm16
  404a3c:	62 e1 fd 48 28 4a 04 	vmovapd 0x100(%rdx),%zmm17
  404a43:	62 e1 fd 48 28 52 08 	vmovapd 0x200(%rdx),%zmm18
  404a4a:	62 e1 fd 48 28 5a 0c 	vmovapd 0x300(%rdx),%zmm19
  404a51:	62 e1 fd 48 28 62 10 	vmovapd 0x400(%rdx),%zmm20
  404a58:	62 e1 fd 48 28 6a 14 	vmovapd 0x500(%rdx),%zmm21
  404a5f:	62 e1 fd 48 28 72 18 	vmovapd 0x600(%rdx),%zmm22
  404a66:	62 e1 fd 48 28 7a 1c 	vmovapd 0x700(%rdx),%zmm23
  404a6d:	62 61 fd 48 28 42 20 	vmovapd 0x800(%rdx),%zmm24
  404a74:	62 61 fd 48 28 4a 24 	vmovapd 0x900(%rdx),%zmm25
  404a7b:	62 61 fd 48 28 52 28 	vmovapd 0xa00(%rdx),%zmm26
  404a82:	62 61 fd 48 28 5a 2c 	vmovapd 0xb00(%rdx),%zmm27
  404a89:	62 61 fd 48 28 62 30 	vmovapd 0xc00(%rdx),%zmm28
  404a90:	62 61 fd 48 28 6a 34 	vmovapd 0xd00(%rdx),%zmm29
  404a97:	62 61 fd 48 28 72 38 	vmovapd 0xe00(%rdx),%zmm30
  404a9e:	62 61 fd 48 28 7a 3c 	vmovapd 0xf00(%rdx),%zmm31
  404aa5:	49 c7 c2 bc 4a 40 00 	mov    $0x404abc,%r10
  404aac:	48 83 c6 50          	add    $0x50,%rsi
  404ab0:	48 81 c7 00 e0 ff ff 	add    $0xffffffffffffe000,%rdi
  404ab7:	e9 20 f8 ff ff       	jmpq   4042dc <CASE_2_1906>

0000000000404abc <BLOCK_3_1_0_1906>:
  404abc:	62 e1 fd 48 29 02    	vmovapd %zmm16,(%rdx)
  404ac2:	62 e1 fd 48 29 4a 04 	vmovapd %zmm17,0x100(%rdx)
  404ac9:	62 e1 fd 48 29 52 08 	vmovapd %zmm18,0x200(%rdx)
  404ad0:	62 e1 fd 48 29 5a 0c 	vmovapd %zmm19,0x300(%rdx)
  404ad7:	62 e1 fd 48 29 62 10 	vmovapd %zmm20,0x400(%rdx)
  404ade:	62 e1 fd 48 29 6a 14 	vmovapd %zmm21,0x500(%rdx)
  404ae5:	62 e1 fd 48 29 72 18 	vmovapd %zmm22,0x600(%rdx)
  404aec:	62 e1 fd 48 29 7a 1c 	vmovapd %zmm23,0x700(%rdx)
  404af3:	62 61 fd 48 29 42 20 	vmovapd %zmm24,0x800(%rdx)
  404afa:	62 61 fd 48 29 4a 24 	vmovapd %zmm25,0x900(%rdx)
  404b01:	62 61 fd 48 29 52 28 	vmovapd %zmm26,0xa00(%rdx)
  404b08:	62 61 fd 48 29 5a 2c 	vmovapd %zmm27,0xb00(%rdx)
  404b0f:	62 61 fd 48 29 62 30 	vmovapd %zmm28,0xc00(%rdx)
  404b16:	62 61 fd 48 29 6a 34 	vmovapd %zmm29,0xd00(%rdx)
  404b1d:	62 61 fd 48 29 72 38 	vmovapd %zmm30,0xe00(%rdx)
  404b24:	62 61 fd 48 29 7a 3c 	vmovapd %zmm31,0xf00(%rdx)
  404b2b:	c3                   	retq   
  404b2c:	0f 1f 40 00          	nopl   0x0(%rax)

0000000000404b30 <_Z30test_jump_penalty_2_20_libxsmmv>:
  404b30:	41 56                	push   %r14
  404b32:	41 55                	push   %r13
  404b34:	48 b8 20 00 00 00 30 	movabs $0x3000000020,%rax
  404b3b:	00 00 00 
  404b3e:	41 54                	push   %r12
  404b40:	55                   	push   %rbp
  404b41:	ba 00 30 00 00       	mov    $0x3000,%edx
  404b46:	53                   	push   %rbx
  404b47:	be 40 00 00 00       	mov    $0x40,%esi
  404b4c:	48 81 ec b0 04 00 00 	sub    $0x4b0,%rsp
  404b53:	48 8d 7c 24 58       	lea    0x58(%rsp),%rdi
  404b58:	48 c7 44 24 40 e0 69 	movq   $0x4069e0,0x40(%rsp)
  404b5f:	40 00 
  404b61:	48 89 44 24 48       	mov    %rax,0x48(%rsp)
  404b66:	c7 44 24 50 20 00 00 	movl   $0x20,0x50(%rsp)
  404b6d:	00 
  404b6e:	e8 1d c5 ff ff       	callq  401090 <posix_memalign@plt>
  404b73:	8b 5c 24 4c          	mov    0x4c(%rsp),%ebx
  404b77:	85 db                	test   %ebx,%ebx
  404b79:	0f 8e a4 00 00 00    	jle    404c23 <_Z30test_jump_penalty_2_20_libxsmmv+0xf3>
  404b7f:	44 8b 64 24 48       	mov    0x48(%rsp),%r12d
  404b84:	48 8b 4c 24 58       	mov    0x58(%rsp),%rcx
  404b89:	48 63 44 24 50       	movslq 0x50(%rsp),%rax
  404b8e:	45 85 e4             	test   %r12d,%r12d
  404b91:	7e 37                	jle    404bca <_Z30test_jump_penalty_2_20_libxsmmv+0x9a>
  404b93:	4c 8d 2c c5 00 00 00 	lea    0x0(,%rax,8),%r13
  404b9a:	00 
  404b9b:	41 8d 44 24 ff       	lea    -0x1(%r12),%eax
  404ba0:	31 ed                	xor    %ebp,%ebp
  404ba2:	4c 8d 34 c5 08 00 00 	lea    0x8(,%rax,8),%r14
  404ba9:	00 
  404baa:	66 0f 1f 44 00 00    	nopw   0x0(%rax,%rax,1)
  404bb0:	31 f6                	xor    %esi,%esi
  404bb2:	48 89 cf             	mov    %rcx,%rdi
  404bb5:	4c 89 f2             	mov    %r14,%rdx
  404bb8:	e8 e3 c4 ff ff       	callq  4010a0 <memset@plt>
  404bbd:	83 c5 01             	add    $0x1,%ebp
  404bc0:	48 89 c1             	mov    %rax,%rcx
  404bc3:	4c 01 e9             	add    %r13,%rcx
  404bc6:	39 dd                	cmp    %ebx,%ebp
  404bc8:	75 e6                	jne    404bb0 <_Z30test_jump_penalty_2_20_libxsmmv+0x80>
  404bca:	31 ed                	xor    %ebp,%ebp
  404bcc:	0f 1f 40 00          	nopl   0x0(%rax)
  404bd0:	45 85 e4             	test   %r12d,%r12d
  404bd3:	7e 47                	jle    404c1c <_Z30test_jump_penalty_2_20_libxsmmv+0xec>
  404bd5:	31 db                	xor    %ebx,%ebx
  404bd7:	66 0f 1f 84 00 00 00 	nopw   0x0(%rax,%rax,1)
  404bde:	00 00 
  404be0:	e8 8b c4 ff ff       	callq  401070 <rand@plt>
  404be5:	c5 f9 57 c0          	vxorpd %xmm0,%xmm0,%xmm0
  404be9:	8b 54 24 50          	mov    0x50(%rsp),%edx
  404bed:	44 8b 64 24 48       	mov    0x48(%rsp),%r12d
  404bf2:	c5 fb 2a c0          	vcvtsi2sd %eax,%xmm0,%xmm0
  404bf6:	c5 fb 5e 05 12 1e 00 	vdivsd 0x1e12(%rip),%xmm0,%xmm0        # 406a10 <_ZTV11DenseMatrix+0x40>
  404bfd:	00 
  404bfe:	48 8b 44 24 58       	mov    0x58(%rsp),%rax
  404c03:	0f af d5             	imul   %ebp,%edx
  404c06:	01 da                	add    %ebx,%edx
  404c08:	83 c3 01             	add    $0x1,%ebx
  404c0b:	48 63 d2             	movslq %edx,%rdx
  404c0e:	41 39 dc             	cmp    %ebx,%r12d
  404c11:	c5 fb 11 04 d0       	vmovsd %xmm0,(%rax,%rdx,8)
  404c16:	7f c8                	jg     404be0 <_Z30test_jump_penalty_2_20_libxsmmv+0xb0>
  404c18:	8b 5c 24 4c          	mov    0x4c(%rsp),%ebx
  404c1c:	83 c5 01             	add    $0x1,%ebp
  404c1f:	39 dd                	cmp    %ebx,%ebp
  404c21:	7c ad                	jl     404bd0 <_Z30test_jump_penalty_2_20_libxsmmv+0xa0>
  404c23:	be 9a 68 40 00       	mov    $0x40689a,%esi
  404c28:	bf 08 69 40 00       	mov    $0x406908,%edi
  404c2d:	48 c7 44 24 60 e0 69 	movq   $0x4069e0,0x60(%rsp)
  404c34:	40 00 
  404c36:	e8 f5 c4 ff ff       	callq  401130 <fopen@plt>
  404c3b:	48 8d bc 24 c0 00 00 	lea    0xc0(%rsp),%rdi
  404c42:	00 
  404c43:	48 89 c2             	mov    %rax,%rdx
  404c46:	be e8 03 00 00       	mov    $0x3e8,%esi
  404c4b:	48 89 c5             	mov    %rax,%rbp
  404c4e:	e8 4d c5 ff ff       	callq  4011a0 <fgets@plt>
  404c53:	48 8d bc 24 c0 00 00 	lea    0xc0(%rsp),%rdi
  404c5a:	00 
  404c5b:	48 89 ea             	mov    %rbp,%rdx
  404c5e:	be e8 03 00 00       	mov    $0x3e8,%esi
  404c63:	e8 38 c5 ff ff       	callq  4011a0 <fgets@plt>
  404c68:	48 8d 44 24 60       	lea    0x60(%rsp),%rax
  404c6d:	48 8d 4c 24 6c       	lea    0x6c(%rsp),%rcx
  404c72:	4c 8d 44 24 0c       	lea    0xc(%rsp),%r8
  404c77:	be 9c 68 40 00       	mov    $0x40689c,%esi
  404c7c:	48 89 ef             	mov    %rbp,%rdi
  404c7f:	48 8d 50 08          	lea    0x8(%rax),%rdx
  404c83:	31 c0                	xor    %eax,%eax
  404c85:	e8 a6 c5 ff ff       	callq  401230 <fscanf@plt>
  404c8a:	8b 44 24 68          	mov    0x68(%rsp),%eax
  404c8e:	48 8d 7c 24 78       	lea    0x78(%rsp),%rdi
  404c93:	be 40 00 00 00       	mov    $0x40,%esi
  404c98:	89 44 24 70          	mov    %eax,0x70(%rsp)
  404c9c:	0f af 44 24 6c       	imul   0x6c(%rsp),%eax
  404ca1:	48 63 d0             	movslq %eax,%rdx
  404ca4:	48 c1 e2 03          	shl    $0x3,%rdx
  404ca8:	e8 e3 c3 ff ff       	callq  401090 <posix_memalign@plt>
  404cad:	44 8b 6c 24 6c       	mov    0x6c(%rsp),%r13d
  404cb2:	45 85 ed             	test   %r13d,%r13d
  404cb5:	7e 44                	jle    404cfb <_Z30test_jump_penalty_2_20_libxsmmv+0x1cb>
  404cb7:	8b 54 24 68          	mov    0x68(%rsp),%edx
  404cbb:	48 8b 4c 24 78       	mov    0x78(%rsp),%rcx
  404cc0:	48 63 44 24 70       	movslq 0x70(%rsp),%rax
  404cc5:	85 d2                	test   %edx,%edx
  404cc7:	7e 32                	jle    404cfb <_Z30test_jump_penalty_2_20_libxsmmv+0x1cb>
  404cc9:	4c 8d 24 c5 00 00 00 	lea    0x0(,%rax,8),%r12
  404cd0:	00 
  404cd1:	8d 42 ff             	lea    -0x1(%rdx),%eax
  404cd4:	31 db                	xor    %ebx,%ebx
  404cd6:	4c 8d 34 c5 08 00 00 	lea    0x8(,%rax,8),%r14
  404cdd:	00 
  404cde:	66 90                	xchg   %ax,%ax
  404ce0:	31 f6                	xor    %esi,%esi
  404ce2:	48 89 cf             	mov    %rcx,%rdi
  404ce5:	4c 89 f2             	mov    %r14,%rdx
  404ce8:	e8 b3 c3 ff ff       	callq  4010a0 <memset@plt>
  404ced:	83 c3 01             	add    $0x1,%ebx
  404cf0:	48 89 c1             	mov    %rax,%rcx
  404cf3:	4c 01 e1             	add    %r12,%rcx
  404cf6:	41 39 dd             	cmp    %ebx,%r13d
  404cf9:	75 e5                	jne    404ce0 <_Z30test_jump_penalty_2_20_libxsmmv+0x1b0>
  404cfb:	8b 44 24 0c          	mov    0xc(%rsp),%eax
  404cff:	85 c0                	test   %eax,%eax
  404d01:	7e 52                	jle    404d55 <_Z30test_jump_penalty_2_20_libxsmmv+0x225>
  404d03:	31 db                	xor    %ebx,%ebx
  404d05:	0f 1f 00             	nopl   (%rax)
  404d08:	4c 8d 44 24 18       	lea    0x18(%rsp),%r8
  404d0d:	48 8d 4c 24 14       	lea    0x14(%rsp),%rcx
  404d12:	48 8d 54 24 10       	lea    0x10(%rsp),%rdx
  404d17:	be a6 68 40 00       	mov    $0x4068a6,%esi
  404d1c:	48 89 ef             	mov    %rbp,%rdi
  404d1f:	31 c0                	xor    %eax,%eax
  404d21:	e8 0a c5 ff ff       	callq  401230 <fscanf@plt>
  404d26:	8b 44 24 14          	mov    0x14(%rsp),%eax
  404d2a:	8b 54 24 10          	mov    0x10(%rsp),%edx
  404d2e:	83 c3 01             	add    $0x1,%ebx
  404d31:	c5 fb 10 44 24 18    	vmovsd 0x18(%rsp),%xmm0
  404d37:	83 e8 01             	sub    $0x1,%eax
  404d3a:	0f af 44 24 70       	imul   0x70(%rsp),%eax
  404d3f:	39 5c 24 0c          	cmp    %ebx,0xc(%rsp)
  404d43:	8d 44 10 ff          	lea    -0x1(%rax,%rdx,1),%eax
  404d47:	48 8b 54 24 78       	mov    0x78(%rsp),%rdx
  404d4c:	48 98                	cltq   
  404d4e:	c5 fb 11 04 c2       	vmovsd %xmm0,(%rdx,%rax,8)
  404d53:	7f b3                	jg     404d08 <_Z30test_jump_penalty_2_20_libxsmmv+0x1d8>
  404d55:	48 89 ef             	mov    %rbp,%rdi
  404d58:	e8 93 c3 ff ff       	callq  4010f0 <fclose@plt>
  404d5d:	48 8d bc 24 98 00 00 	lea    0x98(%rsp),%rdi
  404d64:	00 
  404d65:	48 b8 20 00 00 00 20 	movabs $0x2000000020,%rax
  404d6c:	00 00 00 
  404d6f:	ba 00 20 00 00       	mov    $0x2000,%edx
  404d74:	be 40 00 00 00       	mov    $0x40,%esi
  404d79:	48 c7 84 24 80 00 00 	movq   $0x4069e0,0x80(%rsp)
  404d80:	00 e0 69 40 00 
  404d85:	48 89 84 24 88 00 00 	mov    %rax,0x88(%rsp)
  404d8c:	00 
  404d8d:	c7 84 24 90 00 00 00 	movl   $0x20,0x90(%rsp)
  404d94:	20 00 00 00 
  404d98:	e8 f3 c2 ff ff       	callq  401090 <posix_memalign@plt>
  404d9d:	44 8b ac 24 8c 00 00 	mov    0x8c(%rsp),%r13d
  404da4:	00 
  404da5:	45 85 ed             	test   %r13d,%r13d
  404da8:	7e 51                	jle    404dfb <_Z30test_jump_penalty_2_20_libxsmmv+0x2cb>
  404daa:	8b 94 24 88 00 00 00 	mov    0x88(%rsp),%edx
  404db1:	48 8b 8c 24 98 00 00 	mov    0x98(%rsp),%rcx
  404db8:	00 
  404db9:	48 63 84 24 90 00 00 	movslq 0x90(%rsp),%rax
  404dc0:	00 
  404dc1:	85 d2                	test   %edx,%edx
  404dc3:	7e 36                	jle    404dfb <_Z30test_jump_penalty_2_20_libxsmmv+0x2cb>
  404dc5:	48 8d 2c c5 00 00 00 	lea    0x0(,%rax,8),%rbp
  404dcc:	00 
  404dcd:	8d 42 ff             	lea    -0x1(%rdx),%eax
  404dd0:	31 db                	xor    %ebx,%ebx
  404dd2:	4c 8d 24 c5 08 00 00 	lea    0x8(,%rax,8),%r12
  404dd9:	00 
  404dda:	66 0f 1f 44 00 00    	nopw   0x0(%rax,%rax,1)
  404de0:	31 f6                	xor    %esi,%esi
  404de2:	48 89 cf             	mov    %rcx,%rdi
  404de5:	4c 89 e2             	mov    %r12,%rdx
  404de8:	e8 b3 c2 ff ff       	callq  4010a0 <memset@plt>
  404ded:	83 c3 01             	add    $0x1,%ebx
  404df0:	48 89 c1             	mov    %rax,%rcx
  404df3:	48 01 e9             	add    %rbp,%rcx
  404df6:	41 39 dd             	cmp    %ebx,%r13d
  404df9:	75 e5                	jne    404de0 <_Z30test_jump_penalty_2_20_libxsmmv+0x2b0>
  404dfb:	48 8d bc 24 b8 00 00 	lea    0xb8(%rsp),%rdi
  404e02:	00 
  404e03:	48 b8 20 00 00 00 20 	movabs $0x2000000020,%rax
  404e0a:	00 00 00 
  404e0d:	ba 00 20 00 00       	mov    $0x2000,%edx
  404e12:	be 40 00 00 00       	mov    $0x40,%esi
  404e17:	48 c7 84 24 a0 00 00 	movq   $0x4069e0,0xa0(%rsp)
  404e1e:	00 e0 69 40 00 
  404e23:	48 89 84 24 a8 00 00 	mov    %rax,0xa8(%rsp)
  404e2a:	00 
  404e2b:	c7 84 24 b0 00 00 00 	movl   $0x20,0xb0(%rsp)
  404e32:	20 00 00 00 
  404e36:	e8 55 c2 ff ff       	callq  401090 <posix_memalign@plt>
  404e3b:	44 8b a4 24 ac 00 00 	mov    0xac(%rsp),%r12d
  404e42:	00 
  404e43:	45 85 e4             	test   %r12d,%r12d
  404e46:	7e 53                	jle    404e9b <_Z30test_jump_penalty_2_20_libxsmmv+0x36b>
  404e48:	8b 94 24 a8 00 00 00 	mov    0xa8(%rsp),%edx
  404e4f:	48 8b 8c 24 b8 00 00 	mov    0xb8(%rsp),%rcx
  404e56:	00 
  404e57:	48 63 84 24 b0 00 00 	movslq 0xb0(%rsp),%rax
  404e5e:	00 
  404e5f:	85 d2                	test   %edx,%edx
  404e61:	7e 38                	jle    404e9b <_Z30test_jump_penalty_2_20_libxsmmv+0x36b>
  404e63:	48 8d 2c c5 00 00 00 	lea    0x0(,%rax,8),%rbp
  404e6a:	00 
  404e6b:	8d 42 ff             	lea    -0x1(%rdx),%eax
  404e6e:	31 db                	xor    %ebx,%ebx
  404e70:	4c 8d 2c c5 08 00 00 	lea    0x8(,%rax,8),%r13
  404e77:	00 
  404e78:	0f 1f 84 00 00 00 00 	nopl   0x0(%rax,%rax,1)
  404e7f:	00 
  404e80:	31 f6                	xor    %esi,%esi
  404e82:	48 89 cf             	mov    %rcx,%rdi
  404e85:	4c 89 ea             	mov    %r13,%rdx
  404e88:	e8 13 c2 ff ff       	callq  4010a0 <memset@plt>
  404e8d:	83 c3 01             	add    $0x1,%ebx
  404e90:	48 89 c1             	mov    %rax,%rcx
  404e93:	48 01 e9             	add    %rbp,%rcx
  404e96:	41 39 dc             	cmp    %ebx,%r12d
  404e99:	75 e5                	jne    404e80 <_Z30test_jump_penalty_2_20_libxsmmv+0x350>
  404e9b:	48 8d 94 24 80 00 00 	lea    0x80(%rsp),%rdx
  404ea2:	00 
  404ea3:	48 8d 74 24 60       	lea    0x60(%rsp),%rsi
  404ea8:	48 8d 7c 24 40       	lea    0x40(%rsp),%rdi
  404ead:	e8 de c4 ff ff       	callq  401390 <_Z4gemmRK6MatrixS1_RS_.constprop.7>
  404eb2:	48 8b 74 24 78       	mov    0x78(%rsp),%rsi
  404eb7:	48 8b 7c 24 58       	mov    0x58(%rsp),%rdi
  404ebc:	48 8b 94 24 b8 00 00 	mov    0xb8(%rsp),%rdx
  404ec3:	00 
  404ec4:	e8 e7 d5 ff ff       	callq  4024b0 <_Z25jump_penalty_2_20_libxsmmPKdS0_Pd>
  404ec9:	48 8d b4 24 a0 00 00 	lea    0xa0(%rsp),%rsi
  404ed0:	00 
  404ed1:	48 8d bc 24 80 00 00 	lea    0x80(%rsp),%rdi
  404ed8:	00 
  404ed9:	e8 d2 c7 ff ff       	callq  4016b0 <_Z13assert_equalsRK6MatrixS1_.constprop.8>
  404ede:	48 8d 74 24 20       	lea    0x20(%rsp),%rsi
  404ee3:	bf 01 00 00 00       	mov    $0x1,%edi
  404ee8:	bb b8 0b 00 00       	mov    $0xbb8,%ebx
  404eed:	e8 7e c2 ff ff       	callq  401170 <clock_gettime@plt>
  404ef2:	66 0f 1f 44 00 00    	nopw   0x0(%rax,%rax,1)
  404ef8:	48 8b 94 24 b8 00 00 	mov    0xb8(%rsp),%rdx
  404eff:	00 
  404f00:	48 8b 74 24 78       	mov    0x78(%rsp),%rsi
  404f05:	48 8b 7c 24 58       	mov    0x58(%rsp),%rdi
  404f0a:	e8 a1 d5 ff ff       	callq  4024b0 <_Z25jump_penalty_2_20_libxsmmPKdS0_Pd>
  404f0f:	83 eb 01             	sub    $0x1,%ebx
  404f12:	75 e4                	jne    404ef8 <_Z30test_jump_penalty_2_20_libxsmmv+0x3c8>
  404f14:	48 8d 74 24 30       	lea    0x30(%rsp),%rsi
  404f19:	bf 01 00 00 00       	mov    $0x1,%edi
  404f1e:	e8 4d c2 ff ff       	callq  401170 <clock_gettime@plt>
  404f23:	ba 1b 00 00 00       	mov    $0x1b,%edx
  404f28:	be b1 68 40 00       	mov    $0x4068b1,%esi
  404f2d:	bf a0 81 60 00       	mov    $0x6081a0,%edi
  404f32:	e8 d9 c1 ff ff       	callq  401110 <_ZSt16__ostream_insertIcSt11char_traitsIcEERSt13basic_ostreamIT_T0_ES6_PKS3_l@plt>
  404f37:	48 8b 44 24 30       	mov    0x30(%rsp),%rax
  404f3c:	48 2b 44 24 20       	sub    0x20(%rsp),%rax
  404f41:	bf a0 81 60 00       	mov    $0x6081a0,%edi
  404f46:	c5 f9 57 c0          	vxorpd %xmm0,%xmm0,%xmm0
  404f4a:	48 69 c0 00 ca 9a 3b 	imul   $0x3b9aca00,%rax,%rax
  404f51:	48 03 44 24 38       	add    0x38(%rsp),%rax
  404f56:	48 2b 44 24 28       	sub    0x28(%rsp),%rax
  404f5b:	c4 e1 fb 2a c0       	vcvtsi2sd %rax,%xmm0,%xmm0
  404f60:	c5 fb 59 05 a0 1a 00 	vmulsd 0x1aa0(%rip),%xmm0,%xmm0        # 406a08 <_ZTV11DenseMatrix+0x38>
  404f67:	00 
  404f68:	c5 fb 5e 05 a8 1a 00 	vdivsd 0x1aa8(%rip),%xmm0,%xmm0        # 406a18 <_ZTV11DenseMatrix+0x48>
  404f6f:	00 
  404f70:	e8 3b c2 ff ff       	callq  4011b0 <_ZNSo9_M_insertIdEERSoT_@plt>
  404f75:	48 89 c5             	mov    %rax,%rbp
  404f78:	48 8b 00             	mov    (%rax),%rax
  404f7b:	48 8b 40 e8          	mov    -0x18(%rax),%rax
  404f7f:	48 8b 9c 05 f0 00 00 	mov    0xf0(%rbp,%rax,1),%rbx
  404f86:	00 
  404f87:	48 85 db             	test   %rbx,%rbx
  404f8a:	0f 84 93 00 00 00    	je     405023 <_Z30test_jump_penalty_2_20_libxsmmv+0x4f3>
  404f90:	80 7b 38 00          	cmpb   $0x0,0x38(%rbx)
  404f94:	74 52                	je     404fe8 <_Z30test_jump_penalty_2_20_libxsmmv+0x4b8>
  404f96:	0f be 73 43          	movsbl 0x43(%rbx),%esi
  404f9a:	48 89 ef             	mov    %rbp,%rdi
  404f9d:	e8 be c0 ff ff       	callq  401060 <_ZNSo3putEc@plt>
  404fa2:	48 89 c7             	mov    %rax,%rdi
  404fa5:	e8 06 c1 ff ff       	callq  4010b0 <_ZNSo5flushEv@plt>
  404faa:	48 8b bc 24 b8 00 00 	mov    0xb8(%rsp),%rdi
  404fb1:	00 
  404fb2:	e8 89 c1 ff ff       	callq  401140 <free@plt>
  404fb7:	48 8b bc 24 98 00 00 	mov    0x98(%rsp),%rdi
  404fbe:	00 
  404fbf:	e8 7c c1 ff ff       	callq  401140 <free@plt>
  404fc4:	48 8b 7c 24 78       	mov    0x78(%rsp),%rdi
  404fc9:	e8 72 c1 ff ff       	callq  401140 <free@plt>
  404fce:	48 8b 7c 24 58       	mov    0x58(%rsp),%rdi
  404fd3:	e8 68 c1 ff ff       	callq  401140 <free@plt>
  404fd8:	48 81 c4 b0 04 00 00 	add    $0x4b0,%rsp
  404fdf:	5b                   	pop    %rbx
  404fe0:	5d                   	pop    %rbp
  404fe1:	41 5c                	pop    %r12
  404fe3:	41 5d                	pop    %r13
  404fe5:	41 5e                	pop    %r14
  404fe7:	c3                   	retq   
  404fe8:	48 89 df             	mov    %rbx,%rdi
  404feb:	e8 30 c1 ff ff       	callq  401120 <_ZNKSt5ctypeIcE13_M_widen_initEv@plt>
  404ff0:	48 8b 03             	mov    (%rbx),%rax
  404ff3:	be 0a 00 00 00       	mov    $0xa,%esi
  404ff8:	48 8b 40 30          	mov    0x30(%rax),%rax
  404ffc:	48 3d f0 65 40 00    	cmp    $0x4065f0,%rax
  405002:	74 96                	je     404f9a <_Z30test_jump_penalty_2_20_libxsmmv+0x46a>
  405004:	48 89 df             	mov    %rbx,%rdi
  405007:	ff d0                	callq  *%rax
  405009:	0f be f0             	movsbl %al,%esi
  40500c:	eb 8c                	jmp    404f9a <_Z30test_jump_penalty_2_20_libxsmmv+0x46a>
  40500e:	48 89 c3             	mov    %rax,%rbx
  405011:	48 8b 7c 24 58       	mov    0x58(%rsp),%rdi
  405016:	e8 25 c1 ff ff       	callq  401140 <free@plt>
  40501b:	48 89 df             	mov    %rbx,%rdi
  40501e:	e8 dd c1 ff ff       	callq  401200 <_Unwind_Resume@plt>
  405023:	e8 28 c1 ff ff       	callq  401150 <_ZSt16__throw_bad_castv@plt>
  405028:	48 8b bc 24 b8 00 00 	mov    0xb8(%rsp),%rdi
  40502f:	00 
  405030:	48 89 c3             	mov    %rax,%rbx
  405033:	e8 08 c1 ff ff       	callq  401140 <free@plt>
  405038:	48 8b bc 24 98 00 00 	mov    0x98(%rsp),%rdi
  40503f:	00 
  405040:	e8 fb c0 ff ff       	callq  401140 <free@plt>
  405045:	48 8b 7c 24 78       	mov    0x78(%rsp),%rdi
  40504a:	e8 f1 c0 ff ff       	callq  401140 <free@plt>
  40504f:	eb c0                	jmp    405011 <_Z30test_jump_penalty_2_20_libxsmmv+0x4e1>
  405051:	0f 1f 44 00 00       	nopl   0x0(%rax,%rax,1)
  405056:	66 2e 0f 1f 84 00 00 	nopw   %cs:0x0(%rax,%rax,1)
  40505d:	00 00 00 

0000000000405060 <_Z6to_cscRK6Matrix>:
  405060:	41 55                	push   %r13
  405062:	41 54                	push   %r12
  405064:	49 89 fd             	mov    %rdi,%r13
  405067:	55                   	push   %rbp
  405068:	53                   	push   %rbx
  405069:	48 89 f5             	mov    %rsi,%rbp
  40506c:	bf 30 00 00 00       	mov    $0x30,%edi
  405071:	48 83 ec 08          	sub    $0x8,%rsp
  405075:	e8 86 c0 ff ff       	callq  401100 <_Znwm@plt>
  40507a:	8b 55 08             	mov    0x8(%rbp),%edx
  40507d:	48 89 c3             	mov    %rax,%rbx
  405080:	8b 45 0c             	mov    0xc(%rbp),%eax
  405083:	48 c7 03 c0 69 40 00 	movq   $0x4069c0,(%rbx)
  40508a:	c7 43 10 00 00 00 00 	movl   $0x0,0x10(%rbx)
  405091:	41 89 d4             	mov    %edx,%r12d
  405094:	89 43 0c             	mov    %eax,0xc(%rbx)
  405097:	89 53 08             	mov    %edx,0x8(%rbx)
  40509a:	44 0f af e0          	imul   %eax,%r12d
  40509e:	48 b8 ff ff ff ff ff 	movabs $0xfffffffffffffff,%rax
  4050a5:	ff ff 0f 
  4050a8:	44 89 63 14          	mov    %r12d,0x14(%rbx)
  4050ac:	4d 63 e4             	movslq %r12d,%r12
  4050af:	49 39 c4             	cmp    %rax,%r12
  4050b2:	0f 87 64 01 00 00    	ja     40521c <_Z6to_cscRK6Matrix+0x1bc>
  4050b8:	4a 8d 3c e5 00 00 00 	lea    0x0(,%r12,8),%rdi
  4050bf:	00 
  4050c0:	e8 8b bf ff ff       	callq  401050 <_Znam@plt>
  4050c5:	49 c1 e4 02          	shl    $0x2,%r12
  4050c9:	48 89 43 18          	mov    %rax,0x18(%rbx)
  4050cd:	4c 89 e7             	mov    %r12,%rdi
  4050d0:	e8 7b bf ff ff       	callq  401050 <_Znam@plt>
  4050d5:	48 89 43 20          	mov    %rax,0x20(%rbx)
  4050d9:	4c 89 e7             	mov    %r12,%rdi
  4050dc:	e8 6f bf ff ff       	callq  401050 <_Znam@plt>
  4050e1:	8b 55 0c             	mov    0xc(%rbp),%edx
  4050e4:	48 89 43 28          	mov    %rax,0x28(%rbx)
  4050e8:	49 89 5d 00          	mov    %rbx,0x0(%r13)
  4050ec:	85 d2                	test   %edx,%edx
  4050ee:	0f 8e 0c 01 00 00    	jle    405200 <_Z6to_cscRK6Matrix+0x1a0>
  4050f4:	8b 45 08             	mov    0x8(%rbp),%eax
  4050f7:	45 31 e4             	xor    %r12d,%r12d
  4050fa:	66 0f 1f 44 00 00    	nopw   0x0(%rax,%rax,1)
  405100:	85 c0                	test   %eax,%eax
  405102:	0f 8e eb 00 00 00    	jle    4051f3 <_Z6to_cscRK6Matrix+0x193>
  405108:	31 db                	xor    %ebx,%ebx
  40510a:	eb 12                	jmp    40511e <_Z6to_cscRK6Matrix+0xbe>
  40510c:	0f 1f 40 00          	nopl   0x0(%rax)
  405110:	8b 45 08             	mov    0x8(%rbp),%eax
  405113:	83 c3 01             	add    $0x1,%ebx
  405116:	39 d8                	cmp    %ebx,%eax
  405118:	0f 8e d2 00 00 00    	jle    4051f0 <_Z6to_cscRK6Matrix+0x190>
  40511e:	48 8b 45 00          	mov    0x0(%rbp),%rax
  405122:	44 89 e2             	mov    %r12d,%edx
  405125:	89 de                	mov    %ebx,%esi
  405127:	48 89 ef             	mov    %rbp,%rdi
  40512a:	ff 10                	callq  *(%rax)
  40512c:	c5 f9 28 c8          	vmovapd %xmm0,%xmm1
  405130:	c5 f1 54 0d b8 18 00 	vandpd 0x18b8(%rip),%xmm1,%xmm1        # 4069f0 <_ZTV11DenseMatrix+0x20>
  405137:	00 
  405138:	c5 f9 2e 0d c0 18 00 	vucomisd 0x18c0(%rip),%xmm1        # 406a00 <_ZTV11DenseMatrix+0x30>
  40513f:	00 
  405140:	76 ce                	jbe    405110 <_Z6to_cscRK6Matrix+0xb0>
  405142:	49 8b 7d 00          	mov    0x0(%r13),%rdi
  405146:	48 8b 07             	mov    (%rdi),%rax
  405149:	48 8b 40 08          	mov    0x8(%rax),%rax
  40514d:	48 3d 50 66 40 00    	cmp    $0x406650,%rax
  405153:	0f 85 b7 00 00 00    	jne    405210 <_Z6to_cscRK6Matrix+0x1b0>
  405159:	48 63 77 10          	movslq 0x10(%rdi),%rsi
  40515d:	48 8b 57 20          	mov    0x20(%rdi),%rdx
  405161:	85 f6                	test   %esi,%esi
  405163:	7e 5c                	jle    4051c1 <_Z6to_cscRK6Matrix+0x161>
  405165:	8d 46 ff             	lea    -0x1(%rsi),%eax
  405168:	45 31 c9             	xor    %r9d,%r9d
  40516b:	48 8d 0c 85 04 00 00 	lea    0x4(,%rax,4),%rcx
  405172:	00 
  405173:	31 c0                	xor    %eax,%eax
  405175:	eb 12                	jmp    405189 <_Z6to_cscRK6Matrix+0x129>
  405177:	66 0f 1f 84 00 00 00 	nopw   0x0(%rax,%rax,1)
  40517e:	00 00 
  405180:	48 83 c0 04          	add    $0x4,%rax
  405184:	48 39 c8             	cmp    %rcx,%rax
  405187:	74 2f                	je     4051b8 <_Z6to_cscRK6Matrix+0x158>
  405189:	39 1c 02             	cmp    %ebx,(%rdx,%rax,1)
  40518c:	75 f2                	jne    405180 <_Z6to_cscRK6Matrix+0x120>
  40518e:	4c 8b 47 28          	mov    0x28(%rdi),%r8
  405192:	45 3b 24 00          	cmp    (%r8,%rax,1),%r12d
  405196:	75 e8                	jne    405180 <_Z6to_cscRK6Matrix+0x120>
  405198:	4c 8b 47 18          	mov    0x18(%rdi),%r8
  40519c:	41 b9 01 00 00 00    	mov    $0x1,%r9d
  4051a2:	c4 c1 7b 11 04 40    	vmovsd %xmm0,(%r8,%rax,2)
  4051a8:	48 83 c0 04          	add    $0x4,%rax
  4051ac:	48 39 c8             	cmp    %rcx,%rax
  4051af:	75 d8                	jne    405189 <_Z6to_cscRK6Matrix+0x129>
  4051b1:	0f 1f 80 00 00 00 00 	nopl   0x0(%rax)
  4051b8:	45 84 c9             	test   %r9b,%r9b
  4051bb:	0f 85 4f ff ff ff    	jne    405110 <_Z6to_cscRK6Matrix+0xb0>
  4051c1:	48 8b 47 18          	mov    0x18(%rdi),%rax
  4051c5:	c5 fb 11 04 f0       	vmovsd %xmm0,(%rax,%rsi,8)
  4051ca:	89 1c b2             	mov    %ebx,(%rdx,%rsi,4)
  4051cd:	48 63 57 10          	movslq 0x10(%rdi),%rdx
  4051d1:	48 8b 47 28          	mov    0x28(%rdi),%rax
  4051d5:	83 c3 01             	add    $0x1,%ebx
  4051d8:	44 89 24 90          	mov    %r12d,(%rax,%rdx,4)
  4051dc:	8b 45 08             	mov    0x8(%rbp),%eax
  4051df:	83 47 10 01          	addl   $0x1,0x10(%rdi)
  4051e3:	39 d8                	cmp    %ebx,%eax
  4051e5:	0f 8f 33 ff ff ff    	jg     40511e <_Z6to_cscRK6Matrix+0xbe>
  4051eb:	0f 1f 44 00 00       	nopl   0x0(%rax,%rax,1)
  4051f0:	8b 55 0c             	mov    0xc(%rbp),%edx
  4051f3:	41 83 c4 01          	add    $0x1,%r12d
  4051f7:	41 39 d4             	cmp    %edx,%r12d
  4051fa:	0f 8c 00 ff ff ff    	jl     405100 <_Z6to_cscRK6Matrix+0xa0>
  405200:	48 83 c4 08          	add    $0x8,%rsp
  405204:	4c 89 e8             	mov    %r13,%rax
  405207:	5b                   	pop    %rbx
  405208:	5d                   	pop    %rbp
  405209:	41 5c                	pop    %r12
  40520b:	41 5d                	pop    %r13
  40520d:	c3                   	retq   
  40520e:	66 90                	xchg   %ax,%ax
  405210:	44 89 e2             	mov    %r12d,%edx
  405213:	89 de                	mov    %ebx,%esi
  405215:	ff d0                	callq  *%rax
  405217:	e9 f4 fe ff ff       	jmpq   405110 <_Z6to_cscRK6Matrix+0xb0>
  40521c:	e8 5f bf ff ff       	callq  401180 <__cxa_throw_bad_array_new_length@plt>
  405221:	48 89 c3             	mov    %rax,%rbx
  405224:	4c 89 ef             	mov    %r13,%rdi
  405227:	e8 34 15 00 00       	callq  406760 <_ZNSt10unique_ptrI12SparseMatrixSt14default_deleteIS0_EED1Ev>
  40522c:	48 89 df             	mov    %rbx,%rdi
  40522f:	e8 cc bf ff ff       	callq  401200 <_Unwind_Resume@plt>
  405234:	48 89 c5             	mov    %rax,%rbp
  405237:	48 89 df             	mov    %rbx,%rdi
  40523a:	e8 a1 be ff ff       	callq  4010e0 <_ZdlPv@plt>
  40523f:	48 89 ef             	mov    %rbp,%rdi
  405242:	e8 b9 bf ff ff       	callq  401200 <_Unwind_Resume@plt>
  405247:	66 0f 1f 84 00 00 00 	nopw   0x0(%rax,%rax,1)
  40524e:	00 00 

0000000000405250 <_Z7to_bcscRK6Matrixii>:
  405250:	41 57                	push   %r15
  405252:	41 56                	push   %r14
  405254:	41 89 d7             	mov    %edx,%r15d
  405257:	41 55                	push   %r13
  405259:	41 54                	push   %r12
  40525b:	49 89 fe             	mov    %rdi,%r14
  40525e:	55                   	push   %rbp
  40525f:	53                   	push   %rbx
  405260:	49 89 f4             	mov    %rsi,%r12
  405263:	bf 30 00 00 00       	mov    $0x30,%edi
  405268:	48 83 ec 28          	sub    $0x28,%rsp
  40526c:	8b 46 08             	mov    0x8(%rsi),%eax
  40526f:	89 4c 24 0c          	mov    %ecx,0xc(%rsp)
  405273:	99                   	cltd   
  405274:	41 f7 ff             	idiv   %r15d
  405277:	89 44 24 10          	mov    %eax,0x10(%rsp)
  40527b:	8b 46 0c             	mov    0xc(%rsi),%eax
  40527e:	99                   	cltd   
  40527f:	f7 f9                	idiv   %ecx
  405281:	89 44 24 1c          	mov    %eax,0x1c(%rsp)
  405285:	e8 76 be ff ff       	callq  401100 <_Znwm@plt>
  40528a:	41 8b 54 24 08       	mov    0x8(%r12),%edx
  40528f:	48 89 c3             	mov    %rax,%rbx
  405292:	41 8b 44 24 0c       	mov    0xc(%r12),%eax
  405297:	48 c7 03 c0 69 40 00 	movq   $0x4069c0,(%rbx)
  40529e:	c7 43 10 00 00 00 00 	movl   $0x0,0x10(%rbx)
  4052a5:	89 d5                	mov    %edx,%ebp
  4052a7:	89 43 0c             	mov    %eax,0xc(%rbx)
  4052aa:	89 53 08             	mov    %edx,0x8(%rbx)
  4052ad:	0f af e8             	imul   %eax,%ebp
  4052b0:	48 b8 ff ff ff ff ff 	movabs $0xfffffffffffffff,%rax
  4052b7:	ff ff 0f 
  4052ba:	89 6b 14             	mov    %ebp,0x14(%rbx)
  4052bd:	48 63 ed             	movslq %ebp,%rbp
  4052c0:	48 39 c5             	cmp    %rax,%rbp
  4052c3:	0f 87 d2 01 00 00    	ja     40549b <_Z7to_bcscRK6Matrixii+0x24b>
  4052c9:	48 8d 3c ed 00 00 00 	lea    0x0(,%rbp,8),%rdi
  4052d0:	00 
  4052d1:	e8 7a bd ff ff       	callq  401050 <_Znam@plt>
  4052d6:	48 c1 e5 02          	shl    $0x2,%rbp
  4052da:	48 89 43 18          	mov    %rax,0x18(%rbx)
  4052de:	48 89 ef             	mov    %rbp,%rdi
  4052e1:	e8 6a bd ff ff       	callq  401050 <_Znam@plt>
  4052e6:	48 89 43 20          	mov    %rax,0x20(%rbx)
  4052ea:	48 89 ef             	mov    %rbp,%rdi
  4052ed:	e8 5e bd ff ff       	callq  401050 <_Znam@plt>
  4052f2:	8b 4c 24 1c          	mov    0x1c(%rsp),%ecx
  4052f6:	48 89 43 28          	mov    %rax,0x28(%rbx)
  4052fa:	49 89 1e             	mov    %rbx,(%r14)
  4052fd:	85 c9                	test   %ecx,%ecx
  4052ff:	0f 8e 77 01 00 00    	jle    40547c <_Z7to_bcscRK6Matrixii+0x22c>
  405305:	8b 44 24 0c          	mov    0xc(%rsp),%eax
  405309:	c7 44 24 18 00 00 00 	movl   $0x0,0x18(%rsp)
  405310:	00 
  405311:	89 04 24             	mov    %eax,(%rsp)
  405314:	8b 54 24 10          	mov    0x10(%rsp),%edx
  405318:	85 d2                	test   %edx,%edx
  40531a:	0f 8e 42 01 00 00    	jle    405462 <_Z7to_bcscRK6Matrixii+0x212>
  405320:	8b 04 24             	mov    (%rsp),%eax
  405323:	2b 44 24 0c          	sub    0xc(%rsp),%eax
  405327:	45 89 fd             	mov    %r15d,%r13d
  40532a:	c7 44 24 08 00 00 00 	movl   $0x0,0x8(%rsp)
  405331:	00 
  405332:	89 44 24 14          	mov    %eax,0x14(%rsp)
  405336:	66 2e 0f 1f 84 00 00 	nopw   %cs:0x0(%rax,%rax,1)
  40533d:	00 00 00 
  405340:	8b 44 24 0c          	mov    0xc(%rsp),%eax
  405344:	85 c0                	test   %eax,%eax
  405346:	0f 8e 00 01 00 00    	jle    40544c <_Z7to_bcscRK6Matrixii+0x1fc>
  40534c:	44 89 e8             	mov    %r13d,%eax
  40534f:	8b 6c 24 14          	mov    0x14(%rsp),%ebp
  405353:	44 29 f8             	sub    %r15d,%eax
  405356:	89 44 24 04          	mov    %eax,0x4(%rsp)
  40535a:	66 0f 1f 44 00 00    	nopw   0x0(%rax,%rax,1)
  405360:	45 85 ff             	test   %r15d,%r15d
  405363:	0f 8e d7 00 00 00    	jle    405440 <_Z7to_bcscRK6Matrixii+0x1f0>
  405369:	8b 5c 24 04          	mov    0x4(%rsp),%ebx
  40536d:	eb 0d                	jmp    40537c <_Z7to_bcscRK6Matrixii+0x12c>
  40536f:	90                   	nop
  405370:	83 c3 01             	add    $0x1,%ebx
  405373:	44 39 eb             	cmp    %r13d,%ebx
  405376:	0f 84 c4 00 00 00    	je     405440 <_Z7to_bcscRK6Matrixii+0x1f0>
  40537c:	49 8b 04 24          	mov    (%r12),%rax
  405380:	89 ea                	mov    %ebp,%edx
  405382:	89 de                	mov    %ebx,%esi
  405384:	4c 89 e7             	mov    %r12,%rdi
  405387:	ff 10                	callq  *(%rax)
  405389:	c5 f9 28 c8          	vmovapd %xmm0,%xmm1
  40538d:	c5 f1 54 0d 5b 16 00 	vandpd 0x165b(%rip),%xmm1,%xmm1        # 4069f0 <_ZTV11DenseMatrix+0x20>
  405394:	00 
  405395:	c5 f9 2e 0d 63 16 00 	vucomisd 0x1663(%rip),%xmm1        # 406a00 <_ZTV11DenseMatrix+0x30>
  40539c:	00 
  40539d:	76 d1                	jbe    405370 <_Z7to_bcscRK6Matrixii+0x120>
  40539f:	49 8b 3e             	mov    (%r14),%rdi
  4053a2:	48 8b 07             	mov    (%rdi),%rax
  4053a5:	48 8b 40 08          	mov    0x8(%rax),%rax
  4053a9:	48 3d 50 66 40 00    	cmp    $0x406650,%rax
  4053af:	0f 85 db 00 00 00    	jne    405490 <_Z7to_bcscRK6Matrixii+0x240>
  4053b5:	48 63 77 10          	movslq 0x10(%rdi),%rsi
  4053b9:	48 8b 57 20          	mov    0x20(%rdi),%rdx
  4053bd:	85 f6                	test   %esi,%esi
  4053bf:	7e 58                	jle    405419 <_Z7to_bcscRK6Matrixii+0x1c9>
  4053c1:	8d 46 ff             	lea    -0x1(%rsi),%eax
  4053c4:	45 31 c9             	xor    %r9d,%r9d
  4053c7:	48 8d 0c 85 04 00 00 	lea    0x4(,%rax,4),%rcx
  4053ce:	00 
  4053cf:	31 c0                	xor    %eax,%eax
  4053d1:	eb 0e                	jmp    4053e1 <_Z7to_bcscRK6Matrixii+0x191>
  4053d3:	0f 1f 44 00 00       	nopl   0x0(%rax,%rax,1)
  4053d8:	48 83 c0 04          	add    $0x4,%rax
  4053dc:	48 39 c1             	cmp    %rax,%rcx
  4053df:	74 2f                	je     405410 <_Z7to_bcscRK6Matrixii+0x1c0>
  4053e1:	3b 1c 02             	cmp    (%rdx,%rax,1),%ebx
  4053e4:	75 f2                	jne    4053d8 <_Z7to_bcscRK6Matrixii+0x188>
  4053e6:	4c 8b 47 28          	mov    0x28(%rdi),%r8
  4053ea:	41 3b 2c 00          	cmp    (%r8,%rax,1),%ebp
  4053ee:	75 e8                	jne    4053d8 <_Z7to_bcscRK6Matrixii+0x188>
  4053f0:	4c 8b 47 18          	mov    0x18(%rdi),%r8
  4053f4:	41 b9 01 00 00 00    	mov    $0x1,%r9d
  4053fa:	c4 c1 7b 11 04 40    	vmovsd %xmm0,(%r8,%rax,2)
  405400:	48 83 c0 04          	add    $0x4,%rax
  405404:	48 39 c1             	cmp    %rax,%rcx
  405407:	75 d8                	jne    4053e1 <_Z7to_bcscRK6Matrixii+0x191>
  405409:	0f 1f 80 00 00 00 00 	nopl   0x0(%rax)
  405410:	45 84 c9             	test   %r9b,%r9b
  405413:	0f 85 57 ff ff ff    	jne    405370 <_Z7to_bcscRK6Matrixii+0x120>
  405419:	48 8b 47 18          	mov    0x18(%rdi),%rax
  40541d:	c5 fb 11 04 f0       	vmovsd %xmm0,(%rax,%rsi,8)
  405422:	89 1c b2             	mov    %ebx,(%rdx,%rsi,4)
  405425:	48 63 57 10          	movslq 0x10(%rdi),%rdx
  405429:	48 8b 47 28          	mov    0x28(%rdi),%rax
  40542d:	83 c3 01             	add    $0x1,%ebx
  405430:	89 2c 90             	mov    %ebp,(%rax,%rdx,4)
  405433:	83 47 10 01          	addl   $0x1,0x10(%rdi)
  405437:	44 39 eb             	cmp    %r13d,%ebx
  40543a:	0f 85 3c ff ff ff    	jne    40537c <_Z7to_bcscRK6Matrixii+0x12c>
  405440:	83 c5 01             	add    $0x1,%ebp
  405443:	3b 2c 24             	cmp    (%rsp),%ebp
  405446:	0f 85 14 ff ff ff    	jne    405360 <_Z7to_bcscRK6Matrixii+0x110>
  40544c:	83 44 24 08 01       	addl   $0x1,0x8(%rsp)
  405451:	45 01 fd             	add    %r15d,%r13d
  405454:	8b 44 24 08          	mov    0x8(%rsp),%eax
  405458:	39 44 24 10          	cmp    %eax,0x10(%rsp)
  40545c:	0f 85 de fe ff ff    	jne    405340 <_Z7to_bcscRK6Matrixii+0xf0>
  405462:	83 44 24 18 01       	addl   $0x1,0x18(%rsp)
  405467:	8b 74 24 0c          	mov    0xc(%rsp),%esi
  40546b:	8b 44 24 18          	mov    0x18(%rsp),%eax
  40546f:	01 34 24             	add    %esi,(%rsp)
  405472:	39 44 24 1c          	cmp    %eax,0x1c(%rsp)
  405476:	0f 85 98 fe ff ff    	jne    405314 <_Z7to_bcscRK6Matrixii+0xc4>
  40547c:	48 83 c4 28          	add    $0x28,%rsp
  405480:	4c 89 f0             	mov    %r14,%rax
  405483:	5b                   	pop    %rbx
  405484:	5d                   	pop    %rbp
  405485:	41 5c                	pop    %r12
  405487:	41 5d                	pop    %r13
  405489:	41 5e                	pop    %r14
  40548b:	41 5f                	pop    %r15
  40548d:	c3                   	retq   
  40548e:	66 90                	xchg   %ax,%ax
  405490:	89 ea                	mov    %ebp,%edx
  405492:	89 de                	mov    %ebx,%esi
  405494:	ff d0                	callq  *%rax
  405496:	e9 d5 fe ff ff       	jmpq   405370 <_Z7to_bcscRK6Matrixii+0x120>
  40549b:	e8 e0 bc ff ff       	callq  401180 <__cxa_throw_bad_array_new_length@plt>
  4054a0:	48 89 c3             	mov    %rax,%rbx
  4054a3:	4c 89 f7             	mov    %r14,%rdi
  4054a6:	e8 b5 12 00 00       	callq  406760 <_ZNSt10unique_ptrI12SparseMatrixSt14default_deleteIS0_EED1Ev>
  4054ab:	48 89 df             	mov    %rbx,%rdi
  4054ae:	e8 4d bd ff ff       	callq  401200 <_Unwind_Resume@plt>
  4054b3:	48 89 c5             	mov    %rax,%rbp
  4054b6:	48 89 df             	mov    %rbx,%rdi
  4054b9:	e8 22 bc ff ff       	callq  4010e0 <_ZdlPv@plt>
  4054be:	48 89 ef             	mov    %rbp,%rdi
  4054c1:	e8 3a bd ff ff       	callq  401200 <_Unwind_Resume@plt>
  4054c6:	66 2e 0f 1f 84 00 00 	nopw   %cs:0x0(%rax,%rax,1)
  4054cd:	00 00 00 

00000000004054d0 <_Z7to_bcscRK6Matrixii.constprop.6>:
  4054d0:	41 57                	push   %r15
  4054d2:	41 56                	push   %r14
  4054d4:	49 89 fe             	mov    %rdi,%r14
  4054d7:	41 55                	push   %r13
  4054d9:	41 54                	push   %r12
  4054db:	bf 30 00 00 00       	mov    $0x30,%edi
  4054e0:	55                   	push   %rbp
  4054e1:	53                   	push   %rbx
  4054e2:	48 89 f5             	mov    %rsi,%rbp
  4054e5:	48 83 ec 28          	sub    $0x28,%rsp
  4054e9:	8b 56 08             	mov    0x8(%rsi),%edx
  4054ec:	8d 42 0f             	lea    0xf(%rdx),%eax
  4054ef:	85 d2                	test   %edx,%edx
  4054f1:	0f 49 c2             	cmovns %edx,%eax
  4054f4:	c1 f8 04             	sar    $0x4,%eax
  4054f7:	89 44 24 18          	mov    %eax,0x18(%rsp)
  4054fb:	8b 46 0c             	mov    0xc(%rsi),%eax
  4054fe:	44 8d 68 0f          	lea    0xf(%rax),%r13d
  405502:	85 c0                	test   %eax,%eax
  405504:	44 0f 49 e8          	cmovns %eax,%r13d
  405508:	e8 f3 bb ff ff       	callq  401100 <_Znwm@plt>
  40550d:	8b 55 08             	mov    0x8(%rbp),%edx
  405510:	48 89 c3             	mov    %rax,%rbx
  405513:	8b 45 0c             	mov    0xc(%rbp),%eax
  405516:	41 c1 fd 04          	sar    $0x4,%r13d
  40551a:	48 c7 03 c0 69 40 00 	movq   $0x4069c0,(%rbx)
  405521:	c7 43 10 00 00 00 00 	movl   $0x0,0x10(%rbx)
  405528:	41 89 d4             	mov    %edx,%r12d
  40552b:	89 43 0c             	mov    %eax,0xc(%rbx)
  40552e:	89 53 08             	mov    %edx,0x8(%rbx)
  405531:	44 0f af e0          	imul   %eax,%r12d
  405535:	48 b8 ff ff ff ff ff 	movabs $0xfffffffffffffff,%rax
  40553c:	ff ff 0f 
  40553f:	44 89 63 14          	mov    %r12d,0x14(%rbx)
  405543:	4d 63 e4             	movslq %r12d,%r12
  405546:	49 39 c4             	cmp    %rax,%r12
  405549:	0f 87 29 02 00 00    	ja     405778 <_Z7to_bcscRK6Matrixii.constprop.6+0x2a8>
  40554f:	4a 8d 3c e5 00 00 00 	lea    0x0(,%r12,8),%rdi
  405556:	00 
  405557:	e8 f4 ba ff ff       	callq  401050 <_Znam@plt>
  40555c:	49 c1 e4 02          	shl    $0x2,%r12
  405560:	48 89 43 18          	mov    %rax,0x18(%rbx)
  405564:	4c 89 e7             	mov    %r12,%rdi
  405567:	e8 e4 ba ff ff       	callq  401050 <_Znam@plt>
  40556c:	48 89 43 20          	mov    %rax,0x20(%rbx)
  405570:	4c 89 e7             	mov    %r12,%rdi
  405573:	e8 d8 ba ff ff       	callq  401050 <_Znam@plt>
  405578:	45 85 ed             	test   %r13d,%r13d
  40557b:	48 89 43 28          	mov    %rax,0x28(%rbx)
  40557f:	49 89 1e             	mov    %rbx,(%r14)
  405582:	0f 8e 82 01 00 00    	jle    40570a <_Z7to_bcscRK6Matrixii.constprop.6+0x23a>
  405588:	8b 44 24 18          	mov    0x18(%rsp),%eax
  40558c:	41 83 c5 01          	add    $0x1,%r13d
  405590:	c7 44 24 10 00 00 00 	movl   $0x0,0x10(%rsp)
  405597:	00 
  405598:	41 c1 e5 04          	shl    $0x4,%r13d
  40559c:	c7 44 24 0c 10 00 00 	movl   $0x10,0xc(%rsp)
  4055a3:	00 
  4055a4:	44 89 6c 24 1c       	mov    %r13d,0x1c(%rsp)
  4055a9:	83 c0 01             	add    $0x1,%eax
  4055ac:	c1 e0 04             	shl    $0x4,%eax
  4055af:	89 44 24 14          	mov    %eax,0x14(%rsp)
  4055b3:	8b 44 24 18          	mov    0x18(%rsp),%eax
  4055b7:	85 c0                	test   %eax,%eax
  4055b9:	0f 8e 33 01 00 00    	jle    4056f2 <_Z7to_bcscRK6Matrixii.constprop.6+0x222>
  4055bf:	45 31 ff             	xor    %r15d,%r15d
  4055c2:	41 bd 10 00 00 00    	mov    $0x10,%r13d
  4055c8:	0f 1f 84 00 00 00 00 	nopl   0x0(%rax,%rax,1)
  4055cf:	00 
  4055d0:	44 8b 64 24 10       	mov    0x10(%rsp),%r12d
  4055d5:	0f 1f 00             	nopl   (%rax)
  4055d8:	44 89 fb             	mov    %r15d,%ebx
  4055db:	eb 0f                	jmp    4055ec <_Z7to_bcscRK6Matrixii.constprop.6+0x11c>
  4055dd:	0f 1f 00             	nopl   (%rax)
  4055e0:	83 c3 01             	add    $0x1,%ebx
  4055e3:	44 39 eb             	cmp    %r13d,%ebx
  4055e6:	0f 84 e4 00 00 00    	je     4056d0 <_Z7to_bcscRK6Matrixii.constprop.6+0x200>
  4055ec:	3b 5d 08             	cmp    0x8(%rbp),%ebx
  4055ef:	0f 8d 37 01 00 00    	jge    40572c <_Z7to_bcscRK6Matrixii.constprop.6+0x25c>
  4055f5:	44 3b 65 0c          	cmp    0xc(%rbp),%r12d
  4055f9:	0f 8d 2d 01 00 00    	jge    40572c <_Z7to_bcscRK6Matrixii.constprop.6+0x25c>
  4055ff:	8b 45 10             	mov    0x10(%rbp),%eax
  405602:	48 8b 55 18          	mov    0x18(%rbp),%rdx
  405606:	41 0f af c4          	imul   %r12d,%eax
  40560a:	01 d8                	add    %ebx,%eax
  40560c:	48 98                	cltq   
  40560e:	c5 fb 10 04 c2       	vmovsd (%rdx,%rax,8),%xmm0
  405613:	c5 f9 28 c8          	vmovapd %xmm0,%xmm1
  405617:	c5 f1 54 0d d1 13 00 	vandpd 0x13d1(%rip),%xmm1,%xmm1        # 4069f0 <_ZTV11DenseMatrix+0x20>
  40561e:	00 
  40561f:	c5 f9 2e 0d d9 13 00 	vucomisd 0x13d9(%rip),%xmm1        # 406a00 <_ZTV11DenseMatrix+0x30>
  405626:	00 
  405627:	76 b7                	jbe    4055e0 <_Z7to_bcscRK6Matrixii.constprop.6+0x110>
  405629:	49 8b 3e             	mov    (%r14),%rdi
  40562c:	48 8b 07             	mov    (%rdi),%rax
  40562f:	48 8b 40 08          	mov    0x8(%rax),%rax
  405633:	48 3d 50 66 40 00    	cmp    $0x406650,%rax
  405639:	0f 85 e1 00 00 00    	jne    405720 <_Z7to_bcscRK6Matrixii.constprop.6+0x250>
  40563f:	48 63 77 10          	movslq 0x10(%rdi),%rsi
  405643:	48 8b 57 20          	mov    0x20(%rdi),%rdx
  405647:	85 f6                	test   %esi,%esi
  405649:	7e 56                	jle    4056a1 <_Z7to_bcscRK6Matrixii.constprop.6+0x1d1>
  40564b:	8d 46 ff             	lea    -0x1(%rsi),%eax
  40564e:	45 31 c9             	xor    %r9d,%r9d
  405651:	48 8d 0c 85 04 00 00 	lea    0x4(,%rax,4),%rcx
  405658:	00 
  405659:	31 c0                	xor    %eax,%eax
  40565b:	eb 0c                	jmp    405669 <_Z7to_bcscRK6Matrixii.constprop.6+0x199>
  40565d:	0f 1f 00             	nopl   (%rax)
  405660:	48 83 c0 04          	add    $0x4,%rax
  405664:	48 39 c1             	cmp    %rax,%rcx
  405667:	74 2f                	je     405698 <_Z7to_bcscRK6Matrixii.constprop.6+0x1c8>
  405669:	3b 1c 02             	cmp    (%rdx,%rax,1),%ebx
  40566c:	75 f2                	jne    405660 <_Z7to_bcscRK6Matrixii.constprop.6+0x190>
  40566e:	4c 8b 47 28          	mov    0x28(%rdi),%r8
  405672:	45 3b 24 00          	cmp    (%r8,%rax,1),%r12d
  405676:	75 e8                	jne    405660 <_Z7to_bcscRK6Matrixii.constprop.6+0x190>
  405678:	4c 8b 47 18          	mov    0x18(%rdi),%r8
  40567c:	41 b9 01 00 00 00    	mov    $0x1,%r9d
  405682:	c4 c1 7b 11 04 40    	vmovsd %xmm0,(%r8,%rax,2)
  405688:	48 83 c0 04          	add    $0x4,%rax
  40568c:	48 39 c1             	cmp    %rax,%rcx
  40568f:	75 d8                	jne    405669 <_Z7to_bcscRK6Matrixii.constprop.6+0x199>
  405691:	0f 1f 80 00 00 00 00 	nopl   0x0(%rax)
  405698:	45 84 c9             	test   %r9b,%r9b
  40569b:	0f 85 3f ff ff ff    	jne    4055e0 <_Z7to_bcscRK6Matrixii.constprop.6+0x110>
  4056a1:	48 8b 47 18          	mov    0x18(%rdi),%rax
  4056a5:	c5 fb 11 04 f0       	vmovsd %xmm0,(%rax,%rsi,8)
  4056aa:	89 1c b2             	mov    %ebx,(%rdx,%rsi,4)
  4056ad:	48 63 57 10          	movslq 0x10(%rdi),%rdx
  4056b1:	48 8b 47 28          	mov    0x28(%rdi),%rax
  4056b5:	83 c3 01             	add    $0x1,%ebx
  4056b8:	44 89 24 90          	mov    %r12d,(%rax,%rdx,4)
  4056bc:	83 47 10 01          	addl   $0x1,0x10(%rdi)
  4056c0:	44 39 eb             	cmp    %r13d,%ebx
  4056c3:	0f 85 23 ff ff ff    	jne    4055ec <_Z7to_bcscRK6Matrixii.constprop.6+0x11c>
  4056c9:	0f 1f 80 00 00 00 00 	nopl   0x0(%rax)
  4056d0:	41 83 c4 01          	add    $0x1,%r12d
  4056d4:	44 3b 64 24 0c       	cmp    0xc(%rsp),%r12d
  4056d9:	0f 85 f9 fe ff ff    	jne    4055d8 <_Z7to_bcscRK6Matrixii.constprop.6+0x108>
  4056df:	41 83 c5 10          	add    $0x10,%r13d
  4056e3:	41 83 c7 10          	add    $0x10,%r15d
  4056e7:	44 39 6c 24 14       	cmp    %r13d,0x14(%rsp)
  4056ec:	0f 85 de fe ff ff    	jne    4055d0 <_Z7to_bcscRK6Matrixii.constprop.6+0x100>
  4056f2:	83 44 24 0c 10       	addl   $0x10,0xc(%rsp)
  4056f7:	83 44 24 10 10       	addl   $0x10,0x10(%rsp)
  4056fc:	8b 44 24 0c          	mov    0xc(%rsp),%eax
  405700:	39 44 24 1c          	cmp    %eax,0x1c(%rsp)
  405704:	0f 85 a9 fe ff ff    	jne    4055b3 <_Z7to_bcscRK6Matrixii.constprop.6+0xe3>
  40570a:	48 83 c4 28          	add    $0x28,%rsp
  40570e:	4c 89 f0             	mov    %r14,%rax
  405711:	5b                   	pop    %rbx
  405712:	5d                   	pop    %rbp
  405713:	41 5c                	pop    %r12
  405715:	41 5d                	pop    %r13
  405717:	41 5e                	pop    %r14
  405719:	41 5f                	pop    %r15
  40571b:	c3                   	retq   
  40571c:	0f 1f 40 00          	nopl   0x0(%rax)
  405720:	44 89 e2             	mov    %r12d,%edx
  405723:	89 de                	mov    %ebx,%esi
  405725:	ff d0                	callq  *%rax
  405727:	e9 b4 fe ff ff       	jmpq   4055e0 <_Z7to_bcscRK6Matrixii.constprop.6+0x110>
  40572c:	bf 10 00 00 00       	mov    $0x10,%edi
  405731:	e8 4a b9 ff ff       	callq  401080 <__cxa_allocate_exception@plt>
  405736:	be 34 68 40 00       	mov    $0x406834,%esi
  40573b:	48 89 c7             	mov    %rax,%rdi
  40573e:	48 89 c5             	mov    %rax,%rbp
  405741:	e8 da ba ff ff       	callq  401220 <_ZNSt16invalid_argumentC1EPKc@plt>
  405746:	ba d0 11 40 00       	mov    $0x4011d0,%edx
  40574b:	be 08 83 60 00       	mov    $0x608308,%esi
  405750:	48 89 ef             	mov    %rbp,%rdi
  405753:	e8 88 ba ff ff       	callq  4011e0 <__cxa_throw@plt>
  405758:	48 89 c3             	mov    %rax,%rbx
  40575b:	4c 89 f7             	mov    %r14,%rdi
  40575e:	e8 fd 0f 00 00       	callq  406760 <_ZNSt10unique_ptrI12SparseMatrixSt14default_deleteIS0_EED1Ev>
  405763:	48 89 df             	mov    %rbx,%rdi
  405766:	e8 95 ba ff ff       	callq  401200 <_Unwind_Resume@plt>
  40576b:	48 89 ef             	mov    %rbp,%rdi
  40576e:	48 89 c3             	mov    %rax,%rbx
  405771:	e8 4a b9 ff ff       	callq  4010c0 <__cxa_free_exception@plt>
  405776:	eb e3                	jmp    40575b <_Z7to_bcscRK6Matrixii.constprop.6+0x28b>
  405778:	e8 03 ba ff ff       	callq  401180 <__cxa_throw_bad_array_new_length@plt>
  40577d:	48 89 c5             	mov    %rax,%rbp
  405780:	48 89 df             	mov    %rbx,%rdi
  405783:	e8 58 b9 ff ff       	callq  4010e0 <_ZdlPv@plt>
  405788:	48 89 ef             	mov    %rbp,%rdi
  40578b:	e8 70 ba ff ff       	callq  401200 <_Unwind_Resume@plt>

0000000000405790 <_Z31test_jump_penalty_2_20_unrolledv>:
  405790:	41 56                	push   %r14
  405792:	41 55                	push   %r13
  405794:	48 b8 20 00 00 00 30 	movabs $0x3000000020,%rax
  40579b:	00 00 00 
  40579e:	41 54                	push   %r12
  4057a0:	55                   	push   %rbp
  4057a1:	ba 00 30 00 00       	mov    $0x3000,%edx
  4057a6:	53                   	push   %rbx
  4057a7:	be 40 00 00 00       	mov    $0x40,%esi
  4057ac:	48 81 ec d0 04 00 00 	sub    $0x4d0,%rsp
  4057b3:	48 8d 7c 24 78       	lea    0x78(%rsp),%rdi
  4057b8:	48 c7 44 24 60 e0 69 	movq   $0x4069e0,0x60(%rsp)
  4057bf:	40 00 
  4057c1:	48 89 44 24 68       	mov    %rax,0x68(%rsp)
  4057c6:	c7 44 24 70 20 00 00 	movl   $0x20,0x70(%rsp)
  4057cd:	00 
  4057ce:	e8 bd b8 ff ff       	callq  401090 <posix_memalign@plt>
  4057d3:	8b 5c 24 6c          	mov    0x6c(%rsp),%ebx
  4057d7:	85 db                	test   %ebx,%ebx
  4057d9:	0f 8e a4 00 00 00    	jle    405883 <_Z31test_jump_penalty_2_20_unrolledv+0xf3>
  4057df:	44 8b 64 24 68       	mov    0x68(%rsp),%r12d
  4057e4:	48 8b 4c 24 78       	mov    0x78(%rsp),%rcx
  4057e9:	48 63 44 24 70       	movslq 0x70(%rsp),%rax
  4057ee:	45 85 e4             	test   %r12d,%r12d
  4057f1:	7e 37                	jle    40582a <_Z31test_jump_penalty_2_20_unrolledv+0x9a>
  4057f3:	4c 8d 2c c5 00 00 00 	lea    0x0(,%rax,8),%r13
  4057fa:	00 
  4057fb:	41 8d 44 24 ff       	lea    -0x1(%r12),%eax
  405800:	31 ed                	xor    %ebp,%ebp
  405802:	4c 8d 34 c5 08 00 00 	lea    0x8(,%rax,8),%r14
  405809:	00 
  40580a:	66 0f 1f 44 00 00    	nopw   0x0(%rax,%rax,1)
  405810:	31 f6                	xor    %esi,%esi
  405812:	48 89 cf             	mov    %rcx,%rdi
  405815:	4c 89 f2             	mov    %r14,%rdx
  405818:	e8 83 b8 ff ff       	callq  4010a0 <memset@plt>
  40581d:	83 c5 01             	add    $0x1,%ebp
  405820:	48 89 c1             	mov    %rax,%rcx
  405823:	4c 01 e9             	add    %r13,%rcx
  405826:	39 dd                	cmp    %ebx,%ebp
  405828:	75 e6                	jne    405810 <_Z31test_jump_penalty_2_20_unrolledv+0x80>
  40582a:	31 ed                	xor    %ebp,%ebp
  40582c:	0f 1f 40 00          	nopl   0x0(%rax)
  405830:	45 85 e4             	test   %r12d,%r12d
  405833:	7e 47                	jle    40587c <_Z31test_jump_penalty_2_20_unrolledv+0xec>
  405835:	31 db                	xor    %ebx,%ebx
  405837:	66 0f 1f 84 00 00 00 	nopw   0x0(%rax,%rax,1)
  40583e:	00 00 
  405840:	e8 2b b8 ff ff       	callq  401070 <rand@plt>
  405845:	c5 f9 57 c0          	vxorpd %xmm0,%xmm0,%xmm0
  405849:	8b 54 24 70          	mov    0x70(%rsp),%edx
  40584d:	44 8b 64 24 68       	mov    0x68(%rsp),%r12d
  405852:	c5 fb 2a c0          	vcvtsi2sd %eax,%xmm0,%xmm0
  405856:	c5 fb 5e 05 b2 11 00 	vdivsd 0x11b2(%rip),%xmm0,%xmm0        # 406a10 <_ZTV11DenseMatrix+0x40>
  40585d:	00 
  40585e:	48 8b 44 24 78       	mov    0x78(%rsp),%rax
  405863:	0f af d5             	imul   %ebp,%edx
  405866:	01 da                	add    %ebx,%edx
  405868:	83 c3 01             	add    $0x1,%ebx
  40586b:	48 63 d2             	movslq %edx,%rdx
  40586e:	41 39 dc             	cmp    %ebx,%r12d
  405871:	c5 fb 11 04 d0       	vmovsd %xmm0,(%rax,%rdx,8)
  405876:	7f c8                	jg     405840 <_Z31test_jump_penalty_2_20_unrolledv+0xb0>
  405878:	8b 5c 24 6c          	mov    0x6c(%rsp),%ebx
  40587c:	83 c5 01             	add    $0x1,%ebp
  40587f:	39 dd                	cmp    %ebx,%ebp
  405881:	7c ad                	jl     405830 <_Z31test_jump_penalty_2_20_unrolledv+0xa0>
  405883:	be 9a 68 40 00       	mov    $0x40689a,%esi
  405888:	bf 08 69 40 00       	mov    $0x406908,%edi
  40588d:	48 c7 84 24 80 00 00 	movq   $0x4069e0,0x80(%rsp)
  405894:	00 e0 69 40 00 
  405899:	e8 92 b8 ff ff       	callq  401130 <fopen@plt>
  40589e:	48 8d bc 24 e0 00 00 	lea    0xe0(%rsp),%rdi
  4058a5:	00 
  4058a6:	48 89 c2             	mov    %rax,%rdx
  4058a9:	be e8 03 00 00       	mov    $0x3e8,%esi
  4058ae:	48 89 c5             	mov    %rax,%rbp
  4058b1:	e8 ea b8 ff ff       	callq  4011a0 <fgets@plt>
  4058b6:	48 8d bc 24 e0 00 00 	lea    0xe0(%rsp),%rdi
  4058bd:	00 
  4058be:	48 89 ea             	mov    %rbp,%rdx
  4058c1:	be e8 03 00 00       	mov    $0x3e8,%esi
  4058c6:	e8 d5 b8 ff ff       	callq  4011a0 <fgets@plt>
  4058cb:	48 8d 84 24 80 00 00 	lea    0x80(%rsp),%rax
  4058d2:	00 
  4058d3:	48 8d 8c 24 8c 00 00 	lea    0x8c(%rsp),%rcx
  4058da:	00 
  4058db:	4c 8d 44 24 0c       	lea    0xc(%rsp),%r8
  4058e0:	be 9c 68 40 00       	mov    $0x40689c,%esi
  4058e5:	48 89 ef             	mov    %rbp,%rdi
  4058e8:	48 8d 50 08          	lea    0x8(%rax),%rdx
  4058ec:	31 c0                	xor    %eax,%eax
  4058ee:	e8 3d b9 ff ff       	callq  401230 <fscanf@plt>
  4058f3:	8b 84 24 88 00 00 00 	mov    0x88(%rsp),%eax
  4058fa:	48 8d bc 24 98 00 00 	lea    0x98(%rsp),%rdi
  405901:	00 
  405902:	be 40 00 00 00       	mov    $0x40,%esi
  405907:	89 84 24 90 00 00 00 	mov    %eax,0x90(%rsp)
  40590e:	0f af 84 24 8c 00 00 	imul   0x8c(%rsp),%eax
  405915:	00 
  405916:	48 63 d0             	movslq %eax,%rdx
  405919:	48 c1 e2 03          	shl    $0x3,%rdx
  40591d:	e8 6e b7 ff ff       	callq  401090 <posix_memalign@plt>
  405922:	44 8b ac 24 8c 00 00 	mov    0x8c(%rsp),%r13d
  405929:	00 
  40592a:	45 85 ed             	test   %r13d,%r13d
  40592d:	7e 4c                	jle    40597b <_Z31test_jump_penalty_2_20_unrolledv+0x1eb>
  40592f:	8b 94 24 88 00 00 00 	mov    0x88(%rsp),%edx
  405936:	48 8b 8c 24 98 00 00 	mov    0x98(%rsp),%rcx
  40593d:	00 
  40593e:	48 63 84 24 90 00 00 	movslq 0x90(%rsp),%rax
  405945:	00 
  405946:	85 d2                	test   %edx,%edx
  405948:	7e 31                	jle    40597b <_Z31test_jump_penalty_2_20_unrolledv+0x1eb>
  40594a:	4c 8d 24 c5 00 00 00 	lea    0x0(,%rax,8),%r12
  405951:	00 
  405952:	8d 42 ff             	lea    -0x1(%rdx),%eax
  405955:	31 db                	xor    %ebx,%ebx
  405957:	4c 8d 34 c5 08 00 00 	lea    0x8(,%rax,8),%r14
  40595e:	00 
  40595f:	90                   	nop
  405960:	31 f6                	xor    %esi,%esi
  405962:	48 89 cf             	mov    %rcx,%rdi
  405965:	4c 89 f2             	mov    %r14,%rdx
  405968:	e8 33 b7 ff ff       	callq  4010a0 <memset@plt>
  40596d:	83 c3 01             	add    $0x1,%ebx
  405970:	48 89 c1             	mov    %rax,%rcx
  405973:	4c 01 e1             	add    %r12,%rcx
  405976:	44 39 eb             	cmp    %r13d,%ebx
  405979:	75 e5                	jne    405960 <_Z31test_jump_penalty_2_20_unrolledv+0x1d0>
  40597b:	8b 44 24 0c          	mov    0xc(%rsp),%eax
  40597f:	85 c0                	test   %eax,%eax
  405981:	7e 58                	jle    4059db <_Z31test_jump_penalty_2_20_unrolledv+0x24b>
  405983:	31 db                	xor    %ebx,%ebx
  405985:	0f 1f 00             	nopl   (%rax)
  405988:	4c 8d 44 24 20       	lea    0x20(%rsp),%r8
  40598d:	48 8d 4c 24 14       	lea    0x14(%rsp),%rcx
  405992:	48 8d 54 24 10       	lea    0x10(%rsp),%rdx
  405997:	be a6 68 40 00       	mov    $0x4068a6,%esi
  40599c:	48 89 ef             	mov    %rbp,%rdi
  40599f:	31 c0                	xor    %eax,%eax
  4059a1:	e8 8a b8 ff ff       	callq  401230 <fscanf@plt>
  4059a6:	8b 44 24 14          	mov    0x14(%rsp),%eax
  4059aa:	8b 54 24 10          	mov    0x10(%rsp),%edx
  4059ae:	83 c3 01             	add    $0x1,%ebx
  4059b1:	c5 fb 10 44 24 20    	vmovsd 0x20(%rsp),%xmm0
  4059b7:	83 e8 01             	sub    $0x1,%eax
  4059ba:	0f af 84 24 90 00 00 	imul   0x90(%rsp),%eax
  4059c1:	00 
  4059c2:	39 5c 24 0c          	cmp    %ebx,0xc(%rsp)
  4059c6:	8d 44 10 ff          	lea    -0x1(%rax,%rdx,1),%eax
  4059ca:	48 8b 94 24 98 00 00 	mov    0x98(%rsp),%rdx
  4059d1:	00 
  4059d2:	48 98                	cltq   
  4059d4:	c5 fb 11 04 c2       	vmovsd %xmm0,(%rdx,%rax,8)
  4059d9:	7f ad                	jg     405988 <_Z31test_jump_penalty_2_20_unrolledv+0x1f8>
  4059db:	48 89 ef             	mov    %rbp,%rdi
  4059de:	e8 0d b7 ff ff       	callq  4010f0 <fclose@plt>
  4059e3:	48 8d b4 24 80 00 00 	lea    0x80(%rsp),%rsi
  4059ea:	00 
  4059eb:	48 8d 7c 24 18       	lea    0x18(%rsp),%rdi
  4059f0:	e8 db fa ff ff       	callq  4054d0 <_Z7to_bcscRK6Matrixii.constprop.6>
  4059f5:	48 8d bc 24 b8 00 00 	lea    0xb8(%rsp),%rdi
  4059fc:	00 
  4059fd:	48 b8 20 00 00 00 20 	movabs $0x2000000020,%rax
  405a04:	00 00 00 
  405a07:	ba 00 20 00 00       	mov    $0x2000,%edx
  405a0c:	be 40 00 00 00       	mov    $0x40,%esi
  405a11:	48 c7 84 24 a0 00 00 	movq   $0x4069e0,0xa0(%rsp)
  405a18:	00 e0 69 40 00 
  405a1d:	48 89 84 24 a8 00 00 	mov    %rax,0xa8(%rsp)
  405a24:	00 
  405a25:	c7 84 24 b0 00 00 00 	movl   $0x20,0xb0(%rsp)
  405a2c:	20 00 00 00 
  405a30:	e8 5b b6 ff ff       	callq  401090 <posix_memalign@plt>
  405a35:	44 8b ac 24 ac 00 00 	mov    0xac(%rsp),%r13d
  405a3c:	00 
  405a3d:	45 85 ed             	test   %r13d,%r13d
  405a40:	7e 51                	jle    405a93 <_Z31test_jump_penalty_2_20_unrolledv+0x303>
  405a42:	8b 94 24 a8 00 00 00 	mov    0xa8(%rsp),%edx
  405a49:	48 8b 8c 24 b8 00 00 	mov    0xb8(%rsp),%rcx
  405a50:	00 
  405a51:	48 63 84 24 b0 00 00 	movslq 0xb0(%rsp),%rax
  405a58:	00 
  405a59:	85 d2                	test   %edx,%edx
  405a5b:	7e 36                	jle    405a93 <_Z31test_jump_penalty_2_20_unrolledv+0x303>
  405a5d:	48 8d 2c c5 00 00 00 	lea    0x0(,%rax,8),%rbp
  405a64:	00 
  405a65:	8d 42 ff             	lea    -0x1(%rdx),%eax
  405a68:	31 db                	xor    %ebx,%ebx
  405a6a:	4c 8d 24 c5 08 00 00 	lea    0x8(,%rax,8),%r12
  405a71:	00 
  405a72:	66 0f 1f 44 00 00    	nopw   0x0(%rax,%rax,1)
  405a78:	31 f6                	xor    %esi,%esi
  405a7a:	48 89 cf             	mov    %rcx,%rdi
  405a7d:	4c 89 e2             	mov    %r12,%rdx
  405a80:	e8 1b b6 ff ff       	callq  4010a0 <memset@plt>
  405a85:	83 c3 01             	add    $0x1,%ebx
  405a88:	48 89 c1             	mov    %rax,%rcx
  405a8b:	48 01 e9             	add    %rbp,%rcx
  405a8e:	41 39 dd             	cmp    %ebx,%r13d
  405a91:	75 e5                	jne    405a78 <_Z31test_jump_penalty_2_20_unrolledv+0x2e8>
  405a93:	48 8d bc 24 d8 00 00 	lea    0xd8(%rsp),%rdi
  405a9a:	00 
  405a9b:	48 b8 20 00 00 00 20 	movabs $0x2000000020,%rax
  405aa2:	00 00 00 
  405aa5:	ba 00 20 00 00       	mov    $0x2000,%edx
  405aaa:	be 40 00 00 00       	mov    $0x40,%esi
  405aaf:	48 c7 84 24 c0 00 00 	movq   $0x4069e0,0xc0(%rsp)
  405ab6:	00 e0 69 40 00 
  405abb:	48 89 84 24 c8 00 00 	mov    %rax,0xc8(%rsp)
  405ac2:	00 
  405ac3:	c7 84 24 d0 00 00 00 	movl   $0x20,0xd0(%rsp)
  405aca:	20 00 00 00 
  405ace:	e8 bd b5 ff ff       	callq  401090 <posix_memalign@plt>
  405ad3:	44 8b a4 24 cc 00 00 	mov    0xcc(%rsp),%r12d
  405ada:	00 
  405adb:	45 85 e4             	test   %r12d,%r12d
  405ade:	7e 4b                	jle    405b2b <_Z31test_jump_penalty_2_20_unrolledv+0x39b>
  405ae0:	8b 94 24 c8 00 00 00 	mov    0xc8(%rsp),%edx
  405ae7:	48 8b 8c 24 d8 00 00 	mov    0xd8(%rsp),%rcx
  405aee:	00 
  405aef:	48 63 84 24 d0 00 00 	movslq 0xd0(%rsp),%rax
  405af6:	00 
  405af7:	85 d2                	test   %edx,%edx
  405af9:	7e 30                	jle    405b2b <_Z31test_jump_penalty_2_20_unrolledv+0x39b>
  405afb:	48 8d 2c c5 00 00 00 	lea    0x0(,%rax,8),%rbp
  405b02:	00 
  405b03:	8d 42 ff             	lea    -0x1(%rdx),%eax
  405b06:	31 db                	xor    %ebx,%ebx
  405b08:	4c 8d 2c c5 08 00 00 	lea    0x8(,%rax,8),%r13
  405b0f:	00 
  405b10:	31 f6                	xor    %esi,%esi
  405b12:	48 89 cf             	mov    %rcx,%rdi
  405b15:	4c 89 ea             	mov    %r13,%rdx
  405b18:	e8 83 b5 ff ff       	callq  4010a0 <memset@plt>
  405b1d:	83 c3 01             	add    $0x1,%ebx
  405b20:	48 89 c1             	mov    %rax,%rcx
  405b23:	48 01 e9             	add    %rbp,%rcx
  405b26:	44 39 e3             	cmp    %r12d,%ebx
  405b29:	75 e5                	jne    405b10 <_Z31test_jump_penalty_2_20_unrolledv+0x380>
  405b2b:	48 8d 94 24 a0 00 00 	lea    0xa0(%rsp),%rdx
  405b32:	00 
  405b33:	48 8d b4 24 80 00 00 	lea    0x80(%rsp),%rsi
  405b3a:	00 
  405b3b:	48 8d 7c 24 60       	lea    0x60(%rsp),%rdi
  405b40:	e8 4b b8 ff ff       	callq  401390 <_Z4gemmRK6MatrixS1_RS_.constprop.7>
  405b45:	48 8b 44 24 18       	mov    0x18(%rsp),%rax
  405b4a:	48 8b 7c 24 78       	mov    0x78(%rsp),%rdi
  405b4f:	48 8b 94 24 d8 00 00 	mov    0xd8(%rsp),%rdx
  405b56:	00 
  405b57:	48 8b 70 18          	mov    0x18(%rax),%rsi
  405b5b:	e8 d0 e3 ff ff       	callq  403f30 <_Z26jump_penalty_2_20_unrolledPKdS0_Pd>
  405b60:	48 8d b4 24 c0 00 00 	lea    0xc0(%rsp),%rsi
  405b67:	00 
  405b68:	48 8d bc 24 a0 00 00 	lea    0xa0(%rsp),%rdi
  405b6f:	00 
  405b70:	e8 3b bb ff ff       	callq  4016b0 <_Z13assert_equalsRK6MatrixS1_.constprop.8>
  405b75:	48 8d 74 24 40       	lea    0x40(%rsp),%rsi
  405b7a:	bf 01 00 00 00       	mov    $0x1,%edi
  405b7f:	e8 ec b5 ff ff       	callq  401170 <clock_gettime@plt>
  405b84:	48 8b 44 24 18       	mov    0x18(%rsp),%rax
  405b89:	4c 8b 84 24 d8 00 00 	mov    0xd8(%rsp),%r8
  405b90:	00 
  405b91:	48 8b 4c 24 78       	mov    0x78(%rsp),%rcx
  405b96:	48 8b 70 18          	mov    0x18(%rax),%rsi
  405b9a:	b8 b8 0b 00 00       	mov    $0xbb8,%eax
  405b9f:	90                   	nop
  405ba0:	48 89 4c 24 28       	mov    %rcx,0x28(%rsp)
  405ba5:	48 89 74 24 30       	mov    %rsi,0x30(%rsp)
  405baa:	4c 89 44 24 38       	mov    %r8,0x38(%rsp)
  405baf:	48 8b 7c 24 28       	mov    0x28(%rsp),%rdi
  405bb4:	48 8b 74 24 30       	mov    0x30(%rsp),%rsi
  405bb9:	48 8b 54 24 38       	mov    0x38(%rsp),%rdx
  405bbe:	49 c7 c4 00 00 00 00 	mov    $0x0,%r12

0000000000405bc5 <LOOP_TOP_0_3489>:
  405bc5:	62 e1 fd 48 28 02    	vmovapd (%rdx),%zmm16
  405bcb:	62 e1 fd 48 28 4a 04 	vmovapd 0x100(%rdx),%zmm17
  405bd2:	62 e1 fd 48 28 52 08 	vmovapd 0x200(%rdx),%zmm18
  405bd9:	62 e1 fd 48 28 5a 0c 	vmovapd 0x300(%rdx),%zmm19
  405be0:	62 e1 fd 48 28 62 10 	vmovapd 0x400(%rdx),%zmm20
  405be7:	62 e1 fd 48 28 6a 14 	vmovapd 0x500(%rdx),%zmm21
  405bee:	62 e1 fd 48 28 72 18 	vmovapd 0x600(%rdx),%zmm22
  405bf5:	62 e1 fd 48 28 7a 1c 	vmovapd 0x700(%rdx),%zmm23
  405bfc:	62 61 fd 48 28 42 20 	vmovapd 0x800(%rdx),%zmm24
  405c03:	62 61 fd 48 28 4a 24 	vmovapd 0x900(%rdx),%zmm25
  405c0a:	62 61 fd 48 28 52 28 	vmovapd 0xa00(%rdx),%zmm26
  405c11:	62 61 fd 48 28 5a 2c 	vmovapd 0xb00(%rdx),%zmm27
  405c18:	62 61 fd 48 28 62 30 	vmovapd 0xc00(%rdx),%zmm28
  405c1f:	62 61 fd 48 28 6a 34 	vmovapd 0xd00(%rdx),%zmm29
  405c26:	62 61 fd 48 28 72 38 	vmovapd 0xe00(%rdx),%zmm30
  405c2d:	62 61 fd 48 28 7a 3c 	vmovapd 0xf00(%rdx),%zmm31
  405c34:	62 f1 fd 48 28 8f 00 	vmovapd 0x2100(%rdi),%zmm1
  405c3b:	21 00 00 
  405c3e:	62 f1 fd 48 28 97 00 	vmovapd 0x2200(%rdi),%zmm2
  405c45:	22 00 00 
  405c48:	62 f1 fd 48 28 af 00 	vmovapd 0x2500(%rdi),%zmm5
  405c4f:	25 00 00 
  405c52:	62 71 fd 48 28 9f 00 	vmovapd 0x2b00(%rdi),%zmm11
  405c59:	2b 00 00 
  405c5c:	62 71 fd 48 28 a7 00 	vmovapd 0x2c00(%rdi),%zmm12
  405c63:	2c 00 00 
  405c66:	62 71 fd 48 28 af 00 	vmovapd 0x2d00(%rdi),%zmm13
  405c6d:	2d 00 00 
  405c70:	62 71 fd 48 28 b7 00 	vmovapd 0x2e00(%rdi),%zmm14
  405c77:	2e 00 00 
  405c7a:	62 e2 f5 58 b8 6e 03 	vfmadd231pd 0x18(%rsi){1to8},%zmm1,%zmm21
  405c81:	62 e2 f5 58 b8 7e 05 	vfmadd231pd 0x28(%rsi){1to8},%zmm1,%zmm23
  405c88:	62 62 f5 58 b8 66 07 	vfmadd231pd 0x38(%rsi){1to8},%zmm1,%zmm28
  405c8f:	62 62 ed 58 b8 76 08 	vfmadd231pd 0x40(%rsi){1to8},%zmm2,%zmm30
  405c96:	62 62 d5 58 b8 7e 09 	vfmadd231pd 0x48(%rsi){1to8},%zmm5,%zmm31
  405c9d:	62 e2 a5 58 b8 06    	vfmadd231pd (%rsi){1to8},%zmm11,%zmm16
  405ca3:	62 e2 9d 58 b8 4e 01 	vfmadd231pd 0x8(%rsi){1to8},%zmm12,%zmm17
  405caa:	62 e2 95 58 b8 6e 04 	vfmadd231pd 0x20(%rsi){1to8},%zmm13,%zmm21
  405cb1:	62 62 95 58 b8 4e 06 	vfmadd231pd 0x30(%rsi){1to8},%zmm13,%zmm25
  405cb8:	62 e2 8d 58 b8 5e 02 	vfmadd231pd 0x10(%rsi){1to8},%zmm14,%zmm19
  405cbf:	62 e1 fd 48 29 02    	vmovapd %zmm16,(%rdx)
  405cc5:	62 e1 fd 48 29 4a 04 	vmovapd %zmm17,0x100(%rdx)
  405ccc:	62 e1 fd 48 29 52 08 	vmovapd %zmm18,0x200(%rdx)
  405cd3:	62 e1 fd 48 29 5a 0c 	vmovapd %zmm19,0x300(%rdx)
  405cda:	62 e1 fd 48 29 62 10 	vmovapd %zmm20,0x400(%rdx)
  405ce1:	62 e1 fd 48 29 6a 14 	vmovapd %zmm21,0x500(%rdx)
  405ce8:	62 e1 fd 48 29 72 18 	vmovapd %zmm22,0x600(%rdx)
  405cef:	62 e1 fd 48 29 7a 1c 	vmovapd %zmm23,0x700(%rdx)
  405cf6:	62 61 fd 48 29 42 20 	vmovapd %zmm24,0x800(%rdx)
  405cfd:	62 61 fd 48 29 4a 24 	vmovapd %zmm25,0x900(%rdx)
  405d04:	62 61 fd 48 29 52 28 	vmovapd %zmm26,0xa00(%rdx)
  405d0b:	62 61 fd 48 29 5a 2c 	vmovapd %zmm27,0xb00(%rdx)
  405d12:	62 61 fd 48 29 62 30 	vmovapd %zmm28,0xc00(%rdx)
  405d19:	62 61 fd 48 29 6a 34 	vmovapd %zmm29,0xd00(%rdx)
  405d20:	62 61 fd 48 29 72 38 	vmovapd %zmm30,0xe00(%rdx)
  405d27:	62 61 fd 48 29 7a 3c 	vmovapd %zmm31,0xf00(%rdx)
  405d2e:	48 81 c2 00 10 00 00 	add    $0x1000,%rdx
  405d35:	62 e1 fd 48 28 02    	vmovapd (%rdx),%zmm16
  405d3b:	62 e1 fd 48 28 4a 04 	vmovapd 0x100(%rdx),%zmm17
  405d42:	62 e1 fd 48 28 52 08 	vmovapd 0x200(%rdx),%zmm18
  405d49:	62 e1 fd 48 28 5a 0c 	vmovapd 0x300(%rdx),%zmm19
  405d50:	62 e1 fd 48 28 62 10 	vmovapd 0x400(%rdx),%zmm20
  405d57:	62 e1 fd 48 28 6a 14 	vmovapd 0x500(%rdx),%zmm21
  405d5e:	62 e1 fd 48 28 72 18 	vmovapd 0x600(%rdx),%zmm22
  405d65:	62 e1 fd 48 28 7a 1c 	vmovapd 0x700(%rdx),%zmm23
  405d6c:	62 61 fd 48 28 42 20 	vmovapd 0x800(%rdx),%zmm24
  405d73:	62 61 fd 48 28 4a 24 	vmovapd 0x900(%rdx),%zmm25
  405d7a:	62 61 fd 48 28 52 28 	vmovapd 0xa00(%rdx),%zmm26
  405d81:	62 61 fd 48 28 5a 2c 	vmovapd 0xb00(%rdx),%zmm27
  405d88:	62 61 fd 48 28 62 30 	vmovapd 0xc00(%rdx),%zmm28
  405d8f:	62 61 fd 48 28 6a 34 	vmovapd 0xd00(%rdx),%zmm29
  405d96:	62 61 fd 48 28 72 38 	vmovapd 0xe00(%rdx),%zmm30
  405d9d:	62 61 fd 48 28 7a 3c 	vmovapd 0xf00(%rdx),%zmm31
  405da4:	62 f1 fd 48 28 4f 04 	vmovapd 0x100(%rdi),%zmm1
  405dab:	62 f1 fd 48 28 67 10 	vmovapd 0x400(%rdi),%zmm4
  405db2:	62 71 fd 48 28 47 20 	vmovapd 0x800(%rdi),%zmm8
  405db9:	62 71 fd 48 28 4f 24 	vmovapd 0x900(%rdi),%zmm9
  405dc0:	62 71 fd 48 28 67 30 	vmovapd 0xc00(%rdi),%zmm12
  405dc7:	62 71 fd 48 28 6f 34 	vmovapd 0xd00(%rdi),%zmm13
  405dce:	62 e2 f5 58 b8 46 0a 	vfmadd231pd 0x50(%rsi){1to8},%zmm1,%zmm16
  405dd5:	62 62 f5 58 b8 7e 12 	vfmadd231pd 0x90(%rsi){1to8},%zmm1,%zmm31
  405ddc:	62 e2 dd 58 b8 56 0b 	vfmadd231pd 0x58(%rsi){1to8},%zmm4,%zmm18
  405de3:	62 e2 dd 58 b8 66 0e 	vfmadd231pd 0x70(%rsi){1to8},%zmm4,%zmm20
  405dea:	62 e2 bd 58 b8 56 0c 	vfmadd231pd 0x60(%rsi){1to8},%zmm8,%zmm18
  405df1:	62 e2 b5 58 b8 56 0d 	vfmadd231pd 0x68(%rsi){1to8},%zmm9,%zmm18
  405df8:	62 e2 9d 58 b8 6e 0f 	vfmadd231pd 0x78(%rsi){1to8},%zmm12,%zmm21
  405dff:	62 62 9d 58 b8 4e 10 	vfmadd231pd 0x80(%rsi){1to8},%zmm12,%zmm25
  405e06:	62 62 9d 58 b8 7e 13 	vfmadd231pd 0x98(%rsi){1to8},%zmm12,%zmm31
  405e0d:	62 62 95 58 b8 56 11 	vfmadd231pd 0x88(%rsi){1to8},%zmm13,%zmm26
  405e14:	62 e1 fd 48 29 02    	vmovapd %zmm16,(%rdx)
  405e1a:	62 e1 fd 48 29 4a 04 	vmovapd %zmm17,0x100(%rdx)
  405e21:	62 e1 fd 48 29 52 08 	vmovapd %zmm18,0x200(%rdx)
  405e28:	62 e1 fd 48 29 5a 0c 	vmovapd %zmm19,0x300(%rdx)
  405e2f:	62 e1 fd 48 29 62 10 	vmovapd %zmm20,0x400(%rdx)
  405e36:	62 e1 fd 48 29 6a 14 	vmovapd %zmm21,0x500(%rdx)
  405e3d:	62 e1 fd 48 29 72 18 	vmovapd %zmm22,0x600(%rdx)
  405e44:	62 e1 fd 48 29 7a 1c 	vmovapd %zmm23,0x700(%rdx)
  405e4b:	62 61 fd 48 29 42 20 	vmovapd %zmm24,0x800(%rdx)
  405e52:	62 61 fd 48 29 4a 24 	vmovapd %zmm25,0x900(%rdx)
  405e59:	62 61 fd 48 29 52 28 	vmovapd %zmm26,0xa00(%rdx)
  405e60:	62 61 fd 48 29 5a 2c 	vmovapd %zmm27,0xb00(%rdx)
  405e67:	62 61 fd 48 29 62 30 	vmovapd %zmm28,0xc00(%rdx)
  405e6e:	62 61 fd 48 29 6a 34 	vmovapd %zmm29,0xd00(%rdx)
  405e75:	62 61 fd 48 29 72 38 	vmovapd %zmm30,0xe00(%rdx)
