
build/exp5:     file format elf64-x86-64


Disassembly of section .init:

0000000000401418 <_init>:
  401418:	48 83 ec 08          	sub    $0x8,%rsp
  40141c:	48 8b 05 d5 fb 20 00 	mov    0x20fbd5(%rip),%rax        # 610ff8 <_DYNAMIC+0x238>
  401423:	48 85 c0             	test   %rax,%rax
  401426:	74 05                	je     40142d <_init+0x15>
  401428:	e8 e3 02 00 00       	callq  401710 <_ZNSt8ios_base4InitD1Ev@plt+0x10>
  40142d:	48 83 c4 08          	add    $0x8,%rsp
  401431:	c3                   	retq   

Disassembly of section .plt:

0000000000401440 <__printf_chk@plt-0x10>:
  401440:	ff 35 c2 fb 20 00    	pushq  0x20fbc2(%rip)        # 611008 <_GLOBAL_OFFSET_TABLE_+0x8>
  401446:	ff 25 c4 fb 20 00    	jmpq   *0x20fbc4(%rip)        # 611010 <_GLOBAL_OFFSET_TABLE_+0x10>
  40144c:	0f 1f 40 00          	nopl   0x0(%rax)

0000000000401450 <__printf_chk@plt>:
  401450:	ff 25 c2 fb 20 00    	jmpq   *0x20fbc2(%rip)        # 611018 <_GLOBAL_OFFSET_TABLE_+0x18>
  401456:	68 00 00 00 00       	pushq  $0x0
  40145b:	e9 e0 ff ff ff       	jmpq   401440 <_init+0x28>

0000000000401460 <_Znam@plt>:
  401460:	ff 25 ba fb 20 00    	jmpq   *0x20fbba(%rip)        # 611020 <_GLOBAL_OFFSET_TABLE_+0x20>
  401466:	68 01 00 00 00       	pushq  $0x1
  40146b:	e9 d0 ff ff ff       	jmpq   401440 <_init+0x28>

0000000000401470 <rand@plt>:
  401470:	ff 25 b2 fb 20 00    	jmpq   *0x20fbb2(%rip)        # 611028 <_GLOBAL_OFFSET_TABLE_+0x28>
  401476:	68 02 00 00 00       	pushq  $0x2
  40147b:	e9 c0 ff ff ff       	jmpq   401440 <_init+0x28>

0000000000401480 <_ZNSolsEPFRSt8ios_baseS0_E@plt>:
  401480:	ff 25 aa fb 20 00    	jmpq   *0x20fbaa(%rip)        # 611030 <_GLOBAL_OFFSET_TABLE_+0x30>
  401486:	68 03 00 00 00       	pushq  $0x3
  40148b:	e9 b0 ff ff ff       	jmpq   401440 <_init+0x28>

0000000000401490 <strchr@plt>:
  401490:	ff 25 a2 fb 20 00    	jmpq   *0x20fba2(%rip)        # 611038 <_GLOBAL_OFFSET_TABLE_+0x38>
  401496:	68 04 00 00 00       	pushq  $0x4
  40149b:	e9 a0 ff ff ff       	jmpq   401440 <_init+0x28>

00000000004014a0 <strlen@plt>:
  4014a0:	ff 25 9a fb 20 00    	jmpq   *0x20fb9a(%rip)        # 611040 <_GLOBAL_OFFSET_TABLE_+0x40>
  4014a6:	68 05 00 00 00       	pushq  $0x5
  4014ab:	e9 90 ff ff ff       	jmpq   401440 <_init+0x28>

00000000004014b0 <__strncat_chk@plt>:
  4014b0:	ff 25 92 fb 20 00    	jmpq   *0x20fb92(%rip)        # 611048 <_GLOBAL_OFFSET_TABLE_+0x48>
  4014b6:	68 06 00 00 00       	pushq  $0x6
  4014bb:	e9 80 ff ff ff       	jmpq   401440 <_init+0x28>

00000000004014c0 <_ZSt4endlIcSt11char_traitsIcEERSt13basic_ostreamIT_T0_ES6_@plt>:
  4014c0:	ff 25 8a fb 20 00    	jmpq   *0x20fb8a(%rip)        # 611050 <_GLOBAL_OFFSET_TABLE_+0x50>
  4014c6:	68 07 00 00 00       	pushq  $0x7
  4014cb:	e9 70 ff ff ff       	jmpq   401440 <_init+0x28>

00000000004014d0 <__cxa_allocate_exception@plt>:
  4014d0:	ff 25 82 fb 20 00    	jmpq   *0x20fb82(%rip)        # 611058 <_GLOBAL_OFFSET_TABLE_+0x58>
  4014d6:	68 08 00 00 00       	pushq  $0x8
  4014db:	e9 60 ff ff ff       	jmpq   401440 <_init+0x28>

00000000004014e0 <posix_memalign@plt>:
  4014e0:	ff 25 7a fb 20 00    	jmpq   *0x20fb7a(%rip)        # 611060 <_GLOBAL_OFFSET_TABLE_+0x60>
  4014e6:	68 09 00 00 00       	pushq  $0x9
  4014eb:	e9 50 ff ff ff       	jmpq   401440 <_init+0x28>

00000000004014f0 <catopen@plt>:
  4014f0:	ff 25 72 fb 20 00    	jmpq   *0x20fb72(%rip)        # 611068 <_GLOBAL_OFFSET_TABLE_+0x68>
  4014f6:	68 0a 00 00 00       	pushq  $0xa
  4014fb:	e9 40 ff ff ff       	jmpq   401440 <_init+0x28>

0000000000401500 <strncpy@plt>:
  401500:	ff 25 6a fb 20 00    	jmpq   *0x20fb6a(%rip)        # 611070 <_GLOBAL_OFFSET_TABLE_+0x70>
  401506:	68 0b 00 00 00       	pushq  $0xb
  40150b:	e9 30 ff ff ff       	jmpq   401440 <_init+0x28>

0000000000401510 <__cxa_atexit@plt>:
  401510:	ff 25 62 fb 20 00    	jmpq   *0x20fb62(%rip)        # 611078 <_GLOBAL_OFFSET_TABLE_+0x78>
  401516:	68 0c 00 00 00       	pushq  $0xc
  40151b:	e9 20 ff ff ff       	jmpq   401440 <_init+0x28>

0000000000401520 <_ZdlPv@plt>:
  401520:	ff 25 5a fb 20 00    	jmpq   *0x20fb5a(%rip)        # 611080 <_GLOBAL_OFFSET_TABLE_+0x80>
  401526:	68 0d 00 00 00       	pushq  $0xd
  40152b:	e9 10 ff ff ff       	jmpq   401440 <_init+0x28>

0000000000401530 <_ZStlsISt11char_traitsIcEERSt13basic_ostreamIcT_ES5_PKc@plt>:
  401530:	ff 25 52 fb 20 00    	jmpq   *0x20fb52(%rip)        # 611088 <_GLOBAL_OFFSET_TABLE_+0x88>
  401536:	68 0e 00 00 00       	pushq  $0xe
  40153b:	e9 00 ff ff ff       	jmpq   401440 <_init+0x28>

0000000000401540 <fclose@plt>:
  401540:	ff 25 4a fb 20 00    	jmpq   *0x20fb4a(%rip)        # 611090 <_GLOBAL_OFFSET_TABLE_+0x90>
  401546:	68 0f 00 00 00       	pushq  $0xf
  40154b:	e9 f0 fe ff ff       	jmpq   401440 <_init+0x28>

0000000000401550 <_Znwm@plt>:
  401550:	ff 25 42 fb 20 00    	jmpq   *0x20fb42(%rip)        # 611098 <_GLOBAL_OFFSET_TABLE_+0x98>
  401556:	68 10 00 00 00       	pushq  $0x10
  40155b:	e9 e0 fe ff ff       	jmpq   401440 <_init+0x28>

0000000000401560 <_ZNSolsEPFRSoS_E@plt>:
  401560:	ff 25 3a fb 20 00    	jmpq   *0x20fb3a(%rip)        # 6110a0 <_GLOBAL_OFFSET_TABLE_+0xa0>
  401566:	68 11 00 00 00       	pushq  $0x11
  40156b:	e9 d0 fe ff ff       	jmpq   401440 <_init+0x28>

0000000000401570 <catgets@plt>:
  401570:	ff 25 32 fb 20 00    	jmpq   *0x20fb32(%rip)        # 6110a8 <_GLOBAL_OFFSET_TABLE_+0xa8>
  401576:	68 12 00 00 00       	pushq  $0x12
  40157b:	e9 c0 fe ff ff       	jmpq   401440 <_init+0x28>

0000000000401580 <__stack_chk_fail@plt>:
  401580:	ff 25 2a fb 20 00    	jmpq   *0x20fb2a(%rip)        # 6110b0 <_GLOBAL_OFFSET_TABLE_+0xb0>
  401586:	68 13 00 00 00       	pushq  $0x13
  40158b:	e9 b0 fe ff ff       	jmpq   401440 <_init+0x28>

0000000000401590 <_ZStlsIcSt11char_traitsIcEERSt13basic_ostreamIT_T0_ES6_St5_Setw@plt>:
  401590:	ff 25 22 fb 20 00    	jmpq   *0x20fb22(%rip)        # 6110b8 <_GLOBAL_OFFSET_TABLE_+0xb8>
  401596:	68 14 00 00 00       	pushq  $0x14
  40159b:	e9 a0 fe ff ff       	jmpq   401440 <_init+0x28>

00000000004015a0 <fopen@plt>:
  4015a0:	ff 25 1a fb 20 00    	jmpq   *0x20fb1a(%rip)        # 6110c0 <_GLOBAL_OFFSET_TABLE_+0xc0>
  4015a6:	68 15 00 00 00       	pushq  $0x15
  4015ab:	e9 90 fe ff ff       	jmpq   401440 <_init+0x28>

00000000004015b0 <free@plt>:
  4015b0:	ff 25 12 fb 20 00    	jmpq   *0x20fb12(%rip)        # 6110c8 <_GLOBAL_OFFSET_TABLE_+0xc8>
  4015b6:	68 16 00 00 00       	pushq  $0x16
  4015bb:	e9 80 fe ff ff       	jmpq   401440 <_init+0x28>

00000000004015c0 <exit@plt>:
  4015c0:	ff 25 0a fb 20 00    	jmpq   *0x20fb0a(%rip)        # 6110d0 <_GLOBAL_OFFSET_TABLE_+0xd0>
  4015c6:	68 17 00 00 00       	pushq  $0x17
  4015cb:	e9 70 fe ff ff       	jmpq   401440 <_init+0x28>

00000000004015d0 <getenv@plt>:
  4015d0:	ff 25 02 fb 20 00    	jmpq   *0x20fb02(%rip)        # 6110d8 <_GLOBAL_OFFSET_TABLE_+0xd8>
  4015d6:	68 18 00 00 00       	pushq  $0x18
  4015db:	e9 60 fe ff ff       	jmpq   401440 <_init+0x28>

00000000004015e0 <_ZdaPv@plt>:
  4015e0:	ff 25 fa fa 20 00    	jmpq   *0x20fafa(%rip)        # 6110e0 <_GLOBAL_OFFSET_TABLE_+0xe0>
  4015e6:	68 19 00 00 00       	pushq  $0x19
  4015eb:	e9 50 fe ff ff       	jmpq   401440 <_init+0x28>

00000000004015f0 <clock_gettime@plt>:
  4015f0:	ff 25 f2 fa 20 00    	jmpq   *0x20faf2(%rip)        # 6110e8 <_GLOBAL_OFFSET_TABLE_+0xe8>
  4015f6:	68 1a 00 00 00       	pushq  $0x1a
  4015fb:	e9 40 fe ff ff       	jmpq   401440 <_init+0x28>

0000000000401600 <__vsprintf_chk@plt>:
  401600:	ff 25 ea fa 20 00    	jmpq   *0x20faea(%rip)        # 6110f0 <_GLOBAL_OFFSET_TABLE_+0xf0>
  401606:	68 1b 00 00 00       	pushq  $0x1b
  40160b:	e9 30 fe ff ff       	jmpq   401440 <_init+0x28>

0000000000401610 <__cxa_throw_bad_array_new_length@plt>:
  401610:	ff 25 e2 fa 20 00    	jmpq   *0x20fae2(%rip)        # 6110f8 <_GLOBAL_OFFSET_TABLE_+0xf8>
  401616:	68 1c 00 00 00       	pushq  $0x1c
  40161b:	e9 20 fe ff ff       	jmpq   401440 <_init+0x28>

0000000000401620 <setenv@plt>:
  401620:	ff 25 da fa 20 00    	jmpq   *0x20fada(%rip)        # 611100 <_GLOBAL_OFFSET_TABLE_+0x100>
  401626:	68 1d 00 00 00       	pushq  $0x1d
  40162b:	e9 10 fe ff ff       	jmpq   401440 <_init+0x28>

0000000000401630 <_ZNSt8ios_base4InitC1Ev@plt>:
  401630:	ff 25 d2 fa 20 00    	jmpq   *0x20fad2(%rip)        # 611108 <_GLOBAL_OFFSET_TABLE_+0x108>
  401636:	68 1e 00 00 00       	pushq  $0x1e
  40163b:	e9 00 fe ff ff       	jmpq   401440 <_init+0x28>

0000000000401640 <fgets@plt>:
  401640:	ff 25 ca fa 20 00    	jmpq   *0x20faca(%rip)        # 611110 <_GLOBAL_OFFSET_TABLE_+0x110>
  401646:	68 1f 00 00 00       	pushq  $0x1f
  40164b:	e9 f0 fd ff ff       	jmpq   401440 <_init+0x28>

0000000000401650 <_ZStlsIcSt11char_traitsIcEERSt13basic_ostreamIT_T0_ES6_St13_Setprecision@plt>:
  401650:	ff 25 c2 fa 20 00    	jmpq   *0x20fac2(%rip)        # 611118 <_GLOBAL_OFFSET_TABLE_+0x118>
  401656:	68 20 00 00 00       	pushq  $0x20
  40165b:	e9 e0 fd ff ff       	jmpq   401440 <_init+0x28>

0000000000401660 <__fprintf_chk@plt>:
  401660:	ff 25 ba fa 20 00    	jmpq   *0x20faba(%rip)        # 611120 <_GLOBAL_OFFSET_TABLE_+0x120>
  401666:	68 21 00 00 00       	pushq  $0x21
  40166b:	e9 d0 fd ff ff       	jmpq   401440 <_init+0x28>

0000000000401670 <__gxx_personality_v0@plt>:
  401670:	ff 25 b2 fa 20 00    	jmpq   *0x20fab2(%rip)        # 611128 <_GLOBAL_OFFSET_TABLE_+0x128>
  401676:	68 22 00 00 00       	pushq  $0x22
  40167b:	e9 c0 fd ff ff       	jmpq   401440 <_init+0x28>

0000000000401680 <_ZNSt16invalid_argumentD1Ev@plt>:
  401680:	ff 25 aa fa 20 00    	jmpq   *0x20faaa(%rip)        # 611130 <_GLOBAL_OFFSET_TABLE_+0x130>
  401686:	68 23 00 00 00       	pushq  $0x23
  40168b:	e9 b0 fd ff ff       	jmpq   401440 <_init+0x28>

0000000000401690 <__cxa_throw@plt>:
  401690:	ff 25 a2 fa 20 00    	jmpq   *0x20faa2(%rip)        # 611138 <_GLOBAL_OFFSET_TABLE_+0x138>
  401696:	68 24 00 00 00       	pushq  $0x24
  40169b:	e9 a0 fd ff ff       	jmpq   401440 <_init+0x28>

00000000004016a0 <_ZNSolsEi@plt>:
  4016a0:	ff 25 9a fa 20 00    	jmpq   *0x20fa9a(%rip)        # 611140 <_GLOBAL_OFFSET_TABLE_+0x140>
  4016a6:	68 25 00 00 00       	pushq  $0x25
  4016ab:	e9 90 fd ff ff       	jmpq   401440 <_init+0x28>

00000000004016b0 <_Unwind_Resume@plt>:
  4016b0:	ff 25 92 fa 20 00    	jmpq   *0x20fa92(%rip)        # 611148 <_GLOBAL_OFFSET_TABLE_+0x148>
  4016b6:	68 26 00 00 00       	pushq  $0x26
  4016bb:	e9 80 fd ff ff       	jmpq   401440 <_init+0x28>

00000000004016c0 <__libc_start_main@plt>:
  4016c0:	ff 25 8a fa 20 00    	jmpq   *0x20fa8a(%rip)        # 611150 <_GLOBAL_OFFSET_TABLE_+0x150>
  4016c6:	68 27 00 00 00       	pushq  $0x27
  4016cb:	e9 70 fd ff ff       	jmpq   401440 <_init+0x28>

00000000004016d0 <_ZNSt16invalid_argumentC1EPKc@plt>:
  4016d0:	ff 25 82 fa 20 00    	jmpq   *0x20fa82(%rip)        # 611158 <_GLOBAL_OFFSET_TABLE_+0x158>
  4016d6:	68 28 00 00 00       	pushq  $0x28
  4016db:	e9 60 fd ff ff       	jmpq   401440 <_init+0x28>

00000000004016e0 <_ZNSolsEd@plt>:
  4016e0:	ff 25 7a fa 20 00    	jmpq   *0x20fa7a(%rip)        # 611160 <_GLOBAL_OFFSET_TABLE_+0x160>
  4016e6:	68 29 00 00 00       	pushq  $0x29
  4016eb:	e9 50 fd ff ff       	jmpq   401440 <_init+0x28>

00000000004016f0 <fscanf@plt>:
  4016f0:	ff 25 72 fa 20 00    	jmpq   *0x20fa72(%rip)        # 611168 <_GLOBAL_OFFSET_TABLE_+0x168>
  4016f6:	68 2a 00 00 00       	pushq  $0x2a
  4016fb:	e9 40 fd ff ff       	jmpq   401440 <_init+0x28>

0000000000401700 <_ZNSt8ios_base4InitD1Ev@plt>:
  401700:	ff 25 6a fa 20 00    	jmpq   *0x20fa6a(%rip)        # 611170 <_GLOBAL_OFFSET_TABLE_+0x170>
  401706:	68 2b 00 00 00       	pushq  $0x2b
  40170b:	e9 30 fd ff ff       	jmpq   401440 <_init+0x28>

Disassembly of section .plt.got:

0000000000401710 <.plt.got>:
  401710:	ff 25 e2 f8 20 00    	jmpq   *0x20f8e2(%rip)        # 610ff8 <_DYNAMIC+0x238>
  401716:	66 90                	xchg   %ax,%ax

Disassembly of section .text:

0000000000401740 <_start>:
  401740:	31 ed                	xor    %ebp,%ebp
  401742:	49 89 d1             	mov    %rdx,%r9
  401745:	5e                   	pop    %rsi
  401746:	48 89 e2             	mov    %rsp,%rdx
  401749:	48 83 e4 f0          	and    $0xfffffffffffffff0,%rsp
  40174d:	50                   	push   %rax
  40174e:	54                   	push   %rsp
  40174f:	49 c7 c0 10 e4 40 00 	mov    $0x40e410,%r8
  401756:	48 c7 c1 a0 e3 40 00 	mov    $0x40e3a0,%rcx
  40175d:	48 c7 c7 20 18 40 00 	mov    $0x401820,%rdi
  401764:	e8 57 ff ff ff       	callq  4016c0 <__libc_start_main@plt>
  401769:	f4                   	hlt    
  40176a:	66 0f 1f 44 00 00    	nopw   0x0(%rax,%rax,1)

0000000000401770 <deregister_tm_clones>:
  401770:	55                   	push   %rbp
  401771:	b8 80 1a 61 00       	mov    $0x611a80,%eax
  401776:	48 3d 80 1a 61 00    	cmp    $0x611a80,%rax
  40177c:	48 89 e5             	mov    %rsp,%rbp
  40177f:	74 17                	je     401798 <deregister_tm_clones+0x28>
  401781:	b8 00 00 00 00       	mov    $0x0,%eax
  401786:	48 85 c0             	test   %rax,%rax
  401789:	74 0d                	je     401798 <deregister_tm_clones+0x28>
  40178b:	5d                   	pop    %rbp
  40178c:	bf 80 1a 61 00       	mov    $0x611a80,%edi
  401791:	ff e0                	jmpq   *%rax
  401793:	0f 1f 44 00 00       	nopl   0x0(%rax,%rax,1)
  401798:	5d                   	pop    %rbp
  401799:	c3                   	retq   
  40179a:	66 0f 1f 44 00 00    	nopw   0x0(%rax,%rax,1)

00000000004017a0 <register_tm_clones>:
  4017a0:	be 80 1a 61 00       	mov    $0x611a80,%esi
  4017a5:	55                   	push   %rbp
  4017a6:	48 81 ee 80 1a 61 00 	sub    $0x611a80,%rsi
  4017ad:	48 89 e5             	mov    %rsp,%rbp
  4017b0:	48 c1 fe 03          	sar    $0x3,%rsi
  4017b4:	48 89 f0             	mov    %rsi,%rax
  4017b7:	48 c1 e8 3f          	shr    $0x3f,%rax
  4017bb:	48 01 c6             	add    %rax,%rsi
  4017be:	48 d1 fe             	sar    %rsi
  4017c1:	74 15                	je     4017d8 <register_tm_clones+0x38>
  4017c3:	b8 00 00 00 00       	mov    $0x0,%eax
  4017c8:	48 85 c0             	test   %rax,%rax
  4017cb:	74 0b                	je     4017d8 <register_tm_clones+0x38>
  4017cd:	5d                   	pop    %rbp
  4017ce:	bf 80 1a 61 00       	mov    $0x611a80,%edi
  4017d3:	ff e0                	jmpq   *%rax
  4017d5:	0f 1f 00             	nopl   (%rax)
  4017d8:	5d                   	pop    %rbp
  4017d9:	c3                   	retq   
  4017da:	66 0f 1f 44 00 00    	nopw   0x0(%rax,%rax,1)

00000000004017e0 <__do_global_dtors_aux>:
  4017e0:	80 3d c1 03 21 00 00 	cmpb   $0x0,0x2103c1(%rip)        # 611ba8 <completed.6965>
  4017e7:	75 17                	jne    401800 <__do_global_dtors_aux+0x20>
  4017e9:	55                   	push   %rbp
  4017ea:	48 89 e5             	mov    %rsp,%rbp
  4017ed:	e8 7e ff ff ff       	callq  401770 <deregister_tm_clones>
  4017f2:	c6 05 af 03 21 00 01 	movb   $0x1,0x2103af(%rip)        # 611ba8 <completed.6965>
  4017f9:	5d                   	pop    %rbp
  4017fa:	c3                   	retq   
  4017fb:	0f 1f 44 00 00       	nopl   0x0(%rax,%rax,1)
  401800:	f3 c3                	repz retq 
  401802:	0f 1f 40 00          	nopl   0x0(%rax)
  401806:	66 2e 0f 1f 84 00 00 	nopw   %cs:0x0(%rax,%rax,1)
  40180d:	00 00 00 

0000000000401810 <frame_dummy>:
  401810:	55                   	push   %rbp
  401811:	48 89 e5             	mov    %rsp,%rbp
  401814:	5d                   	pop    %rbp
  401815:	eb 89                	jmp    4017a0 <register_tm_clones>
  401817:	66 0f 1f 84 00 00 00 	nopw   0x0(%rax,%rax,1)
  40181e:	00 00 

0000000000401820 <main>:
  401820:	55                   	push   %rbp
  401821:	48 89 e5             	mov    %rsp,%rbp
  401824:	48 83 e4 80          	and    $0xffffffffffffff80,%rsp
  401828:	48 81 ec 00 0a 00 00 	sub    $0xa00,%rsp
  40182f:	48 89 9c 24 60 08 00 	mov    %rbx,0x860(%rsp)
  401836:	00 
  401837:	48 be fe 9f 9d 38 07 	movabs $0x7389d9ffe,%rsi
  40183e:	00 00 00 
  401841:	4c 89 bc 24 58 08 00 	mov    %r15,0x858(%rsp)
  401848:	00 
  401849:	bf 03 00 00 00       	mov    $0x3,%edi
  40184e:	4c 89 b4 24 50 08 00 	mov    %r14,0x850(%rsp)
  401855:	00 
  401856:	4c 89 ac 24 70 08 00 	mov    %r13,0x870(%rsp)
  40185d:	00 
  40185e:	4c 89 a4 24 68 08 00 	mov    %r12,0x868(%rsp)
  401865:	00 
  401866:	e8 65 97 00 00       	callq  40afd0 <__intel_new_feature_proc_init>
  40186b:	c5 f8 ae 1c 24       	vstmxcsr (%rsp)
  401870:	b8 20 00 00 00       	mov    $0x20,%eax
  401875:	48 c7 84 24 38 09 00 	movq   $0x611220,0x938(%rsp)
  40187c:	00 20 12 61 00 
  401881:	be 40 00 00 00       	mov    $0x40,%esi
  401886:	81 0c 24 40 80 00 00 	orl    $0x8040,(%rsp)
  40188d:	48 8d bc 24 50 09 00 	lea    0x950(%rsp),%rdi
  401894:	00 
  401895:	89 84 24 48 09 00 00 	mov    %eax,0x948(%rsp)
  40189c:	ba 00 30 00 00       	mov    $0x3000,%edx
  4018a1:	89 84 24 40 09 00 00 	mov    %eax,0x940(%rsp)
  4018a8:	c5 f8 ae 14 24       	vldmxcsr (%rsp)
  4018ad:	c7 84 24 44 09 00 00 	movl   $0x30,0x944(%rsp)
  4018b4:	30 00 00 00 
  4018b8:	e8 23 fc ff ff       	callq  4014e0 <posix_memalign@plt>
  4018bd:	8b 84 24 44 09 00 00 	mov    0x944(%rsp),%eax
  4018c4:	45 31 e4             	xor    %r12d,%r12d
  4018c7:	85 c0                	test   %eax,%eax
  4018c9:	0f 8e 6f 02 00 00    	jle    401b3e <main+0x31e>
  4018cf:	44 8b ac 24 40 09 00 	mov    0x940(%rsp),%r13d
  4018d6:	00 
  4018d7:	44 8b 8c 24 48 09 00 	mov    0x948(%rsp),%r9d
  4018de:	00 
  4018df:	ba 08 00 00 00       	mov    $0x8,%edx
  4018e4:	62 f1 ed 48 ef d2    	vpxorq %zmm2,%zmm2,%zmm2
  4018ea:	45 31 ff             	xor    %r15d,%r15d
  4018ed:	c5 f9 6e ca          	vmovd  %edx,%xmm1
  4018f1:	31 db                	xor    %ebx,%ebx
  4018f3:	44 89 ee             	mov    %r13d,%esi
  4018f6:	49 63 fd             	movslq %r13d,%rdi
  4018f9:	4c 8b b4 24 50 09 00 	mov    0x950(%rsp),%r14
  401900:	00 
  401901:	c5 fe 6f 05 f7 cb 00 	vmovdqu 0xcbf7(%rip),%ymm0        # 40e500 <_IO_stdin_used+0xc0>
  401908:	00 
  401909:	83 e6 f8             	and    $0xfffffff8,%esi
  40190c:	4d 63 c1             	movslq %r9d,%r8
  40190f:	48 63 ce             	movslq %esi,%rcx
  401912:	48 89 4c 24 40       	mov    %rcx,0x40(%rsp)
  401917:	48 8d 14 fd 00 00 00 	lea    0x0(,%rdi,8),%rdx
  40191e:	00 
  40191f:	48 89 54 24 38       	mov    %rdx,0x38(%rsp)
  401924:	c4 e2 7d 58 c9       	vpbroadcastd %xmm1,%ymm1
  401929:	45 85 ed             	test   %r13d,%r13d
  40192c:	0f 8e ff 00 00 00    	jle    401a31 <main+0x211>
  401932:	41 83 fd 0c          	cmp    $0xc,%r13d
  401936:	7e 78                	jle    4019b0 <main+0x190>
  401938:	c5 fe 7f 0c 24       	vmovdqu %ymm1,(%rsp)
  40193d:	48 89 7c 24 20       	mov    %rdi,0x20(%rsp)
  401942:	89 74 24 28          	mov    %esi,0x28(%rsp)
  401946:	4c 89 44 24 50       	mov    %r8,0x50(%rsp)
  40194b:	44 89 4c 24 48       	mov    %r9d,0x48(%rsp)
  401950:	89 44 24 30          	mov    %eax,0x30(%rsp)
  401954:	4d 63 ff             	movslq %r15d,%r15
  401957:	31 f6                	xor    %esi,%esi
  401959:	48 8b 54 24 38       	mov    0x38(%rsp),%rdx
  40195e:	4b 8d 3c fe          	lea    (%r14,%r15,8),%rdi
  401962:	e8 19 9a 00 00       	callq  40b380 <__intel_mic_avx512f_memset>
  401967:	41 83 c4 01          	add    $0x1,%r12d
  40196b:	48 03 5c 24 50       	add    0x50(%rsp),%rbx
  401970:	44 03 7c 24 48       	add    0x48(%rsp),%r15d
  401975:	44 3b 64 24 30       	cmp    0x30(%rsp),%r12d
  40197a:	0f 83 87 1e 00 00    	jae    403807 <LOOP_TOP_0_1+0x568>
  401980:	41 83 fd 0c          	cmp    $0xc,%r13d
  401984:	7f ce                	jg     401954 <main+0x134>
  401986:	c5 fe 6f 05 72 cb 00 	vmovdqu 0xcb72(%rip),%ymm0        # 40e500 <_IO_stdin_used+0xc0>
  40198d:	00 
  40198e:	c5 fe 6f 0c 24       	vmovdqu (%rsp),%ymm1
  401993:	62 f1 ed 48 ef d2    	vpxorq %zmm2,%zmm2,%zmm2
  401999:	48 8b 7c 24 20       	mov    0x20(%rsp),%rdi
  40199e:	8b 74 24 28          	mov    0x28(%rsp),%esi
  4019a2:	4c 8b 44 24 50       	mov    0x50(%rsp),%r8
  4019a7:	44 8b 4c 24 48       	mov    0x48(%rsp),%r9d
  4019ac:	8b 44 24 30          	mov    0x30(%rsp),%eax
  4019b0:	41 83 fd 08          	cmp    $0x8,%r13d
  4019b4:	0f 8c 46 1e 00 00    	jl     403800 <LOOP_TOP_0_1+0x561>
  4019ba:	89 f2                	mov    %esi,%edx
  4019bc:	45 31 d2             	xor    %r10d,%r10d
  4019bf:	49 8d 0c de          	lea    (%r14,%rbx,8),%rcx
  4019c3:	4c 8b 5c 24 40       	mov    0x40(%rsp),%r11
  4019c8:	62 b1 fd 48 11 14 d1 	vmovupd %zmm2,(%rcx,%r10,8)
  4019cf:	49 83 c2 08          	add    $0x8,%r10
  4019d3:	4d 39 da             	cmp    %r11,%r10
  4019d6:	72 f0                	jb     4019c8 <main+0x1a8>
  4019d8:	8d 4a 01             	lea    0x1(%rdx),%ecx
  4019db:	44 39 e9             	cmp    %r13d,%ecx
  4019de:	77 51                	ja     401a31 <main+0x211>
  4019e0:	45 89 ea             	mov    %r13d,%r10d
  4019e3:	b9 ff 00 00 00       	mov    $0xff,%ecx
  4019e8:	c5 fd 6f e0          	vmovdqa %ymm0,%ymm4
  4019ec:	41 29 d2             	sub    %edx,%r10d
  4019ef:	48 63 d2             	movslq %edx,%rdx
  4019f2:	c4 c1 79 6e da       	vmovd  %r10d,%xmm3
  4019f7:	4c 8d 1c 13          	lea    (%rbx,%rdx,1),%r11
  4019fb:	48 f7 da             	neg    %rdx
  4019fe:	c5 f8 92 c9          	kmovw  %ecx,%k1
  401a02:	c4 e2 7d 58 db       	vpbroadcastd %xmm3,%ymm3
  401a07:	31 c9                	xor    %ecx,%ecx
  401a09:	4f 8d 1c de          	lea    (%r14,%r11,8),%r11
  401a0d:	48 01 fa             	add    %rdi,%rdx
  401a10:	45 31 d2             	xor    %r10d,%r10d
  401a13:	48 83 c1 08          	add    $0x8,%rcx
  401a17:	62 f1 65 49 66 d4    	vpcmpgtd %zmm4,%zmm3,%k2{%k1}
  401a1d:	62 91 fd 4a 11 14 1a 	vmovupd %zmm2,(%r10,%r11,1){%k2}
  401a24:	49 83 c2 40          	add    $0x40,%r10
  401a28:	c5 dd fe e1          	vpaddd %ymm1,%ymm4,%ymm4
  401a2c:	48 39 d1             	cmp    %rdx,%rcx
  401a2f:	72 e2                	jb     401a13 <main+0x1f3>
  401a31:	41 83 c4 01          	add    $0x1,%r12d
  401a35:	4c 01 c3             	add    %r8,%rbx
  401a38:	45 01 cf             	add    %r9d,%r15d
  401a3b:	41 39 c4             	cmp    %eax,%r12d
  401a3e:	0f 82 e5 fe ff ff    	jb     401929 <main+0x109>
  401a44:	31 c9                	xor    %ecx,%ecx
  401a46:	8b 94 24 48 09 00 00 	mov    0x948(%rsp),%edx
  401a4d:	4c 63 b4 24 40 09 00 	movslq 0x940(%rsp),%r14
  401a54:	00 
  401a55:	31 db                	xor    %ebx,%ebx
  401a57:	4c 8b bc 24 50 09 00 	mov    0x950(%rsp),%r15
  401a5e:	00 
  401a5f:	c5 fb 10 05 c9 ca 00 	vmovsd 0xcac9(%rip),%xmm0        # 40e530 <_IO_stdin_used+0xf0>
  401a66:	00 
  401a67:	45 31 e4             	xor    %r12d,%r12d
  401a6a:	4d 85 f6             	test   %r14,%r14
  401a6d:	0f 8e be 00 00 00    	jle    401b31 <main+0x311>
  401a73:	62 f3 fd 08 27 e0 00 	vgetmantsd $0x0,%xmm0,%xmm0,%xmm4
  401a7a:	89 54 24 08          	mov    %edx,0x8(%rsp)
  401a7e:	c5 fb 10 0d c2 ca 00 	vmovsd 0xcac2(%rip),%xmm1        # 40e548 <_IO_stdin_used+0x108>
  401a85:	00 
  401a86:	89 0c 24             	mov    %ecx,(%rsp)
  401a89:	62 f2 fd 08 43 d8    	vgetexpsd %xmm0,%xmm0,%xmm3
  401a8f:	89 44 24 30          	mov    %eax,0x30(%rsp)
  401a93:	48 63 db             	movslq %ebx,%rbx
  401a96:	c5 fb 11 64 24 28    	vmovsd %xmm4,0x28(%rsp)
  401a9c:	62 f2 dd 08 cb d4    	vrcp28sd %xmm4,%xmm4,%xmm2
  401aa2:	c5 fb 11 5c 24 10    	vmovsd %xmm3,0x10(%rsp)
  401aa8:	4d 8d 2c df          	lea    (%r15,%rbx,8),%r13
  401aac:	c5 fb 11 54 24 18    	vmovsd %xmm2,0x18(%rsp)
  401ab2:	62 f2 ed 18 bd cc    	vfnmadd231sd {rn-sae},%xmm4,%xmm2,%xmm1
  401ab8:	62 f2 ed 18 99 ca    	vfmadd132sd {rn-sae},%xmm2,%xmm2,%xmm1
  401abe:	c5 fb 11 4c 24 20    	vmovsd %xmm1,0x20(%rsp)
  401ac4:	e8 a7 f9 ff ff       	callq  401470 <rand@plt>
  401ac9:	c5 f9 57 c0          	vxorpd %xmm0,%xmm0,%xmm0
  401acd:	c5 fb 2a c0          	vcvtsi2sd %eax,%xmm0,%xmm0
  401ad1:	c5 fb 10 54 24 18    	vmovsd 0x18(%rsp),%xmm2
  401ad7:	c5 fb 10 5c 24 28    	vmovsd 0x28(%rsp),%xmm3
  401add:	62 f3 fd 08 27 e0 00 	vgetmantsd $0x0,%xmm0,%xmm0,%xmm4
  401ae4:	62 f2 fd 08 43 c8    	vgetexpsd %xmm0,%xmm0,%xmm1
  401aea:	c5 fb 10 6c 24 20    	vmovsd 0x20(%rsp),%xmm5
  401af0:	62 f1 ef 18 59 f4    	vmulsd {rn-sae},%xmm4,%xmm2,%xmm6
  401af6:	c5 f3 5c 7c 24 10    	vsubsd 0x10(%rsp),%xmm1,%xmm7
  401afc:	62 f2 cd 18 bd e3    	vfnmadd231sd {rn-sae},%xmm3,%xmm6,%xmm4
  401b02:	62 f2 dd 18 b9 f5    	vfmadd231sd {rn-sae},%xmm5,%xmm4,%xmm6
  401b08:	62 72 cd 08 2d c7    	vscalefsd %xmm7,%xmm6,%xmm8
  401b0e:	c4 01 7b 11 44 e5 00 	vmovsd %xmm8,0x0(%r13,%r12,8)
  401b15:	49 83 c4 01          	add    $0x1,%r12
  401b19:	4d 39 f4             	cmp    %r14,%r12
  401b1c:	72 a6                	jb     401ac4 <main+0x2a4>
  401b1e:	c5 fb 10 05 0a ca 00 	vmovsd 0xca0a(%rip),%xmm0        # 40e530 <_IO_stdin_used+0xf0>
  401b25:	00 
  401b26:	8b 54 24 08          	mov    0x8(%rsp),%edx
  401b2a:	8b 0c 24             	mov    (%rsp),%ecx
  401b2d:	8b 44 24 30          	mov    0x30(%rsp),%eax
  401b31:	83 c1 01             	add    $0x1,%ecx
  401b34:	01 d3                	add    %edx,%ebx
  401b36:	39 c1                	cmp    %eax,%ecx
  401b38:	0f 82 29 ff ff ff    	jb     401a67 <main+0x247>
  401b3e:	bf 58 e5 40 00       	mov    $0x40e558,%edi
  401b43:	48 c7 84 24 58 09 00 	movq   $0x611220,0x958(%rsp)
  401b4a:	00 20 12 61 00 
  401b4f:	be 94 e5 40 00       	mov    $0x40e594,%esi
  401b54:	e8 47 fa ff ff       	callq  4015a0 <fopen@plt>
  401b59:	49 89 c7             	mov    %rax,%r15
  401b5c:	48 8d 7c 24 08       	lea    0x8(%rsp),%rdi
  401b61:	be e8 03 00 00       	mov    $0x3e8,%esi
  401b66:	4c 89 fa             	mov    %r15,%rdx
  401b69:	e8 d2 fa ff ff       	callq  401640 <fgets@plt>
  401b6e:	48 8d 7c 24 08       	lea    0x8(%rsp),%rdi
  401b73:	be e8 03 00 00       	mov    $0x3e8,%esi
  401b78:	4c 89 fa             	mov    %r15,%rdx
  401b7b:	e8 c0 fa ff ff       	callq  401640 <fgets@plt>
  401b80:	4c 89 ff             	mov    %r15,%rdi
  401b83:	be 98 e5 40 00       	mov    $0x40e598,%esi
  401b88:	48 8d 94 24 60 09 00 	lea    0x960(%rsp),%rdx
  401b8f:	00 
  401b90:	48 8d 8c 24 64 09 00 	lea    0x964(%rsp),%rcx
  401b97:	00 
  401b98:	4c 8d 84 24 a0 08 00 	lea    0x8a0(%rsp),%r8
  401b9f:	00 
  401ba0:	31 c0                	xor    %eax,%eax
  401ba2:	e8 49 fb ff ff       	callq  4016f0 <fscanf@plt>
  401ba7:	8b 84 24 60 09 00 00 	mov    0x960(%rsp),%eax
  401bae:	89 84 24 68 09 00 00 	mov    %eax,0x968(%rsp)
  401bb5:	8b 94 24 64 09 00 00 	mov    0x964(%rsp),%edx
  401bbc:	be 40 00 00 00       	mov    $0x40,%esi
  401bc1:	48 8d bc 24 70 09 00 	lea    0x970(%rsp),%rdi
  401bc8:	00 
  401bc9:	0f af d0             	imul   %eax,%edx
  401bcc:	48 63 d2             	movslq %edx,%rdx
  401bcf:	48 c1 e2 03          	shl    $0x3,%rdx
  401bd3:	e8 08 f9 ff ff       	callq  4014e0 <posix_memalign@plt>
  401bd8:	8b 8c 24 64 09 00 00 	mov    0x964(%rsp),%ecx
  401bdf:	31 c0                	xor    %eax,%eax
  401be1:	85 c9                	test   %ecx,%ecx
  401be3:	0f 8e a4 01 00 00    	jle    401d8d <main+0x56d>
  401be9:	44 8b ac 24 60 09 00 	mov    0x960(%rsp),%r13d
  401bf0:	00 
  401bf1:	4c 89 3c 24          	mov    %r15,(%rsp)
  401bf5:	bb 08 00 00 00       	mov    $0x8,%ebx
  401bfa:	62 f1 ed 48 ef d2    	vpxorq %zmm2,%zmm2,%zmm2
  401c00:	41 89 c7             	mov    %eax,%r15d
  401c03:	48 8b b4 24 70 09 00 	mov    0x970(%rsp),%rsi
  401c0a:	00 
  401c0b:	c5 f9 6e cb          	vmovd  %ebx,%xmm1
  401c0f:	31 db                	xor    %ebx,%ebx
  401c11:	4d 63 d5             	movslq %r13d,%r10
  401c14:	45 89 e8             	mov    %r13d,%r8d
  401c17:	4c 63 b4 24 68 09 00 	movslq 0x968(%rsp),%r14
  401c1e:	00 
  401c1f:	41 83 e0 f8          	and    $0xfffffff8,%r8d
  401c23:	4e 8d 1c d5 00 00 00 	lea    0x0(,%r10,8),%r11
  401c2a:	00 
  401c2b:	4c 89 9c 24 30 04 00 	mov    %r11,0x430(%rsp)
  401c32:	00 
  401c33:	c5 fe 6f 05 c5 c8 00 	vmovdqu 0xc8c5(%rip),%ymm0        # 40e500 <_IO_stdin_used+0xc0>
  401c3a:	00 
  401c3b:	49 89 f4             	mov    %rsi,%r12
  401c3e:	c4 e2 7d 58 c9       	vpbroadcastd %xmm1,%ymm1
  401c43:	4d 63 c8             	movslq %r8d,%r9
  401c46:	45 85 ed             	test   %r13d,%r13d
  401c49:	0f 8e 26 01 00 00    	jle    401d75 <main+0x555>
  401c4f:	41 83 fd 0c          	cmp    $0xc,%r13d
  401c53:	0f 8e 9f 00 00 00    	jle    401cf8 <main+0x4d8>
  401c59:	c5 fe 7f 8c 24 00 04 	vmovdqu %ymm1,0x400(%rsp)
  401c60:	00 00 
  401c62:	4c 89 94 24 f0 03 00 	mov    %r10,0x3f0(%rsp)
  401c69:	00 
  401c6a:	4c 89 8c 24 f8 03 00 	mov    %r9,0x3f8(%rsp)
  401c71:	00 
  401c72:	44 89 84 24 20 04 00 	mov    %r8d,0x420(%rsp)
  401c79:	00 
  401c7a:	48 89 b4 24 28 04 00 	mov    %rsi,0x428(%rsp)
  401c81:	00 
  401c82:	89 8c 24 38 04 00 00 	mov    %ecx,0x438(%rsp)
  401c89:	4c 89 e7             	mov    %r12,%rdi
  401c8c:	31 f6                	xor    %esi,%esi
  401c8e:	48 8b 94 24 30 04 00 	mov    0x430(%rsp),%rdx
  401c95:	00 
  401c96:	e8 e5 96 00 00       	callq  40b380 <__intel_mic_avx512f_memset>
  401c9b:	41 83 c7 01          	add    $0x1,%r15d
  401c9f:	4c 01 f3             	add    %r14,%rbx
  401ca2:	4f 8d 24 f4          	lea    (%r12,%r14,8),%r12
  401ca6:	44 3b bc 24 38 04 00 	cmp    0x438(%rsp),%r15d
  401cad:	00 
  401cae:	0f 83 d5 00 00 00    	jae    401d89 <main+0x569>
  401cb4:	41 83 fd 0c          	cmp    $0xc,%r13d
  401cb8:	7f cf                	jg     401c89 <main+0x469>
  401cba:	c5 fe 6f 05 3e c8 00 	vmovdqu 0xc83e(%rip),%ymm0        # 40e500 <_IO_stdin_used+0xc0>
  401cc1:	00 
  401cc2:	c5 fe 6f 8c 24 00 04 	vmovdqu 0x400(%rsp),%ymm1
  401cc9:	00 00 
  401ccb:	62 f1 ed 48 ef d2    	vpxorq %zmm2,%zmm2,%zmm2
  401cd1:	4c 8b 94 24 f0 03 00 	mov    0x3f0(%rsp),%r10
  401cd8:	00 
  401cd9:	4c 8b 8c 24 f8 03 00 	mov    0x3f8(%rsp),%r9
  401ce0:	00 
  401ce1:	44 8b 84 24 20 04 00 	mov    0x420(%rsp),%r8d
  401ce8:	00 
  401ce9:	48 8b b4 24 28 04 00 	mov    0x428(%rsp),%rsi
  401cf0:	00 
  401cf1:	8b 8c 24 38 04 00 00 	mov    0x438(%rsp),%ecx
  401cf8:	41 83 fd 08          	cmp    $0x8,%r13d
  401cfc:	0f 8c f7 1a 00 00    	jl     4037f9 <LOOP_TOP_0_1+0x55a>
  401d02:	44 89 c0             	mov    %r8d,%eax
  401d05:	45 31 db             	xor    %r11d,%r11d
  401d08:	48 8d 14 de          	lea    (%rsi,%rbx,8),%rdx
  401d0c:	62 b1 fd 48 11 14 da 	vmovupd %zmm2,(%rdx,%r11,8)
  401d13:	49 83 c3 08          	add    $0x8,%r11
  401d17:	4d 39 cb             	cmp    %r9,%r11
  401d1a:	72 f0                	jb     401d0c <main+0x4ec>
  401d1c:	8d 50 01             	lea    0x1(%rax),%edx
  401d1f:	44 39 ea             	cmp    %r13d,%edx
  401d22:	77 51                	ja     401d75 <main+0x555>
  401d24:	45 89 eb             	mov    %r13d,%r11d
  401d27:	ba ff 00 00 00       	mov    $0xff,%edx
  401d2c:	c5 fd 6f e0          	vmovdqa %ymm0,%ymm4
  401d30:	41 29 c3             	sub    %eax,%r11d
  401d33:	48 63 c0             	movslq %eax,%rax
  401d36:	c4 c1 79 6e db       	vmovd  %r11d,%xmm3
  401d3b:	4c 8d 1c 03          	lea    (%rbx,%rax,1),%r11
  401d3f:	48 f7 d8             	neg    %rax
  401d42:	c5 f8 92 ca          	kmovw  %edx,%k1
  401d46:	c4 e2 7d 58 db       	vpbroadcastd %xmm3,%ymm3
  401d4b:	31 d2                	xor    %edx,%edx
  401d4d:	4a 8d 3c de          	lea    (%rsi,%r11,8),%rdi
  401d51:	4c 01 d0             	add    %r10,%rax
  401d54:	45 31 db             	xor    %r11d,%r11d
  401d57:	48 83 c2 08          	add    $0x8,%rdx
  401d5b:	62 f1 65 49 66 d4    	vpcmpgtd %zmm4,%zmm3,%k2{%k1}
  401d61:	62 d1 fd 4a 11 14 3b 	vmovupd %zmm2,(%r11,%rdi,1){%k2}
  401d68:	49 83 c3 40          	add    $0x40,%r11
  401d6c:	c5 dd fe e1          	vpaddd %ymm1,%ymm4,%ymm4
  401d70:	48 39 c2             	cmp    %rax,%rdx
  401d73:	72 e2                	jb     401d57 <main+0x537>
  401d75:	41 83 c7 01          	add    $0x1,%r15d
  401d79:	4c 01 f3             	add    %r14,%rbx
  401d7c:	4f 8d 24 f4          	lea    (%r12,%r14,8),%r12
  401d80:	41 39 cf             	cmp    %ecx,%r15d
  401d83:	0f 82 bd fe ff ff    	jb     401c46 <main+0x426>
  401d89:	4c 8b 3c 24          	mov    (%rsp),%r15
  401d8d:	31 db                	xor    %ebx,%ebx
  401d8f:	83 bc 24 a0 08 00 00 	cmpl   $0x0,0x8a0(%rsp)
  401d96:	00 
  401d97:	7e 64                	jle    401dfd <main+0x5dd>
  401d99:	4c 89 ff             	mov    %r15,%rdi
  401d9c:	be a4 e5 40 00       	mov    $0x40e5a4,%esi
  401da1:	48 8d 94 24 a4 08 00 	lea    0x8a4(%rsp),%rdx
  401da8:	00 
  401da9:	48 8d 8c 24 a8 08 00 	lea    0x8a8(%rsp),%rcx
  401db0:	00 
  401db1:	4c 8d 84 24 80 08 00 	lea    0x880(%rsp),%r8
  401db8:	00 
  401db9:	31 c0                	xor    %eax,%eax
  401dbb:	e8 30 f9 ff ff       	callq  4016f0 <fscanf@plt>
  401dc0:	8b 84 24 a8 08 00 00 	mov    0x8a8(%rsp),%eax
  401dc7:	48 8b 8c 24 80 08 00 	mov    0x880(%rsp),%rcx
  401dce:	00 
  401dcf:	83 c3 01             	add    $0x1,%ebx
  401dd2:	83 c0 ff             	add    $0xffffffff,%eax
  401dd5:	48 8b b4 24 70 09 00 	mov    0x970(%rsp),%rsi
  401ddc:	00 
  401ddd:	0f af 84 24 68 09 00 	imul   0x968(%rsp),%eax
  401de4:	00 
  401de5:	03 84 24 a4 08 00 00 	add    0x8a4(%rsp),%eax
  401dec:	48 63 c0             	movslq %eax,%rax
  401def:	48 89 4c c6 f8       	mov    %rcx,-0x8(%rsi,%rax,8)
  401df4:	3b 9c 24 a0 08 00 00 	cmp    0x8a0(%rsp),%ebx
  401dfb:	7c 9c                	jl     401d99 <main+0x579>
  401dfd:	4c 89 ff             	mov    %r15,%rdi
  401e00:	e8 3b f7 ff ff       	callq  401540 <fclose@plt>
  401e05:	b8 20 00 00 00       	mov    $0x20,%eax
  401e0a:	48 c7 84 24 b8 08 00 	movq   $0x611220,0x8b8(%rsp)
  401e11:	00 20 12 61 00 
  401e16:	48 8d bc 24 d0 08 00 	lea    0x8d0(%rsp),%rdi
  401e1d:	00 
  401e1e:	89 84 24 c8 08 00 00 	mov    %eax,0x8c8(%rsp)
  401e25:	be 40 00 00 00       	mov    $0x40,%esi
  401e2a:	89 84 24 c0 08 00 00 	mov    %eax,0x8c0(%rsp)
  401e31:	ba 00 20 00 00       	mov    $0x2000,%edx
  401e36:	89 84 24 c4 08 00 00 	mov    %eax,0x8c4(%rsp)
  401e3d:	e8 9e f6 ff ff       	callq  4014e0 <posix_memalign@plt>
  401e42:	44 8b 94 24 c4 08 00 	mov    0x8c4(%rsp),%r10d
  401e49:	00 
  401e4a:	45 31 e4             	xor    %r12d,%r12d
  401e4d:	45 85 d2             	test   %r10d,%r10d
  401e50:	0f 8e 93 01 00 00    	jle    401fe9 <main+0x7c9>
  401e56:	44 8b ac 24 c0 08 00 	mov    0x8c0(%rsp),%r13d
  401e5d:	00 
  401e5e:	4c 8b 8c 24 d0 08 00 	mov    0x8d0(%rsp),%r9
  401e65:	00 
  401e66:	b8 08 00 00 00       	mov    $0x8,%eax
  401e6b:	62 f1 ed 48 ef d2    	vpxorq %zmm2,%zmm2,%zmm2
  401e71:	31 db                	xor    %ebx,%ebx
  401e73:	c5 f9 6e c8          	vmovd  %eax,%xmm1
  401e77:	49 63 cd             	movslq %r13d,%rcx
  401e7a:	45 89 e8             	mov    %r13d,%r8d
  401e7d:	4c 63 bc 24 c8 08 00 	movslq 0x8c8(%rsp),%r15
  401e84:	00 
  401e85:	c5 fe 6f 05 73 c6 00 	vmovdqu 0xc673(%rip),%ymm0        # 40e500 <_IO_stdin_used+0xc0>
  401e8c:	00 
  401e8d:	41 83 e0 f8          	and    $0xfffffff8,%r8d
  401e91:	4d 89 ce             	mov    %r9,%r14
  401e94:	48 8d 04 cd 00 00 00 	lea    0x0(,%rcx,8),%rax
  401e9b:	00 
  401e9c:	48 89 84 24 28 04 00 	mov    %rax,0x428(%rsp)
  401ea3:	00 
  401ea4:	c4 e2 7d 58 c9       	vpbroadcastd %xmm1,%ymm1
  401ea9:	49 63 f0             	movslq %r8d,%rsi
  401eac:	45 85 ed             	test   %r13d,%r13d
  401eaf:	0f 8e 20 01 00 00    	jle    401fd5 <main+0x7b5>
  401eb5:	41 83 fd 0c          	cmp    $0xc,%r13d
  401eb9:	0f 8e 99 00 00 00    	jle    401f58 <main+0x738>
  401ebf:	c5 fe 7f 8c 24 00 04 	vmovdqu %ymm1,0x400(%rsp)
  401ec6:	00 00 
  401ec8:	48 89 0c 24          	mov    %rcx,(%rsp)
  401ecc:	48 89 b4 24 f0 03 00 	mov    %rsi,0x3f0(%rsp)
  401ed3:	00 
  401ed4:	44 89 84 24 f8 03 00 	mov    %r8d,0x3f8(%rsp)
  401edb:	00 
  401edc:	4c 89 8c 24 20 04 00 	mov    %r9,0x420(%rsp)
  401ee3:	00 
  401ee4:	44 89 94 24 30 04 00 	mov    %r10d,0x430(%rsp)
  401eeb:	00 
  401eec:	4c 89 f7             	mov    %r14,%rdi
  401eef:	31 f6                	xor    %esi,%esi
  401ef1:	48 8b 94 24 28 04 00 	mov    0x428(%rsp),%rdx
  401ef8:	00 
  401ef9:	e8 82 94 00 00       	callq  40b380 <__intel_mic_avx512f_memset>
  401efe:	41 83 c4 01          	add    $0x1,%r12d
  401f02:	4c 01 fb             	add    %r15,%rbx
  401f05:	4f 8d 34 fe          	lea    (%r14,%r15,8),%r14
  401f09:	44 3b a4 24 30 04 00 	cmp    0x430(%rsp),%r12d
  401f10:	00 
  401f11:	0f 83 d2 00 00 00    	jae    401fe9 <main+0x7c9>
  401f17:	41 83 fd 0c          	cmp    $0xc,%r13d
  401f1b:	7f cf                	jg     401eec <main+0x6cc>
  401f1d:	c5 fe 6f 05 db c5 00 	vmovdqu 0xc5db(%rip),%ymm0        # 40e500 <_IO_stdin_used+0xc0>
  401f24:	00 
  401f25:	c5 fe 6f 8c 24 00 04 	vmovdqu 0x400(%rsp),%ymm1
  401f2c:	00 00 
  401f2e:	62 f1 ed 48 ef d2    	vpxorq %zmm2,%zmm2,%zmm2
  401f34:	48 8b b4 24 f0 03 00 	mov    0x3f0(%rsp),%rsi
  401f3b:	00 
  401f3c:	44 8b 84 24 f8 03 00 	mov    0x3f8(%rsp),%r8d
  401f43:	00 
  401f44:	4c 8b 8c 24 20 04 00 	mov    0x420(%rsp),%r9
  401f4b:	00 
  401f4c:	44 8b 94 24 30 04 00 	mov    0x430(%rsp),%r10d
  401f53:	00 
  401f54:	48 8b 0c 24          	mov    (%rsp),%rcx
  401f58:	41 83 fd 08          	cmp    $0x8,%r13d
  401f5c:	0f 8c 90 18 00 00    	jl     4037f2 <LOOP_TOP_0_1+0x553>
  401f62:	44 89 c0             	mov    %r8d,%eax
  401f65:	45 31 db             	xor    %r11d,%r11d
  401f68:	49 8d 14 d9          	lea    (%r9,%rbx,8),%rdx
  401f6c:	62 b1 fd 48 11 14 da 	vmovupd %zmm2,(%rdx,%r11,8)
  401f73:	49 83 c3 08          	add    $0x8,%r11
  401f77:	49 39 f3             	cmp    %rsi,%r11
  401f7a:	72 f0                	jb     401f6c <main+0x74c>
  401f7c:	8d 50 01             	lea    0x1(%rax),%edx
  401f7f:	44 39 ea             	cmp    %r13d,%edx
  401f82:	77 51                	ja     401fd5 <main+0x7b5>
  401f84:	45 89 eb             	mov    %r13d,%r11d
  401f87:	ba ff 00 00 00       	mov    $0xff,%edx
  401f8c:	c5 fd 6f e0          	vmovdqa %ymm0,%ymm4
  401f90:	41 29 c3             	sub    %eax,%r11d
  401f93:	48 63 c0             	movslq %eax,%rax
  401f96:	c4 c1 79 6e db       	vmovd  %r11d,%xmm3
  401f9b:	4c 8d 1c 03          	lea    (%rbx,%rax,1),%r11
  401f9f:	48 f7 d8             	neg    %rax
  401fa2:	c5 f8 92 ca          	kmovw  %edx,%k1
  401fa6:	c4 e2 7d 58 db       	vpbroadcastd %xmm3,%ymm3
  401fab:	31 d2                	xor    %edx,%edx
  401fad:	4b 8d 3c d9          	lea    (%r9,%r11,8),%rdi
  401fb1:	48 01 c8             	add    %rcx,%rax
  401fb4:	45 31 db             	xor    %r11d,%r11d
  401fb7:	48 83 c2 08          	add    $0x8,%rdx
  401fbb:	62 f1 65 49 66 d4    	vpcmpgtd %zmm4,%zmm3,%k2{%k1}
  401fc1:	62 d1 fd 4a 11 14 3b 	vmovupd %zmm2,(%r11,%rdi,1){%k2}
  401fc8:	49 83 c3 40          	add    $0x40,%r11
  401fcc:	c5 dd fe e1          	vpaddd %ymm1,%ymm4,%ymm4
  401fd0:	48 39 c2             	cmp    %rax,%rdx
  401fd3:	72 e2                	jb     401fb7 <main+0x797>
  401fd5:	41 83 c4 01          	add    $0x1,%r12d
  401fd9:	4c 01 fb             	add    %r15,%rbx
  401fdc:	4f 8d 34 fe          	lea    (%r14,%r15,8),%r14
  401fe0:	45 39 d4             	cmp    %r10d,%r12d
  401fe3:	0f 82 c3 fe ff ff    	jb     401eac <main+0x68c>
  401fe9:	b8 20 00 00 00       	mov    $0x20,%eax
  401fee:	48 c7 84 24 78 09 00 	movq   $0x611220,0x978(%rsp)
  401ff5:	00 20 12 61 00 
  401ffa:	48 8d bc 24 90 09 00 	lea    0x990(%rsp),%rdi
  402001:	00 
  402002:	89 84 24 88 09 00 00 	mov    %eax,0x988(%rsp)
  402009:	be 40 00 00 00       	mov    $0x40,%esi
  40200e:	89 84 24 80 09 00 00 	mov    %eax,0x980(%rsp)
  402015:	ba 00 20 00 00       	mov    $0x2000,%edx
  40201a:	89 84 24 84 09 00 00 	mov    %eax,0x984(%rsp)
  402021:	e8 ba f4 ff ff       	callq  4014e0 <posix_memalign@plt>
  402026:	44 8b 94 24 84 09 00 	mov    0x984(%rsp),%r10d
  40202d:	00 
  40202e:	45 31 e4             	xor    %r12d,%r12d
  402031:	45 85 d2             	test   %r10d,%r10d
  402034:	0f 8e 93 01 00 00    	jle    4021cd <main+0x9ad>
  40203a:	44 8b ac 24 80 09 00 	mov    0x980(%rsp),%r13d
  402041:	00 
  402042:	4c 8b 8c 24 90 09 00 	mov    0x990(%rsp),%r9
  402049:	00 
  40204a:	b8 08 00 00 00       	mov    $0x8,%eax
  40204f:	62 f1 ed 48 ef d2    	vpxorq %zmm2,%zmm2,%zmm2
  402055:	31 db                	xor    %ebx,%ebx
  402057:	c5 f9 6e c8          	vmovd  %eax,%xmm1
  40205b:	49 63 cd             	movslq %r13d,%rcx
  40205e:	45 89 e8             	mov    %r13d,%r8d
  402061:	4c 63 bc 24 88 09 00 	movslq 0x988(%rsp),%r15
  402068:	00 
  402069:	c5 fe 6f 05 8f c4 00 	vmovdqu 0xc48f(%rip),%ymm0        # 40e500 <_IO_stdin_used+0xc0>
  402070:	00 
  402071:	41 83 e0 f8          	and    $0xfffffff8,%r8d
  402075:	4d 89 ce             	mov    %r9,%r14
  402078:	48 8d 04 cd 00 00 00 	lea    0x0(,%rcx,8),%rax
  40207f:	00 
  402080:	48 89 84 24 28 04 00 	mov    %rax,0x428(%rsp)
  402087:	00 
  402088:	c4 e2 7d 58 c9       	vpbroadcastd %xmm1,%ymm1
  40208d:	49 63 f0             	movslq %r8d,%rsi
  402090:	45 85 ed             	test   %r13d,%r13d
  402093:	0f 8e 20 01 00 00    	jle    4021b9 <main+0x999>
  402099:	41 83 fd 0c          	cmp    $0xc,%r13d
  40209d:	0f 8e 99 00 00 00    	jle    40213c <main+0x91c>
  4020a3:	c5 fe 7f 8c 24 00 04 	vmovdqu %ymm1,0x400(%rsp)
  4020aa:	00 00 
  4020ac:	48 89 0c 24          	mov    %rcx,(%rsp)
  4020b0:	48 89 b4 24 f0 03 00 	mov    %rsi,0x3f0(%rsp)
  4020b7:	00 
  4020b8:	44 89 84 24 f8 03 00 	mov    %r8d,0x3f8(%rsp)
  4020bf:	00 
  4020c0:	4c 89 8c 24 20 04 00 	mov    %r9,0x420(%rsp)
  4020c7:	00 
  4020c8:	44 89 94 24 30 04 00 	mov    %r10d,0x430(%rsp)
  4020cf:	00 
  4020d0:	4c 89 f7             	mov    %r14,%rdi
  4020d3:	31 f6                	xor    %esi,%esi
  4020d5:	48 8b 94 24 28 04 00 	mov    0x428(%rsp),%rdx
  4020dc:	00 
  4020dd:	e8 9e 92 00 00       	callq  40b380 <__intel_mic_avx512f_memset>
  4020e2:	41 83 c4 01          	add    $0x1,%r12d
  4020e6:	4c 01 fb             	add    %r15,%rbx
  4020e9:	4f 8d 34 fe          	lea    (%r14,%r15,8),%r14
  4020ed:	44 3b a4 24 30 04 00 	cmp    0x430(%rsp),%r12d
  4020f4:	00 
  4020f5:	0f 83 d2 00 00 00    	jae    4021cd <main+0x9ad>
  4020fb:	41 83 fd 0c          	cmp    $0xc,%r13d
  4020ff:	7f cf                	jg     4020d0 <main+0x8b0>
  402101:	c5 fe 6f 05 f7 c3 00 	vmovdqu 0xc3f7(%rip),%ymm0        # 40e500 <_IO_stdin_used+0xc0>
  402108:	00 
  402109:	c5 fe 6f 8c 24 00 04 	vmovdqu 0x400(%rsp),%ymm1
  402110:	00 00 
  402112:	62 f1 ed 48 ef d2    	vpxorq %zmm2,%zmm2,%zmm2
  402118:	48 8b b4 24 f0 03 00 	mov    0x3f0(%rsp),%rsi
  40211f:	00 
  402120:	44 8b 84 24 f8 03 00 	mov    0x3f8(%rsp),%r8d
  402127:	00 
  402128:	4c 8b 8c 24 20 04 00 	mov    0x420(%rsp),%r9
  40212f:	00 
  402130:	44 8b 94 24 30 04 00 	mov    0x430(%rsp),%r10d
  402137:	00 
  402138:	48 8b 0c 24          	mov    (%rsp),%rcx
  40213c:	41 83 fd 08          	cmp    $0x8,%r13d
  402140:	0f 8c a5 16 00 00    	jl     4037eb <LOOP_TOP_0_1+0x54c>
  402146:	44 89 c0             	mov    %r8d,%eax
  402149:	45 31 db             	xor    %r11d,%r11d
  40214c:	49 8d 14 d9          	lea    (%r9,%rbx,8),%rdx
  402150:	62 b1 fd 48 11 14 da 	vmovupd %zmm2,(%rdx,%r11,8)
  402157:	49 83 c3 08          	add    $0x8,%r11
  40215b:	49 39 f3             	cmp    %rsi,%r11
  40215e:	72 f0                	jb     402150 <main+0x930>
  402160:	8d 50 01             	lea    0x1(%rax),%edx
  402163:	44 39 ea             	cmp    %r13d,%edx
  402166:	77 51                	ja     4021b9 <main+0x999>
  402168:	45 89 eb             	mov    %r13d,%r11d
  40216b:	ba ff 00 00 00       	mov    $0xff,%edx
  402170:	c5 fd 6f e0          	vmovdqa %ymm0,%ymm4
  402174:	41 29 c3             	sub    %eax,%r11d
  402177:	48 63 c0             	movslq %eax,%rax
  40217a:	c4 c1 79 6e db       	vmovd  %r11d,%xmm3
  40217f:	4c 8d 1c 03          	lea    (%rbx,%rax,1),%r11
  402183:	48 f7 d8             	neg    %rax
  402186:	c5 f8 92 ca          	kmovw  %edx,%k1
  40218a:	c4 e2 7d 58 db       	vpbroadcastd %xmm3,%ymm3
  40218f:	31 d2                	xor    %edx,%edx
  402191:	4b 8d 3c d9          	lea    (%r9,%r11,8),%rdi
  402195:	48 01 c8             	add    %rcx,%rax
  402198:	45 31 db             	xor    %r11d,%r11d
  40219b:	48 83 c2 08          	add    $0x8,%rdx
  40219f:	62 f1 65 49 66 d4    	vpcmpgtd %zmm4,%zmm3,%k2{%k1}
  4021a5:	62 d1 fd 4a 11 14 3b 	vmovupd %zmm2,(%r11,%rdi,1){%k2}
  4021ac:	49 83 c3 40          	add    $0x40,%r11
  4021b0:	c5 dd fe e1          	vpaddd %ymm1,%ymm4,%ymm4
  4021b4:	48 39 c2             	cmp    %rax,%rdx
  4021b7:	72 e2                	jb     40219b <main+0x97b>
  4021b9:	41 83 c4 01          	add    $0x1,%r12d
  4021bd:	4c 01 fb             	add    %r15,%rbx
  4021c0:	4f 8d 34 fe          	lea    (%r14,%r15,8),%r14
  4021c4:	45 39 d4             	cmp    %r10d,%r12d
  4021c7:	0f 82 c3 fe ff ff    	jb     402090 <main+0x870>
  4021cd:	8b 84 24 c4 08 00 00 	mov    0x8c4(%rsp),%eax
  4021d4:	89 04 24             	mov    %eax,(%rsp)
  4021d7:	44 8b b4 24 c0 08 00 	mov    0x8c0(%rsp),%r14d
  4021de:	00 
  4021df:	31 db                	xor    %ebx,%ebx
  4021e1:	44 8b bc 24 44 09 00 	mov    0x944(%rsp),%r15d
  4021e8:	00 
  4021e9:	85 c0                	test   %eax,%eax
  4021eb:	0f 8e c5 00 00 00    	jle    4022b6 <main+0xa96>
  4021f1:	45 31 e4             	xor    %r12d,%r12d
  4021f4:	45 85 ff             	test   %r15d,%r15d
  4021f7:	0f 8e ad 00 00 00    	jle    4022aa <main+0xa8a>
  4021fd:	45 31 ed             	xor    %r13d,%r13d
  402200:	45 85 f6             	test   %r14d,%r14d
  402203:	0f 8e 94 00 00 00    	jle    40229d <main+0xa7d>
  402209:	48 8b 84 24 b8 08 00 	mov    0x8b8(%rsp),%rax
  402210:	00 
  402211:	48 8d bc 24 b8 08 00 	lea    0x8b8(%rsp),%rdi
  402218:	00 
  402219:	44 89 ee             	mov    %r13d,%esi
  40221c:	89 da                	mov    %ebx,%edx
  40221e:	ff 10                	callq  *(%rax)
  402220:	c5 fb 11 84 24 f8 03 	vmovsd %xmm0,0x3f8(%rsp)
  402227:	00 00 
  402229:	48 8b 84 24 38 09 00 	mov    0x938(%rsp),%rax
  402230:	00 
  402231:	48 8d bc 24 38 09 00 	lea    0x938(%rsp),%rdi
  402238:	00 
  402239:	44 89 ee             	mov    %r13d,%esi
  40223c:	44 89 e2             	mov    %r12d,%edx
  40223f:	ff 10                	callq  *(%rax)
  402241:	c5 fb 11 84 24 f0 03 	vmovsd %xmm0,0x3f0(%rsp)
  402248:	00 00 
  40224a:	48 8b 84 24 58 09 00 	mov    0x958(%rsp),%rax
  402251:	00 
  402252:	48 8d bc 24 58 09 00 	lea    0x958(%rsp),%rdi
  402259:	00 
  40225a:	44 89 e6             	mov    %r12d,%esi
  40225d:	89 da                	mov    %ebx,%edx
  40225f:	ff 10                	callq  *(%rax)
  402261:	c5 f9 28 c8          	vmovapd %xmm0,%xmm1
  402265:	c5 fb 10 84 24 f8 03 	vmovsd 0x3f8(%rsp),%xmm0
  40226c:	00 00 
  40226e:	48 8b 84 24 b8 08 00 	mov    0x8b8(%rsp),%rax
  402275:	00 
  402276:	44 89 ee             	mov    %r13d,%esi
  402279:	89 da                	mov    %ebx,%edx
  40227b:	48 8d bc 24 b8 08 00 	lea    0x8b8(%rsp),%rdi
  402282:	00 
  402283:	c4 e2 f1 b9 84 24 f0 	vfmadd231sd 0x3f0(%rsp),%xmm1,%xmm0
  40228a:	03 00 00 
  40228d:	ff 50 08             	callq  *0x8(%rax)
  402290:	41 83 c5 01          	add    $0x1,%r13d
  402294:	45 39 f5             	cmp    %r14d,%r13d
  402297:	0f 8c 6c ff ff ff    	jl     402209 <main+0x9e9>
  40229d:	41 83 c4 01          	add    $0x1,%r12d
  4022a1:	45 39 fc             	cmp    %r15d,%r12d
  4022a4:	0f 8c 53 ff ff ff    	jl     4021fd <main+0x9dd>
  4022aa:	83 c3 01             	add    $0x1,%ebx
  4022ad:	3b 1c 24             	cmp    (%rsp),%ebx
  4022b0:	0f 8c 3b ff ff ff    	jl     4021f1 <main+0x9d1>
  4022b6:	48 8b bc 24 50 09 00 	mov    0x950(%rsp),%rdi
  4022bd:	00 
  4022be:	48 8b b4 24 70 09 00 	mov    0x970(%rsp),%rsi
  4022c5:	00 
  4022c6:	48 8b 94 24 90 09 00 	mov    0x990(%rsp),%rdx
  4022cd:	00 
  4022ce:	e8 5d 59 00 00       	callq  407c30 <_Z25jump_penalty_2_20_libxsmmPKdS0_Pd>
  4022d3:	48 8d bc 24 b8 08 00 	lea    0x8b8(%rsp),%rdi
  4022da:	00 
  4022db:	48 8d b4 24 78 09 00 	lea    0x978(%rsp),%rsi
  4022e2:	00 
  4022e3:	e8 28 15 00 00       	callq  403810 <_Z13assert_equalsRK6MatrixS1_>
  4022e8:	bf 01 00 00 00       	mov    $0x1,%edi
  4022ed:	48 8d b4 24 20 08 00 	lea    0x820(%rsp),%rsi
  4022f4:	00 
  4022f5:	e8 f6 f2 ff ff       	callq  4015f0 <clock_gettime@plt>
  4022fa:	31 db                	xor    %ebx,%ebx
  4022fc:	48 8b bc 24 50 09 00 	mov    0x950(%rsp),%rdi
  402303:	00 
  402304:	48 8b b4 24 70 09 00 	mov    0x970(%rsp),%rsi
  40230b:	00 
  40230c:	48 8b 94 24 90 09 00 	mov    0x990(%rsp),%rdx
  402313:	00 
  402314:	e8 17 59 00 00       	callq  407c30 <_Z25jump_penalty_2_20_libxsmmPKdS0_Pd>
  402319:	83 c3 01             	add    $0x1,%ebx
  40231c:	81 fb b8 0b 00 00    	cmp    $0xbb8,%ebx
  402322:	7c d8                	jl     4022fc <main+0xadc>
  402324:	bf 01 00 00 00       	mov    $0x1,%edi
  402329:	48 8d b4 24 30 08 00 	lea    0x830(%rsp),%rsi
  402330:	00 
  402331:	e8 ba f2 ff ff       	callq  4015f0 <clock_gettime@plt>
  402336:	bf 80 1a 61 00       	mov    $0x611a80,%edi
  40233b:	be b0 e5 40 00       	mov    $0x40e5b0,%esi
  402340:	e8 eb f1 ff ff       	callq  401530 <_ZStlsISt11char_traitsIcEERSt13basic_ostreamIcT_ES5_PKc@plt>
  402345:	48 89 c7             	mov    %rax,%rdi
  402348:	48 8b 84 24 30 08 00 	mov    0x830(%rsp),%rax
  40234f:	00 
  402350:	62 e3 d5 00 27 2d e5 	vgetmantsd $0x0,0xc1e5(%rip),%xmm21,%xmm21        # 40e540 <_IO_stdin_used+0x100>
  402357:	c1 00 00 00 
  40235b:	48 2b 84 24 20 08 00 	sub    0x820(%rsp),%rax
  402362:	00 
  402363:	48 69 d0 00 ca 9a 3b 	imul   $0x3b9aca00,%rax,%rdx
  40236a:	62 a2 d5 00 cb fd    	vrcp28sd %xmm21,%xmm21,%xmm23
  402370:	62 e1 ff 08 10 25 ce 	vmovsd 0xc1ce(%rip),%xmm20        # 40e548 <_IO_stdin_used+0x108>
  402377:	c1 00 00 
  40237a:	62 e2 e5 00 43 1d bc 	vgetexpsd 0xc1bc(%rip),%xmm19,%xmm19        # 40e540 <_IO_stdin_used+0x100>
  402381:	c1 00 00 
  402384:	48 03 94 24 38 08 00 	add    0x838(%rsp),%rdx
  40238b:	00 
  40238c:	62 a2 c5 10 bd e5    	vfnmadd231sd {rn-sae},%xmm21,%xmm23,%xmm20
  402392:	48 2b 94 24 28 08 00 	sub    0x828(%rsp),%rdx
  402399:	00 
  40239a:	62 e1 ff 00 2a c2    	vcvtsi2sd %rdx,%xmm16,%xmm16
  4023a0:	62 e1 ff 00 59 0d 8e 	vmulsd 0xc18e(%rip),%xmm16,%xmm17        # 40e538 <_IO_stdin_used+0xf8>
  4023a7:	c1 00 00 
  4023aa:	62 a3 f5 00 27 f1 00 	vgetmantsd $0x0,%xmm17,%xmm17,%xmm22
  4023b1:	62 a2 f5 00 43 d1    	vgetexpsd %xmm17,%xmm17,%xmm18
  4023b7:	62 21 c7 10 59 c6    	vmulsd {rn-sae},%xmm22,%xmm23,%xmm24
  4023bd:	62 a2 dd 10 b9 ff    	vfmadd231sd {rn-sae},%xmm23,%xmm20,%xmm23
  4023c3:	62 a2 bd 10 bd f5    	vfnmadd231sd {rn-sae},%xmm21,%xmm24,%xmm22
  4023c9:	62 21 ef 00 5c cb    	vsubsd %xmm19,%xmm18,%xmm25
  4023cf:	62 22 cd 10 b9 c7    	vfmadd231sd {rn-sae},%xmm23,%xmm22,%xmm24
  4023d5:	62 92 bd 00 2d c1    	vscalefsd %xmm25,%xmm24,%xmm0
  4023db:	e8 00 f3 ff ff       	callq  4016e0 <_ZNSolsEd@plt>
  4023e0:	48 89 c7             	mov    %rax,%rdi
  4023e3:	be c0 14 40 00       	mov    $0x4014c0,%esi
  4023e8:	e8 73 f1 ff ff       	callq  401560 <_ZNSolsEPFRSoS_E@plt>
  4023ed:	48 8b bc 24 90 09 00 	mov    0x990(%rsp),%rdi
  4023f4:	00 
  4023f5:	48 c7 84 24 78 09 00 	movq   $0x611220,0x978(%rsp)
  4023fc:	00 20 12 61 00 
  402401:	e8 aa f1 ff ff       	callq  4015b0 <free@plt>
  402406:	48 8b bc 24 d0 08 00 	mov    0x8d0(%rsp),%rdi
  40240d:	00 
  40240e:	48 c7 84 24 b8 08 00 	movq   $0x611220,0x8b8(%rsp)
  402415:	00 20 12 61 00 
  40241a:	e8 91 f1 ff ff       	callq  4015b0 <free@plt>
  40241f:	48 8b bc 24 70 09 00 	mov    0x970(%rsp),%rdi
  402426:	00 
  402427:	48 c7 84 24 58 09 00 	movq   $0x611220,0x958(%rsp)
  40242e:	00 20 12 61 00 
  402433:	e8 78 f1 ff ff       	callq  4015b0 <free@plt>
  402438:	48 8b bc 24 50 09 00 	mov    0x950(%rsp),%rdi
  40243f:	00 
  402440:	48 c7 84 24 38 09 00 	movq   $0x611220,0x938(%rsp)
  402447:	00 20 12 61 00 
  40244c:	e8 5f f1 ff ff       	callq  4015b0 <free@plt>
  402451:	b8 20 00 00 00       	mov    $0x20,%eax
  402456:	48 c7 84 24 d8 08 00 	movq   $0x611220,0x8d8(%rsp)
  40245d:	00 20 12 61 00 
  402462:	48 8d bc 24 f0 08 00 	lea    0x8f0(%rsp),%rdi
  402469:	00 
  40246a:	89 84 24 e8 08 00 00 	mov    %eax,0x8e8(%rsp)
  402471:	be 40 00 00 00       	mov    $0x40,%esi
  402476:	89 84 24 e0 08 00 00 	mov    %eax,0x8e0(%rsp)
  40247d:	ba 00 30 00 00       	mov    $0x3000,%edx
  402482:	c7 84 24 e4 08 00 00 	movl   $0x30,0x8e4(%rsp)
  402489:	30 00 00 00 
  40248d:	e8 4e f0 ff ff       	callq  4014e0 <posix_memalign@plt>
  402492:	8b 84 24 e4 08 00 00 	mov    0x8e4(%rsp),%eax
  402499:	45 31 e4             	xor    %r12d,%r12d
  40249c:	85 c0                	test   %eax,%eax
  40249e:	0f 8e ca 02 00 00    	jle    40276e <main+0xf4e>
  4024a4:	44 8b ac 24 e0 08 00 	mov    0x8e0(%rsp),%r13d
  4024ab:	00 
  4024ac:	44 8b 8c 24 e8 08 00 	mov    0x8e8(%rsp),%r9d
  4024b3:	00 
  4024b4:	ba 08 00 00 00       	mov    $0x8,%edx
  4024b9:	62 f1 ed 48 ef d2    	vpxorq %zmm2,%zmm2,%zmm2
  4024bf:	45 31 ff             	xor    %r15d,%r15d
  4024c2:	c5 f9 6e ca          	vmovd  %edx,%xmm1
  4024c6:	31 db                	xor    %ebx,%ebx
  4024c8:	44 89 ee             	mov    %r13d,%esi
  4024cb:	49 63 fd             	movslq %r13d,%rdi
  4024ce:	4c 8b b4 24 f0 08 00 	mov    0x8f0(%rsp),%r14
  4024d5:	00 
  4024d6:	c5 fe 6f 05 22 c0 00 	vmovdqu 0xc022(%rip),%ymm0        # 40e500 <_IO_stdin_used+0xc0>
  4024dd:	00 
  4024de:	83 e6 f8             	and    $0xfffffff8,%esi
  4024e1:	4d 63 c1             	movslq %r9d,%r8
  4024e4:	48 63 ce             	movslq %esi,%rcx
  4024e7:	48 89 8c 24 28 04 00 	mov    %rcx,0x428(%rsp)
  4024ee:	00 
  4024ef:	48 8d 14 fd 00 00 00 	lea    0x0(,%rdi,8),%rdx
  4024f6:	00 
  4024f7:	48 89 94 24 20 04 00 	mov    %rdx,0x420(%rsp)
  4024fe:	00 
  4024ff:	c4 e2 7d 58 c9       	vpbroadcastd %xmm1,%ymm1
  402504:	45 85 ed             	test   %r13d,%r13d
  402507:	0f 8e 30 01 00 00    	jle    40263d <main+0xe1d>
  40250d:	41 83 fd 0c          	cmp    $0xc,%r13d
  402511:	0f 8e a2 00 00 00    	jle    4025b9 <main+0xd99>
  402517:	c5 fe 7f 8c 24 00 04 	vmovdqu %ymm1,0x400(%rsp)
  40251e:	00 00 
  402520:	48 89 3c 24          	mov    %rdi,(%rsp)
  402524:	89 b4 24 f0 03 00 00 	mov    %esi,0x3f0(%rsp)
  40252b:	4c 89 84 24 30 04 00 	mov    %r8,0x430(%rsp)
  402532:	00 
  402533:	44 89 8c 24 38 04 00 	mov    %r9d,0x438(%rsp)
  40253a:	00 
  40253b:	89 84 24 f8 03 00 00 	mov    %eax,0x3f8(%rsp)
  402542:	4d 63 ff             	movslq %r15d,%r15
  402545:	31 f6                	xor    %esi,%esi
  402547:	48 8b 94 24 20 04 00 	mov    0x420(%rsp),%rdx
  40254e:	00 
  40254f:	4b 8d 3c fe          	lea    (%r14,%r15,8),%rdi
  402553:	e8 28 8e 00 00       	callq  40b380 <__intel_mic_avx512f_memset>
  402558:	41 83 c4 01          	add    $0x1,%r12d
  40255c:	48 03 9c 24 30 04 00 	add    0x430(%rsp),%rbx
  402563:	00 
  402564:	44 03 bc 24 38 04 00 	add    0x438(%rsp),%r15d
  40256b:	00 
  40256c:	44 3b a4 24 f8 03 00 	cmp    0x3f8(%rsp),%r12d
  402573:	00 
  402574:	0f 83 2b 12 00 00    	jae    4037a5 <LOOP_TOP_0_1+0x506>
  40257a:	41 83 fd 0c          	cmp    $0xc,%r13d
  40257e:	7f c2                	jg     402542 <main+0xd22>
  402580:	c5 fe 6f 05 78 bf 00 	vmovdqu 0xbf78(%rip),%ymm0        # 40e500 <_IO_stdin_used+0xc0>
  402587:	00 
  402588:	c5 fe 6f 8c 24 00 04 	vmovdqu 0x400(%rsp),%ymm1
  40258f:	00 00 
  402591:	62 f1 ed 48 ef d2    	vpxorq %zmm2,%zmm2,%zmm2
  402597:	8b b4 24 f0 03 00 00 	mov    0x3f0(%rsp),%esi
  40259e:	4c 8b 84 24 30 04 00 	mov    0x430(%rsp),%r8
  4025a5:	00 
  4025a6:	44 8b 8c 24 38 04 00 	mov    0x438(%rsp),%r9d
  4025ad:	00 
  4025ae:	8b 84 24 f8 03 00 00 	mov    0x3f8(%rsp),%eax
  4025b5:	48 8b 3c 24          	mov    (%rsp),%rdi
  4025b9:	41 83 fd 08          	cmp    $0x8,%r13d
  4025bd:	0f 8c db 11 00 00    	jl     40379e <LOOP_TOP_0_1+0x4ff>
  4025c3:	89 f2                	mov    %esi,%edx
  4025c5:	45 31 d2             	xor    %r10d,%r10d
  4025c8:	49 8d 0c de          	lea    (%r14,%rbx,8),%rcx
  4025cc:	4c 8b 9c 24 28 04 00 	mov    0x428(%rsp),%r11
  4025d3:	00 
  4025d4:	62 b1 fd 48 11 14 d1 	vmovupd %zmm2,(%rcx,%r10,8)
  4025db:	49 83 c2 08          	add    $0x8,%r10
  4025df:	4d 39 da             	cmp    %r11,%r10
  4025e2:	72 f0                	jb     4025d4 <main+0xdb4>
  4025e4:	8d 4a 01             	lea    0x1(%rdx),%ecx
  4025e7:	44 39 e9             	cmp    %r13d,%ecx
  4025ea:	77 51                	ja     40263d <main+0xe1d>
  4025ec:	45 89 ea             	mov    %r13d,%r10d
  4025ef:	b9 ff 00 00 00       	mov    $0xff,%ecx
  4025f4:	c5 fd 6f e0          	vmovdqa %ymm0,%ymm4
  4025f8:	41 29 d2             	sub    %edx,%r10d
  4025fb:	48 63 d2             	movslq %edx,%rdx
  4025fe:	c4 c1 79 6e da       	vmovd  %r10d,%xmm3
  402603:	4c 8d 1c 13          	lea    (%rbx,%rdx,1),%r11
  402607:	48 f7 da             	neg    %rdx
  40260a:	c5 f8 92 c9          	kmovw  %ecx,%k1
  40260e:	c4 e2 7d 58 db       	vpbroadcastd %xmm3,%ymm3
  402613:	31 c9                	xor    %ecx,%ecx
  402615:	4f 8d 1c de          	lea    (%r14,%r11,8),%r11
  402619:	48 01 fa             	add    %rdi,%rdx
  40261c:	45 31 d2             	xor    %r10d,%r10d
  40261f:	48 83 c1 08          	add    $0x8,%rcx
  402623:	62 f1 65 49 66 d4    	vpcmpgtd %zmm4,%zmm3,%k2{%k1}
  402629:	62 91 fd 4a 11 14 1a 	vmovupd %zmm2,(%r10,%r11,1){%k2}
  402630:	49 83 c2 40          	add    $0x40,%r10
  402634:	c5 dd fe e1          	vpaddd %ymm1,%ymm4,%ymm4
  402638:	48 39 d1             	cmp    %rdx,%rcx
  40263b:	72 e2                	jb     40261f <main+0xdff>
  40263d:	41 83 c4 01          	add    $0x1,%r12d
  402641:	4c 01 c3             	add    %r8,%rbx
  402644:	45 01 cf             	add    %r9d,%r15d
  402647:	41 39 c4             	cmp    %eax,%r12d
  40264a:	0f 82 b4 fe ff ff    	jb     402504 <main+0xce4>
  402650:	c5 fb 10 05 d8 be 00 	vmovsd 0xbed8(%rip),%xmm0        # 40e530 <_IO_stdin_used+0xf0>
  402657:	00 
  402658:	31 c9                	xor    %ecx,%ecx
  40265a:	8b 94 24 e8 08 00 00 	mov    0x8e8(%rsp),%edx
  402661:	31 db                	xor    %ebx,%ebx
  402663:	4c 63 b4 24 e0 08 00 	movslq 0x8e0(%rsp),%r14
  40266a:	00 
  40266b:	4c 8b bc 24 f0 08 00 	mov    0x8f0(%rsp),%r15
  402672:	00 
  402673:	45 31 e4             	xor    %r12d,%r12d
  402676:	4d 85 f6             	test   %r14,%r14
  402679:	0f 8e e2 00 00 00    	jle    402761 <main+0xf41>
  40267f:	62 f3 fd 08 27 e0 00 	vgetmantsd $0x0,%xmm0,%xmm0,%xmm4
  402686:	89 94 24 f0 03 00 00 	mov    %edx,0x3f0(%rsp)
  40268d:	c5 fb 10 0d b3 be 00 	vmovsd 0xbeb3(%rip),%xmm1        # 40e548 <_IO_stdin_used+0x108>
  402694:	00 
  402695:	89 0c 24             	mov    %ecx,(%rsp)
  402698:	62 f2 fd 08 43 d8    	vgetexpsd %xmm0,%xmm0,%xmm3
  40269e:	89 84 24 f8 03 00 00 	mov    %eax,0x3f8(%rsp)
  4026a5:	48 63 db             	movslq %ebx,%rbx
  4026a8:	c5 fb 11 a4 24 18 04 	vmovsd %xmm4,0x418(%rsp)
  4026af:	00 00 
  4026b1:	62 f2 dd 08 cb d4    	vrcp28sd %xmm4,%xmm4,%xmm2
  4026b7:	c5 fb 11 9c 24 00 04 	vmovsd %xmm3,0x400(%rsp)
  4026be:	00 00 
  4026c0:	4d 8d 2c df          	lea    (%r15,%rbx,8),%r13
  4026c4:	c5 fb 11 94 24 10 04 	vmovsd %xmm2,0x410(%rsp)
  4026cb:	00 00 
  4026cd:	62 f2 ed 18 bd cc    	vfnmadd231sd {rn-sae},%xmm4,%xmm2,%xmm1
  4026d3:	62 f2 ed 18 99 ca    	vfmadd132sd {rn-sae},%xmm2,%xmm2,%xmm1
  4026d9:	c5 fb 11 8c 24 08 04 	vmovsd %xmm1,0x408(%rsp)
  4026e0:	00 00 
  4026e2:	e8 89 ed ff ff       	callq  401470 <rand@plt>
  4026e7:	c5 f9 57 c0          	vxorpd %xmm0,%xmm0,%xmm0
  4026eb:	c5 fb 2a c0          	vcvtsi2sd %eax,%xmm0,%xmm0
  4026ef:	c5 fb 10 94 24 10 04 	vmovsd 0x410(%rsp),%xmm2
  4026f6:	00 00 
  4026f8:	c5 fb 10 9c 24 18 04 	vmovsd 0x418(%rsp),%xmm3
  4026ff:	00 00 
  402701:	62 f3 fd 08 27 e0 00 	vgetmantsd $0x0,%xmm0,%xmm0,%xmm4
  402708:	62 f2 fd 08 43 c8    	vgetexpsd %xmm0,%xmm0,%xmm1
  40270e:	c5 fb 10 ac 24 08 04 	vmovsd 0x408(%rsp),%xmm5
  402715:	00 00 
  402717:	62 f1 ef 18 59 f4    	vmulsd {rn-sae},%xmm4,%xmm2,%xmm6
  40271d:	c5 f3 5c bc 24 00 04 	vsubsd 0x400(%rsp),%xmm1,%xmm7
  402724:	00 00 
  402726:	62 f2 cd 18 bd e3    	vfnmadd231sd {rn-sae},%xmm3,%xmm6,%xmm4
  40272c:	62 f2 dd 18 b9 f5    	vfmadd231sd {rn-sae},%xmm5,%xmm4,%xmm6
  402732:	62 72 cd 08 2d c7    	vscalefsd %xmm7,%xmm6,%xmm8
  402738:	c4 01 7b 11 44 e5 00 	vmovsd %xmm8,0x0(%r13,%r12,8)
  40273f:	49 83 c4 01          	add    $0x1,%r12
  402743:	4d 39 f4             	cmp    %r14,%r12
  402746:	72 9a                	jb     4026e2 <main+0xec2>
  402748:	c5 fb 10 05 e0 bd 00 	vmovsd 0xbde0(%rip),%xmm0        # 40e530 <_IO_stdin_used+0xf0>
  40274f:	00 
  402750:	8b 94 24 f0 03 00 00 	mov    0x3f0(%rsp),%edx
  402757:	8b 84 24 f8 03 00 00 	mov    0x3f8(%rsp),%eax
  40275e:	8b 0c 24             	mov    (%rsp),%ecx
  402761:	83 c1 01             	add    $0x1,%ecx
  402764:	01 d3                	add    %edx,%ebx
  402766:	39 c1                	cmp    %eax,%ecx
  402768:	0f 82 05 ff ff ff    	jb     402673 <main+0xe53>
  40276e:	bf 58 e5 40 00       	mov    $0x40e558,%edi
  402773:	48 c7 84 24 f8 08 00 	movq   $0x611220,0x8f8(%rsp)
  40277a:	00 20 12 61 00 
  40277f:	be 94 e5 40 00       	mov    $0x40e594,%esi
  402784:	e8 17 ee ff ff       	callq  4015a0 <fopen@plt>
  402789:	49 89 c7             	mov    %rax,%r15
  40278c:	48 8d bc 24 f0 03 00 	lea    0x3f0(%rsp),%rdi
  402793:	00 
  402794:	be e8 03 00 00       	mov    $0x3e8,%esi
  402799:	4c 89 fa             	mov    %r15,%rdx
  40279c:	e8 9f ee ff ff       	callq  401640 <fgets@plt>
  4027a1:	48 8d bc 24 f0 03 00 	lea    0x3f0(%rsp),%rdi
  4027a8:	00 
  4027a9:	be e8 03 00 00       	mov    $0x3e8,%esi
  4027ae:	4c 89 fa             	mov    %r15,%rdx
  4027b1:	e8 8a ee ff ff       	callq  401640 <fgets@plt>
  4027b6:	4c 89 ff             	mov    %r15,%rdi
  4027b9:	be 98 e5 40 00       	mov    $0x40e598,%esi
  4027be:	48 8d 94 24 00 09 00 	lea    0x900(%rsp),%rdx
  4027c5:	00 
  4027c6:	48 8d 8c 24 04 09 00 	lea    0x904(%rsp),%rcx
  4027cd:	00 
  4027ce:	4c 8d 84 24 ac 08 00 	lea    0x8ac(%rsp),%r8
  4027d5:	00 
  4027d6:	31 c0                	xor    %eax,%eax
  4027d8:	e8 13 ef ff ff       	callq  4016f0 <fscanf@plt>
  4027dd:	8b 84 24 00 09 00 00 	mov    0x900(%rsp),%eax
  4027e4:	89 84 24 08 09 00 00 	mov    %eax,0x908(%rsp)
  4027eb:	8b 94 24 04 09 00 00 	mov    0x904(%rsp),%edx
  4027f2:	be 40 00 00 00       	mov    $0x40,%esi
  4027f7:	48 8d bc 24 10 09 00 	lea    0x910(%rsp),%rdi
  4027fe:	00 
  4027ff:	0f af d0             	imul   %eax,%edx
  402802:	48 63 d2             	movslq %edx,%rdx
  402805:	48 c1 e2 03          	shl    $0x3,%rdx
  402809:	e8 d2 ec ff ff       	callq  4014e0 <posix_memalign@plt>
  40280e:	8b 8c 24 04 09 00 00 	mov    0x904(%rsp),%ecx
  402815:	31 c0                	xor    %eax,%eax
  402817:	85 c9                	test   %ecx,%ecx
  402819:	0f 8e a4 01 00 00    	jle    4029c3 <main+0x11a3>
  40281f:	44 8b ac 24 00 09 00 	mov    0x900(%rsp),%r13d
  402826:	00 
  402827:	4c 89 3c 24          	mov    %r15,(%rsp)
  40282b:	bb 08 00 00 00       	mov    $0x8,%ebx
  402830:	62 f1 ed 48 ef d2    	vpxorq %zmm2,%zmm2,%zmm2
  402836:	41 89 c7             	mov    %eax,%r15d
  402839:	48 8b b4 24 10 09 00 	mov    0x910(%rsp),%rsi
  402840:	00 
  402841:	c5 f9 6e cb          	vmovd  %ebx,%xmm1
  402845:	31 db                	xor    %ebx,%ebx
  402847:	4d 63 d5             	movslq %r13d,%r10
  40284a:	45 89 e8             	mov    %r13d,%r8d
  40284d:	4c 63 b4 24 08 09 00 	movslq 0x908(%rsp),%r14
  402854:	00 
  402855:	41 83 e0 f8          	and    $0xfffffff8,%r8d
  402859:	4e 8d 1c d5 00 00 00 	lea    0x0(,%r10,8),%r11
  402860:	00 
  402861:	4c 89 9c 24 18 08 00 	mov    %r11,0x818(%rsp)
  402868:	00 
  402869:	c5 fe 6f 05 8f bc 00 	vmovdqu 0xbc8f(%rip),%ymm0        # 40e500 <_IO_stdin_used+0xc0>
  402870:	00 
  402871:	49 89 f4             	mov    %rsi,%r12
  402874:	c4 e2 7d 58 c9       	vpbroadcastd %xmm1,%ymm1
  402879:	4d 63 c8             	movslq %r8d,%r9
  40287c:	45 85 ed             	test   %r13d,%r13d
  40287f:	0f 8e 26 01 00 00    	jle    4029ab <main+0x118b>
  402885:	41 83 fd 0c          	cmp    $0xc,%r13d
  402889:	0f 8e 9f 00 00 00    	jle    40292e <main+0x110e>
  40288f:	c5 fe 7f 8c 24 e0 07 	vmovdqu %ymm1,0x7e0(%rsp)
  402896:	00 00 
  402898:	4c 89 94 24 d8 07 00 	mov    %r10,0x7d8(%rsp)
  40289f:	00 
  4028a0:	4c 89 8c 24 00 08 00 	mov    %r9,0x800(%rsp)
  4028a7:	00 
  4028a8:	44 89 84 24 08 08 00 	mov    %r8d,0x808(%rsp)
  4028af:	00 
  4028b0:	48 89 b4 24 10 08 00 	mov    %rsi,0x810(%rsp)
  4028b7:	00 
  4028b8:	89 8c 24 40 08 00 00 	mov    %ecx,0x840(%rsp)
  4028bf:	4c 89 e7             	mov    %r12,%rdi
  4028c2:	31 f6                	xor    %esi,%esi
  4028c4:	48 8b 94 24 18 08 00 	mov    0x818(%rsp),%rdx
  4028cb:	00 
  4028cc:	e8 af 8a 00 00       	callq  40b380 <__intel_mic_avx512f_memset>
  4028d1:	41 83 c7 01          	add    $0x1,%r15d
  4028d5:	4c 01 f3             	add    %r14,%rbx
  4028d8:	4f 8d 24 f4          	lea    (%r12,%r14,8),%r12
  4028dc:	44 3b bc 24 40 08 00 	cmp    0x840(%rsp),%r15d
  4028e3:	00 
  4028e4:	0f 83 d5 00 00 00    	jae    4029bf <main+0x119f>
  4028ea:	41 83 fd 0c          	cmp    $0xc,%r13d
  4028ee:	7f cf                	jg     4028bf <main+0x109f>
  4028f0:	c5 fe 6f 05 08 bc 00 	vmovdqu 0xbc08(%rip),%ymm0        # 40e500 <_IO_stdin_used+0xc0>
  4028f7:	00 
  4028f8:	c5 fe 6f 8c 24 e0 07 	vmovdqu 0x7e0(%rsp),%ymm1
  4028ff:	00 00 
  402901:	62 f1 ed 48 ef d2    	vpxorq %zmm2,%zmm2,%zmm2
  402907:	4c 8b 94 24 d8 07 00 	mov    0x7d8(%rsp),%r10
  40290e:	00 
  40290f:	4c 8b 8c 24 00 08 00 	mov    0x800(%rsp),%r9
  402916:	00 
  402917:	44 8b 84 24 08 08 00 	mov    0x808(%rsp),%r8d
  40291e:	00 
  40291f:	48 8b b4 24 10 08 00 	mov    0x810(%rsp),%rsi
  402926:	00 
  402927:	8b 8c 24 40 08 00 00 	mov    0x840(%rsp),%ecx
  40292e:	41 83 fd 08          	cmp    $0x8,%r13d
  402932:	0f 8c 5f 0e 00 00    	jl     403797 <LOOP_TOP_0_1+0x4f8>
  402938:	44 89 c0             	mov    %r8d,%eax
  40293b:	45 31 db             	xor    %r11d,%r11d
  40293e:	48 8d 14 de          	lea    (%rsi,%rbx,8),%rdx
  402942:	62 b1 fd 48 11 14 da 	vmovupd %zmm2,(%rdx,%r11,8)
  402949:	49 83 c3 08          	add    $0x8,%r11
  40294d:	4d 39 cb             	cmp    %r9,%r11
  402950:	72 f0                	jb     402942 <main+0x1122>
  402952:	8d 50 01             	lea    0x1(%rax),%edx
  402955:	44 39 ea             	cmp    %r13d,%edx
  402958:	77 51                	ja     4029ab <main+0x118b>
  40295a:	45 89 eb             	mov    %r13d,%r11d
  40295d:	ba ff 00 00 00       	mov    $0xff,%edx
  402962:	c5 fd 6f e0          	vmovdqa %ymm0,%ymm4
  402966:	41 29 c3             	sub    %eax,%r11d
  402969:	48 63 c0             	movslq %eax,%rax
  40296c:	c4 c1 79 6e db       	vmovd  %r11d,%xmm3
  402971:	4c 8d 1c 03          	lea    (%rbx,%rax,1),%r11
  402975:	48 f7 d8             	neg    %rax
  402978:	c5 f8 92 ca          	kmovw  %edx,%k1
  40297c:	c4 e2 7d 58 db       	vpbroadcastd %xmm3,%ymm3
  402981:	31 d2                	xor    %edx,%edx
  402983:	4a 8d 3c de          	lea    (%rsi,%r11,8),%rdi
  402987:	4c 01 d0             	add    %r10,%rax
  40298a:	45 31 db             	xor    %r11d,%r11d
  40298d:	48 83 c2 08          	add    $0x8,%rdx
  402991:	62 f1 65 49 66 d4    	vpcmpgtd %zmm4,%zmm3,%k2{%k1}
  402997:	62 d1 fd 4a 11 14 3b 	vmovupd %zmm2,(%r11,%rdi,1){%k2}
  40299e:	49 83 c3 40          	add    $0x40,%r11
  4029a2:	c5 dd fe e1          	vpaddd %ymm1,%ymm4,%ymm4
  4029a6:	48 39 c2             	cmp    %rax,%rdx
  4029a9:	72 e2                	jb     40298d <main+0x116d>
  4029ab:	41 83 c7 01          	add    $0x1,%r15d
  4029af:	4c 01 f3             	add    %r14,%rbx
  4029b2:	4f 8d 24 f4          	lea    (%r12,%r14,8),%r12
  4029b6:	41 39 cf             	cmp    %ecx,%r15d
  4029b9:	0f 82 bd fe ff ff    	jb     40287c <main+0x105c>
  4029bf:	4c 8b 3c 24          	mov    (%rsp),%r15
  4029c3:	31 db                	xor    %ebx,%ebx
  4029c5:	83 bc 24 ac 08 00 00 	cmpl   $0x0,0x8ac(%rsp)
  4029cc:	00 
  4029cd:	7e 64                	jle    402a33 <main+0x1213>
  4029cf:	4c 89 ff             	mov    %r15,%rdi
  4029d2:	be a4 e5 40 00       	mov    $0x40e5a4,%esi
  4029d7:	48 8d 94 24 b0 08 00 	lea    0x8b0(%rsp),%rdx
  4029de:	00 
  4029df:	48 8d 8c 24 b4 08 00 	lea    0x8b4(%rsp),%rcx
  4029e6:	00 
  4029e7:	4c 8d 84 24 88 08 00 	lea    0x888(%rsp),%r8
  4029ee:	00 
  4029ef:	31 c0                	xor    %eax,%eax
  4029f1:	e8 fa ec ff ff       	callq  4016f0 <fscanf@plt>
  4029f6:	8b 84 24 b4 08 00 00 	mov    0x8b4(%rsp),%eax
  4029fd:	48 8b 8c 24 88 08 00 	mov    0x888(%rsp),%rcx
  402a04:	00 
  402a05:	83 c3 01             	add    $0x1,%ebx
  402a08:	83 c0 ff             	add    $0xffffffff,%eax
  402a0b:	48 8b b4 24 10 09 00 	mov    0x910(%rsp),%rsi
  402a12:	00 
  402a13:	0f af 84 24 08 09 00 	imul   0x908(%rsp),%eax
  402a1a:	00 
  402a1b:	03 84 24 b0 08 00 00 	add    0x8b0(%rsp),%eax
  402a22:	48 63 c0             	movslq %eax,%rax
  402a25:	48 89 4c c6 f8       	mov    %rcx,-0x8(%rsi,%rax,8)
  402a2a:	3b 9c 24 ac 08 00 00 	cmp    0x8ac(%rsp),%ebx
  402a31:	7c 9c                	jl     4029cf <main+0x11af>
  402a33:	4c 89 ff             	mov    %r15,%rdi
  402a36:	e8 05 eb ff ff       	callq  401540 <fclose@plt>
  402a3b:	ba 10 00 00 00       	mov    $0x10,%edx
  402a40:	48 8d bc 24 78 08 00 	lea    0x878(%rsp),%rdi
  402a47:	00 
  402a48:	48 8d b4 24 f8 08 00 	lea    0x8f8(%rsp),%rsi
  402a4f:	00 
  402a50:	89 d1                	mov    %edx,%ecx
  402a52:	e8 e9 10 00 00       	callq  403b40 <_Z7to_bcscRK6Matrixii..0>
  402a57:	b8 20 00 00 00       	mov    $0x20,%eax
  402a5c:	48 c7 84 24 18 09 00 	movq   $0x611220,0x918(%rsp)
  402a63:	00 20 12 61 00 
  402a68:	48 8d bc 24 30 09 00 	lea    0x930(%rsp),%rdi
  402a6f:	00 
  402a70:	89 84 24 28 09 00 00 	mov    %eax,0x928(%rsp)
  402a77:	be 40 00 00 00       	mov    $0x40,%esi
  402a7c:	89 84 24 20 09 00 00 	mov    %eax,0x920(%rsp)
  402a83:	ba 00 20 00 00       	mov    $0x2000,%edx
  402a88:	89 84 24 24 09 00 00 	mov    %eax,0x924(%rsp)
  402a8f:	e8 4c ea ff ff       	callq  4014e0 <posix_memalign@plt>
  402a94:	44 8b 94 24 24 09 00 	mov    0x924(%rsp),%r10d
  402a9b:	00 
  402a9c:	45 31 e4             	xor    %r12d,%r12d
  402a9f:	45 85 d2             	test   %r10d,%r10d
  402aa2:	0f 8e 93 01 00 00    	jle    402c3b <main+0x141b>
  402aa8:	44 8b ac 24 20 09 00 	mov    0x920(%rsp),%r13d
  402aaf:	00 
  402ab0:	4c 8b 8c 24 30 09 00 	mov    0x930(%rsp),%r9
  402ab7:	00 
  402ab8:	b8 08 00 00 00       	mov    $0x8,%eax
  402abd:	62 f1 ed 48 ef d2    	vpxorq %zmm2,%zmm2,%zmm2
  402ac3:	31 db                	xor    %ebx,%ebx
  402ac5:	c5 f9 6e c8          	vmovd  %eax,%xmm1
  402ac9:	49 63 cd             	movslq %r13d,%rcx
  402acc:	45 89 e8             	mov    %r13d,%r8d
  402acf:	4c 63 bc 24 28 09 00 	movslq 0x928(%rsp),%r15
  402ad6:	00 
  402ad7:	c5 fe 6f 05 21 ba 00 	vmovdqu 0xba21(%rip),%ymm0        # 40e500 <_IO_stdin_used+0xc0>
  402ade:	00 
  402adf:	41 83 e0 f8          	and    $0xfffffff8,%r8d
  402ae3:	4d 89 ce             	mov    %r9,%r14
  402ae6:	48 8d 04 cd 00 00 00 	lea    0x0(,%rcx,8),%rax
  402aed:	00 
  402aee:	48 89 84 24 10 08 00 	mov    %rax,0x810(%rsp)
  402af5:	00 
  402af6:	c4 e2 7d 58 c9       	vpbroadcastd %xmm1,%ymm1
  402afb:	49 63 f0             	movslq %r8d,%rsi
  402afe:	45 85 ed             	test   %r13d,%r13d
  402b01:	0f 8e 20 01 00 00    	jle    402c27 <main+0x1407>
  402b07:	41 83 fd 0c          	cmp    $0xc,%r13d
  402b0b:	0f 8e 99 00 00 00    	jle    402baa <main+0x138a>
  402b11:	c5 fe 7f 8c 24 e0 07 	vmovdqu %ymm1,0x7e0(%rsp)
  402b18:	00 00 
  402b1a:	48 89 0c 24          	mov    %rcx,(%rsp)
  402b1e:	48 89 b4 24 d8 07 00 	mov    %rsi,0x7d8(%rsp)
  402b25:	00 
  402b26:	44 89 84 24 00 08 00 	mov    %r8d,0x800(%rsp)
  402b2d:	00 
  402b2e:	4c 89 8c 24 08 08 00 	mov    %r9,0x808(%rsp)
  402b35:	00 
  402b36:	44 89 94 24 18 08 00 	mov    %r10d,0x818(%rsp)
  402b3d:	00 
  402b3e:	4c 89 f7             	mov    %r14,%rdi
  402b41:	31 f6                	xor    %esi,%esi
  402b43:	48 8b 94 24 10 08 00 	mov    0x810(%rsp),%rdx
  402b4a:	00 
  402b4b:	e8 30 88 00 00       	callq  40b380 <__intel_mic_avx512f_memset>
  402b50:	41 83 c4 01          	add    $0x1,%r12d
  402b54:	4c 01 fb             	add    %r15,%rbx
  402b57:	4f 8d 34 fe          	lea    (%r14,%r15,8),%r14
  402b5b:	44 3b a4 24 18 08 00 	cmp    0x818(%rsp),%r12d
  402b62:	00 
  402b63:	0f 83 d2 00 00 00    	jae    402c3b <main+0x141b>
  402b69:	41 83 fd 0c          	cmp    $0xc,%r13d
  402b6d:	7f cf                	jg     402b3e <main+0x131e>
  402b6f:	c5 fe 6f 05 89 b9 00 	vmovdqu 0xb989(%rip),%ymm0        # 40e500 <_IO_stdin_used+0xc0>
  402b76:	00 
  402b77:	c5 fe 6f 8c 24 e0 07 	vmovdqu 0x7e0(%rsp),%ymm1
  402b7e:	00 00 
  402b80:	62 f1 ed 48 ef d2    	vpxorq %zmm2,%zmm2,%zmm2
  402b86:	48 8b b4 24 d8 07 00 	mov    0x7d8(%rsp),%rsi
  402b8d:	00 
  402b8e:	44 8b 84 24 00 08 00 	mov    0x800(%rsp),%r8d
  402b95:	00 
  402b96:	4c 8b 8c 24 08 08 00 	mov    0x808(%rsp),%r9
  402b9d:	00 
  402b9e:	44 8b 94 24 18 08 00 	mov    0x818(%rsp),%r10d
  402ba5:	00 
  402ba6:	48 8b 0c 24          	mov    (%rsp),%rcx
  402baa:	41 83 fd 08          	cmp    $0x8,%r13d
  402bae:	0f 8c d6 0b 00 00    	jl     40378a <LOOP_TOP_0_1+0x4eb>
  402bb4:	44 89 c0             	mov    %r8d,%eax
  402bb7:	45 31 db             	xor    %r11d,%r11d
  402bba:	49 8d 14 d9          	lea    (%r9,%rbx,8),%rdx
  402bbe:	62 b1 fd 48 11 14 da 	vmovupd %zmm2,(%rdx,%r11,8)
  402bc5:	49 83 c3 08          	add    $0x8,%r11
  402bc9:	49 39 f3             	cmp    %rsi,%r11
  402bcc:	72 f0                	jb     402bbe <main+0x139e>
  402bce:	8d 50 01             	lea    0x1(%rax),%edx
  402bd1:	44 39 ea             	cmp    %r13d,%edx
  402bd4:	77 51                	ja     402c27 <main+0x1407>
  402bd6:	45 89 eb             	mov    %r13d,%r11d
  402bd9:	ba ff 00 00 00       	mov    $0xff,%edx
  402bde:	c5 fd 6f e0          	vmovdqa %ymm0,%ymm4
  402be2:	41 29 c3             	sub    %eax,%r11d
  402be5:	48 63 c0             	movslq %eax,%rax
  402be8:	c4 c1 79 6e db       	vmovd  %r11d,%xmm3
  402bed:	4c 8d 1c 03          	lea    (%rbx,%rax,1),%r11
  402bf1:	48 f7 d8             	neg    %rax
  402bf4:	c5 f8 92 ca          	kmovw  %edx,%k1
  402bf8:	c4 e2 7d 58 db       	vpbroadcastd %xmm3,%ymm3
  402bfd:	31 d2                	xor    %edx,%edx
  402bff:	4b 8d 3c d9          	lea    (%r9,%r11,8),%rdi
  402c03:	48 01 c8             	add    %rcx,%rax
  402c06:	45 31 db             	xor    %r11d,%r11d
  402c09:	48 83 c2 08          	add    $0x8,%rdx
  402c0d:	62 f1 65 49 66 d4    	vpcmpgtd %zmm4,%zmm3,%k2{%k1}
  402c13:	62 d1 fd 4a 11 14 3b 	vmovupd %zmm2,(%r11,%rdi,1){%k2}
  402c1a:	49 83 c3 40          	add    $0x40,%r11
  402c1e:	c5 dd fe e1          	vpaddd %ymm1,%ymm4,%ymm4
  402c22:	48 39 c2             	cmp    %rax,%rdx
  402c25:	72 e2                	jb     402c09 <main+0x13e9>
  402c27:	41 83 c4 01          	add    $0x1,%r12d
  402c2b:	4c 01 fb             	add    %r15,%rbx
  402c2e:	4f 8d 34 fe          	lea    (%r14,%r15,8),%r14
  402c32:	45 39 d4             	cmp    %r10d,%r12d
  402c35:	0f 82 c3 fe ff ff    	jb     402afe <main+0x12de>
  402c3b:	b8 20 00 00 00       	mov    $0x20,%eax
  402c40:	48 c7 84 24 00 08 00 	movq   $0x611220,0x800(%rsp)
  402c47:	00 20 12 61 00 
  402c4c:	48 8d bc 24 18 08 00 	lea    0x818(%rsp),%rdi
  402c53:	00 
  402c54:	89 84 24 10 08 00 00 	mov    %eax,0x810(%rsp)
  402c5b:	be 40 00 00 00       	mov    $0x40,%esi
  402c60:	89 84 24 08 08 00 00 	mov    %eax,0x808(%rsp)
  402c67:	ba 00 20 00 00       	mov    $0x2000,%edx
  402c6c:	89 84 24 0c 08 00 00 	mov    %eax,0x80c(%rsp)
  402c73:	e8 68 e8 ff ff       	callq  4014e0 <posix_memalign@plt>
  402c78:	44 8b 8c 24 0c 08 00 	mov    0x80c(%rsp),%r9d
  402c7f:	00 
  402c80:	45 31 e4             	xor    %r12d,%r12d
  402c83:	45 85 c9             	test   %r9d,%r9d
  402c86:	0f 8e 8f 01 00 00    	jle    402e1b <main+0x15fb>
  402c8c:	44 8b ac 24 08 08 00 	mov    0x808(%rsp),%r13d
  402c93:	00 
  402c94:	4c 8b 84 24 18 08 00 	mov    0x818(%rsp),%r8
  402c9b:	00 
  402c9c:	b8 08 00 00 00       	mov    $0x8,%eax
  402ca1:	62 f1 ed 48 ef d2    	vpxorq %zmm2,%zmm2,%zmm2
  402ca7:	31 db                	xor    %ebx,%ebx
  402ca9:	c5 f9 6e c8          	vmovd  %eax,%xmm1
  402cad:	49 63 cd             	movslq %r13d,%rcx
  402cb0:	44 89 ee             	mov    %r13d,%esi
  402cb3:	4c 63 bc 24 10 08 00 	movslq 0x810(%rsp),%r15
  402cba:	00 
  402cbb:	c5 fe 6f 05 3d b8 00 	vmovdqu 0xb83d(%rip),%ymm0        # 40e500 <_IO_stdin_used+0xc0>
  402cc2:	00 
  402cc3:	83 e6 f8             	and    $0xfffffff8,%esi
  402cc6:	4d 89 c6             	mov    %r8,%r14
  402cc9:	48 8d 04 cd 00 00 00 	lea    0x0(,%rcx,8),%rax
  402cd0:	00 
  402cd1:	48 89 84 24 90 08 00 	mov    %rax,0x890(%rsp)
  402cd8:	00 
  402cd9:	4c 63 d6             	movslq %esi,%r10
  402cdc:	c4 e2 7d 58 c9       	vpbroadcastd %xmm1,%ymm1
  402ce1:	45 85 ed             	test   %r13d,%r13d
  402ce4:	0f 8e 1d 01 00 00    	jle    402e07 <main+0x15e7>
  402cea:	41 83 fd 0c          	cmp    $0xc,%r13d
  402cee:	0f 8e 97 00 00 00    	jle    402d8b <main+0x156b>
  402cf4:	c5 fe 7f 8c 24 e0 07 	vmovdqu %ymm1,0x7e0(%rsp)
  402cfb:	00 00 
  402cfd:	48 89 0c 24          	mov    %rcx,(%rsp)
  402d01:	4c 89 94 24 d8 07 00 	mov    %r10,0x7d8(%rsp)
  402d08:	00 
  402d09:	89 b4 24 40 08 00 00 	mov    %esi,0x840(%rsp)
  402d10:	4c 89 84 24 48 08 00 	mov    %r8,0x848(%rsp)
  402d17:	00 
  402d18:	44 89 8c 24 98 08 00 	mov    %r9d,0x898(%rsp)
  402d1f:	00 
  402d20:	4c 89 f7             	mov    %r14,%rdi
  402d23:	31 f6                	xor    %esi,%esi
  402d25:	48 8b 94 24 90 08 00 	mov    0x890(%rsp),%rdx
  402d2c:	00 
  402d2d:	e8 4e 86 00 00       	callq  40b380 <__intel_mic_avx512f_memset>
  402d32:	41 83 c4 01          	add    $0x1,%r12d
  402d36:	4c 01 fb             	add    %r15,%rbx
  402d39:	4f 8d 34 fe          	lea    (%r14,%r15,8),%r14
  402d3d:	44 3b a4 24 98 08 00 	cmp    0x898(%rsp),%r12d
  402d44:	00 
  402d45:	0f 83 d0 00 00 00    	jae    402e1b <main+0x15fb>
  402d4b:	41 83 fd 0c          	cmp    $0xc,%r13d
  402d4f:	7f cf                	jg     402d20 <main+0x1500>
  402d51:	c5 fe 6f 05 a7 b7 00 	vmovdqu 0xb7a7(%rip),%ymm0        # 40e500 <_IO_stdin_used+0xc0>
  402d58:	00 
  402d59:	c5 fe 6f 8c 24 e0 07 	vmovdqu 0x7e0(%rsp),%ymm1
  402d60:	00 00 
  402d62:	62 f1 ed 48 ef d2    	vpxorq %zmm2,%zmm2,%zmm2
  402d68:	4c 8b 94 24 d8 07 00 	mov    0x7d8(%rsp),%r10
  402d6f:	00 
  402d70:	48 8b 0c 24          	mov    (%rsp),%rcx
  402d74:	8b b4 24 40 08 00 00 	mov    0x840(%rsp),%esi
  402d7b:	4c 8b 84 24 48 08 00 	mov    0x848(%rsp),%r8
  402d82:	00 
  402d83:	44 8b 8c 24 98 08 00 	mov    0x898(%rsp),%r9d
  402d8a:	00 
  402d8b:	41 83 fd 08          	cmp    $0x8,%r13d
  402d8f:	0f 8c ee 09 00 00    	jl     403783 <LOOP_TOP_0_1+0x4e4>
  402d95:	89 f0                	mov    %esi,%eax
  402d97:	45 31 db             	xor    %r11d,%r11d
  402d9a:	49 8d 14 d8          	lea    (%r8,%rbx,8),%rdx
  402d9e:	62 b1 fd 48 11 14 da 	vmovupd %zmm2,(%rdx,%r11,8)
  402da5:	49 83 c3 08          	add    $0x8,%r11
  402da9:	4d 39 d3             	cmp    %r10,%r11
  402dac:	72 f0                	jb     402d9e <main+0x157e>
  402dae:	8d 50 01             	lea    0x1(%rax),%edx
  402db1:	44 39 ea             	cmp    %r13d,%edx
  402db4:	77 51                	ja     402e07 <main+0x15e7>
  402db6:	45 89 eb             	mov    %r13d,%r11d
  402db9:	ba ff 00 00 00       	mov    $0xff,%edx
  402dbe:	c5 fd 6f e0          	vmovdqa %ymm0,%ymm4
  402dc2:	41 29 c3             	sub    %eax,%r11d
  402dc5:	48 63 c0             	movslq %eax,%rax
  402dc8:	c4 c1 79 6e db       	vmovd  %r11d,%xmm3
  402dcd:	4c 8d 1c 03          	lea    (%rbx,%rax,1),%r11
  402dd1:	48 f7 d8             	neg    %rax
  402dd4:	c5 f8 92 ca          	kmovw  %edx,%k1
  402dd8:	c4 e2 7d 58 db       	vpbroadcastd %xmm3,%ymm3
  402ddd:	31 d2                	xor    %edx,%edx
  402ddf:	4b 8d 3c d8          	lea    (%r8,%r11,8),%rdi
  402de3:	48 01 c8             	add    %rcx,%rax
  402de6:	45 31 db             	xor    %r11d,%r11d
  402de9:	48 83 c2 08          	add    $0x8,%rdx
  402ded:	62 f1 65 49 66 d4    	vpcmpgtd %zmm4,%zmm3,%k2{%k1}
  402df3:	62 d1 fd 4a 11 14 3b 	vmovupd %zmm2,(%r11,%rdi,1){%k2}
  402dfa:	49 83 c3 40          	add    $0x40,%r11
  402dfe:	c5 dd fe e1          	vpaddd %ymm1,%ymm4,%ymm4
  402e02:	48 39 c2             	cmp    %rax,%rdx
  402e05:	72 e2                	jb     402de9 <main+0x15c9>
  402e07:	41 83 c4 01          	add    $0x1,%r12d
  402e0b:	4c 01 fb             	add    %r15,%rbx
  402e0e:	4f 8d 34 fe          	lea    (%r14,%r15,8),%r14
  402e12:	45 39 cc             	cmp    %r9d,%r12d
  402e15:	0f 82 c6 fe ff ff    	jb     402ce1 <main+0x14c1>
  402e1b:	8b 84 24 24 09 00 00 	mov    0x924(%rsp),%eax
  402e22:	89 04 24             	mov    %eax,(%rsp)
  402e25:	44 8b ac 24 20 09 00 	mov    0x920(%rsp),%r13d
  402e2c:	00 
  402e2d:	45 31 ff             	xor    %r15d,%r15d
  402e30:	44 8b b4 24 e4 08 00 	mov    0x8e4(%rsp),%r14d
  402e37:	00 
  402e38:	85 c0                	test   %eax,%eax
  402e3a:	0f 8e c6 00 00 00    	jle    402f06 <main+0x16e6>
  402e40:	31 db                	xor    %ebx,%ebx
  402e42:	45 85 f6             	test   %r14d,%r14d
  402e45:	0f 8e ad 00 00 00    	jle    402ef8 <main+0x16d8>
  402e4b:	45 31 e4             	xor    %r12d,%r12d
  402e4e:	45 85 ed             	test   %r13d,%r13d
  402e51:	0f 8e 95 00 00 00    	jle    402eec <main+0x16cc>
  402e57:	48 8b 84 24 18 09 00 	mov    0x918(%rsp),%rax
  402e5e:	00 
  402e5f:	48 8d bc 24 18 09 00 	lea    0x918(%rsp),%rdi
  402e66:	00 
  402e67:	44 89 e6             	mov    %r12d,%esi
  402e6a:	44 89 fa             	mov    %r15d,%edx
  402e6d:	ff 10                	callq  *(%rax)
  402e6f:	c5 fb 11 84 24 e0 07 	vmovsd %xmm0,0x7e0(%rsp)
  402e76:	00 00 
  402e78:	48 8b 84 24 d8 08 00 	mov    0x8d8(%rsp),%rax
  402e7f:	00 
  402e80:	48 8d bc 24 d8 08 00 	lea    0x8d8(%rsp),%rdi
  402e87:	00 
  402e88:	44 89 e6             	mov    %r12d,%esi
  402e8b:	89 da                	mov    %ebx,%edx
  402e8d:	ff 10                	callq  *(%rax)
  402e8f:	c5 fb 11 84 24 d8 07 	vmovsd %xmm0,0x7d8(%rsp)
  402e96:	00 00 
  402e98:	48 8b 84 24 f8 08 00 	mov    0x8f8(%rsp),%rax
  402e9f:	00 
  402ea0:	48 8d bc 24 f8 08 00 	lea    0x8f8(%rsp),%rdi
  402ea7:	00 
  402ea8:	89 de                	mov    %ebx,%esi
  402eaa:	44 89 fa             	mov    %r15d,%edx
  402ead:	ff 10                	callq  *(%rax)
  402eaf:	c5 f9 28 c8          	vmovapd %xmm0,%xmm1
  402eb3:	c5 fb 10 84 24 e0 07 	vmovsd 0x7e0(%rsp),%xmm0
  402eba:	00 00 
  402ebc:	48 8b 84 24 18 09 00 	mov    0x918(%rsp),%rax
  402ec3:	00 
  402ec4:	44 89 e6             	mov    %r12d,%esi
  402ec7:	44 89 fa             	mov    %r15d,%edx
  402eca:	48 8d bc 24 18 09 00 	lea    0x918(%rsp),%rdi
  402ed1:	00 
  402ed2:	c4 e2 f1 b9 84 24 d8 	vfmadd231sd 0x7d8(%rsp),%xmm1,%xmm0
  402ed9:	07 00 00 
  402edc:	ff 50 08             	callq  *0x8(%rax)
  402edf:	41 83 c4 01          	add    $0x1,%r12d
  402ee3:	45 39 ec             	cmp    %r13d,%r12d
  402ee6:	0f 8c 6b ff ff ff    	jl     402e57 <main+0x1637>
  402eec:	83 c3 01             	add    $0x1,%ebx
  402eef:	44 39 f3             	cmp    %r14d,%ebx
  402ef2:	0f 8c 53 ff ff ff    	jl     402e4b <main+0x162b>
  402ef8:	41 83 c7 01          	add    $0x1,%r15d
  402efc:	44 3b 3c 24          	cmp    (%rsp),%r15d
  402f00:	0f 8c 3a ff ff ff    	jl     402e40 <main+0x1620>
  402f06:	48 8b 94 24 78 08 00 	mov    0x878(%rsp),%rdx
  402f0d:	00 
  402f0e:	48 8b 84 24 f0 08 00 	mov    0x8f0(%rsp),%rax
  402f15:	00 
  402f16:	48 89 04 24          	mov    %rax,(%rsp)
  402f1a:	48 8b 4a 18          	mov    0x18(%rdx),%rcx
  402f1e:	48 89 8c 24 d8 07 00 	mov    %rcx,0x7d8(%rsp)
  402f25:	00 
  402f26:	48 8b 9c 24 18 08 00 	mov    0x818(%rsp),%rbx
  402f2d:	00 
  402f2e:	48 89 9c 24 e0 07 00 	mov    %rbx,0x7e0(%rsp)
  402f35:	00 
  402f36:	48 8d b4 24 00 08 00 	lea    0x800(%rsp),%rsi
  402f3d:	00 
  402f3e:	48 8b 3c 24          	mov    (%rsp),%rdi
  402f42:	48 8b b4 24 d8 07 00 	mov    0x7d8(%rsp),%rsi
  402f49:	00 
  402f4a:	48 8b 94 24 e0 07 00 	mov    0x7e0(%rsp),%rdx
  402f51:	00 
  402f52:	49 c7 c4 00 00 00 00 	mov    $0x0,%r12

0000000000402f59 <LOOP_TOP_0_0>:
  402f59:	62 e1 fd 48 28 02    	vmovapd (%rdx),%zmm16
  402f5f:	62 e1 fd 48 28 4a 04 	vmovapd 0x100(%rdx),%zmm17
  402f66:	62 e1 fd 48 28 52 08 	vmovapd 0x200(%rdx),%zmm18
  402f6d:	62 e1 fd 48 28 5a 0c 	vmovapd 0x300(%rdx),%zmm19
  402f74:	62 e1 fd 48 28 62 10 	vmovapd 0x400(%rdx),%zmm20
  402f7b:	62 e1 fd 48 28 6a 14 	vmovapd 0x500(%rdx),%zmm21
  402f82:	62 e1 fd 48 28 72 18 	vmovapd 0x600(%rdx),%zmm22
  402f89:	62 e1 fd 48 28 7a 1c 	vmovapd 0x700(%rdx),%zmm23
  402f90:	62 61 fd 48 28 42 20 	vmovapd 0x800(%rdx),%zmm24
  402f97:	62 61 fd 48 28 4a 24 	vmovapd 0x900(%rdx),%zmm25
  402f9e:	62 61 fd 48 28 52 28 	vmovapd 0xa00(%rdx),%zmm26
  402fa5:	62 61 fd 48 28 5a 2c 	vmovapd 0xb00(%rdx),%zmm27
  402fac:	62 61 fd 48 28 62 30 	vmovapd 0xc00(%rdx),%zmm28
  402fb3:	62 61 fd 48 28 6a 34 	vmovapd 0xd00(%rdx),%zmm29
  402fba:	62 61 fd 48 28 72 38 	vmovapd 0xe00(%rdx),%zmm30
  402fc1:	62 61 fd 48 28 7a 3c 	vmovapd 0xf00(%rdx),%zmm31
  402fc8:	62 f1 fd 48 28 8f 00 	vmovapd 0x2100(%rdi),%zmm1
  402fcf:	21 00 00 
  402fd2:	62 f1 fd 48 28 97 00 	vmovapd 0x2200(%rdi),%zmm2
  402fd9:	22 00 00 
  402fdc:	62 f1 fd 48 28 af 00 	vmovapd 0x2500(%rdi),%zmm5
  402fe3:	25 00 00 
  402fe6:	62 71 fd 48 28 9f 00 	vmovapd 0x2b00(%rdi),%zmm11
  402fed:	2b 00 00 
  402ff0:	62 71 fd 48 28 a7 00 	vmovapd 0x2c00(%rdi),%zmm12
  402ff7:	2c 00 00 
  402ffa:	62 71 fd 48 28 af 00 	vmovapd 0x2d00(%rdi),%zmm13
  403001:	2d 00 00 
  403004:	62 71 fd 48 28 b7 00 	vmovapd 0x2e00(%rdi),%zmm14
  40300b:	2e 00 00 
  40300e:	62 e2 f5 58 b8 6e 03 	vfmadd231pd 0x18(%rsi){1to8},%zmm1,%zmm21
  403015:	62 e2 f5 58 b8 7e 05 	vfmadd231pd 0x28(%rsi){1to8},%zmm1,%zmm23
  40301c:	62 62 f5 58 b8 66 07 	vfmadd231pd 0x38(%rsi){1to8},%zmm1,%zmm28
  403023:	62 62 ed 58 b8 76 08 	vfmadd231pd 0x40(%rsi){1to8},%zmm2,%zmm30
  40302a:	62 62 d5 58 b8 7e 09 	vfmadd231pd 0x48(%rsi){1to8},%zmm5,%zmm31
  403031:	62 e2 a5 58 b8 06    	vfmadd231pd (%rsi){1to8},%zmm11,%zmm16
  403037:	62 e2 9d 58 b8 4e 01 	vfmadd231pd 0x8(%rsi){1to8},%zmm12,%zmm17
  40303e:	62 e2 95 58 b8 6e 04 	vfmadd231pd 0x20(%rsi){1to8},%zmm13,%zmm21
  403045:	62 62 95 58 b8 4e 06 	vfmadd231pd 0x30(%rsi){1to8},%zmm13,%zmm25
  40304c:	62 e2 8d 58 b8 5e 02 	vfmadd231pd 0x10(%rsi){1to8},%zmm14,%zmm19
  403053:	62 e1 fd 48 29 02    	vmovapd %zmm16,(%rdx)
  403059:	62 e1 fd 48 29 4a 04 	vmovapd %zmm17,0x100(%rdx)
  403060:	62 e1 fd 48 29 52 08 	vmovapd %zmm18,0x200(%rdx)
  403067:	62 e1 fd 48 29 5a 0c 	vmovapd %zmm19,0x300(%rdx)
  40306e:	62 e1 fd 48 29 62 10 	vmovapd %zmm20,0x400(%rdx)
  403075:	62 e1 fd 48 29 6a 14 	vmovapd %zmm21,0x500(%rdx)
  40307c:	62 e1 fd 48 29 72 18 	vmovapd %zmm22,0x600(%rdx)
  403083:	62 e1 fd 48 29 7a 1c 	vmovapd %zmm23,0x700(%rdx)
  40308a:	62 61 fd 48 29 42 20 	vmovapd %zmm24,0x800(%rdx)
  403091:	62 61 fd 48 29 4a 24 	vmovapd %zmm25,0x900(%rdx)
  403098:	62 61 fd 48 29 52 28 	vmovapd %zmm26,0xa00(%rdx)
  40309f:	62 61 fd 48 29 5a 2c 	vmovapd %zmm27,0xb00(%rdx)
  4030a6:	62 61 fd 48 29 62 30 	vmovapd %zmm28,0xc00(%rdx)
  4030ad:	62 61 fd 48 29 6a 34 	vmovapd %zmm29,0xd00(%rdx)
  4030b4:	62 61 fd 48 29 72 38 	vmovapd %zmm30,0xe00(%rdx)
  4030bb:	62 61 fd 48 29 7a 3c 	vmovapd %zmm31,0xf00(%rdx)
  4030c2:	48 81 c2 00 10 00 00 	add    $0x1000,%rdx
  4030c9:	62 e1 fd 48 28 02    	vmovapd (%rdx),%zmm16
  4030cf:	62 e1 fd 48 28 4a 04 	vmovapd 0x100(%rdx),%zmm17
  4030d6:	62 e1 fd 48 28 52 08 	vmovapd 0x200(%rdx),%zmm18
  4030dd:	62 e1 fd 48 28 5a 0c 	vmovapd 0x300(%rdx),%zmm19
  4030e4:	62 e1 fd 48 28 62 10 	vmovapd 0x400(%rdx),%zmm20
  4030eb:	62 e1 fd 48 28 6a 14 	vmovapd 0x500(%rdx),%zmm21
  4030f2:	62 e1 fd 48 28 72 18 	vmovapd 0x600(%rdx),%zmm22
  4030f9:	62 e1 fd 48 28 7a 1c 	vmovapd 0x700(%rdx),%zmm23
  403100:	62 61 fd 48 28 42 20 	vmovapd 0x800(%rdx),%zmm24
  403107:	62 61 fd 48 28 4a 24 	vmovapd 0x900(%rdx),%zmm25
  40310e:	62 61 fd 48 28 52 28 	vmovapd 0xa00(%rdx),%zmm26
  403115:	62 61 fd 48 28 5a 2c 	vmovapd 0xb00(%rdx),%zmm27
  40311c:	62 61 fd 48 28 62 30 	vmovapd 0xc00(%rdx),%zmm28
  403123:	62 61 fd 48 28 6a 34 	vmovapd 0xd00(%rdx),%zmm29
  40312a:	62 61 fd 48 28 72 38 	vmovapd 0xe00(%rdx),%zmm30
  403131:	62 61 fd 48 28 7a 3c 	vmovapd 0xf00(%rdx),%zmm31
  403138:	62 f1 fd 48 28 4f 04 	vmovapd 0x100(%rdi),%zmm1
  40313f:	62 f1 fd 48 28 67 10 	vmovapd 0x400(%rdi),%zmm4
  403146:	62 71 fd 48 28 47 20 	vmovapd 0x800(%rdi),%zmm8
  40314d:	62 71 fd 48 28 4f 24 	vmovapd 0x900(%rdi),%zmm9
  403154:	62 71 fd 48 28 67 30 	vmovapd 0xc00(%rdi),%zmm12
  40315b:	62 71 fd 48 28 6f 34 	vmovapd 0xd00(%rdi),%zmm13
  403162:	62 e2 f5 58 b8 46 0a 	vfmadd231pd 0x50(%rsi){1to8},%zmm1,%zmm16
  403169:	62 62 f5 58 b8 7e 12 	vfmadd231pd 0x90(%rsi){1to8},%zmm1,%zmm31
  403170:	62 e2 dd 58 b8 56 0b 	vfmadd231pd 0x58(%rsi){1to8},%zmm4,%zmm18
  403177:	62 e2 dd 58 b8 66 0e 	vfmadd231pd 0x70(%rsi){1to8},%zmm4,%zmm20
  40317e:	62 e2 bd 58 b8 56 0c 	vfmadd231pd 0x60(%rsi){1to8},%zmm8,%zmm18
  403185:	62 e2 b5 58 b8 56 0d 	vfmadd231pd 0x68(%rsi){1to8},%zmm9,%zmm18
  40318c:	62 e2 9d 58 b8 6e 0f 	vfmadd231pd 0x78(%rsi){1to8},%zmm12,%zmm21
  403193:	62 62 9d 58 b8 4e 10 	vfmadd231pd 0x80(%rsi){1to8},%zmm12,%zmm25
  40319a:	62 62 9d 58 b8 7e 13 	vfmadd231pd 0x98(%rsi){1to8},%zmm12,%zmm31
  4031a1:	62 62 95 58 b8 56 11 	vfmadd231pd 0x88(%rsi){1to8},%zmm13,%zmm26
  4031a8:	62 e1 fd 48 29 02    	vmovapd %zmm16,(%rdx)
  4031ae:	62 e1 fd 48 29 4a 04 	vmovapd %zmm17,0x100(%rdx)
  4031b5:	62 e1 fd 48 29 52 08 	vmovapd %zmm18,0x200(%rdx)
  4031bc:	62 e1 fd 48 29 5a 0c 	vmovapd %zmm19,0x300(%rdx)
  4031c3:	62 e1 fd 48 29 62 10 	vmovapd %zmm20,0x400(%rdx)
  4031ca:	62 e1 fd 48 29 6a 14 	vmovapd %zmm21,0x500(%rdx)
  4031d1:	62 e1 fd 48 29 72 18 	vmovapd %zmm22,0x600(%rdx)
  4031d8:	62 e1 fd 48 29 7a 1c 	vmovapd %zmm23,0x700(%rdx)
  4031df:	62 61 fd 48 29 42 20 	vmovapd %zmm24,0x800(%rdx)
  4031e6:	62 61 fd 48 29 4a 24 	vmovapd %zmm25,0x900(%rdx)
  4031ed:	62 61 fd 48 29 52 28 	vmovapd %zmm26,0xa00(%rdx)
  4031f4:	62 61 fd 48 29 5a 2c 	vmovapd %zmm27,0xb00(%rdx)
  4031fb:	62 61 fd 48 29 62 30 	vmovapd %zmm28,0xc00(%rdx)
  403202:	62 61 fd 48 29 6a 34 	vmovapd %zmm29,0xd00(%rdx)
  403209:	62 61 fd 48 29 72 38 	vmovapd %zmm30,0xe00(%rdx)
  403210:	62 61 fd 48 29 7a 3c 	vmovapd %zmm31,0xf00(%rdx)
  403217:	48 83 c7 40          	add    $0x40,%rdi
  40321b:	48 81 c2 40 f0 ff ff 	add    $0xfffffffffffff040,%rdx
  403222:	49 83 c4 01          	add    $0x1,%r12
  403226:	49 83 fc 04          	cmp    $0x4,%r12
  40322a:	0f 8c 29 fd ff ff    	jl     402f59 <LOOP_TOP_0_0>
  403230:	48 8d bc 24 18 09 00 	lea    0x918(%rsp),%rdi
  403237:	00 
  403238:	e8 d3 05 00 00       	callq  403810 <_Z13assert_equalsRK6MatrixS1_>
  40323d:	bf 01 00 00 00       	mov    $0x1,%edi
  403242:	48 8d b4 24 d8 07 00 	lea    0x7d8(%rsp),%rsi
  403249:	00 
  40324a:	e8 a1 e3 ff ff       	callq  4015f0 <clock_gettime@plt>
  40324f:	48 8b 84 24 78 08 00 	mov    0x878(%rsp),%rax
  403256:	00 
  403257:	31 f6                	xor    %esi,%esi
  403259:	48 8b 9c 24 f0 08 00 	mov    0x8f0(%rsp),%rbx
  403260:	00 
  403261:	48 8b 8c 24 18 08 00 	mov    0x818(%rsp),%rcx
  403268:	00 
  403269:	48 8b 40 18          	mov    0x18(%rax),%rax
  40326d:	48 89 1c 24          	mov    %rbx,(%rsp)
  403271:	83 c6 01             	add    $0x1,%esi
  403274:	48 89 84 24 e8 07 00 	mov    %rax,0x7e8(%rsp)
  40327b:	00 
  40327c:	48 89 8c 24 f0 07 00 	mov    %rcx,0x7f0(%rsp)
  403283:	00 
  403284:	48 8b 3c 24          	mov    (%rsp),%rdi
  403288:	48 8b b4 24 e8 07 00 	mov    0x7e8(%rsp),%rsi
  40328f:	00 
  403290:	48 8b 94 24 f0 07 00 	mov    0x7f0(%rsp),%rdx
  403297:	00 
  403298:	49 c7 c4 00 00 00 00 	mov    $0x0,%r12

000000000040329f <LOOP_TOP_0_1>:
  40329f:	62 e1 fd 48 28 02    	vmovapd (%rdx),%zmm16
  4032a5:	62 e1 fd 48 28 4a 04 	vmovapd 0x100(%rdx),%zmm17
  4032ac:	62 e1 fd 48 28 52 08 	vmovapd 0x200(%rdx),%zmm18
  4032b3:	62 e1 fd 48 28 5a 0c 	vmovapd 0x300(%rdx),%zmm19
  4032ba:	62 e1 fd 48 28 62 10 	vmovapd 0x400(%rdx),%zmm20
  4032c1:	62 e1 fd 48 28 6a 14 	vmovapd 0x500(%rdx),%zmm21
  4032c8:	62 e1 fd 48 28 72 18 	vmovapd 0x600(%rdx),%zmm22
  4032cf:	62 e1 fd 48 28 7a 1c 	vmovapd 0x700(%rdx),%zmm23
  4032d6:	62 61 fd 48 28 42 20 	vmovapd 0x800(%rdx),%zmm24
  4032dd:	62 61 fd 48 28 4a 24 	vmovapd 0x900(%rdx),%zmm25
  4032e4:	62 61 fd 48 28 52 28 	vmovapd 0xa00(%rdx),%zmm26
  4032eb:	62 61 fd 48 28 5a 2c 	vmovapd 0xb00(%rdx),%zmm27
  4032f2:	62 61 fd 48 28 62 30 	vmovapd 0xc00(%rdx),%zmm28
  4032f9:	62 61 fd 48 28 6a 34 	vmovapd 0xd00(%rdx),%zmm29
  403300:	62 61 fd 48 28 72 38 	vmovapd 0xe00(%rdx),%zmm30
  403307:	62 61 fd 48 28 7a 3c 	vmovapd 0xf00(%rdx),%zmm31
  40330e:	62 f1 fd 48 28 8f 00 	vmovapd 0x2100(%rdi),%zmm1
  403315:	21 00 00 
  403318:	62 f1 fd 48 28 97 00 	vmovapd 0x2200(%rdi),%zmm2
  40331f:	22 00 00 
  403322:	62 f1 fd 48 28 af 00 	vmovapd 0x2500(%rdi),%zmm5
  403329:	25 00 00 
  40332c:	62 71 fd 48 28 9f 00 	vmovapd 0x2b00(%rdi),%zmm11
  403333:	2b 00 00 
  403336:	62 71 fd 48 28 a7 00 	vmovapd 0x2c00(%rdi),%zmm12
  40333d:	2c 00 00 
  403340:	62 71 fd 48 28 af 00 	vmovapd 0x2d00(%rdi),%zmm13
  403347:	2d 00 00 
  40334a:	62 71 fd 48 28 b7 00 	vmovapd 0x2e00(%rdi),%zmm14
  403351:	2e 00 00 
  403354:	62 e2 f5 58 b8 6e 03 	vfmadd231pd 0x18(%rsi){1to8},%zmm1,%zmm21
  40335b:	62 e2 f5 58 b8 7e 05 	vfmadd231pd 0x28(%rsi){1to8},%zmm1,%zmm23
  403362:	62 62 f5 58 b8 66 07 	vfmadd231pd 0x38(%rsi){1to8},%zmm1,%zmm28
  403369:	62 62 ed 58 b8 76 08 	vfmadd231pd 0x40(%rsi){1to8},%zmm2,%zmm30
  403370:	62 62 d5 58 b8 7e 09 	vfmadd231pd 0x48(%rsi){1to8},%zmm5,%zmm31
  403377:	62 e2 a5 58 b8 06    	vfmadd231pd (%rsi){1to8},%zmm11,%zmm16
  40337d:	62 e2 9d 58 b8 4e 01 	vfmadd231pd 0x8(%rsi){1to8},%zmm12,%zmm17
  403384:	62 e2 95 58 b8 6e 04 	vfmadd231pd 0x20(%rsi){1to8},%zmm13,%zmm21
  40338b:	62 62 95 58 b8 4e 06 	vfmadd231pd 0x30(%rsi){1to8},%zmm13,%zmm25
  403392:	62 e2 8d 58 b8 5e 02 	vfmadd231pd 0x10(%rsi){1to8},%zmm14,%zmm19
  403399:	62 e1 fd 48 29 02    	vmovapd %zmm16,(%rdx)
  40339f:	62 e1 fd 48 29 4a 04 	vmovapd %zmm17,0x100(%rdx)
  4033a6:	62 e1 fd 48 29 52 08 	vmovapd %zmm18,0x200(%rdx)
  4033ad:	62 e1 fd 48 29 5a 0c 	vmovapd %zmm19,0x300(%rdx)
  4033b4:	62 e1 fd 48 29 62 10 	vmovapd %zmm20,0x400(%rdx)
  4033bb:	62 e1 fd 48 29 6a 14 	vmovapd %zmm21,0x500(%rdx)
  4033c2:	62 e1 fd 48 29 72 18 	vmovapd %zmm22,0x600(%rdx)
  4033c9:	62 e1 fd 48 29 7a 1c 	vmovapd %zmm23,0x700(%rdx)
  4033d0:	62 61 fd 48 29 42 20 	vmovapd %zmm24,0x800(%rdx)
  4033d7:	62 61 fd 48 29 4a 24 	vmovapd %zmm25,0x900(%rdx)
  4033de:	62 61 fd 48 29 52 28 	vmovapd %zmm26,0xa00(%rdx)
  4033e5:	62 61 fd 48 29 5a 2c 	vmovapd %zmm27,0xb00(%rdx)
  4033ec:	62 61 fd 48 29 62 30 	vmovapd %zmm28,0xc00(%rdx)
  4033f3:	62 61 fd 48 29 6a 34 	vmovapd %zmm29,0xd00(%rdx)
  4033fa:	62 61 fd 48 29 72 38 	vmovapd %zmm30,0xe00(%rdx)
  403401:	62 61 fd 48 29 7a 3c 	vmovapd %zmm31,0xf00(%rdx)
  403408:	48 81 c2 00 10 00 00 	add    $0x1000,%rdx
  40340f:	62 e1 fd 48 28 02    	vmovapd (%rdx),%zmm16
  403415:	62 e1 fd 48 28 4a 04 	vmovapd 0x100(%rdx),%zmm17
  40341c:	62 e1 fd 48 28 52 08 	vmovapd 0x200(%rdx),%zmm18
  403423:	62 e1 fd 48 28 5a 0c 	vmovapd 0x300(%rdx),%zmm19
  40342a:	62 e1 fd 48 28 62 10 	vmovapd 0x400(%rdx),%zmm20
  403431:	62 e1 fd 48 28 6a 14 	vmovapd 0x500(%rdx),%zmm21
  403438:	62 e1 fd 48 28 72 18 	vmovapd 0x600(%rdx),%zmm22
  40343f:	62 e1 fd 48 28 7a 1c 	vmovapd 0x700(%rdx),%zmm23
  403446:	62 61 fd 48 28 42 20 	vmovapd 0x800(%rdx),%zmm24
  40344d:	62 61 fd 48 28 4a 24 	vmovapd 0x900(%rdx),%zmm25
  403454:	62 61 fd 48 28 52 28 	vmovapd 0xa00(%rdx),%zmm26
  40345b:	62 61 fd 48 28 5a 2c 	vmovapd 0xb00(%rdx),%zmm27
  403462:	62 61 fd 48 28 62 30 	vmovapd 0xc00(%rdx),%zmm28
  403469:	62 61 fd 48 28 6a 34 	vmovapd 0xd00(%rdx),%zmm29
  403470:	62 61 fd 48 28 72 38 	vmovapd 0xe00(%rdx),%zmm30
  403477:	62 61 fd 48 28 7a 3c 	vmovapd 0xf00(%rdx),%zmm31
  40347e:	62 f1 fd 48 28 4f 04 	vmovapd 0x100(%rdi),%zmm1
  403485:	62 f1 fd 48 28 67 10 	vmovapd 0x400(%rdi),%zmm4
  40348c:	62 71 fd 48 28 47 20 	vmovapd 0x800(%rdi),%zmm8
  403493:	62 71 fd 48 28 4f 24 	vmovapd 0x900(%rdi),%zmm9
  40349a:	62 71 fd 48 28 67 30 	vmovapd 0xc00(%rdi),%zmm12
  4034a1:	62 71 fd 48 28 6f 34 	vmovapd 0xd00(%rdi),%zmm13
  4034a8:	62 e2 f5 58 b8 46 0a 	vfmadd231pd 0x50(%rsi){1to8},%zmm1,%zmm16
  4034af:	62 62 f5 58 b8 7e 12 	vfmadd231pd 0x90(%rsi){1to8},%zmm1,%zmm31
  4034b6:	62 e2 dd 58 b8 56 0b 	vfmadd231pd 0x58(%rsi){1to8},%zmm4,%zmm18
  4034bd:	62 e2 dd 58 b8 66 0e 	vfmadd231pd 0x70(%rsi){1to8},%zmm4,%zmm20
  4034c4:	62 e2 bd 58 b8 56 0c 	vfmadd231pd 0x60(%rsi){1to8},%zmm8,%zmm18
  4034cb:	62 e2 b5 58 b8 56 0d 	vfmadd231pd 0x68(%rsi){1to8},%zmm9,%zmm18
  4034d2:	62 e2 9d 58 b8 6e 0f 	vfmadd231pd 0x78(%rsi){1to8},%zmm12,%zmm21
  4034d9:	62 62 9d 58 b8 4e 10 	vfmadd231pd 0x80(%rsi){1to8},%zmm12,%zmm25
  4034e0:	62 62 9d 58 b8 7e 13 	vfmadd231pd 0x98(%rsi){1to8},%zmm12,%zmm31
  4034e7:	62 62 95 58 b8 56 11 	vfmadd231pd 0x88(%rsi){1to8},%zmm13,%zmm26
  4034ee:	62 e1 fd 48 29 02    	vmovapd %zmm16,(%rdx)
  4034f4:	62 e1 fd 48 29 4a 04 	vmovapd %zmm17,0x100(%rdx)
  4034fb:	62 e1 fd 48 29 52 08 	vmovapd %zmm18,0x200(%rdx)
  403502:	62 e1 fd 48 29 5a 0c 	vmovapd %zmm19,0x300(%rdx)
  403509:	62 e1 fd 48 29 62 10 	vmovapd %zmm20,0x400(%rdx)
  403510:	62 e1 fd 48 29 6a 14 	vmovapd %zmm21,0x500(%rdx)
  403517:	62 e1 fd 48 29 72 18 	vmovapd %zmm22,0x600(%rdx)
  40351e:	62 e1 fd 48 29 7a 1c 	vmovapd %zmm23,0x700(%rdx)
  403525:	62 61 fd 48 29 42 20 	vmovapd %zmm24,0x800(%rdx)
  40352c:	62 61 fd 48 29 4a 24 	vmovapd %zmm25,0x900(%rdx)
  403533:	62 61 fd 48 29 52 28 	vmovapd %zmm26,0xa00(%rdx)
  40353a:	62 61 fd 48 29 5a 2c 	vmovapd %zmm27,0xb00(%rdx)
  403541:	62 61 fd 48 29 62 30 	vmovapd %zmm28,0xc00(%rdx)
  403548:	62 61 fd 48 29 6a 34 	vmovapd %zmm29,0xd00(%rdx)
  40354f:	62 61 fd 48 29 72 38 	vmovapd %zmm30,0xe00(%rdx)
  403556:	62 61 fd 48 29 7a 3c 	vmovapd %zmm31,0xf00(%rdx)
  40355d:	48 83 c7 40          	add    $0x40,%rdi
  403561:	48 81 c2 40 f0 ff ff 	add    $0xfffffffffffff040,%rdx
  403568:	49 83 c4 01          	add    $0x1,%r12
  40356c:	49 83 fc 04          	cmp    $0x4,%r12
  403570:	0f 8c 29 fd ff ff    	jl     40329f <LOOP_TOP_0_1>
  403576:	81 fe b8 0b 00 00    	cmp    $0xbb8,%esi
  40357c:	0f 8c eb fc ff ff    	jl     40326d <LOOP_TOP_0_0+0x314>
  403582:	bf 01 00 00 00       	mov    $0x1,%edi
  403587:	48 8d b4 24 e8 07 00 	lea    0x7e8(%rsp),%rsi
  40358e:	00 
  40358f:	e8 5c e0 ff ff       	callq  4015f0 <clock_gettime@plt>
  403594:	bf 80 1a 61 00       	mov    $0x611a80,%edi
  403599:	be cc e5 40 00       	mov    $0x40e5cc,%esi
  40359e:	e8 8d df ff ff       	callq  401530 <_ZStlsISt11char_traitsIcEERSt13basic_ostreamIcT_ES5_PKc@plt>
  4035a3:	48 89 c7             	mov    %rax,%rdi
  4035a6:	48 8b 84 24 e8 07 00 	mov    0x7e8(%rsp),%rax
  4035ad:	00 
  4035ae:	62 e3 d5 00 27 2d 87 	vgetmantsd $0x0,0xaf87(%rip),%xmm21,%xmm21        # 40e540 <_IO_stdin_used+0x100>
  4035b5:	af 00 00 00 
  4035b9:	48 2b 84 24 d8 07 00 	sub    0x7d8(%rsp),%rax
  4035c0:	00 
  4035c1:	48 69 d0 00 ca 9a 3b 	imul   $0x3b9aca00,%rax,%rdx
  4035c8:	62 a2 d5 00 cb fd    	vrcp28sd %xmm21,%xmm21,%xmm23
  4035ce:	62 e1 ff 08 10 25 70 	vmovsd 0xaf70(%rip),%xmm20        # 40e548 <_IO_stdin_used+0x108>
  4035d5:	af 00 00 
  4035d8:	62 e2 e5 00 43 1d 5e 	vgetexpsd 0xaf5e(%rip),%xmm19,%xmm19        # 40e540 <_IO_stdin_used+0x100>
  4035df:	af 00 00 
  4035e2:	48 03 94 24 f0 07 00 	add    0x7f0(%rsp),%rdx
  4035e9:	00 
  4035ea:	62 a2 c5 10 bd e5    	vfnmadd231sd {rn-sae},%xmm21,%xmm23,%xmm20
  4035f0:	48 2b 94 24 e0 07 00 	sub    0x7e0(%rsp),%rdx
  4035f7:	00 
  4035f8:	62 e1 ff 00 2a c2    	vcvtsi2sd %rdx,%xmm16,%xmm16
  4035fe:	62 e1 ff 00 59 0d 30 	vmulsd 0xaf30(%rip),%xmm16,%xmm17        # 40e538 <_IO_stdin_used+0xf8>
  403605:	af 00 00 
  403608:	62 a3 f5 00 27 f1 00 	vgetmantsd $0x0,%xmm17,%xmm17,%xmm22
  40360f:	62 a2 f5 00 43 d1    	vgetexpsd %xmm17,%xmm17,%xmm18
  403615:	62 21 c7 10 59 c6    	vmulsd {rn-sae},%xmm22,%xmm23,%xmm24
  40361b:	62 a2 dd 10 b9 ff    	vfmadd231sd {rn-sae},%xmm23,%xmm20,%xmm23
  403621:	62 a2 bd 10 bd f5    	vfnmadd231sd {rn-sae},%xmm21,%xmm24,%xmm22
  403627:	62 21 ef 00 5c cb    	vsubsd %xmm19,%xmm18,%xmm25
  40362d:	62 22 cd 10 b9 c7    	vfmadd231sd {rn-sae},%xmm23,%xmm22,%xmm24
  403633:	62 92 bd 00 2d c1    	vscalefsd %xmm25,%xmm24,%xmm0
  403639:	e8 a2 e0 ff ff       	callq  4016e0 <_ZNSolsEd@plt>
  40363e:	48 89 c7             	mov    %rax,%rdi
  403641:	be c0 14 40 00       	mov    $0x4014c0,%esi
  403646:	e8 15 df ff ff       	callq  401560 <_ZNSolsEPFRSoS_E@plt>
  40364b:	48 8b bc 24 18 08 00 	mov    0x818(%rsp),%rdi
  403652:	00 
  403653:	48 c7 84 24 00 08 00 	movq   $0x611220,0x800(%rsp)
  40365a:	00 20 12 61 00 
  40365f:	e8 4c df ff ff       	callq  4015b0 <free@plt>
  403664:	48 8b bc 24 30 09 00 	mov    0x930(%rsp),%rdi
  40366b:	00 
  40366c:	48 c7 84 24 18 09 00 	movq   $0x611220,0x918(%rsp)
  403673:	00 20 12 61 00 
  403678:	e8 33 df ff ff       	callq  4015b0 <free@plt>
  40367d:	48 8b 9c 24 78 08 00 	mov    0x878(%rsp),%rbx
  403684:	00 
  403685:	48 85 db             	test   %rbx,%rbx
  403688:	74 39                	je     4036c3 <LOOP_TOP_0_1+0x424>
  40368a:	48 8b 7b 18          	mov    0x18(%rbx),%rdi
  40368e:	48 c7 03 d8 11 61 00 	movq   $0x6111d8,(%rbx)
  403695:	48 85 ff             	test   %rdi,%rdi
  403698:	74 05                	je     40369f <LOOP_TOP_0_1+0x400>
  40369a:	e8 41 df ff ff       	callq  4015e0 <_ZdaPv@plt>
  40369f:	48 8b 7b 20          	mov    0x20(%rbx),%rdi
  4036a3:	48 85 ff             	test   %rdi,%rdi
  4036a6:	74 05                	je     4036ad <LOOP_TOP_0_1+0x40e>
  4036a8:	e8 33 df ff ff       	callq  4015e0 <_ZdaPv@plt>
  4036ad:	48 8b 7b 28          	mov    0x28(%rbx),%rdi
  4036b1:	48 85 ff             	test   %rdi,%rdi
  4036b4:	74 05                	je     4036bb <LOOP_TOP_0_1+0x41c>
  4036b6:	e8 25 df ff ff       	callq  4015e0 <_ZdaPv@plt>
  4036bb:	48 89 df             	mov    %rbx,%rdi
  4036be:	e8 5d de ff ff       	callq  401520 <_ZdlPv@plt>
  4036c3:	48 8b bc 24 10 09 00 	mov    0x910(%rsp),%rdi
  4036ca:	00 
  4036cb:	48 c7 84 24 78 08 00 	movq   $0x0,0x878(%rsp)
  4036d2:	00 00 00 00 00 
  4036d7:	48 c7 84 24 f8 08 00 	movq   $0x611220,0x8f8(%rsp)
  4036de:	00 20 12 61 00 
  4036e3:	e8 c8 de ff ff       	callq  4015b0 <free@plt>
  4036e8:	48 8b bc 24 f0 08 00 	mov    0x8f0(%rsp),%rdi
  4036ef:	00 
  4036f0:	48 c7 84 24 d8 08 00 	movq   $0x611220,0x8d8(%rsp)
  4036f7:	00 20 12 61 00 
  4036fc:	e8 af de ff ff       	callq  4015b0 <free@plt>
  403701:	e8 8a 06 00 00       	callq  403d90 <_Z30test_jump_penalty_2_20_generalv>
  403706:	48 8b 9c 24 60 08 00 	mov    0x860(%rsp),%rbx
  40370d:	00 
  40370e:	4c 8b a4 24 68 08 00 	mov    0x868(%rsp),%r12
  403715:	00 
  403716:	31 c0                	xor    %eax,%eax
  403718:	4c 8b ac 24 70 08 00 	mov    0x870(%rsp),%r13
  40371f:	00 
  403720:	4c 8b b4 24 50 08 00 	mov    0x850(%rsp),%r14
  403727:	00 
  403728:	4c 8b bc 24 58 08 00 	mov    0x858(%rsp),%r15
  40372f:	00 
  403730:	48 89 ec             	mov    %rbp,%rsp
  403733:	5d                   	pop    %rbp
  403734:	c3                   	retq   
  403735:	48 89 04 24          	mov    %rax,(%rsp)
  403739:	48 8d bc 24 00 08 00 	lea    0x800(%rsp),%rdi
  403740:	00 
  403741:	e8 fa 72 00 00       	callq  40aa40 <_ZN11DenseMatrixD1Ev>
  403746:	48 8d bc 24 18 09 00 	lea    0x918(%rsp),%rdi
  40374d:	00 
  40374e:	e8 ed 72 00 00       	callq  40aa40 <_ZN11DenseMatrixD1Ev>
  403753:	48 8d bc 24 78 08 00 	lea    0x878(%rsp),%rdi
  40375a:	00 
  40375b:	e8 00 78 00 00       	callq  40af60 <_ZNSt10unique_ptrI12SparseMatrixSt14default_deleteIS0_EED1Ev>
  403760:	48 8d bc 24 f8 08 00 	lea    0x8f8(%rsp),%rdi
  403767:	00 
  403768:	e8 d3 72 00 00       	callq  40aa40 <_ZN11DenseMatrixD1Ev>
  40376d:	48 8d bc 24 d8 08 00 	lea    0x8d8(%rsp),%rdi
  403774:	00 
  403775:	e8 c6 72 00 00       	callq  40aa40 <_ZN11DenseMatrixD1Ev>
  40377a:	48 8b 3c 24          	mov    (%rsp),%rdi
  40377e:	e8 2d df ff ff       	callq  4016b0 <_Unwind_Resume@plt>
  403783:	31 c0                	xor    %eax,%eax
  403785:	e9 24 f6 ff ff       	jmpq   402dae <main+0x158e>
  40378a:	31 c0                	xor    %eax,%eax
  40378c:	e9 3d f4 ff ff       	jmpq   402bce <main+0x13ae>
  403791:	48 89 04 24          	mov    %rax,(%rsp)
  403795:	eb c9                	jmp    403760 <LOOP_TOP_0_1+0x4c1>
  403797:	31 c0                	xor    %eax,%eax
  403799:	e9 b4 f1 ff ff       	jmpq   402952 <main+0x1132>
  40379e:	31 d2                	xor    %edx,%edx
  4037a0:	e9 3f ee ff ff       	jmpq   4025e4 <main+0xdc4>
  4037a5:	8b 84 24 f8 03 00 00 	mov    0x3f8(%rsp),%eax
  4037ac:	e9 9f ee ff ff       	jmpq   402650 <main+0xe30>
  4037b1:	48 89 04 24          	mov    %rax,(%rsp)
  4037b5:	48 8d bc 24 78 09 00 	lea    0x978(%rsp),%rdi
  4037bc:	00 
  4037bd:	e8 7e 72 00 00       	callq  40aa40 <_ZN11DenseMatrixD1Ev>
  4037c2:	48 8d bc 24 b8 08 00 	lea    0x8b8(%rsp),%rdi
  4037c9:	00 
  4037ca:	e8 71 72 00 00       	callq  40aa40 <_ZN11DenseMatrixD1Ev>
  4037cf:	48 8d bc 24 58 09 00 	lea    0x958(%rsp),%rdi
  4037d6:	00 
  4037d7:	e8 64 72 00 00       	callq  40aa40 <_ZN11DenseMatrixD1Ev>
  4037dc:	48 8d bc 24 38 09 00 	lea    0x938(%rsp),%rdi
  4037e3:	00 
  4037e4:	e8 57 72 00 00       	callq  40aa40 <_ZN11DenseMatrixD1Ev>
  4037e9:	eb 8f                	jmp    40377a <LOOP_TOP_0_1+0x4db>
  4037eb:	31 c0                	xor    %eax,%eax
  4037ed:	e9 6e e9 ff ff       	jmpq   402160 <main+0x940>
  4037f2:	31 c0                	xor    %eax,%eax
  4037f4:	e9 83 e7 ff ff       	jmpq   401f7c <main+0x75c>
  4037f9:	31 c0                	xor    %eax,%eax
  4037fb:	e9 1c e5 ff ff       	jmpq   401d1c <main+0x4fc>
  403800:	31 d2                	xor    %edx,%edx
  403802:	e9 d1 e1 ff ff       	jmpq   4019d8 <main+0x1b8>
  403807:	8b 44 24 30          	mov    0x30(%rsp),%eax
  40380b:	e9 34 e2 ff ff       	jmpq   401a44 <main+0x224>

0000000000403810 <_Z13assert_equalsRK6MatrixS1_>:
  403810:	48 83 ec 38          	sub    $0x38,%rsp
  403814:	4c 89 64 24 20       	mov    %r12,0x20(%rsp)
  403819:	49 89 fc             	mov    %rdi,%r12
  40381c:	4c 89 6c 24 18       	mov    %r13,0x18(%rsp)
  403821:	49 89 f5             	mov    %rsi,%r13
  403824:	4c 89 74 24 10       	mov    %r14,0x10(%rsp)
  403829:	41 8b 44 24 08       	mov    0x8(%r12),%eax
  40382e:	41 3b 45 08          	cmp    0x8(%r13),%eax
  403832:	75 08                	jne    40383c <_Z13assert_equalsRK6MatrixS1_+0x2c>
  403834:	41 be 01 00 00 00    	mov    $0x1,%r14d
  40383a:	eb 45                	jmp    403881 <_Z13assert_equalsRK6MatrixS1_+0x71>
  40383c:	bf 80 1a 61 00       	mov    $0x611a80,%edi
  403841:	be ec e5 40 00       	mov    $0x40e5ec,%esi
  403846:	45 31 f6             	xor    %r14d,%r14d
  403849:	e8 e2 dc ff ff       	callq  401530 <_ZStlsISt11char_traitsIcEERSt13basic_ostreamIcT_ES5_PKc@plt>
  40384e:	48 89 c7             	mov    %rax,%rdi
  403851:	41 8b 74 24 08       	mov    0x8(%r12),%esi
  403856:	e8 45 de ff ff       	callq  4016a0 <_ZNSolsEi@plt>
  40385b:	48 89 c7             	mov    %rax,%rdi
  40385e:	be 04 e6 40 00       	mov    $0x40e604,%esi
  403863:	e8 c8 dc ff ff       	callq  401530 <_ZStlsISt11char_traitsIcEERSt13basic_ostreamIcT_ES5_PKc@plt>
  403868:	48 89 c7             	mov    %rax,%rdi
  40386b:	41 8b 75 08          	mov    0x8(%r13),%esi
  40386f:	e8 2c de ff ff       	callq  4016a0 <_ZNSolsEi@plt>
  403874:	48 89 c7             	mov    %rax,%rdi
  403877:	be c0 14 40 00       	mov    $0x4014c0,%esi
  40387c:	e8 df dc ff ff       	callq  401560 <_ZNSolsEPFRSoS_E@plt>
  403881:	41 8b 44 24 0c       	mov    0xc(%r12),%eax
  403886:	41 3b 45 0c          	cmp    0xc(%r13),%eax
  40388a:	75 0e                	jne    40389a <_Z13assert_equalsRK6MatrixS1_+0x8a>
  40388c:	41 8b 4c 24 08       	mov    0x8(%r12),%ecx
  403891:	85 c9                	test   %ecx,%ecx
  403893:	7f 5c                	jg     4038f1 <_Z13assert_equalsRK6MatrixS1_+0xe1>
  403895:	e9 de 00 00 00       	jmpq   403978 <_Z13assert_equalsRK6MatrixS1_+0x168>
  40389a:	bf 80 1a 61 00       	mov    $0x611a80,%edi
  40389f:	be 0c e6 40 00       	mov    $0x40e60c,%esi
  4038a4:	45 31 f6             	xor    %r14d,%r14d
  4038a7:	e8 84 dc ff ff       	callq  401530 <_ZStlsISt11char_traitsIcEERSt13basic_ostreamIcT_ES5_PKc@plt>
  4038ac:	48 89 c7             	mov    %rax,%rdi
  4038af:	41 8b 74 24 0c       	mov    0xc(%r12),%esi
  4038b4:	e8 e7 dd ff ff       	callq  4016a0 <_ZNSolsEi@plt>
  4038b9:	48 89 c7             	mov    %rax,%rdi
  4038bc:	be 04 e6 40 00       	mov    $0x40e604,%esi
  4038c1:	e8 6a dc ff ff       	callq  401530 <_ZStlsISt11char_traitsIcEERSt13basic_ostreamIcT_ES5_PKc@plt>
  4038c6:	48 89 c7             	mov    %rax,%rdi
  4038c9:	41 8b 75 0c          	mov    0xc(%r13),%esi
  4038cd:	e8 ce dd ff ff       	callq  4016a0 <_ZNSolsEi@plt>
  4038d2:	48 89 c7             	mov    %rax,%rdi
  4038d5:	be c0 14 40 00       	mov    $0x4014c0,%esi
  4038da:	e8 81 dc ff ff       	callq  401560 <_ZNSolsEPFRSoS_E@plt>
  4038df:	41 8b 4c 24 08       	mov    0x8(%r12),%ecx
  4038e4:	85 c9                	test   %ecx,%ecx
  4038e6:	0f 8e 95 00 00 00    	jle    403981 <_Z13assert_equalsRK6MatrixS1_+0x171>
  4038ec:	41 8b 44 24 0c       	mov    0xc(%r12),%eax
  4038f1:	31 f6                	xor    %esi,%esi
  4038f3:	4c 89 7c 24 08       	mov    %r15,0x8(%rsp)
  4038f8:	c5 fb 10 05 50 ac 00 	vmovsd 0xac50(%rip),%xmm0        # 40e550 <_IO_stdin_used+0x110>
  4038ff:	00 
  403900:	48 89 1c 24          	mov    %rbx,(%rsp)
  403904:	89 f3                	mov    %esi,%ebx
  403906:	45 31 ff             	xor    %r15d,%r15d
  403909:	85 c0                	test   %eax,%eax
  40390b:	7e 5b                	jle    403968 <_Z13assert_equalsRK6MatrixS1_+0x158>
  40390d:	49 8b 04 24          	mov    (%r12),%rax
  403911:	4c 89 e7             	mov    %r12,%rdi
  403914:	89 de                	mov    %ebx,%esi
  403916:	44 89 fa             	mov    %r15d,%edx
  403919:	ff 10                	callq  *(%rax)
  40391b:	c5 fb 11 44 24 28    	vmovsd %xmm0,0x28(%rsp)
  403921:	49 8b 45 00          	mov    0x0(%r13),%rax
  403925:	4c 89 ef             	mov    %r13,%rdi
  403928:	89 de                	mov    %ebx,%esi
  40392a:	44 89 fa             	mov    %r15d,%edx
  40392d:	ff 10                	callq  *(%rax)
  40392f:	c5 f9 28 c8          	vmovapd %xmm0,%xmm1
  403933:	c5 fb 10 44 24 28    	vmovsd 0x28(%rsp),%xmm0
  403939:	41 83 c7 01          	add    $0x1,%r15d
  40393d:	c5 fb 5c c9          	vsubsd %xmm1,%xmm0,%xmm1
  403941:	c5 f1 54 15 d7 ab 00 	vandpd 0xabd7(%rip),%xmm1,%xmm2        # 40e520 <_IO_stdin_used+0xe0>
  403948:	00 
  403949:	c5 eb c2 1d fe ab 00 	vcmpngtsd 0xabfe(%rip),%xmm2,%xmm3        # 40e550 <_IO_stdin_used+0x110>
  403950:	00 0a 
  403952:	c5 f9 7e d8          	vmovd  %xmm3,%eax
  403956:	41 21 c6             	and    %eax,%r14d
  403959:	41 8b 44 24 0c       	mov    0xc(%r12),%eax
  40395e:	41 39 c7             	cmp    %eax,%r15d
  403961:	7c aa                	jl     40390d <_Z13assert_equalsRK6MatrixS1_+0xfd>
  403963:	41 8b 4c 24 08       	mov    0x8(%r12),%ecx
  403968:	83 c3 01             	add    $0x1,%ebx
  40396b:	39 cb                	cmp    %ecx,%ebx
  40396d:	7c 97                	jl     403906 <_Z13assert_equalsRK6MatrixS1_+0xf6>
  40396f:	4c 8b 7c 24 08       	mov    0x8(%rsp),%r15
  403974:	48 8b 1c 24          	mov    (%rsp),%rbx
  403978:	45 85 f6             	test   %r14d,%r14d
  40397b:	0f 85 a7 01 00 00    	jne    403b28 <_Z13assert_equalsRK6MatrixS1_+0x318>
  403981:	bf 80 1a 61 00       	mov    $0x611a80,%edi
  403986:	be c0 14 40 00       	mov    $0x4014c0,%esi
  40398b:	e8 d0 db ff ff       	callq  401560 <_ZNSolsEPFRSoS_E@plt>
  403990:	48 89 c7             	mov    %rax,%rdi
  403993:	be c0 14 40 00       	mov    $0x4014c0,%esi
  403998:	e8 c3 db ff ff       	callq  401560 <_ZNSolsEPFRSoS_E@plt>
  40399d:	48 89 c7             	mov    %rax,%rdi
  4039a0:	be 28 e6 40 00       	mov    $0x40e628,%esi
  4039a5:	e8 86 db ff ff       	callq  401530 <_ZStlsISt11char_traitsIcEERSt13basic_ostreamIcT_ES5_PKc@plt>
  4039aa:	48 89 c7             	mov    %rax,%rdi
  4039ad:	be c0 14 40 00       	mov    $0x4014c0,%esi
  4039b2:	e8 a9 db ff ff       	callq  401560 <_ZNSolsEPFRSoS_E@plt>
  4039b7:	45 31 f6             	xor    %r14d,%r14d
  4039ba:	41 83 7c 24 08 00    	cmpl   $0x0,0x8(%r12)
  4039c0:	0f 8e 8e 00 00 00    	jle    403a54 <_Z13assert_equalsRK6MatrixS1_+0x244>
  4039c6:	4c 89 7c 24 08       	mov    %r15,0x8(%rsp)
  4039cb:	48 89 1c 24          	mov    %rbx,(%rsp)
  4039cf:	48 89 c3             	mov    %rax,%rbx
  4039d2:	45 31 ff             	xor    %r15d,%r15d
  4039d5:	41 83 7c 24 0c 00    	cmpl   $0x0,0xc(%r12)
  4039db:	7e 56                	jle    403a33 <_Z13assert_equalsRK6MatrixS1_+0x223>
  4039dd:	48 89 df             	mov    %rbx,%rdi
  4039e0:	be 40 af 40 00       	mov    $0x40af40,%esi
  4039e5:	e8 96 da ff ff       	callq  401480 <_ZNSolsEPFRSt8ios_baseS0_E@plt>
  4039ea:	48 89 c7             	mov    %rax,%rdi
  4039ed:	be 0a 00 00 00       	mov    $0xa,%esi
  4039f2:	e8 99 db ff ff       	callq  401590 <_ZStlsIcSt11char_traitsIcEERSt13basic_ostreamIT_T0_ES6_St5_Setw@plt>
  4039f7:	48 89 c7             	mov    %rax,%rdi
  4039fa:	be 02 00 00 00       	mov    $0x2,%esi
  4039ff:	e8 4c dc ff ff       	callq  401650 <_ZStlsIcSt11char_traitsIcEERSt13basic_ostreamIT_T0_ES6_St13_Setprecision@plt>
  403a04:	49 8b 0c 24          	mov    (%r12),%rcx
  403a08:	4c 89 e7             	mov    %r12,%rdi
  403a0b:	44 89 f6             	mov    %r14d,%esi
  403a0e:	44 89 fa             	mov    %r15d,%edx
  403a11:	ff 11                	callq  *(%rcx)
  403a13:	48 89 df             	mov    %rbx,%rdi
  403a16:	e8 c5 dc ff ff       	callq  4016e0 <_ZNSolsEd@plt>
  403a1b:	48 89 c7             	mov    %rax,%rdi
  403a1e:	be 90 ed 40 00       	mov    $0x40ed90,%esi
  403a23:	e8 08 db ff ff       	callq  401530 <_ZStlsISt11char_traitsIcEERSt13basic_ostreamIcT_ES5_PKc@plt>
  403a28:	41 83 c7 01          	add    $0x1,%r15d
  403a2c:	45 3b 7c 24 0c       	cmp    0xc(%r12),%r15d
  403a31:	7c aa                	jl     4039dd <_Z13assert_equalsRK6MatrixS1_+0x1cd>
  403a33:	48 89 df             	mov    %rbx,%rdi
  403a36:	be c0 14 40 00       	mov    $0x4014c0,%esi
  403a3b:	e8 20 db ff ff       	callq  401560 <_ZNSolsEPFRSoS_E@plt>
  403a40:	41 83 c6 01          	add    $0x1,%r14d
  403a44:	45 3b 74 24 08       	cmp    0x8(%r12),%r14d
  403a49:	7c 87                	jl     4039d2 <_Z13assert_equalsRK6MatrixS1_+0x1c2>
  403a4b:	4c 8b 7c 24 08       	mov    0x8(%rsp),%r15
  403a50:	48 8b 1c 24          	mov    (%rsp),%rbx
  403a54:	bf 80 1a 61 00       	mov    $0x611a80,%edi
  403a59:	be c0 14 40 00       	mov    $0x4014c0,%esi
  403a5e:	e8 fd da ff ff       	callq  401560 <_ZNSolsEPFRSoS_E@plt>
  403a63:	48 89 c7             	mov    %rax,%rdi
  403a66:	be c0 14 40 00       	mov    $0x4014c0,%esi
  403a6b:	e8 f0 da ff ff       	callq  401560 <_ZNSolsEPFRSoS_E@plt>
  403a70:	48 89 c7             	mov    %rax,%rdi
  403a73:	be 34 e6 40 00       	mov    $0x40e634,%esi
  403a78:	e8 b3 da ff ff       	callq  401530 <_ZStlsISt11char_traitsIcEERSt13basic_ostreamIcT_ES5_PKc@plt>
  403a7d:	48 89 c7             	mov    %rax,%rdi
  403a80:	be c0 14 40 00       	mov    $0x4014c0,%esi
  403a85:	e8 d6 da ff ff       	callq  401560 <_ZNSolsEPFRSoS_E@plt>
  403a8a:	49 89 c6             	mov    %rax,%r14
  403a8d:	45 31 e4             	xor    %r12d,%r12d
  403a90:	41 83 7d 08 00       	cmpl   $0x0,0x8(%r13)
  403a95:	0f 8e 80 00 00 00    	jle    403b1b <_Z13assert_equalsRK6MatrixS1_+0x30b>
  403a9b:	4c 89 7c 24 08       	mov    %r15,0x8(%rsp)
  403aa0:	45 31 ff             	xor    %r15d,%r15d
  403aa3:	41 83 7d 0c 00       	cmpl   $0x0,0xc(%r13)
  403aa8:	7e 55                	jle    403aff <_Z13assert_equalsRK6MatrixS1_+0x2ef>
  403aaa:	4c 89 f7             	mov    %r14,%rdi
  403aad:	be 40 af 40 00       	mov    $0x40af40,%esi
  403ab2:	e8 c9 d9 ff ff       	callq  401480 <_ZNSolsEPFRSt8ios_baseS0_E@plt>
  403ab7:	48 89 c7             	mov    %rax,%rdi
  403aba:	be 0a 00 00 00       	mov    $0xa,%esi
  403abf:	e8 cc da ff ff       	callq  401590 <_ZStlsIcSt11char_traitsIcEERSt13basic_ostreamIT_T0_ES6_St5_Setw@plt>
  403ac4:	48 89 c7             	mov    %rax,%rdi
  403ac7:	be 02 00 00 00       	mov    $0x2,%esi
  403acc:	e8 7f db ff ff       	callq  401650 <_ZStlsIcSt11char_traitsIcEERSt13basic_ostreamIT_T0_ES6_St13_Setprecision@plt>
  403ad1:	49 8b 45 00          	mov    0x0(%r13),%rax
  403ad5:	4c 89 ef             	mov    %r13,%rdi
  403ad8:	44 89 e6             	mov    %r12d,%esi
  403adb:	44 89 fa             	mov    %r15d,%edx
  403ade:	ff 10                	callq  *(%rax)
  403ae0:	4c 89 f7             	mov    %r14,%rdi
  403ae3:	e8 f8 db ff ff       	callq  4016e0 <_ZNSolsEd@plt>
  403ae8:	48 89 c7             	mov    %rax,%rdi
  403aeb:	be 90 ed 40 00       	mov    $0x40ed90,%esi
  403af0:	e8 3b da ff ff       	callq  401530 <_ZStlsISt11char_traitsIcEERSt13basic_ostreamIcT_ES5_PKc@plt>
  403af5:	41 83 c7 01          	add    $0x1,%r15d
  403af9:	45 3b 7d 0c          	cmp    0xc(%r13),%r15d
  403afd:	7c ab                	jl     403aaa <_Z13assert_equalsRK6MatrixS1_+0x29a>
  403aff:	4c 89 f7             	mov    %r14,%rdi
  403b02:	be c0 14 40 00       	mov    $0x4014c0,%esi
  403b07:	e8 54 da ff ff       	callq  401560 <_ZNSolsEPFRSoS_E@plt>
  403b0c:	41 83 c4 01          	add    $0x1,%r12d
  403b10:	45 3b 65 08          	cmp    0x8(%r13),%r12d
  403b14:	7c 8a                	jl     403aa0 <_Z13assert_equalsRK6MatrixS1_+0x290>
  403b16:	4c 8b 7c 24 08       	mov    0x8(%rsp),%r15
  403b1b:	4c 89 f7             	mov    %r14,%rdi
  403b1e:	be c0 14 40 00       	mov    $0x4014c0,%esi
  403b23:	e8 38 da ff ff       	callq  401560 <_ZNSolsEPFRSoS_E@plt>
  403b28:	4c 8b 64 24 20       	mov    0x20(%rsp),%r12
  403b2d:	4c 8b 6c 24 18       	mov    0x18(%rsp),%r13
  403b32:	4c 8b 74 24 10       	mov    0x10(%rsp),%r14
  403b37:	48 83 c4 38          	add    $0x38,%rsp
  403b3b:	c3                   	retq   
  403b3c:	0f 1f 40 00          	nopl   0x0(%rax)

0000000000403b40 <_Z7to_bcscRK6Matrixii..0>:
  403b40:	48 83 ec 68          	sub    $0x68,%rsp
  403b44:	48 89 5c 24 20       	mov    %rbx,0x20(%rsp)
  403b49:	48 89 f3             	mov    %rsi,%rbx
  403b4c:	48 89 7c 24 50       	mov    %rdi,0x50(%rsp)
  403b51:	bf 30 00 00 00       	mov    $0x30,%edi
  403b56:	48 89 6c 24 18       	mov    %rbp,0x18(%rsp)
  403b5b:	8b 43 08             	mov    0x8(%rbx),%eax
  403b5e:	4c 89 7c 24 28       	mov    %r15,0x28(%rsp)
  403b63:	44 8b 43 0c          	mov    0xc(%rbx),%r8d
  403b67:	4c 89 74 24 30       	mov    %r14,0x30(%rsp)
  403b6c:	c1 f8 03             	sar    $0x3,%eax
  403b6f:	4c 89 6c 24 08       	mov    %r13,0x8(%rsp)
  403b74:	c1 e8 1c             	shr    $0x1c,%eax
  403b77:	4c 89 64 24 10       	mov    %r12,0x10(%rsp)
  403b7c:	41 c1 f8 03          	sar    $0x3,%r8d
  403b80:	03 43 08             	add    0x8(%rbx),%eax
  403b83:	41 c1 e8 1c          	shr    $0x1c,%r8d
  403b87:	c1 f8 04             	sar    $0x4,%eax
  403b8a:	89 44 24 40          	mov    %eax,0x40(%rsp)
  403b8e:	44 03 43 0c          	add    0xc(%rbx),%r8d
  403b92:	41 c1 f8 04          	sar    $0x4,%r8d
  403b96:	44 89 04 24          	mov    %r8d,(%rsp)
  403b9a:	e8 b1 d9 ff ff       	callq  401550 <_Znwm@plt>
  403b9f:	49 89 c5             	mov    %rax,%r13
  403ba2:	48 63 43 08          	movslq 0x8(%rbx),%rax
  403ba6:	49 c7 45 00 d8 11 61 	movq   $0x6111d8,0x0(%r13)
  403bad:	00 
  403bae:	48 b9 ff ff ff ff ff 	movabs $0xfffffffffffffff,%rcx
  403bb5:	ff ff 0f 
  403bb8:	41 c7 45 10 00 00 00 	movl   $0x0,0x10(%r13)
  403bbf:	00 
  403bc0:	48 63 53 0c          	movslq 0xc(%rbx),%rdx
  403bc4:	41 89 45 08          	mov    %eax,0x8(%r13)
  403bc8:	49 89 c6             	mov    %rax,%r14
  403bcb:	41 89 55 0c          	mov    %edx,0xc(%r13)
  403bcf:	4c 0f af f2          	imul   %rdx,%r14
  403bd3:	45 89 75 14          	mov    %r14d,0x14(%r13)
  403bd7:	4c 39 f1             	cmp    %r14,%rcx
  403bda:	73 2c                	jae    403c08 <_Z7to_bcscRK6Matrixii..0+0xc8>
  403bdc:	e8 2f da ff ff       	callq  401610 <__cxa_throw_bad_array_new_length@plt>
  403be1:	4a 8d 3c f5 00 00 00 	lea    0x0(,%r14,8),%rdi
  403be8:	00 
  403be9:	e8 72 d8 ff ff       	callq  401460 <_Znam@plt>
  403bee:	49 bc ff ff ff ff ff 	movabs $0x1fffffffffffffff,%r12
  403bf5:	ff ff 1f 
  403bf8:	49 89 45 18          	mov    %rax,0x18(%r13)
  403bfc:	4d 39 f4             	cmp    %r14,%r12
  403bff:	72 2c                	jb     403c2d <_Z7to_bcscRK6Matrixii..0+0xed>
  403c01:	4d 85 f6             	test   %r14,%r14
  403c04:	7c 27                	jl     403c2d <_Z7to_bcscRK6Matrixii..0+0xed>
  403c06:	eb 4a                	jmp    403c52 <_Z7to_bcscRK6Matrixii..0+0x112>
  403c08:	4d 85 f6             	test   %r14,%r14
  403c0b:	7c cf                	jl     403bdc <_Z7to_bcscRK6Matrixii..0+0x9c>
  403c0d:	4a 8d 3c f5 00 00 00 	lea    0x0(,%r14,8),%rdi
  403c14:	00 
  403c15:	e8 46 d8 ff ff       	callq  401460 <_Znam@plt>
  403c1a:	49 bc ff ff ff ff ff 	movabs $0x1fffffffffffffff,%r12
  403c21:	ff ff 1f 
  403c24:	49 89 45 18          	mov    %rax,0x18(%r13)
  403c28:	4d 39 f4             	cmp    %r14,%r12
  403c2b:	73 25                	jae    403c52 <_Z7to_bcscRK6Matrixii..0+0x112>
  403c2d:	e8 de d9 ff ff       	callq  401610 <__cxa_throw_bad_array_new_length@plt>
  403c32:	4a 8d 2c b5 00 00 00 	lea    0x0(,%r14,4),%rbp
  403c39:	00 
  403c3a:	48 89 ef             	mov    %rbp,%rdi
  403c3d:	e8 1e d8 ff ff       	callq  401460 <_Znam@plt>
  403c42:	49 89 45 20          	mov    %rax,0x20(%r13)
  403c46:	4d 39 f4             	cmp    %r14,%r12
  403c49:	72 20                	jb     403c6b <_Z7to_bcscRK6Matrixii..0+0x12b>
  403c4b:	4d 85 f6             	test   %r14,%r14
  403c4e:	7c 1b                	jl     403c6b <_Z7to_bcscRK6Matrixii..0+0x12b>
  403c50:	eb 1e                	jmp    403c70 <_Z7to_bcscRK6Matrixii..0+0x130>
  403c52:	4a 8d 2c b5 00 00 00 	lea    0x0(,%r14,4),%rbp
  403c59:	00 
  403c5a:	48 89 ef             	mov    %rbp,%rdi
  403c5d:	e8 fe d7 ff ff       	callq  401460 <_Znam@plt>
  403c62:	49 89 45 20          	mov    %rax,0x20(%r13)
  403c66:	4d 39 f4             	cmp    %r14,%r12
  403c69:	73 05                	jae    403c70 <_Z7to_bcscRK6Matrixii..0+0x130>
  403c6b:	e8 a0 d9 ff ff       	callq  401610 <__cxa_throw_bad_array_new_length@plt>
  403c70:	48 89 ef             	mov    %rbp,%rdi
  403c73:	e8 e8 d7 ff ff       	callq  401460 <_Znam@plt>
  403c78:	49 89 45 28          	mov    %rax,0x28(%r13)
  403c7c:	48 8b 44 24 50       	mov    0x50(%rsp),%rax
  403c81:	48 c7 00 00 00 00 00 	movq   $0x0,(%rax)
  403c88:	4c 89 28             	mov    %r13,(%rax)
  403c8b:	83 3c 24 00          	cmpl   $0x0,(%rsp)
  403c8f:	c7 44 24 38 00 00 00 	movl   $0x0,0x38(%rsp)
  403c96:	00 
  403c97:	0f 8e 8f 00 00 00    	jle    403d2c <_Z7to_bcscRK6Matrixii..0+0x1ec>
  403c9d:	45 31 ff             	xor    %r15d,%r15d
  403ca0:	44 89 7c 24 48       	mov    %r15d,0x48(%rsp)
  403ca5:	83 7c 24 40 00       	cmpl   $0x0,0x40(%rsp)
  403caa:	7e 6c                	jle    403d18 <_Z7to_bcscRK6Matrixii..0+0x1d8>
  403cac:	8b 44 24 38          	mov    0x38(%rsp),%eax
  403cb0:	c1 e0 04             	shl    $0x4,%eax
  403cb3:	89 44 24 58          	mov    %eax,0x58(%rsp)
  403cb7:	45 31 f6             	xor    %r14d,%r14d
  403cba:	8b 44 24 58          	mov    0x58(%rsp),%eax
  403cbe:	45 31 ed             	xor    %r13d,%r13d
  403cc1:	42 8d 2c 30          	lea    (%rax,%r14,1),%ebp
  403cc5:	47 8d 24 2f          	lea    (%r15,%r13,1),%r12d
  403cc9:	48 8b 03             	mov    (%rbx),%rax
  403ccc:	48 89 df             	mov    %rbx,%rdi
  403ccf:	89 ea                	mov    %ebp,%edx
  403cd1:	44 89 e6             	mov    %r12d,%esi
  403cd4:	ff 10                	callq  *(%rax)
  403cd6:	c5 f9 54 0d 42 a8 00 	vandpd 0xa842(%rip),%xmm0,%xmm1        # 40e520 <_IO_stdin_used+0xe0>
  403cdd:	00 
  403cde:	62 f1 f7 08 c2 05 67 	vcmpgtsd 0xa867(%rip),%xmm1,%k0        # 40e550 <_IO_stdin_used+0x110>
  403ce5:	a8 00 00 0e 
  403ce9:	c5 f8 98 c0          	kortestw %k0,%k0
  403ced:	75 75                	jne    403d64 <_Z7to_bcscRK6Matrixii..0+0x224>
  403cef:	41 83 c5 01          	add    $0x1,%r13d
  403cf3:	41 83 fd 10          	cmp    $0x10,%r13d
  403cf7:	7c cc                	jl     403cc5 <_Z7to_bcscRK6Matrixii..0+0x185>
  403cf9:	41 83 c6 01          	add    $0x1,%r14d
  403cfd:	41 83 fe 10          	cmp    $0x10,%r14d
  403d01:	7c b7                	jl     403cba <_Z7to_bcscRK6Matrixii..0+0x17a>
  403d03:	8b 44 24 48          	mov    0x48(%rsp),%eax
  403d07:	41 83 c7 10          	add    $0x10,%r15d
  403d0b:	83 c0 01             	add    $0x1,%eax
  403d0e:	89 44 24 48          	mov    %eax,0x48(%rsp)
  403d12:	3b 44 24 40          	cmp    0x40(%rsp),%eax
  403d16:	7c 9f                	jl     403cb7 <_Z7to_bcscRK6Matrixii..0+0x177>
  403d18:	8b 44 24 38          	mov    0x38(%rsp),%eax
  403d1c:	83 c0 01             	add    $0x1,%eax
  403d1f:	89 44 24 38          	mov    %eax,0x38(%rsp)
  403d23:	3b 04 24             	cmp    (%rsp),%eax
  403d26:	0f 8c 71 ff ff ff    	jl     403c9d <_Z7to_bcscRK6Matrixii..0+0x15d>
  403d2c:	48 8b 5c 24 20       	mov    0x20(%rsp),%rbx
  403d31:	48 8b 6c 24 18       	mov    0x18(%rsp),%rbp
  403d36:	4c 8b 64 24 10       	mov    0x10(%rsp),%r12
  403d3b:	4c 8b 6c 24 08       	mov    0x8(%rsp),%r13
  403d40:	4c 8b 74 24 30       	mov    0x30(%rsp),%r14
  403d45:	4c 8b 7c 24 28       	mov    0x28(%rsp),%r15
  403d4a:	48 83 c4 68          	add    $0x68,%rsp
  403d4e:	c3                   	retq   
  403d4f:	48 89 04 24          	mov    %rax,(%rsp)
  403d53:	4c 89 ef             	mov    %r13,%rdi
  403d56:	e8 c5 d7 ff ff       	callq  401520 <_ZdlPv@plt>
  403d5b:	48 8b 3c 24          	mov    (%rsp),%rdi
  403d5f:	e8 4c d9 ff ff       	callq  4016b0 <_Unwind_Resume@plt>
  403d64:	48 8b 44 24 50       	mov    0x50(%rsp),%rax
  403d69:	44 89 e6             	mov    %r12d,%esi
  403d6c:	89 ea                	mov    %ebp,%edx
  403d6e:	48 8b 38             	mov    (%rax),%rdi
  403d71:	48 8b 0f             	mov    (%rdi),%rcx
  403d74:	ff 51 08             	callq  *0x8(%rcx)
  403d77:	e9 73 ff ff ff       	jmpq   403cef <_Z7to_bcscRK6Matrixii..0+0x1af>
  403d7c:	48 89 04 24          	mov    %rax,(%rsp)
  403d80:	48 8b 7c 24 50       	mov    0x50(%rsp),%rdi
  403d85:	e8 d6 71 00 00       	callq  40af60 <_ZNSt10unique_ptrI12SparseMatrixSt14default_deleteIS0_EED1Ev>
  403d8a:	eb cf                	jmp    403d5b <_Z7to_bcscRK6Matrixii..0+0x21b>
  403d8c:	0f 1f 40 00          	nopl   0x0(%rax)

0000000000403d90 <_Z30test_jump_penalty_2_20_generalv>:
  403d90:	55                   	push   %rbp
  403d91:	48 89 e5             	mov    %rsp,%rbp
  403d94:	48 83 e4 c0          	and    $0xffffffffffffffc0,%rsp
  403d98:	48 81 ec 00 05 00 00 	sub    $0x500,%rsp
  403d9f:	48 89 9c 24 48 04 00 	mov    %rbx,0x448(%rsp)
  403da6:	00 
  403da7:	bb 20 00 00 00       	mov    $0x20,%ebx
  403dac:	4c 89 bc 24 50 04 00 	mov    %r15,0x450(%rsp)
  403db3:	00 
  403db4:	be 40 00 00 00       	mov    $0x40,%esi
  403db9:	4c 89 b4 24 58 04 00 	mov    %r14,0x458(%rsp)
  403dc0:	00 
  403dc1:	48 8d bc 24 b8 04 00 	lea    0x4b8(%rsp),%rdi
  403dc8:	00 
  403dc9:	4c 89 ac 24 60 04 00 	mov    %r13,0x460(%rsp)
  403dd0:	00 
  403dd1:	ba 00 30 00 00       	mov    $0x3000,%edx
  403dd6:	4c 89 a4 24 68 04 00 	mov    %r12,0x468(%rsp)
  403ddd:	00 
  403dde:	48 c7 84 24 a0 04 00 	movq   $0x611220,0x4a0(%rsp)
  403de5:	00 20 12 61 00 
  403dea:	89 9c 24 b0 04 00 00 	mov    %ebx,0x4b0(%rsp)
  403df1:	89 9c 24 a8 04 00 00 	mov    %ebx,0x4a8(%rsp)
  403df8:	c7 84 24 ac 04 00 00 	movl   $0x30,0x4ac(%rsp)
  403dff:	30 00 00 00 
  403e03:	e8 d8 d6 ff ff       	callq  4014e0 <posix_memalign@plt>
  403e08:	8b 84 24 ac 04 00 00 	mov    0x4ac(%rsp),%eax
  403e0f:	31 d2                	xor    %edx,%edx
  403e11:	85 c0                	test   %eax,%eax
  403e13:	0f 8e 79 02 00 00    	jle    404092 <_Z30test_jump_penalty_2_20_generalv+0x302>
  403e19:	44 8b bc 24 a8 04 00 	mov    0x4a8(%rsp),%r15d
  403e20:	00 
  403e21:	8b b4 24 b0 04 00 00 	mov    0x4b0(%rsp),%esi
  403e28:	b9 08 00 00 00       	mov    $0x8,%ecx
  403e2d:	62 f1 ed 48 ef d2    	vpxorq %zmm2,%zmm2,%zmm2
  403e33:	45 31 ed             	xor    %r13d,%r13d
  403e36:	c5 f9 6e c9          	vmovd  %ecx,%xmm1
  403e3a:	45 31 e4             	xor    %r12d,%r12d
  403e3d:	89 d3                	mov    %edx,%ebx
  403e3f:	45 89 f8             	mov    %r15d,%r8d
  403e42:	4d 63 cf             	movslq %r15d,%r9
  403e45:	4c 8b b4 24 b8 04 00 	mov    0x4b8(%rsp),%r14
  403e4c:	00 
  403e4d:	c5 fe 6f 05 ab a6 00 	vmovdqu 0xa6ab(%rip),%ymm0        # 40e500 <_IO_stdin_used+0xc0>
  403e54:	00 
  403e55:	41 83 e0 f8          	and    $0xfffffff8,%r8d
  403e59:	48 63 fe             	movslq %esi,%rdi
  403e5c:	4d 63 d0             	movslq %r8d,%r10
  403e5f:	4c 89 54 24 40       	mov    %r10,0x40(%rsp)
  403e64:	4a 8d 0c cd 00 00 00 	lea    0x0(,%r9,8),%rcx
  403e6b:	00 
  403e6c:	48 89 4c 24 38       	mov    %rcx,0x38(%rsp)
  403e71:	c4 e2 7d 58 c9       	vpbroadcastd %xmm1,%ymm1
  403e76:	45 85 ff             	test   %r15d,%r15d
  403e79:	0f 8e fe 00 00 00    	jle    403f7d <_Z30test_jump_penalty_2_20_generalv+0x1ed>
  403e7f:	41 83 ff 0c          	cmp    $0xc,%r15d
  403e83:	7e 76                	jle    403efb <_Z30test_jump_penalty_2_20_generalv+0x16b>
  403e85:	c5 fe 7f 0c 24       	vmovdqu %ymm1,(%rsp)
  403e8a:	4c 89 4c 24 20       	mov    %r9,0x20(%rsp)
  403e8f:	44 89 44 24 28       	mov    %r8d,0x28(%rsp)
  403e94:	48 89 7c 24 50       	mov    %rdi,0x50(%rsp)
  403e99:	89 74 24 48          	mov    %esi,0x48(%rsp)
  403e9d:	89 44 24 30          	mov    %eax,0x30(%rsp)
  403ea1:	4d 63 ed             	movslq %r13d,%r13
  403ea4:	31 f6                	xor    %esi,%esi
  403ea6:	48 8b 54 24 38       	mov    0x38(%rsp),%rdx
  403eab:	4b 8d 3c ee          	lea    (%r14,%r13,8),%rdi
  403eaf:	e8 cc 74 00 00       	callq  40b380 <__intel_mic_avx512f_memset>
  403eb4:	83 c3 01             	add    $0x1,%ebx
  403eb7:	4c 03 64 24 50       	add    0x50(%rsp),%r12
  403ebc:	44 03 6c 24 48       	add    0x48(%rsp),%r13d
  403ec1:	3b 5c 24 30          	cmp    0x30(%rsp),%ebx
  403ec5:	0f 83 d2 1d 00 00    	jae    405c9d <BLOCK_3_1_0_3+0x298>
  403ecb:	41 83 ff 0c          	cmp    $0xc,%r15d
  403ecf:	7f d0                	jg     403ea1 <_Z30test_jump_penalty_2_20_generalv+0x111>
  403ed1:	c5 fe 6f 05 27 a6 00 	vmovdqu 0xa627(%rip),%ymm0        # 40e500 <_IO_stdin_used+0xc0>
  403ed8:	00 
  403ed9:	c5 fe 6f 0c 24       	vmovdqu (%rsp),%ymm1
  403ede:	62 f1 ed 48 ef d2    	vpxorq %zmm2,%zmm2,%zmm2
  403ee4:	4c 8b 4c 24 20       	mov    0x20(%rsp),%r9
  403ee9:	44 8b 44 24 28       	mov    0x28(%rsp),%r8d
  403eee:	48 8b 7c 24 50       	mov    0x50(%rsp),%rdi
  403ef3:	8b 74 24 48          	mov    0x48(%rsp),%esi
  403ef7:	8b 44 24 30          	mov    0x30(%rsp),%eax
  403efb:	41 83 ff 08          	cmp    $0x8,%r15d
  403eff:	0f 8c 91 1d 00 00    	jl     405c96 <BLOCK_3_1_0_3+0x291>
  403f05:	44 89 c2             	mov    %r8d,%edx
  403f08:	45 31 d2             	xor    %r10d,%r10d
  403f0b:	4b 8d 0c e6          	lea    (%r14,%r12,8),%rcx
  403f0f:	4c 8b 5c 24 40       	mov    0x40(%rsp),%r11
  403f14:	62 b1 fd 48 11 14 d1 	vmovupd %zmm2,(%rcx,%r10,8)
  403f1b:	49 83 c2 08          	add    $0x8,%r10
  403f1f:	4d 39 da             	cmp    %r11,%r10
  403f22:	72 f0                	jb     403f14 <_Z30test_jump_penalty_2_20_generalv+0x184>
  403f24:	8d 4a 01             	lea    0x1(%rdx),%ecx
  403f27:	44 39 f9             	cmp    %r15d,%ecx
  403f2a:	77 51                	ja     403f7d <_Z30test_jump_penalty_2_20_generalv+0x1ed>
  403f2c:	45 89 fa             	mov    %r15d,%r10d
  403f2f:	b9 ff 00 00 00       	mov    $0xff,%ecx
  403f34:	c5 fd 6f e0          	vmovdqa %ymm0,%ymm4
  403f38:	41 29 d2             	sub    %edx,%r10d
  403f3b:	48 63 d2             	movslq %edx,%rdx
  403f3e:	c4 c1 79 6e da       	vmovd  %r10d,%xmm3
  403f43:	4d 8d 1c 14          	lea    (%r12,%rdx,1),%r11
  403f47:	48 f7 da             	neg    %rdx
  403f4a:	c5 f8 92 c9          	kmovw  %ecx,%k1
  403f4e:	c4 e2 7d 58 db       	vpbroadcastd %xmm3,%ymm3
  403f53:	31 c9                	xor    %ecx,%ecx
  403f55:	4f 8d 1c de          	lea    (%r14,%r11,8),%r11
  403f59:	4c 01 ca             	add    %r9,%rdx
  403f5c:	45 31 d2             	xor    %r10d,%r10d
  403f5f:	48 83 c1 08          	add    $0x8,%rcx
  403f63:	62 f1 65 49 66 d4    	vpcmpgtd %zmm4,%zmm3,%k2{%k1}
  403f69:	62 91 fd 4a 11 14 1a 	vmovupd %zmm2,(%r10,%r11,1){%k2}
  403f70:	49 83 c2 40          	add    $0x40,%r10
  403f74:	c5 dd fe e1          	vpaddd %ymm1,%ymm4,%ymm4
  403f78:	48 39 d1             	cmp    %rdx,%rcx
  403f7b:	72 e2                	jb     403f5f <_Z30test_jump_penalty_2_20_generalv+0x1cf>
  403f7d:	83 c3 01             	add    $0x1,%ebx
  403f80:	49 01 fc             	add    %rdi,%r12
  403f83:	41 01 f5             	add    %esi,%r13d
  403f86:	39 c3                	cmp    %eax,%ebx
  403f88:	0f 82 e8 fe ff ff    	jb     403e76 <_Z30test_jump_penalty_2_20_generalv+0xe6>
  403f8e:	bb 20 00 00 00       	mov    $0x20,%ebx
  403f93:	31 c9                	xor    %ecx,%ecx
  403f95:	8b 94 24 b0 04 00 00 	mov    0x4b0(%rsp),%edx
  403f9c:	4c 63 ac 24 a8 04 00 	movslq 0x4a8(%rsp),%r13
  403fa3:	00 
  403fa4:	45 31 f6             	xor    %r14d,%r14d
  403fa7:	4c 8b a4 24 b8 04 00 	mov    0x4b8(%rsp),%r12
  403fae:	00 
  403faf:	c5 fb 10 05 79 a5 00 	vmovsd 0xa579(%rip),%xmm0        # 40e530 <_IO_stdin_used+0xf0>
  403fb6:	00 
  403fb7:	31 db                	xor    %ebx,%ebx
  403fb9:	4d 85 ed             	test   %r13,%r13
  403fbc:	0f 8e bd 00 00 00    	jle    40407f <_Z30test_jump_penalty_2_20_generalv+0x2ef>
  403fc2:	62 f3 fd 08 27 e0 00 	vgetmantsd $0x0,%xmm0,%xmm0,%xmm4
  403fc9:	89 54 24 08          	mov    %edx,0x8(%rsp)
  403fcd:	c5 fb 10 0d 73 a5 00 	vmovsd 0xa573(%rip),%xmm1        # 40e548 <_IO_stdin_used+0x108>
  403fd4:	00 
  403fd5:	89 0c 24             	mov    %ecx,(%rsp)
  403fd8:	62 f2 fd 08 43 d8    	vgetexpsd %xmm0,%xmm0,%xmm3
  403fde:	89 44 24 30          	mov    %eax,0x30(%rsp)
  403fe2:	4d 63 f6             	movslq %r14d,%r14
  403fe5:	c5 fb 11 64 24 28    	vmovsd %xmm4,0x28(%rsp)
  403feb:	62 f2 dd 08 cb d4    	vrcp28sd %xmm4,%xmm4,%xmm2
  403ff1:	c5 fb 11 5c 24 10    	vmovsd %xmm3,0x10(%rsp)
  403ff7:	4f 8d 3c f4          	lea    (%r12,%r14,8),%r15
  403ffb:	c5 fb 11 54 24 18    	vmovsd %xmm2,0x18(%rsp)
  404001:	62 f2 ed 18 bd cc    	vfnmadd231sd {rn-sae},%xmm4,%xmm2,%xmm1
  404007:	62 f2 ed 18 99 ca    	vfmadd132sd {rn-sae},%xmm2,%xmm2,%xmm1
  40400d:	c5 fb 11 4c 24 20    	vmovsd %xmm1,0x20(%rsp)
  404013:	e8 58 d4 ff ff       	callq  401470 <rand@plt>
  404018:	c5 f9 57 c0          	vxorpd %xmm0,%xmm0,%xmm0
  40401c:	c5 fb 2a c0          	vcvtsi2sd %eax,%xmm0,%xmm0
  404020:	c5 fb 10 54 24 18    	vmovsd 0x18(%rsp),%xmm2
  404026:	c5 fb 10 5c 24 28    	vmovsd 0x28(%rsp),%xmm3
  40402c:	62 f3 fd 08 27 e0 00 	vgetmantsd $0x0,%xmm0,%xmm0,%xmm4
  404033:	62 f2 fd 08 43 c8    	vgetexpsd %xmm0,%xmm0,%xmm1
  404039:	c5 fb 10 6c 24 20    	vmovsd 0x20(%rsp),%xmm5
  40403f:	62 f1 ef 18 59 f4    	vmulsd {rn-sae},%xmm4,%xmm2,%xmm6
  404045:	c5 f3 5c 7c 24 10    	vsubsd 0x10(%rsp),%xmm1,%xmm7
  40404b:	62 f2 cd 18 bd e3    	vfnmadd231sd {rn-sae},%xmm3,%xmm6,%xmm4
  404051:	62 f2 dd 18 b9 f5    	vfmadd231sd {rn-sae},%xmm5,%xmm4,%xmm6
  404057:	62 72 cd 08 2d c7    	vscalefsd %xmm7,%xmm6,%xmm8
  40405d:	c4 41 7b 11 04 df    	vmovsd %xmm8,(%r15,%rbx,8)
  404063:	48 83 c3 01          	add    $0x1,%rbx
  404067:	4c 39 eb             	cmp    %r13,%rbx
  40406a:	72 a7                	jb     404013 <_Z30test_jump_penalty_2_20_generalv+0x283>
  40406c:	c5 fb 10 05 bc a4 00 	vmovsd 0xa4bc(%rip),%xmm0        # 40e530 <_IO_stdin_used+0xf0>
  404073:	00 
  404074:	8b 54 24 08          	mov    0x8(%rsp),%edx
  404078:	8b 0c 24             	mov    (%rsp),%ecx
  40407b:	8b 44 24 30          	mov    0x30(%rsp),%eax
  40407f:	83 c1 01             	add    $0x1,%ecx
  404082:	41 01 d6             	add    %edx,%r14d
  404085:	39 c1                	cmp    %eax,%ecx
  404087:	0f 82 2a ff ff ff    	jb     403fb7 <_Z30test_jump_penalty_2_20_generalv+0x227>
  40408d:	bb 20 00 00 00       	mov    $0x20,%ebx
  404092:	bf 58 e5 40 00       	mov    $0x40e558,%edi
  404097:	48 c7 84 24 c0 04 00 	movq   $0x611220,0x4c0(%rsp)
  40409e:	00 20 12 61 00 
  4040a3:	be 94 e5 40 00       	mov    $0x40e594,%esi
  4040a8:	e8 f3 d4 ff ff       	callq  4015a0 <fopen@plt>
  4040ad:	49 89 c7             	mov    %rax,%r15
  4040b0:	48 8d 7c 24 08       	lea    0x8(%rsp),%rdi
  4040b5:	be e8 03 00 00       	mov    $0x3e8,%esi
  4040ba:	4c 89 fa             	mov    %r15,%rdx
  4040bd:	e8 7e d5 ff ff       	callq  401640 <fgets@plt>
  4040c2:	48 8d 7c 24 08       	lea    0x8(%rsp),%rdi
  4040c7:	be e8 03 00 00       	mov    $0x3e8,%esi
  4040cc:	4c 89 fa             	mov    %r15,%rdx
  4040cf:	e8 6c d5 ff ff       	callq  401640 <fgets@plt>
  4040d4:	4c 89 ff             	mov    %r15,%rdi
  4040d7:	be 98 e5 40 00       	mov    $0x40e598,%esi
  4040dc:	48 8d 94 24 c8 04 00 	lea    0x4c8(%rsp),%rdx
  4040e3:	00 
  4040e4:	48 8d 8c 24 cc 04 00 	lea    0x4cc(%rsp),%rcx
  4040eb:	00 
  4040ec:	4c 8d 84 24 90 04 00 	lea    0x490(%rsp),%r8
  4040f3:	00 
  4040f4:	31 c0                	xor    %eax,%eax
  4040f6:	e8 f5 d5 ff ff       	callq  4016f0 <fscanf@plt>
  4040fb:	8b 84 24 c8 04 00 00 	mov    0x4c8(%rsp),%eax
  404102:	89 84 24 d0 04 00 00 	mov    %eax,0x4d0(%rsp)
  404109:	8b 94 24 cc 04 00 00 	mov    0x4cc(%rsp),%edx
  404110:	be 40 00 00 00       	mov    $0x40,%esi
  404115:	48 8d bc 24 d8 04 00 	lea    0x4d8(%rsp),%rdi
  40411c:	00 
  40411d:	0f af d0             	imul   %eax,%edx
  404120:	48 63 d2             	movslq %edx,%rdx
  404123:	48 c1 e2 03          	shl    $0x3,%rdx
  404127:	e8 b4 d3 ff ff       	callq  4014e0 <posix_memalign@plt>
  40412c:	8b b4 24 cc 04 00 00 	mov    0x4cc(%rsp),%esi
  404133:	31 ff                	xor    %edi,%edi
  404135:	85 f6                	test   %esi,%esi
  404137:	0f 8e aa 01 00 00    	jle    4042e7 <_Z30test_jump_penalty_2_20_generalv+0x557>
  40413d:	44 8b ac 24 c8 04 00 	mov    0x4c8(%rsp),%r13d
  404144:	00 
  404145:	4c 89 3c 24          	mov    %r15,(%rsp)
  404149:	b9 08 00 00 00       	mov    $0x8,%ecx
  40414e:	62 f1 ed 48 ef d2    	vpxorq %zmm2,%zmm2,%zmm2
  404154:	45 31 e4             	xor    %r12d,%r12d
  404157:	48 63 94 24 d0 04 00 	movslq 0x4d0(%rsp),%rdx
  40415e:	00 
  40415f:	c5 f9 6e c9          	vmovd  %ecx,%xmm1
  404163:	89 fb                	mov    %edi,%ebx
  404165:	48 8b 84 24 d8 04 00 	mov    0x4d8(%rsp),%rax
  40416c:	00 
  40416d:	49 63 cd             	movslq %r13d,%rcx
  404170:	45 89 e8             	mov    %r13d,%r8d
  404173:	41 83 e0 f8          	and    $0xfffffff8,%r8d
  404177:	4c 8d 14 cd 00 00 00 	lea    0x0(,%rcx,8),%r10
  40417e:	00 
  40417f:	4c 89 94 24 30 04 00 	mov    %r10,0x430(%rsp)
  404186:	00 
  404187:	c5 fe 6f 05 71 a3 00 	vmovdqu 0xa371(%rip),%ymm0        # 40e500 <_IO_stdin_used+0xc0>
  40418e:	00 
  40418f:	49 89 c6             	mov    %rax,%r14
  404192:	c4 e2 7d 58 c9       	vpbroadcastd %xmm1,%ymm1
  404197:	4d 63 c8             	movslq %r8d,%r9
  40419a:	49 89 d7             	mov    %rdx,%r15
  40419d:	45 85 ed             	test   %r13d,%r13d
  4041a0:	0f 8e 26 01 00 00    	jle    4042cc <_Z30test_jump_penalty_2_20_generalv+0x53c>
  4041a6:	41 83 fd 0c          	cmp    $0xc,%r13d
  4041aa:	0f 8e 9d 00 00 00    	jle    40424d <_Z30test_jump_penalty_2_20_generalv+0x4bd>
  4041b0:	c5 fe 7f 8c 24 00 04 	vmovdqu %ymm1,0x400(%rsp)
  4041b7:	00 00 
  4041b9:	48 89 8c 24 f0 03 00 	mov    %rcx,0x3f0(%rsp)
  4041c0:	00 
  4041c1:	4c 89 8c 24 f8 03 00 	mov    %r9,0x3f8(%rsp)
  4041c8:	00 
  4041c9:	44 89 84 24 20 04 00 	mov    %r8d,0x420(%rsp)
  4041d0:	00 
  4041d1:	48 89 84 24 28 04 00 	mov    %rax,0x428(%rsp)
  4041d8:	00 
  4041d9:	89 b4 24 38 04 00 00 	mov    %esi,0x438(%rsp)
  4041e0:	4c 89 f7             	mov    %r14,%rdi
  4041e3:	31 f6                	xor    %esi,%esi
  4041e5:	48 8b 94 24 30 04 00 	mov    0x430(%rsp),%rdx
  4041ec:	00 
  4041ed:	e8 8e 71 00 00       	callq  40b380 <__intel_mic_avx512f_memset>
  4041f2:	83 c3 01             	add    $0x1,%ebx
  4041f5:	4d 01 fc             	add    %r15,%r12
  4041f8:	4f 8d 34 fe          	lea    (%r14,%r15,8),%r14
  4041fc:	3b 9c 24 38 04 00 00 	cmp    0x438(%rsp),%ebx
  404203:	0f 83 d5 00 00 00    	jae    4042de <_Z30test_jump_penalty_2_20_generalv+0x54e>
  404209:	41 83 fd 0c          	cmp    $0xc,%r13d
  40420d:	7f d1                	jg     4041e0 <_Z30test_jump_penalty_2_20_generalv+0x450>
  40420f:	c5 fe 6f 05 e9 a2 00 	vmovdqu 0xa2e9(%rip),%ymm0        # 40e500 <_IO_stdin_used+0xc0>
  404216:	00 
  404217:	c5 fe 6f 8c 24 00 04 	vmovdqu 0x400(%rsp),%ymm1
  40421e:	00 00 
  404220:	62 f1 ed 48 ef d2    	vpxorq %zmm2,%zmm2,%zmm2
  404226:	48 8b 8c 24 f0 03 00 	mov    0x3f0(%rsp),%rcx
  40422d:	00 
  40422e:	4c 8b 8c 24 f8 03 00 	mov    0x3f8(%rsp),%r9
  404235:	00 
  404236:	44 8b 84 24 20 04 00 	mov    0x420(%rsp),%r8d
  40423d:	00 
  40423e:	48 8b 84 24 28 04 00 	mov    0x428(%rsp),%rax
  404245:	00 
  404246:	8b b4 24 38 04 00 00 	mov    0x438(%rsp),%esi
  40424d:	41 83 fd 08          	cmp    $0x8,%r13d
  404251:	0f 8c 38 1a 00 00    	jl     405c8f <BLOCK_3_1_0_3+0x28a>
  404257:	44 89 c2             	mov    %r8d,%edx
  40425a:	45 31 db             	xor    %r11d,%r11d
  40425d:	4e 8d 14 e0          	lea    (%rax,%r12,8),%r10
  404261:	62 91 fd 48 11 14 da 	vmovupd %zmm2,(%r10,%r11,8)
  404268:	49 83 c3 08          	add    $0x8,%r11
  40426c:	4d 39 cb             	cmp    %r9,%r11
  40426f:	72 f0                	jb     404261 <_Z30test_jump_penalty_2_20_generalv+0x4d1>
  404271:	44 8d 52 01          	lea    0x1(%rdx),%r10d
  404275:	45 39 ea             	cmp    %r13d,%r10d
  404278:	77 52                	ja     4042cc <_Z30test_jump_penalty_2_20_generalv+0x53c>
  40427a:	45 89 eb             	mov    %r13d,%r11d
  40427d:	bf ff 00 00 00       	mov    $0xff,%edi
  404282:	c5 fd 6f e0          	vmovdqa %ymm0,%ymm4
  404286:	41 29 d3             	sub    %edx,%r11d
  404289:	48 63 d2             	movslq %edx,%rdx
  40428c:	c4 c1 79 6e db       	vmovd  %r11d,%xmm3
  404291:	4d 8d 1c 14          	lea    (%r12,%rdx,1),%r11
  404295:	48 f7 da             	neg    %rdx
  404298:	c5 f8 92 cf          	kmovw  %edi,%k1
  40429c:	c4 e2 7d 58 db       	vpbroadcastd %xmm3,%ymm3
  4042a1:	45 31 d2             	xor    %r10d,%r10d
  4042a4:	4a 8d 3c d8          	lea    (%rax,%r11,8),%rdi
  4042a8:	48 01 ca             	add    %rcx,%rdx
  4042ab:	45 31 db             	xor    %r11d,%r11d
  4042ae:	49 83 c2 08          	add    $0x8,%r10
  4042b2:	62 f1 65 49 66 d4    	vpcmpgtd %zmm4,%zmm3,%k2{%k1}
  4042b8:	62 d1 fd 4a 11 14 3b 	vmovupd %zmm2,(%r11,%rdi,1){%k2}
  4042bf:	49 83 c3 40          	add    $0x40,%r11
  4042c3:	c5 dd fe e1          	vpaddd %ymm1,%ymm4,%ymm4
  4042c7:	49 39 d2             	cmp    %rdx,%r10
  4042ca:	72 e2                	jb     4042ae <_Z30test_jump_penalty_2_20_generalv+0x51e>
  4042cc:	83 c3 01             	add    $0x1,%ebx
  4042cf:	4d 01 fc             	add    %r15,%r12
  4042d2:	4f 8d 34 fe          	lea    (%r14,%r15,8),%r14
  4042d6:	39 f3                	cmp    %esi,%ebx
  4042d8:	0f 82 bf fe ff ff    	jb     40419d <_Z30test_jump_penalty_2_20_generalv+0x40d>
  4042de:	4c 8b 3c 24          	mov    (%rsp),%r15
  4042e2:	bb 20 00 00 00       	mov    $0x20,%ebx
  4042e7:	45 31 e4             	xor    %r12d,%r12d
  4042ea:	83 bc 24 90 04 00 00 	cmpl   $0x0,0x490(%rsp)
  4042f1:	00 
  4042f2:	7e 66                	jle    40435a <_Z30test_jump_penalty_2_20_generalv+0x5ca>
  4042f4:	4c 89 ff             	mov    %r15,%rdi
  4042f7:	be a4 e5 40 00       	mov    $0x40e5a4,%esi
  4042fc:	48 8d 94 24 94 04 00 	lea    0x494(%rsp),%rdx
  404303:	00 
  404304:	48 8d 8c 24 98 04 00 	lea    0x498(%rsp),%rcx
  40430b:	00 
  40430c:	4c 8d 84 24 78 04 00 	lea    0x478(%rsp),%r8
  404313:	00 
  404314:	31 c0                	xor    %eax,%eax
  404316:	e8 d5 d3 ff ff       	callq  4016f0 <fscanf@plt>
  40431b:	8b 84 24 98 04 00 00 	mov    0x498(%rsp),%eax
  404322:	48 8b b4 24 d8 04 00 	mov    0x4d8(%rsp),%rsi
  404329:	00 
  40432a:	41 83 c4 01          	add    $0x1,%r12d
  40432e:	83 c0 ff             	add    $0xffffffff,%eax
  404331:	48 8b 8c 24 78 04 00 	mov    0x478(%rsp),%rcx
  404338:	00 
  404339:	0f af 84 24 d0 04 00 	imul   0x4d0(%rsp),%eax
  404340:	00 
  404341:	03 84 24 94 04 00 00 	add    0x494(%rsp),%eax
  404348:	48 63 c0             	movslq %eax,%rax
  40434b:	48 89 4c c6 f8       	mov    %rcx,-0x8(%rsi,%rax,8)
  404350:	44 3b a4 24 90 04 00 	cmp    0x490(%rsp),%r12d
  404357:	00 
  404358:	7c 9a                	jl     4042f4 <_Z30test_jump_penalty_2_20_generalv+0x564>
  40435a:	4c 89 ff             	mov    %r15,%rdi
  40435d:	e8 de d1 ff ff       	callq  401540 <fclose@plt>
  404362:	ba 10 00 00 00       	mov    $0x10,%edx
  404367:	48 8d bc 24 70 04 00 	lea    0x470(%rsp),%rdi
  40436e:	00 
  40436f:	48 8d b4 24 c0 04 00 	lea    0x4c0(%rsp),%rsi
  404376:	00 
  404377:	89 d1                	mov    %edx,%ecx
  404379:	e8 c2 f7 ff ff       	callq  403b40 <_Z7to_bcscRK6Matrixii..0>
  40437e:	48 8d bc 24 f8 04 00 	lea    0x4f8(%rsp),%rdi
  404385:	00 
  404386:	48 c7 84 24 e0 04 00 	movq   $0x611220,0x4e0(%rsp)
  40438d:	00 20 12 61 00 
  404392:	be 40 00 00 00       	mov    $0x40,%esi
  404397:	89 9c 24 f0 04 00 00 	mov    %ebx,0x4f0(%rsp)
  40439e:	ba 00 20 00 00       	mov    $0x2000,%edx
  4043a3:	89 9c 24 e8 04 00 00 	mov    %ebx,0x4e8(%rsp)
  4043aa:	89 9c 24 ec 04 00 00 	mov    %ebx,0x4ec(%rsp)
  4043b1:	e8 2a d1 ff ff       	callq  4014e0 <posix_memalign@plt>
  4043b6:	8b 8c 24 ec 04 00 00 	mov    0x4ec(%rsp),%ecx
  4043bd:	31 c0                	xor    %eax,%eax
  4043bf:	85 c9                	test   %ecx,%ecx
  4043c1:	0f 8e 97 01 00 00    	jle    40455e <_Z30test_jump_penalty_2_20_generalv+0x7ce>
  4043c7:	44 8b b4 24 e8 04 00 	mov    0x4e8(%rsp),%r14d
  4043ce:	00 
  4043cf:	48 8b b4 24 f8 04 00 	mov    0x4f8(%rsp),%rsi
  4043d6:	00 
  4043d7:	ba 08 00 00 00       	mov    $0x8,%edx
  4043dc:	62 f1 ed 48 ef d2    	vpxorq %zmm2,%zmm2,%zmm2
  4043e2:	45 31 e4             	xor    %r12d,%r12d
  4043e5:	c5 f9 6e ca          	vmovd  %edx,%xmm1
  4043e9:	89 c3                	mov    %eax,%ebx
  4043eb:	4d 63 d6             	movslq %r14d,%r10
  4043ee:	45 89 f0             	mov    %r14d,%r8d
  4043f1:	4c 63 bc 24 f0 04 00 	movslq 0x4f0(%rsp),%r15
  4043f8:	00 
  4043f9:	c5 fe 6f 05 ff a0 00 	vmovdqu 0xa0ff(%rip),%ymm0        # 40e500 <_IO_stdin_used+0xc0>
  404400:	00 
  404401:	41 83 e0 f8          	and    $0xfffffff8,%r8d
  404405:	49 89 f5             	mov    %rsi,%r13
  404408:	4a 8d 14 d5 00 00 00 	lea    0x0(,%r10,8),%rdx
  40440f:	00 
  404410:	48 89 94 24 28 04 00 	mov    %rdx,0x428(%rsp)
  404417:	00 
  404418:	c4 e2 7d 58 c9       	vpbroadcastd %xmm1,%ymm1
  40441d:	4d 63 c8             	movslq %r8d,%r9
  404420:	45 85 f6             	test   %r14d,%r14d
  404423:	0f 8e 1d 01 00 00    	jle    404546 <_Z30test_jump_penalty_2_20_generalv+0x7b6>
  404429:	41 83 fe 0c          	cmp    $0xc,%r14d
  40442d:	0f 8e 96 00 00 00    	jle    4044c9 <_Z30test_jump_penalty_2_20_generalv+0x739>
  404433:	c5 fe 7f 8c 24 00 04 	vmovdqu %ymm1,0x400(%rsp)
  40443a:	00 00 
  40443c:	4c 89 14 24          	mov    %r10,(%rsp)
  404440:	4c 89 8c 24 f0 03 00 	mov    %r9,0x3f0(%rsp)
  404447:	00 
  404448:	44 89 84 24 f8 03 00 	mov    %r8d,0x3f8(%rsp)
  40444f:	00 
  404450:	48 89 b4 24 20 04 00 	mov    %rsi,0x420(%rsp)
  404457:	00 
  404458:	89 8c 24 30 04 00 00 	mov    %ecx,0x430(%rsp)
  40445f:	4c 89 ef             	mov    %r13,%rdi
  404462:	31 f6                	xor    %esi,%esi
  404464:	48 8b 94 24 28 04 00 	mov    0x428(%rsp),%rdx
  40446b:	00 
  40446c:	e8 0f 6f 00 00       	callq  40b380 <__intel_mic_avx512f_memset>
  404471:	83 c3 01             	add    $0x1,%ebx
  404474:	4d 01 fc             	add    %r15,%r12
  404477:	4f 8d 6c fd 00       	lea    0x0(%r13,%r15,8),%r13
  40447c:	3b 9c 24 30 04 00 00 	cmp    0x430(%rsp),%ebx
  404483:	0f 83 d0 00 00 00    	jae    404559 <_Z30test_jump_penalty_2_20_generalv+0x7c9>
  404489:	41 83 fe 0c          	cmp    $0xc,%r14d
  40448d:	7f d0                	jg     40445f <_Z30test_jump_penalty_2_20_generalv+0x6cf>
  40448f:	c5 fe 6f 05 69 a0 00 	vmovdqu 0xa069(%rip),%ymm0        # 40e500 <_IO_stdin_used+0xc0>
  404496:	00 
  404497:	c5 fe 6f 8c 24 00 04 	vmovdqu 0x400(%rsp),%ymm1
  40449e:	00 00 
  4044a0:	62 f1 ed 48 ef d2    	vpxorq %zmm2,%zmm2,%zmm2
  4044a6:	4c 8b 8c 24 f0 03 00 	mov    0x3f0(%rsp),%r9
  4044ad:	00 
  4044ae:	44 8b 84 24 f8 03 00 	mov    0x3f8(%rsp),%r8d
  4044b5:	00 
  4044b6:	48 8b b4 24 20 04 00 	mov    0x420(%rsp),%rsi
  4044bd:	00 
  4044be:	8b 8c 24 30 04 00 00 	mov    0x430(%rsp),%ecx
  4044c5:	4c 8b 14 24          	mov    (%rsp),%r10
  4044c9:	41 83 fe 08          	cmp    $0x8,%r14d
  4044cd:	0f 8c af 17 00 00    	jl     405c82 <BLOCK_3_1_0_3+0x27d>
  4044d3:	44 89 c0             	mov    %r8d,%eax
  4044d6:	45 31 db             	xor    %r11d,%r11d
  4044d9:	4a 8d 14 e6          	lea    (%rsi,%r12,8),%rdx
  4044dd:	62 b1 fd 48 11 14 da 	vmovupd %zmm2,(%rdx,%r11,8)
  4044e4:	49 83 c3 08          	add    $0x8,%r11
  4044e8:	4d 39 cb             	cmp    %r9,%r11
  4044eb:	72 f0                	jb     4044dd <_Z30test_jump_penalty_2_20_generalv+0x74d>
  4044ed:	8d 50 01             	lea    0x1(%rax),%edx
  4044f0:	44 39 f2             	cmp    %r14d,%edx
  4044f3:	77 51                	ja     404546 <_Z30test_jump_penalty_2_20_generalv+0x7b6>
  4044f5:	45 89 f3             	mov    %r14d,%r11d
  4044f8:	ba ff 00 00 00       	mov    $0xff,%edx
  4044fd:	c5 fd 6f e0          	vmovdqa %ymm0,%ymm4
  404501:	41 29 c3             	sub    %eax,%r11d
  404504:	48 63 c0             	movslq %eax,%rax
  404507:	c4 c1 79 6e db       	vmovd  %r11d,%xmm3
  40450c:	4d 8d 1c 04          	lea    (%r12,%rax,1),%r11
  404510:	48 f7 d8             	neg    %rax
  404513:	c5 f8 92 ca          	kmovw  %edx,%k1
  404517:	c4 e2 7d 58 db       	vpbroadcastd %xmm3,%ymm3
  40451c:	31 d2                	xor    %edx,%edx
  40451e:	4a 8d 3c de          	lea    (%rsi,%r11,8),%rdi
  404522:	4c 01 d0             	add    %r10,%rax
  404525:	45 31 db             	xor    %r11d,%r11d
  404528:	48 83 c2 08          	add    $0x8,%rdx
  40452c:	62 f1 65 49 66 d4    	vpcmpgtd %zmm4,%zmm3,%k2{%k1}
  404532:	62 d1 fd 4a 11 14 3b 	vmovupd %zmm2,(%r11,%rdi,1){%k2}
  404539:	49 83 c3 40          	add    $0x40,%r11
  40453d:	c5 dd fe e1          	vpaddd %ymm1,%ymm4,%ymm4
  404541:	48 39 c2             	cmp    %rax,%rdx
  404544:	72 e2                	jb     404528 <_Z30test_jump_penalty_2_20_generalv+0x798>
  404546:	83 c3 01             	add    $0x1,%ebx
  404549:	4d 01 fc             	add    %r15,%r12
  40454c:	4f 8d 6c fd 00       	lea    0x0(%r13,%r15,8),%r13
  404551:	39 cb                	cmp    %ecx,%ebx
  404553:	0f 82 c7 fe ff ff    	jb     404420 <_Z30test_jump_penalty_2_20_generalv+0x690>
  404559:	bb 20 00 00 00       	mov    $0x20,%ebx
  40455e:	48 8d bc 24 38 04 00 	lea    0x438(%rsp),%rdi
  404565:	00 
  404566:	48 c7 84 24 20 04 00 	movq   $0x611220,0x420(%rsp)
  40456d:	00 20 12 61 00 
  404572:	be 40 00 00 00       	mov    $0x40,%esi
  404577:	89 9c 24 30 04 00 00 	mov    %ebx,0x430(%rsp)
  40457e:	ba 00 20 00 00       	mov    $0x2000,%edx
  404583:	89 9c 24 28 04 00 00 	mov    %ebx,0x428(%rsp)
  40458a:	89 9c 24 2c 04 00 00 	mov    %ebx,0x42c(%rsp)
  404591:	e8 4a cf ff ff       	callq  4014e0 <posix_memalign@plt>
  404596:	44 8b 8c 24 2c 04 00 	mov    0x42c(%rsp),%r9d
  40459d:	00 
  40459e:	45 31 e4             	xor    %r12d,%r12d
  4045a1:	45 85 c9             	test   %r9d,%r9d
  4045a4:	0f 8e 8f 01 00 00    	jle    404739 <_Z30test_jump_penalty_2_20_generalv+0x9a9>
  4045aa:	44 8b ac 24 28 04 00 	mov    0x428(%rsp),%r13d
  4045b1:	00 
  4045b2:	4c 8b 84 24 38 04 00 	mov    0x438(%rsp),%r8
  4045b9:	00 
  4045ba:	b8 08 00 00 00       	mov    $0x8,%eax
  4045bf:	62 f1 ed 48 ef d2    	vpxorq %zmm2,%zmm2,%zmm2
  4045c5:	31 db                	xor    %ebx,%ebx
  4045c7:	c5 f9 6e c8          	vmovd  %eax,%xmm1
  4045cb:	49 63 cd             	movslq %r13d,%rcx
  4045ce:	44 89 ee             	mov    %r13d,%esi
  4045d1:	4c 63 bc 24 30 04 00 	movslq 0x430(%rsp),%r15
  4045d8:	00 
  4045d9:	c5 fe 6f 05 1f 9f 00 	vmovdqu 0x9f1f(%rip),%ymm0        # 40e500 <_IO_stdin_used+0xc0>
  4045e0:	00 
  4045e1:	83 e6 f8             	and    $0xfffffff8,%esi
  4045e4:	4d 89 c6             	mov    %r8,%r14
  4045e7:	48 8d 04 cd 00 00 00 	lea    0x0(,%rcx,8),%rax
  4045ee:	00 
  4045ef:	48 89 84 24 80 04 00 	mov    %rax,0x480(%rsp)
  4045f6:	00 
  4045f7:	4c 63 d6             	movslq %esi,%r10
  4045fa:	c4 e2 7d 58 c9       	vpbroadcastd %xmm1,%ymm1
  4045ff:	45 85 ed             	test   %r13d,%r13d
  404602:	0f 8e 1d 01 00 00    	jle    404725 <_Z30test_jump_penalty_2_20_generalv+0x995>
  404608:	41 83 fd 0c          	cmp    $0xc,%r13d
  40460c:	0f 8e 97 00 00 00    	jle    4046a9 <_Z30test_jump_penalty_2_20_generalv+0x919>
  404612:	c5 fe 7f 8c 24 00 04 	vmovdqu %ymm1,0x400(%rsp)
  404619:	00 00 
  40461b:	48 89 0c 24          	mov    %rcx,(%rsp)
  40461f:	4c 89 94 24 f0 03 00 	mov    %r10,0x3f0(%rsp)
  404626:	00 
  404627:	89 b4 24 f8 03 00 00 	mov    %esi,0x3f8(%rsp)
  40462e:	4c 89 84 24 40 04 00 	mov    %r8,0x440(%rsp)
  404635:	00 
  404636:	44 89 8c 24 88 04 00 	mov    %r9d,0x488(%rsp)
  40463d:	00 
  40463e:	4c 89 f7             	mov    %r14,%rdi
  404641:	31 f6                	xor    %esi,%esi
  404643:	48 8b 94 24 80 04 00 	mov    0x480(%rsp),%rdx
  40464a:	00 
  40464b:	e8 30 6d 00 00       	callq  40b380 <__intel_mic_avx512f_memset>
  404650:	41 83 c4 01          	add    $0x1,%r12d
  404654:	4c 01 fb             	add    %r15,%rbx
  404657:	4f 8d 34 fe          	lea    (%r14,%r15,8),%r14
  40465b:	44 3b a4 24 88 04 00 	cmp    0x488(%rsp),%r12d
  404662:	00 
  404663:	0f 83 d0 00 00 00    	jae    404739 <_Z30test_jump_penalty_2_20_generalv+0x9a9>
  404669:	41 83 fd 0c          	cmp    $0xc,%r13d
  40466d:	7f cf                	jg     40463e <_Z30test_jump_penalty_2_20_generalv+0x8ae>
  40466f:	c5 fe 6f 05 89 9e 00 	vmovdqu 0x9e89(%rip),%ymm0        # 40e500 <_IO_stdin_used+0xc0>
  404676:	00 
  404677:	c5 fe 6f 8c 24 00 04 	vmovdqu 0x400(%rsp),%ymm1
  40467e:	00 00 
  404680:	62 f1 ed 48 ef d2    	vpxorq %zmm2,%zmm2,%zmm2
  404686:	4c 8b 94 24 f0 03 00 	mov    0x3f0(%rsp),%r10
  40468d:	00 
  40468e:	8b b4 24 f8 03 00 00 	mov    0x3f8(%rsp),%esi
  404695:	48 8b 0c 24          	mov    (%rsp),%rcx
  404699:	4c 8b 84 24 40 04 00 	mov    0x440(%rsp),%r8
  4046a0:	00 
  4046a1:	44 8b 8c 24 88 04 00 	mov    0x488(%rsp),%r9d
  4046a8:	00 
  4046a9:	41 83 fd 08          	cmp    $0x8,%r13d
  4046ad:	0f 8c c8 15 00 00    	jl     405c7b <BLOCK_3_1_0_3+0x276>
  4046b3:	89 f0                	mov    %esi,%eax
  4046b5:	45 31 db             	xor    %r11d,%r11d
  4046b8:	49 8d 14 d8          	lea    (%r8,%rbx,8),%rdx
  4046bc:	62 b1 fd 48 11 14 da 	vmovupd %zmm2,(%rdx,%r11,8)
  4046c3:	49 83 c3 08          	add    $0x8,%r11
  4046c7:	4d 39 d3             	cmp    %r10,%r11
  4046ca:	72 f0                	jb     4046bc <_Z30test_jump_penalty_2_20_generalv+0x92c>
  4046cc:	8d 50 01             	lea    0x1(%rax),%edx
  4046cf:	44 39 ea             	cmp    %r13d,%edx
  4046d2:	77 51                	ja     404725 <_Z30test_jump_penalty_2_20_generalv+0x995>
  4046d4:	45 89 eb             	mov    %r13d,%r11d
  4046d7:	ba ff 00 00 00       	mov    $0xff,%edx
  4046dc:	c5 fd 6f e0          	vmovdqa %ymm0,%ymm4
  4046e0:	41 29 c3             	sub    %eax,%r11d
  4046e3:	48 63 c0             	movslq %eax,%rax
  4046e6:	c4 c1 79 6e db       	vmovd  %r11d,%xmm3
  4046eb:	4c 8d 1c 03          	lea    (%rbx,%rax,1),%r11
  4046ef:	48 f7 d8             	neg    %rax
  4046f2:	c5 f8 92 ca          	kmovw  %edx,%k1
  4046f6:	c4 e2 7d 58 db       	vpbroadcastd %xmm3,%ymm3
  4046fb:	31 d2                	xor    %edx,%edx
  4046fd:	4b 8d 3c d8          	lea    (%r8,%r11,8),%rdi
  404701:	48 01 c8             	add    %rcx,%rax
  404704:	45 31 db             	xor    %r11d,%r11d
  404707:	48 83 c2 08          	add    $0x8,%rdx
  40470b:	62 f1 65 49 66 d4    	vpcmpgtd %zmm4,%zmm3,%k2{%k1}
  404711:	62 d1 fd 4a 11 14 3b 	vmovupd %zmm2,(%r11,%rdi,1){%k2}
  404718:	49 83 c3 40          	add    $0x40,%r11
  40471c:	c5 dd fe e1          	vpaddd %ymm1,%ymm4,%ymm4
  404720:	48 39 c2             	cmp    %rax,%rdx
  404723:	72 e2                	jb     404707 <_Z30test_jump_penalty_2_20_generalv+0x977>
  404725:	41 83 c4 01          	add    $0x1,%r12d
  404729:	4c 01 fb             	add    %r15,%rbx
  40472c:	4f 8d 34 fe          	lea    (%r14,%r15,8),%r14
  404730:	45 39 cc             	cmp    %r9d,%r12d
  404733:	0f 82 c6 fe ff ff    	jb     4045ff <_Z30test_jump_penalty_2_20_generalv+0x86f>
  404739:	8b 84 24 ec 04 00 00 	mov    0x4ec(%rsp),%eax
  404740:	89 04 24             	mov    %eax,(%rsp)
  404743:	44 8b ac 24 e8 04 00 	mov    0x4e8(%rsp),%r13d
  40474a:	00 
  40474b:	45 31 ff             	xor    %r15d,%r15d
  40474e:	44 8b b4 24 ac 04 00 	mov    0x4ac(%rsp),%r14d
  404755:	00 
  404756:	85 c0                	test   %eax,%eax
  404758:	0f 8e c6 00 00 00    	jle    404824 <_Z30test_jump_penalty_2_20_generalv+0xa94>
  40475e:	31 db                	xor    %ebx,%ebx
  404760:	45 85 f6             	test   %r14d,%r14d
  404763:	0f 8e ad 00 00 00    	jle    404816 <_Z30test_jump_penalty_2_20_generalv+0xa86>
  404769:	45 31 e4             	xor    %r12d,%r12d
  40476c:	45 85 ed             	test   %r13d,%r13d
  40476f:	0f 8e 95 00 00 00    	jle    40480a <_Z30test_jump_penalty_2_20_generalv+0xa7a>
  404775:	48 8b 84 24 e0 04 00 	mov    0x4e0(%rsp),%rax
  40477c:	00 
  40477d:	48 8d bc 24 e0 04 00 	lea    0x4e0(%rsp),%rdi
  404784:	00 
  404785:	44 89 e6             	mov    %r12d,%esi
  404788:	44 89 fa             	mov    %r15d,%edx
  40478b:	ff 10                	callq  *(%rax)
  40478d:	c5 fb 11 84 24 f8 03 	vmovsd %xmm0,0x3f8(%rsp)
  404794:	00 00 
  404796:	48 8b 84 24 a0 04 00 	mov    0x4a0(%rsp),%rax
  40479d:	00 
  40479e:	48 8d bc 24 a0 04 00 	lea    0x4a0(%rsp),%rdi
  4047a5:	00 
  4047a6:	44 89 e6             	mov    %r12d,%esi
  4047a9:	89 da                	mov    %ebx,%edx
  4047ab:	ff 10                	callq  *(%rax)
  4047ad:	c5 fb 11 84 24 f0 03 	vmovsd %xmm0,0x3f0(%rsp)
  4047b4:	00 00 
  4047b6:	48 8b 84 24 c0 04 00 	mov    0x4c0(%rsp),%rax
  4047bd:	00 
  4047be:	48 8d bc 24 c0 04 00 	lea    0x4c0(%rsp),%rdi
  4047c5:	00 
  4047c6:	89 de                	mov    %ebx,%esi
  4047c8:	44 89 fa             	mov    %r15d,%edx
  4047cb:	ff 10                	callq  *(%rax)
  4047cd:	c5 f9 28 c8          	vmovapd %xmm0,%xmm1
  4047d1:	c5 fb 10 84 24 f8 03 	vmovsd 0x3f8(%rsp),%xmm0
  4047d8:	00 00 
  4047da:	48 8b 84 24 e0 04 00 	mov    0x4e0(%rsp),%rax
  4047e1:	00 
  4047e2:	44 89 e6             	mov    %r12d,%esi
  4047e5:	44 89 fa             	mov    %r15d,%edx
  4047e8:	48 8d bc 24 e0 04 00 	lea    0x4e0(%rsp),%rdi
  4047ef:	00 
  4047f0:	c4 e2 f1 b9 84 24 f0 	vfmadd231sd 0x3f0(%rsp),%xmm1,%xmm0
  4047f7:	03 00 00 
  4047fa:	ff 50 08             	callq  *0x8(%rax)
  4047fd:	41 83 c4 01          	add    $0x1,%r12d
  404801:	45 39 ec             	cmp    %r13d,%r12d
  404804:	0f 8c 6b ff ff ff    	jl     404775 <_Z30test_jump_penalty_2_20_generalv+0x9e5>
  40480a:	83 c3 01             	add    $0x1,%ebx
  40480d:	44 39 f3             	cmp    %r14d,%ebx
  404810:	0f 8c 53 ff ff ff    	jl     404769 <_Z30test_jump_penalty_2_20_generalv+0x9d9>
  404816:	41 83 c7 01          	add    $0x1,%r15d
  40481a:	44 3b 3c 24          	cmp    (%rsp),%r15d
  40481e:	0f 8c 3a ff ff ff    	jl     40475e <_Z30test_jump_penalty_2_20_generalv+0x9ce>
  404824:	48 8b 94 24 70 04 00 	mov    0x470(%rsp),%rdx
  40482b:	00 
  40482c:	48 8b 9c 24 38 04 00 	mov    0x438(%rsp),%rbx
  404833:	00 
  404834:	48 89 9c 24 f8 03 00 	mov    %rbx,0x3f8(%rsp)
  40483b:	00 
  40483c:	48 8b 84 24 b8 04 00 	mov    0x4b8(%rsp),%rax
  404843:	00 
  404844:	48 89 04 24          	mov    %rax,(%rsp)
  404848:	48 8b 4a 18          	mov    0x18(%rdx),%rcx
  40484c:	48 89 8c 24 f0 03 00 	mov    %rcx,0x3f0(%rsp)
  404853:	00 
  404854:	48 8b 3c 24          	mov    (%rsp),%rdi
  404858:	48 8b b4 24 f0 03 00 	mov    0x3f0(%rsp),%rsi
  40485f:	00 
  404860:	48 8b 94 24 f8 03 00 	mov    0x3f8(%rsp),%rdx
  404867:	00 
  404868:	e9 eb 00 00 00       	jmpq   404958 <END_SWITCH_2>

000000000040486d <CASE_1_2>:
  40486d:	62 f1 fd 48 28 4f 04 	vmovapd 0x100(%rdi),%zmm1
  404874:	62 f1 fd 48 28 57 08 	vmovapd 0x200(%rdi),%zmm2
  40487b:	62 f1 fd 48 28 6f 14 	vmovapd 0x500(%rdi),%zmm5
  404882:	62 71 fd 48 28 5f 2c 	vmovapd 0xb00(%rdi),%zmm11
  404889:	62 71 fd 48 28 67 30 	vmovapd 0xc00(%rdi),%zmm12
  404890:	62 71 fd 48 28 6f 34 	vmovapd 0xd00(%rdi),%zmm13
  404897:	62 71 fd 48 28 77 38 	vmovapd 0xe00(%rdi),%zmm14
  40489e:	62 e2 f5 58 b8 6e 03 	vfmadd231pd 0x18(%rsi){1to8},%zmm1,%zmm21
  4048a5:	62 e2 f5 58 b8 7e 05 	vfmadd231pd 0x28(%rsi){1to8},%zmm1,%zmm23
  4048ac:	62 62 f5 58 b8 66 07 	vfmadd231pd 0x38(%rsi){1to8},%zmm1,%zmm28
  4048b3:	62 62 ed 58 b8 76 08 	vfmadd231pd 0x40(%rsi){1to8},%zmm2,%zmm30
  4048ba:	62 62 d5 58 b8 7e 09 	vfmadd231pd 0x48(%rsi){1to8},%zmm5,%zmm31
  4048c1:	62 e2 a5 58 b8 06    	vfmadd231pd (%rsi){1to8},%zmm11,%zmm16
  4048c7:	62 e2 9d 58 b8 4e 01 	vfmadd231pd 0x8(%rsi){1to8},%zmm12,%zmm17
  4048ce:	62 e2 95 58 b8 6e 04 	vfmadd231pd 0x20(%rsi){1to8},%zmm13,%zmm21
  4048d5:	62 62 95 58 b8 4e 06 	vfmadd231pd 0x30(%rsi){1to8},%zmm13,%zmm25
  4048dc:	62 e2 8d 58 b8 5e 02 	vfmadd231pd 0x10(%rsi){1to8},%zmm14,%zmm19
  4048e3:	41 ff e2             	jmpq   *%r10

00000000004048e6 <CASE_2_2>:
  4048e6:	62 f1 fd 48 28 4f 04 	vmovapd 0x100(%rdi),%zmm1
  4048ed:	62 f1 fd 48 28 67 10 	vmovapd 0x400(%rdi),%zmm4
  4048f4:	62 71 fd 48 28 47 20 	vmovapd 0x800(%rdi),%zmm8
  4048fb:	62 71 fd 48 28 4f 24 	vmovapd 0x900(%rdi),%zmm9
  404902:	62 71 fd 48 28 67 30 	vmovapd 0xc00(%rdi),%zmm12
  404909:	62 71 fd 48 28 6f 34 	vmovapd 0xd00(%rdi),%zmm13
  404910:	62 e2 f5 58 b8 06    	vfmadd231pd (%rsi){1to8},%zmm1,%zmm16
  404916:	62 62 f5 58 b8 7e 08 	vfmadd231pd 0x40(%rsi){1to8},%zmm1,%zmm31
  40491d:	62 e2 dd 58 b8 56 01 	vfmadd231pd 0x8(%rsi){1to8},%zmm4,%zmm18
  404924:	62 e2 dd 58 b8 66 04 	vfmadd231pd 0x20(%rsi){1to8},%zmm4,%zmm20
  40492b:	62 e2 bd 58 b8 56 02 	vfmadd231pd 0x10(%rsi){1to8},%zmm8,%zmm18
  404932:	62 e2 b5 58 b8 56 03 	vfmadd231pd 0x18(%rsi){1to8},%zmm9,%zmm18
  404939:	62 e2 9d 58 b8 6e 05 	vfmadd231pd 0x28(%rsi){1to8},%zmm12,%zmm21
  404940:	62 62 9d 58 b8 4e 06 	vfmadd231pd 0x30(%rsi){1to8},%zmm12,%zmm25
  404947:	62 62 9d 58 b8 7e 09 	vfmadd231pd 0x48(%rsi){1to8},%zmm12,%zmm31
  40494e:	62 62 95 58 b8 56 07 	vfmadd231pd 0x38(%rsi){1to8},%zmm13,%zmm26
  404955:	41 ff e2             	jmpq   *%r10

0000000000404958 <END_SWITCH_2>:
  404958:	48 83 c2 00          	add    $0x0,%rdx
  40495c:	62 e1 fd 48 28 02    	vmovapd (%rdx),%zmm16
  404962:	62 e1 fd 48 28 4a 04 	vmovapd 0x100(%rdx),%zmm17
  404969:	62 e1 fd 48 28 52 08 	vmovapd 0x200(%rdx),%zmm18
  404970:	62 e1 fd 48 28 5a 0c 	vmovapd 0x300(%rdx),%zmm19
  404977:	62 e1 fd 48 28 62 10 	vmovapd 0x400(%rdx),%zmm20
  40497e:	62 e1 fd 48 28 6a 14 	vmovapd 0x500(%rdx),%zmm21
  404985:	62 e1 fd 48 28 72 18 	vmovapd 0x600(%rdx),%zmm22
  40498c:	62 e1 fd 48 28 7a 1c 	vmovapd 0x700(%rdx),%zmm23
  404993:	62 61 fd 48 28 42 20 	vmovapd 0x800(%rdx),%zmm24
  40499a:	62 61 fd 48 28 4a 24 	vmovapd 0x900(%rdx),%zmm25
  4049a1:	62 61 fd 48 28 52 28 	vmovapd 0xa00(%rdx),%zmm26
  4049a8:	62 61 fd 48 28 5a 2c 	vmovapd 0xb00(%rdx),%zmm27
  4049af:	62 61 fd 48 28 62 30 	vmovapd 0xc00(%rdx),%zmm28
  4049b6:	62 61 fd 48 28 6a 34 	vmovapd 0xd00(%rdx),%zmm29
  4049bd:	62 61 fd 48 28 72 38 	vmovapd 0xe00(%rdx),%zmm30
  4049c4:	62 61 fd 48 28 7a 3c 	vmovapd 0xf00(%rdx),%zmm31
  4049cb:	49 c7 c2 e2 49 40 00 	mov    $0x4049e2,%r10
  4049d2:	48 83 c6 00          	add    $0x0,%rsi
  4049d6:	48 81 c7 00 20 00 00 	add    $0x2000,%rdi
  4049dd:	e9 8b fe ff ff       	jmpq   40486d <CASE_1_2>

00000000004049e2 <BLOCK_0_0_2_2>:
  4049e2:	62 e1 fd 48 29 02    	vmovapd %zmm16,(%rdx)
  4049e8:	62 e1 fd 48 29 4a 04 	vmovapd %zmm17,0x100(%rdx)
  4049ef:	62 e1 fd 48 29 52 08 	vmovapd %zmm18,0x200(%rdx)
  4049f6:	62 e1 fd 48 29 5a 0c 	vmovapd %zmm19,0x300(%rdx)
  4049fd:	62 e1 fd 48 29 62 10 	vmovapd %zmm20,0x400(%rdx)
  404a04:	62 e1 fd 48 29 6a 14 	vmovapd %zmm21,0x500(%rdx)
  404a0b:	62 e1 fd 48 29 72 18 	vmovapd %zmm22,0x600(%rdx)
  404a12:	62 e1 fd 48 29 7a 1c 	vmovapd %zmm23,0x700(%rdx)
  404a19:	62 61 fd 48 29 42 20 	vmovapd %zmm24,0x800(%rdx)
  404a20:	62 61 fd 48 29 4a 24 	vmovapd %zmm25,0x900(%rdx)
  404a27:	62 61 fd 48 29 52 28 	vmovapd %zmm26,0xa00(%rdx)
  404a2e:	62 61 fd 48 29 5a 2c 	vmovapd %zmm27,0xb00(%rdx)
  404a35:	62 61 fd 48 29 62 30 	vmovapd %zmm28,0xc00(%rdx)
  404a3c:	62 61 fd 48 29 6a 34 	vmovapd %zmm29,0xd00(%rdx)
  404a43:	62 61 fd 48 29 72 38 	vmovapd %zmm30,0xe00(%rdx)
  404a4a:	62 61 fd 48 29 7a 3c 	vmovapd %zmm31,0xf00(%rdx)
  404a51:	48 81 c2 00 10 00 00 	add    $0x1000,%rdx
  404a58:	62 e1 fd 48 28 02    	vmovapd (%rdx),%zmm16
  404a5e:	62 e1 fd 48 28 4a 04 	vmovapd 0x100(%rdx),%zmm17
  404a65:	62 e1 fd 48 28 52 08 	vmovapd 0x200(%rdx),%zmm18
  404a6c:	62 e1 fd 48 28 5a 0c 	vmovapd 0x300(%rdx),%zmm19
  404a73:	62 e1 fd 48 28 62 10 	vmovapd 0x400(%rdx),%zmm20
  404a7a:	62 e1 fd 48 28 6a 14 	vmovapd 0x500(%rdx),%zmm21
  404a81:	62 e1 fd 48 28 72 18 	vmovapd 0x600(%rdx),%zmm22
  404a88:	62 e1 fd 48 28 7a 1c 	vmovapd 0x700(%rdx),%zmm23
  404a8f:	62 61 fd 48 28 42 20 	vmovapd 0x800(%rdx),%zmm24
  404a96:	62 61 fd 48 28 4a 24 	vmovapd 0x900(%rdx),%zmm25
  404a9d:	62 61 fd 48 28 52 28 	vmovapd 0xa00(%rdx),%zmm26
  404aa4:	62 61 fd 48 28 5a 2c 	vmovapd 0xb00(%rdx),%zmm27
  404aab:	62 61 fd 48 28 62 30 	vmovapd 0xc00(%rdx),%zmm28
  404ab2:	62 61 fd 48 28 6a 34 	vmovapd 0xd00(%rdx),%zmm29
  404ab9:	62 61 fd 48 28 72 38 	vmovapd 0xe00(%rdx),%zmm30
  404ac0:	62 61 fd 48 28 7a 3c 	vmovapd 0xf00(%rdx),%zmm31
  404ac7:	49 c7 c2 de 4a 40 00 	mov    $0x404ade,%r10
  404ace:	48 83 c6 50          	add    $0x50,%rsi
  404ad2:	48 81 c7 00 e0 ff ff 	add    $0xffffffffffffe000,%rdi
  404ad9:	e9 08 fe ff ff       	jmpq   4048e6 <CASE_2_2>

0000000000404ade <BLOCK_0_1_0_2>:
  404ade:	62 e1 fd 48 29 02    	vmovapd %zmm16,(%rdx)
  404ae4:	62 e1 fd 48 29 4a 04 	vmovapd %zmm17,0x100(%rdx)
  404aeb:	62 e1 fd 48 29 52 08 	vmovapd %zmm18,0x200(%rdx)
  404af2:	62 e1 fd 48 29 5a 0c 	vmovapd %zmm19,0x300(%rdx)
  404af9:	62 e1 fd 48 29 62 10 	vmovapd %zmm20,0x400(%rdx)
  404b00:	62 e1 fd 48 29 6a 14 	vmovapd %zmm21,0x500(%rdx)
  404b07:	62 e1 fd 48 29 72 18 	vmovapd %zmm22,0x600(%rdx)
  404b0e:	62 e1 fd 48 29 7a 1c 	vmovapd %zmm23,0x700(%rdx)
  404b15:	62 61 fd 48 29 42 20 	vmovapd %zmm24,0x800(%rdx)
  404b1c:	62 61 fd 48 29 4a 24 	vmovapd %zmm25,0x900(%rdx)
  404b23:	62 61 fd 48 29 52 28 	vmovapd %zmm26,0xa00(%rdx)
  404b2a:	62 61 fd 48 29 5a 2c 	vmovapd %zmm27,0xb00(%rdx)
  404b31:	62 61 fd 48 29 62 30 	vmovapd %zmm28,0xc00(%rdx)
  404b38:	62 61 fd 48 29 6a 34 	vmovapd %zmm29,0xd00(%rdx)
  404b3f:	62 61 fd 48 29 72 38 	vmovapd %zmm30,0xe00(%rdx)
  404b46:	62 61 fd 48 29 7a 3c 	vmovapd %zmm31,0xf00(%rdx)
  404b4d:	48 81 c2 40 f0 ff ff 	add    $0xfffffffffffff040,%rdx
  404b54:	62 e1 fd 48 28 02    	vmovapd (%rdx),%zmm16
  404b5a:	62 e1 fd 48 28 4a 04 	vmovapd 0x100(%rdx),%zmm17
  404b61:	62 e1 fd 48 28 52 08 	vmovapd 0x200(%rdx),%zmm18
  404b68:	62 e1 fd 48 28 5a 0c 	vmovapd 0x300(%rdx),%zmm19
  404b6f:	62 e1 fd 48 28 62 10 	vmovapd 0x400(%rdx),%zmm20
  404b76:	62 e1 fd 48 28 6a 14 	vmovapd 0x500(%rdx),%zmm21
  404b7d:	62 e1 fd 48 28 72 18 	vmovapd 0x600(%rdx),%zmm22
  404b84:	62 e1 fd 48 28 7a 1c 	vmovapd 0x700(%rdx),%zmm23
  404b8b:	62 61 fd 48 28 42 20 	vmovapd 0x800(%rdx),%zmm24
  404b92:	62 61 fd 48 28 4a 24 	vmovapd 0x900(%rdx),%zmm25
  404b99:	62 61 fd 48 28 52 28 	vmovapd 0xa00(%rdx),%zmm26
  404ba0:	62 61 fd 48 28 5a 2c 	vmovapd 0xb00(%rdx),%zmm27
  404ba7:	62 61 fd 48 28 62 30 	vmovapd 0xc00(%rdx),%zmm28
  404bae:	62 61 fd 48 28 6a 34 	vmovapd 0xd00(%rdx),%zmm29
  404bb5:	62 61 fd 48 28 72 38 	vmovapd 0xe00(%rdx),%zmm30
  404bbc:	62 61 fd 48 28 7a 3c 	vmovapd 0xf00(%rdx),%zmm31
  404bc3:	49 c7 c2 da 4b 40 00 	mov    $0x404bda,%r10
  404bca:	48 83 c6 b0          	add    $0xffffffffffffffb0,%rsi
  404bce:	48 81 c7 40 20 00 00 	add    $0x2040,%rdi
  404bd5:	e9 93 fc ff ff       	jmpq   40486d <CASE_1_2>

0000000000404bda <BLOCK_1_0_2_2>:
  404bda:	62 e1 fd 48 29 02    	vmovapd %zmm16,(%rdx)
  404be0:	62 e1 fd 48 29 4a 04 	vmovapd %zmm17,0x100(%rdx)
  404be7:	62 e1 fd 48 29 52 08 	vmovapd %zmm18,0x200(%rdx)
  404bee:	62 e1 fd 48 29 5a 0c 	vmovapd %zmm19,0x300(%rdx)
  404bf5:	62 e1 fd 48 29 62 10 	vmovapd %zmm20,0x400(%rdx)
  404bfc:	62 e1 fd 48 29 6a 14 	vmovapd %zmm21,0x500(%rdx)
  404c03:	62 e1 fd 48 29 72 18 	vmovapd %zmm22,0x600(%rdx)
  404c0a:	62 e1 fd 48 29 7a 1c 	vmovapd %zmm23,0x700(%rdx)
  404c11:	62 61 fd 48 29 42 20 	vmovapd %zmm24,0x800(%rdx)
  404c18:	62 61 fd 48 29 4a 24 	vmovapd %zmm25,0x900(%rdx)
  404c1f:	62 61 fd 48 29 52 28 	vmovapd %zmm26,0xa00(%rdx)
  404c26:	62 61 fd 48 29 5a 2c 	vmovapd %zmm27,0xb00(%rdx)
  404c2d:	62 61 fd 48 29 62 30 	vmovapd %zmm28,0xc00(%rdx)
  404c34:	62 61 fd 48 29 6a 34 	vmovapd %zmm29,0xd00(%rdx)
  404c3b:	62 61 fd 48 29 72 38 	vmovapd %zmm30,0xe00(%rdx)
  404c42:	62 61 fd 48 29 7a 3c 	vmovapd %zmm31,0xf00(%rdx)
  404c49:	48 81 c2 00 10 00 00 	add    $0x1000,%rdx
  404c50:	62 e1 fd 48 28 02    	vmovapd (%rdx),%zmm16
  404c56:	62 e1 fd 48 28 4a 04 	vmovapd 0x100(%rdx),%zmm17
  404c5d:	62 e1 fd 48 28 52 08 	vmovapd 0x200(%rdx),%zmm18
  404c64:	62 e1 fd 48 28 5a 0c 	vmovapd 0x300(%rdx),%zmm19
  404c6b:	62 e1 fd 48 28 62 10 	vmovapd 0x400(%rdx),%zmm20
  404c72:	62 e1 fd 48 28 6a 14 	vmovapd 0x500(%rdx),%zmm21
  404c79:	62 e1 fd 48 28 72 18 	vmovapd 0x600(%rdx),%zmm22
  404c80:	62 e1 fd 48 28 7a 1c 	vmovapd 0x700(%rdx),%zmm23
  404c87:	62 61 fd 48 28 42 20 	vmovapd 0x800(%rdx),%zmm24
  404c8e:	62 61 fd 48 28 4a 24 	vmovapd 0x900(%rdx),%zmm25
  404c95:	62 61 fd 48 28 52 28 	vmovapd 0xa00(%rdx),%zmm26
  404c9c:	62 61 fd 48 28 5a 2c 	vmovapd 0xb00(%rdx),%zmm27
  404ca3:	62 61 fd 48 28 62 30 	vmovapd 0xc00(%rdx),%zmm28
  404caa:	62 61 fd 48 28 6a 34 	vmovapd 0xd00(%rdx),%zmm29
  404cb1:	62 61 fd 48 28 72 38 	vmovapd 0xe00(%rdx),%zmm30
  404cb8:	62 61 fd 48 28 7a 3c 	vmovapd 0xf00(%rdx),%zmm31
  404cbf:	49 c7 c2 d6 4c 40 00 	mov    $0x404cd6,%r10
  404cc6:	48 83 c6 50          	add    $0x50,%rsi
  404cca:	48 81 c7 00 e0 ff ff 	add    $0xffffffffffffe000,%rdi
  404cd1:	e9 10 fc ff ff       	jmpq   4048e6 <CASE_2_2>

0000000000404cd6 <BLOCK_1_1_0_2>:
  404cd6:	62 e1 fd 48 29 02    	vmovapd %zmm16,(%rdx)
  404cdc:	62 e1 fd 48 29 4a 04 	vmovapd %zmm17,0x100(%rdx)
  404ce3:	62 e1 fd 48 29 52 08 	vmovapd %zmm18,0x200(%rdx)
  404cea:	62 e1 fd 48 29 5a 0c 	vmovapd %zmm19,0x300(%rdx)
  404cf1:	62 e1 fd 48 29 62 10 	vmovapd %zmm20,0x400(%rdx)
  404cf8:	62 e1 fd 48 29 6a 14 	vmovapd %zmm21,0x500(%rdx)
  404cff:	62 e1 fd 48 29 72 18 	vmovapd %zmm22,0x600(%rdx)
  404d06:	62 e1 fd 48 29 7a 1c 	vmovapd %zmm23,0x700(%rdx)
  404d0d:	62 61 fd 48 29 42 20 	vmovapd %zmm24,0x800(%rdx)
  404d14:	62 61 fd 48 29 4a 24 	vmovapd %zmm25,0x900(%rdx)
  404d1b:	62 61 fd 48 29 52 28 	vmovapd %zmm26,0xa00(%rdx)
  404d22:	62 61 fd 48 29 5a 2c 	vmovapd %zmm27,0xb00(%rdx)
  404d29:	62 61 fd 48 29 62 30 	vmovapd %zmm28,0xc00(%rdx)
  404d30:	62 61 fd 48 29 6a 34 	vmovapd %zmm29,0xd00(%rdx)
  404d37:	62 61 fd 48 29 72 38 	vmovapd %zmm30,0xe00(%rdx)
  404d3e:	62 61 fd 48 29 7a 3c 	vmovapd %zmm31,0xf00(%rdx)
  404d45:	48 81 c2 40 f0 ff ff 	add    $0xfffffffffffff040,%rdx
  404d4c:	62 e1 fd 48 28 02    	vmovapd (%rdx),%zmm16
  404d52:	62 e1 fd 48 28 4a 04 	vmovapd 0x100(%rdx),%zmm17
  404d59:	62 e1 fd 48 28 52 08 	vmovapd 0x200(%rdx),%zmm18
  404d60:	62 e1 fd 48 28 5a 0c 	vmovapd 0x300(%rdx),%zmm19
  404d67:	62 e1 fd 48 28 62 10 	vmovapd 0x400(%rdx),%zmm20
  404d6e:	62 e1 fd 48 28 6a 14 	vmovapd 0x500(%rdx),%zmm21
  404d75:	62 e1 fd 48 28 72 18 	vmovapd 0x600(%rdx),%zmm22
  404d7c:	62 e1 fd 48 28 7a 1c 	vmovapd 0x700(%rdx),%zmm23
  404d83:	62 61 fd 48 28 42 20 	vmovapd 0x800(%rdx),%zmm24
  404d8a:	62 61 fd 48 28 4a 24 	vmovapd 0x900(%rdx),%zmm25
  404d91:	62 61 fd 48 28 52 28 	vmovapd 0xa00(%rdx),%zmm26
  404d98:	62 61 fd 48 28 5a 2c 	vmovapd 0xb00(%rdx),%zmm27
  404d9f:	62 61 fd 48 28 62 30 	vmovapd 0xc00(%rdx),%zmm28
  404da6:	62 61 fd 48 28 6a 34 	vmovapd 0xd00(%rdx),%zmm29
  404dad:	62 61 fd 48 28 72 38 	vmovapd 0xe00(%rdx),%zmm30
  404db4:	62 61 fd 48 28 7a 3c 	vmovapd 0xf00(%rdx),%zmm31
  404dbb:	49 c7 c2 d2 4d 40 00 	mov    $0x404dd2,%r10
  404dc2:	48 83 c6 b0          	add    $0xffffffffffffffb0,%rsi
  404dc6:	48 81 c7 40 20 00 00 	add    $0x2040,%rdi
  404dcd:	e9 9b fa ff ff       	jmpq   40486d <CASE_1_2>

0000000000404dd2 <BLOCK_2_0_2_2>:
  404dd2:	62 e1 fd 48 29 02    	vmovapd %zmm16,(%rdx)
  404dd8:	62 e1 fd 48 29 4a 04 	vmovapd %zmm17,0x100(%rdx)
  404ddf:	62 e1 fd 48 29 52 08 	vmovapd %zmm18,0x200(%rdx)
  404de6:	62 e1 fd 48 29 5a 0c 	vmovapd %zmm19,0x300(%rdx)
  404ded:	62 e1 fd 48 29 62 10 	vmovapd %zmm20,0x400(%rdx)
  404df4:	62 e1 fd 48 29 6a 14 	vmovapd %zmm21,0x500(%rdx)
  404dfb:	62 e1 fd 48 29 72 18 	vmovapd %zmm22,0x600(%rdx)
  404e02:	62 e1 fd 48 29 7a 1c 	vmovapd %zmm23,0x700(%rdx)
  404e09:	62 61 fd 48 29 42 20 	vmovapd %zmm24,0x800(%rdx)
  404e10:	62 61 fd 48 29 4a 24 	vmovapd %zmm25,0x900(%rdx)
  404e17:	62 61 fd 48 29 52 28 	vmovapd %zmm26,0xa00(%rdx)
  404e1e:	62 61 fd 48 29 5a 2c 	vmovapd %zmm27,0xb00(%rdx)
  404e25:	62 61 fd 48 29 62 30 	vmovapd %zmm28,0xc00(%rdx)
  404e2c:	62 61 fd 48 29 6a 34 	vmovapd %zmm29,0xd00(%rdx)
  404e33:	62 61 fd 48 29 72 38 	vmovapd %zmm30,0xe00(%rdx)
  404e3a:	62 61 fd 48 29 7a 3c 	vmovapd %zmm31,0xf00(%rdx)
  404e41:	48 81 c2 00 10 00 00 	add    $0x1000,%rdx
  404e48:	62 e1 fd 48 28 02    	vmovapd (%rdx),%zmm16
  404e4e:	62 e1 fd 48 28 4a 04 	vmovapd 0x100(%rdx),%zmm17
  404e55:	62 e1 fd 48 28 52 08 	vmovapd 0x200(%rdx),%zmm18
  404e5c:	62 e1 fd 48 28 5a 0c 	vmovapd 0x300(%rdx),%zmm19
  404e63:	62 e1 fd 48 28 62 10 	vmovapd 0x400(%rdx),%zmm20
  404e6a:	62 e1 fd 48 28 6a 14 	vmovapd 0x500(%rdx),%zmm21
  404e71:	62 e1 fd 48 28 72 18 	vmovapd 0x600(%rdx),%zmm22
  404e78:	62 e1 fd 48 28 7a 1c 	vmovapd 0x700(%rdx),%zmm23
  404e7f:	62 61 fd 48 28 42 20 	vmovapd 0x800(%rdx),%zmm24
  404e86:	62 61 fd 48 28 4a 24 	vmovapd 0x900(%rdx),%zmm25
  404e8d:	62 61 fd 48 28 52 28 	vmovapd 0xa00(%rdx),%zmm26
  404e94:	62 61 fd 48 28 5a 2c 	vmovapd 0xb00(%rdx),%zmm27
  404e9b:	62 61 fd 48 28 62 30 	vmovapd 0xc00(%rdx),%zmm28
  404ea2:	62 61 fd 48 28 6a 34 	vmovapd 0xd00(%rdx),%zmm29
  404ea9:	62 61 fd 48 28 72 38 	vmovapd 0xe00(%rdx),%zmm30
  404eb0:	62 61 fd 48 28 7a 3c 	vmovapd 0xf00(%rdx),%zmm31
  404eb7:	49 c7 c2 ce 4e 40 00 	mov    $0x404ece,%r10
  404ebe:	48 83 c6 50          	add    $0x50,%rsi
  404ec2:	48 81 c7 00 e0 ff ff 	add    $0xffffffffffffe000,%rdi
  404ec9:	e9 18 fa ff ff       	jmpq   4048e6 <CASE_2_2>

0000000000404ece <BLOCK_2_1_0_2>:
  404ece:	62 e1 fd 48 29 02    	vmovapd %zmm16,(%rdx)
  404ed4:	62 e1 fd 48 29 4a 04 	vmovapd %zmm17,0x100(%rdx)
  404edb:	62 e1 fd 48 29 52 08 	vmovapd %zmm18,0x200(%rdx)
  404ee2:	62 e1 fd 48 29 5a 0c 	vmovapd %zmm19,0x300(%rdx)
  404ee9:	62 e1 fd 48 29 62 10 	vmovapd %zmm20,0x400(%rdx)
  404ef0:	62 e1 fd 48 29 6a 14 	vmovapd %zmm21,0x500(%rdx)
  404ef7:	62 e1 fd 48 29 72 18 	vmovapd %zmm22,0x600(%rdx)
  404efe:	62 e1 fd 48 29 7a 1c 	vmovapd %zmm23,0x700(%rdx)
  404f05:	62 61 fd 48 29 42 20 	vmovapd %zmm24,0x800(%rdx)
  404f0c:	62 61 fd 48 29 4a 24 	vmovapd %zmm25,0x900(%rdx)
  404f13:	62 61 fd 48 29 52 28 	vmovapd %zmm26,0xa00(%rdx)
  404f1a:	62 61 fd 48 29 5a 2c 	vmovapd %zmm27,0xb00(%rdx)
  404f21:	62 61 fd 48 29 62 30 	vmovapd %zmm28,0xc00(%rdx)
  404f28:	62 61 fd 48 29 6a 34 	vmovapd %zmm29,0xd00(%rdx)
  404f2f:	62 61 fd 48 29 72 38 	vmovapd %zmm30,0xe00(%rdx)
  404f36:	62 61 fd 48 29 7a 3c 	vmovapd %zmm31,0xf00(%rdx)
  404f3d:	48 81 c2 40 f0 ff ff 	add    $0xfffffffffffff040,%rdx
  404f44:	62 e1 fd 48 28 02    	vmovapd (%rdx),%zmm16
  404f4a:	62 e1 fd 48 28 4a 04 	vmovapd 0x100(%rdx),%zmm17
  404f51:	62 e1 fd 48 28 52 08 	vmovapd 0x200(%rdx),%zmm18
  404f58:	62 e1 fd 48 28 5a 0c 	vmovapd 0x300(%rdx),%zmm19
  404f5f:	62 e1 fd 48 28 62 10 	vmovapd 0x400(%rdx),%zmm20
  404f66:	62 e1 fd 48 28 6a 14 	vmovapd 0x500(%rdx),%zmm21
  404f6d:	62 e1 fd 48 28 72 18 	vmovapd 0x600(%rdx),%zmm22
  404f74:	62 e1 fd 48 28 7a 1c 	vmovapd 0x700(%rdx),%zmm23
  404f7b:	62 61 fd 48 28 42 20 	vmovapd 0x800(%rdx),%zmm24
  404f82:	62 61 fd 48 28 4a 24 	vmovapd 0x900(%rdx),%zmm25
  404f89:	62 61 fd 48 28 52 28 	vmovapd 0xa00(%rdx),%zmm26
  404f90:	62 61 fd 48 28 5a 2c 	vmovapd 0xb00(%rdx),%zmm27
  404f97:	62 61 fd 48 28 62 30 	vmovapd 0xc00(%rdx),%zmm28
  404f9e:	62 61 fd 48 28 6a 34 	vmovapd 0xd00(%rdx),%zmm29
  404fa5:	62 61 fd 48 28 72 38 	vmovapd 0xe00(%rdx),%zmm30
  404fac:	62 61 fd 48 28 7a 3c 	vmovapd 0xf00(%rdx),%zmm31
  404fb3:	49 c7 c2 ca 4f 40 00 	mov    $0x404fca,%r10
  404fba:	48 83 c6 b0          	add    $0xffffffffffffffb0,%rsi
  404fbe:	48 81 c7 40 20 00 00 	add    $0x2040,%rdi
  404fc5:	e9 a3 f8 ff ff       	jmpq   40486d <CASE_1_2>

0000000000404fca <BLOCK_3_0_2_2>:
  404fca:	62 e1 fd 48 29 02    	vmovapd %zmm16,(%rdx)
  404fd0:	62 e1 fd 48 29 4a 04 	vmovapd %zmm17,0x100(%rdx)
  404fd7:	62 e1 fd 48 29 52 08 	vmovapd %zmm18,0x200(%rdx)
  404fde:	62 e1 fd 48 29 5a 0c 	vmovapd %zmm19,0x300(%rdx)
  404fe5:	62 e1 fd 48 29 62 10 	vmovapd %zmm20,0x400(%rdx)
  404fec:	62 e1 fd 48 29 6a 14 	vmovapd %zmm21,0x500(%rdx)
  404ff3:	62 e1 fd 48 29 72 18 	vmovapd %zmm22,0x600(%rdx)
  404ffa:	62 e1 fd 48 29 7a 1c 	vmovapd %zmm23,0x700(%rdx)
  405001:	62 61 fd 48 29 42 20 	vmovapd %zmm24,0x800(%rdx)
  405008:	62 61 fd 48 29 4a 24 	vmovapd %zmm25,0x900(%rdx)
  40500f:	62 61 fd 48 29 52 28 	vmovapd %zmm26,0xa00(%rdx)
  405016:	62 61 fd 48 29 5a 2c 	vmovapd %zmm27,0xb00(%rdx)
  40501d:	62 61 fd 48 29 62 30 	vmovapd %zmm28,0xc00(%rdx)
  405024:	62 61 fd 48 29 6a 34 	vmovapd %zmm29,0xd00(%rdx)
  40502b:	62 61 fd 48 29 72 38 	vmovapd %zmm30,0xe00(%rdx)
  405032:	62 61 fd 48 29 7a 3c 	vmovapd %zmm31,0xf00(%rdx)
  405039:	48 81 c2 00 10 00 00 	add    $0x1000,%rdx
  405040:	62 e1 fd 48 28 02    	vmovapd (%rdx),%zmm16
  405046:	62 e1 fd 48 28 4a 04 	vmovapd 0x100(%rdx),%zmm17
  40504d:	62 e1 fd 48 28 52 08 	vmovapd 0x200(%rdx),%zmm18
  405054:	62 e1 fd 48 28 5a 0c 	vmovapd 0x300(%rdx),%zmm19
  40505b:	62 e1 fd 48 28 62 10 	vmovapd 0x400(%rdx),%zmm20
  405062:	62 e1 fd 48 28 6a 14 	vmovapd 0x500(%rdx),%zmm21
  405069:	62 e1 fd 48 28 72 18 	vmovapd 0x600(%rdx),%zmm22
  405070:	62 e1 fd 48 28 7a 1c 	vmovapd 0x700(%rdx),%zmm23
  405077:	62 61 fd 48 28 42 20 	vmovapd 0x800(%rdx),%zmm24
  40507e:	62 61 fd 48 28 4a 24 	vmovapd 0x900(%rdx),%zmm25
  405085:	62 61 fd 48 28 52 28 	vmovapd 0xa00(%rdx),%zmm26
  40508c:	62 61 fd 48 28 5a 2c 	vmovapd 0xb00(%rdx),%zmm27
  405093:	62 61 fd 48 28 62 30 	vmovapd 0xc00(%rdx),%zmm28
  40509a:	62 61 fd 48 28 6a 34 	vmovapd 0xd00(%rdx),%zmm29
  4050a1:	62 61 fd 48 28 72 38 	vmovapd 0xe00(%rdx),%zmm30
  4050a8:	62 61 fd 48 28 7a 3c 	vmovapd 0xf00(%rdx),%zmm31
  4050af:	49 c7 c2 c6 50 40 00 	mov    $0x4050c6,%r10
  4050b6:	48 83 c6 50          	add    $0x50,%rsi
  4050ba:	48 81 c7 00 e0 ff ff 	add    $0xffffffffffffe000,%rdi
  4050c1:	e9 20 f8 ff ff       	jmpq   4048e6 <CASE_2_2>

00000000004050c6 <BLOCK_3_1_0_2>:
  4050c6:	62 e1 fd 48 29 02    	vmovapd %zmm16,(%rdx)
  4050cc:	62 e1 fd 48 29 4a 04 	vmovapd %zmm17,0x100(%rdx)
  4050d3:	62 e1 fd 48 29 52 08 	vmovapd %zmm18,0x200(%rdx)
  4050da:	62 e1 fd 48 29 5a 0c 	vmovapd %zmm19,0x300(%rdx)
  4050e1:	62 e1 fd 48 29 62 10 	vmovapd %zmm20,0x400(%rdx)
  4050e8:	62 e1 fd 48 29 6a 14 	vmovapd %zmm21,0x500(%rdx)
  4050ef:	62 e1 fd 48 29 72 18 	vmovapd %zmm22,0x600(%rdx)
  4050f6:	62 e1 fd 48 29 7a 1c 	vmovapd %zmm23,0x700(%rdx)
  4050fd:	62 61 fd 48 29 42 20 	vmovapd %zmm24,0x800(%rdx)
  405104:	62 61 fd 48 29 4a 24 	vmovapd %zmm25,0x900(%rdx)
  40510b:	62 61 fd 48 29 52 28 	vmovapd %zmm26,0xa00(%rdx)
  405112:	62 61 fd 48 29 5a 2c 	vmovapd %zmm27,0xb00(%rdx)
  405119:	62 61 fd 48 29 62 30 	vmovapd %zmm28,0xc00(%rdx)
  405120:	62 61 fd 48 29 6a 34 	vmovapd %zmm29,0xd00(%rdx)
  405127:	62 61 fd 48 29 72 38 	vmovapd %zmm30,0xe00(%rdx)
  40512e:	62 61 fd 48 29 7a 3c 	vmovapd %zmm31,0xf00(%rdx)
  405135:	48 8d bc 24 e0 04 00 	lea    0x4e0(%rsp),%rdi
  40513c:	00 
  40513d:	48 8d b4 24 20 04 00 	lea    0x420(%rsp),%rsi
  405144:	00 
  405145:	e8 c6 e6 ff ff       	callq  403810 <_Z13assert_equalsRK6MatrixS1_>
  40514a:	bf 01 00 00 00       	mov    $0x1,%edi
  40514f:	48 8d b4 24 f0 03 00 	lea    0x3f0(%rsp),%rsi
  405156:	00 
  405157:	e8 94 c4 ff ff       	callq  4015f0 <clock_gettime@plt>
  40515c:	48 8b 84 24 70 04 00 	mov    0x470(%rsp),%rax
  405163:	00 
  405164:	48 8b 8c 24 38 04 00 	mov    0x438(%rsp),%rcx
  40516b:	00 
  40516c:	45 31 c0             	xor    %r8d,%r8d
  40516f:	48 8b 9c 24 b8 04 00 	mov    0x4b8(%rsp),%rbx
  405176:	00 
  405177:	48 8b 40 18          	mov    0x18(%rax),%rax
  40517b:	48 89 1c 24          	mov    %rbx,(%rsp)
  40517f:	41 83 c0 01          	add    $0x1,%r8d
  405183:	48 89 84 24 00 04 00 	mov    %rax,0x400(%rsp)
  40518a:	00 
  40518b:	48 89 8c 24 08 04 00 	mov    %rcx,0x408(%rsp)
  405192:	00 
  405193:	48 8b 3c 24          	mov    (%rsp),%rdi
  405197:	48 8b b4 24 00 04 00 	mov    0x400(%rsp),%rsi
  40519e:	00 
  40519f:	48 8b 94 24 08 04 00 	mov    0x408(%rsp),%rdx
  4051a6:	00 
  4051a7:	e9 eb 00 00 00       	jmpq   405297 <END_SWITCH_3>

00000000004051ac <CASE_1_3>:
  4051ac:	62 f1 fd 48 28 4f 04 	vmovapd 0x100(%rdi),%zmm1
  4051b3:	62 f1 fd 48 28 57 08 	vmovapd 0x200(%rdi),%zmm2
  4051ba:	62 f1 fd 48 28 6f 14 	vmovapd 0x500(%rdi),%zmm5
  4051c1:	62 71 fd 48 28 5f 2c 	vmovapd 0xb00(%rdi),%zmm11
  4051c8:	62 71 fd 48 28 67 30 	vmovapd 0xc00(%rdi),%zmm12
  4051cf:	62 71 fd 48 28 6f 34 	vmovapd 0xd00(%rdi),%zmm13
  4051d6:	62 71 fd 48 28 77 38 	vmovapd 0xe00(%rdi),%zmm14
  4051dd:	62 e2 f5 58 b8 6e 03 	vfmadd231pd 0x18(%rsi){1to8},%zmm1,%zmm21
  4051e4:	62 e2 f5 58 b8 7e 05 	vfmadd231pd 0x28(%rsi){1to8},%zmm1,%zmm23
  4051eb:	62 62 f5 58 b8 66 07 	vfmadd231pd 0x38(%rsi){1to8},%zmm1,%zmm28
  4051f2:	62 62 ed 58 b8 76 08 	vfmadd231pd 0x40(%rsi){1to8},%zmm2,%zmm30
  4051f9:	62 62 d5 58 b8 7e 09 	vfmadd231pd 0x48(%rsi){1to8},%zmm5,%zmm31
  405200:	62 e2 a5 58 b8 06    	vfmadd231pd (%rsi){1to8},%zmm11,%zmm16
  405206:	62 e2 9d 58 b8 4e 01 	vfmadd231pd 0x8(%rsi){1to8},%zmm12,%zmm17
  40520d:	62 e2 95 58 b8 6e 04 	vfmadd231pd 0x20(%rsi){1to8},%zmm13,%zmm21
  405214:	62 62 95 58 b8 4e 06 	vfmadd231pd 0x30(%rsi){1to8},%zmm13,%zmm25
  40521b:	62 e2 8d 58 b8 5e 02 	vfmadd231pd 0x10(%rsi){1to8},%zmm14,%zmm19
  405222:	41 ff e2             	jmpq   *%r10

0000000000405225 <CASE_2_3>:
  405225:	62 f1 fd 48 28 4f 04 	vmovapd 0x100(%rdi),%zmm1
  40522c:	62 f1 fd 48 28 67 10 	vmovapd 0x400(%rdi),%zmm4
  405233:	62 71 fd 48 28 47 20 	vmovapd 0x800(%rdi),%zmm8
  40523a:	62 71 fd 48 28 4f 24 	vmovapd 0x900(%rdi),%zmm9
  405241:	62 71 fd 48 28 67 30 	vmovapd 0xc00(%rdi),%zmm12
  405248:	62 71 fd 48 28 6f 34 	vmovapd 0xd00(%rdi),%zmm13
  40524f:	62 e2 f5 58 b8 06    	vfmadd231pd (%rsi){1to8},%zmm1,%zmm16
  405255:	62 62 f5 58 b8 7e 08 	vfmadd231pd 0x40(%rsi){1to8},%zmm1,%zmm31
  40525c:	62 e2 dd 58 b8 56 01 	vfmadd231pd 0x8(%rsi){1to8},%zmm4,%zmm18
  405263:	62 e2 dd 58 b8 66 04 	vfmadd231pd 0x20(%rsi){1to8},%zmm4,%zmm20
  40526a:	62 e2 bd 58 b8 56 02 	vfmadd231pd 0x10(%rsi){1to8},%zmm8,%zmm18
  405271:	62 e2 b5 58 b8 56 03 	vfmadd231pd 0x18(%rsi){1to8},%zmm9,%zmm18
  405278:	62 e2 9d 58 b8 6e 05 	vfmadd231pd 0x28(%rsi){1to8},%zmm12,%zmm21
  40527f:	62 62 9d 58 b8 4e 06 	vfmadd231pd 0x30(%rsi){1to8},%zmm12,%zmm25
  405286:	62 62 9d 58 b8 7e 09 	vfmadd231pd 0x48(%rsi){1to8},%zmm12,%zmm31
  40528d:	62 62 95 58 b8 56 07 	vfmadd231pd 0x38(%rsi){1to8},%zmm13,%zmm26
  405294:	41 ff e2             	jmpq   *%r10

0000000000405297 <END_SWITCH_3>:
  405297:	48 83 c2 00          	add    $0x0,%rdx
  40529b:	62 e1 fd 48 28 02    	vmovapd (%rdx),%zmm16
  4052a1:	62 e1 fd 48 28 4a 04 	vmovapd 0x100(%rdx),%zmm17
  4052a8:	62 e1 fd 48 28 52 08 	vmovapd 0x200(%rdx),%zmm18
  4052af:	62 e1 fd 48 28 5a 0c 	vmovapd 0x300(%rdx),%zmm19
  4052b6:	62 e1 fd 48 28 62 10 	vmovapd 0x400(%rdx),%zmm20
  4052bd:	62 e1 fd 48 28 6a 14 	vmovapd 0x500(%rdx),%zmm21
  4052c4:	62 e1 fd 48 28 72 18 	vmovapd 0x600(%rdx),%zmm22
  4052cb:	62 e1 fd 48 28 7a 1c 	vmovapd 0x700(%rdx),%zmm23
  4052d2:	62 61 fd 48 28 42 20 	vmovapd 0x800(%rdx),%zmm24
  4052d9:	62 61 fd 48 28 4a 24 	vmovapd 0x900(%rdx),%zmm25
  4052e0:	62 61 fd 48 28 52 28 	vmovapd 0xa00(%rdx),%zmm26
  4052e7:	62 61 fd 48 28 5a 2c 	vmovapd 0xb00(%rdx),%zmm27
  4052ee:	62 61 fd 48 28 62 30 	vmovapd 0xc00(%rdx),%zmm28
  4052f5:	62 61 fd 48 28 6a 34 	vmovapd 0xd00(%rdx),%zmm29
  4052fc:	62 61 fd 48 28 72 38 	vmovapd 0xe00(%rdx),%zmm30
  405303:	62 61 fd 48 28 7a 3c 	vmovapd 0xf00(%rdx),%zmm31
  40530a:	49 c7 c2 21 53 40 00 	mov    $0x405321,%r10
  405311:	48 83 c6 00          	add    $0x0,%rsi
  405315:	48 81 c7 00 20 00 00 	add    $0x2000,%rdi
  40531c:	e9 8b fe ff ff       	jmpq   4051ac <CASE_1_3>

0000000000405321 <BLOCK_0_0_2_3>:
  405321:	62 e1 fd 48 29 02    	vmovapd %zmm16,(%rdx)
  405327:	62 e1 fd 48 29 4a 04 	vmovapd %zmm17,0x100(%rdx)
  40532e:	62 e1 fd 48 29 52 08 	vmovapd %zmm18,0x200(%rdx)
  405335:	62 e1 fd 48 29 5a 0c 	vmovapd %zmm19,0x300(%rdx)
  40533c:	62 e1 fd 48 29 62 10 	vmovapd %zmm20,0x400(%rdx)
  405343:	62 e1 fd 48 29 6a 14 	vmovapd %zmm21,0x500(%rdx)
  40534a:	62 e1 fd 48 29 72 18 	vmovapd %zmm22,0x600(%rdx)
  405351:	62 e1 fd 48 29 7a 1c 	vmovapd %zmm23,0x700(%rdx)
  405358:	62 61 fd 48 29 42 20 	vmovapd %zmm24,0x800(%rdx)
  40535f:	62 61 fd 48 29 4a 24 	vmovapd %zmm25,0x900(%rdx)
  405366:	62 61 fd 48 29 52 28 	vmovapd %zmm26,0xa00(%rdx)
  40536d:	62 61 fd 48 29 5a 2c 	vmovapd %zmm27,0xb00(%rdx)
  405374:	62 61 fd 48 29 62 30 	vmovapd %zmm28,0xc00(%rdx)
  40537b:	62 61 fd 48 29 6a 34 	vmovapd %zmm29,0xd00(%rdx)
  405382:	62 61 fd 48 29 72 38 	vmovapd %zmm30,0xe00(%rdx)
  405389:	62 61 fd 48 29 7a 3c 	vmovapd %zmm31,0xf00(%rdx)
  405390:	48 81 c2 00 10 00 00 	add    $0x1000,%rdx
  405397:	62 e1 fd 48 28 02    	vmovapd (%rdx),%zmm16
  40539d:	62 e1 fd 48 28 4a 04 	vmovapd 0x100(%rdx),%zmm17
  4053a4:	62 e1 fd 48 28 52 08 	vmovapd 0x200(%rdx),%zmm18
  4053ab:	62 e1 fd 48 28 5a 0c 	vmovapd 0x300(%rdx),%zmm19
  4053b2:	62 e1 fd 48 28 62 10 	vmovapd 0x400(%rdx),%zmm20
  4053b9:	62 e1 fd 48 28 6a 14 	vmovapd 0x500(%rdx),%zmm21
  4053c0:	62 e1 fd 48 28 72 18 	vmovapd 0x600(%rdx),%zmm22
  4053c7:	62 e1 fd 48 28 7a 1c 	vmovapd 0x700(%rdx),%zmm23
  4053ce:	62 61 fd 48 28 42 20 	vmovapd 0x800(%rdx),%zmm24
  4053d5:	62 61 fd 48 28 4a 24 	vmovapd 0x900(%rdx),%zmm25
  4053dc:	62 61 fd 48 28 52 28 	vmovapd 0xa00(%rdx),%zmm26
  4053e3:	62 61 fd 48 28 5a 2c 	vmovapd 0xb00(%rdx),%zmm27
  4053ea:	62 61 fd 48 28 62 30 	vmovapd 0xc00(%rdx),%zmm28
  4053f1:	62 61 fd 48 28 6a 34 	vmovapd 0xd00(%rdx),%zmm29
  4053f8:	62 61 fd 48 28 72 38 	vmovapd 0xe00(%rdx),%zmm30
  4053ff:	62 61 fd 48 28 7a 3c 	vmovapd 0xf00(%rdx),%zmm31
  405406:	49 c7 c2 1d 54 40 00 	mov    $0x40541d,%r10
  40540d:	48 83 c6 50          	add    $0x50,%rsi
  405411:	48 81 c7 00 e0 ff ff 	add    $0xffffffffffffe000,%rdi
  405418:	e9 08 fe ff ff       	jmpq   405225 <CASE_2_3>

000000000040541d <BLOCK_0_1_0_3>:
  40541d:	62 e1 fd 48 29 02    	vmovapd %zmm16,(%rdx)
  405423:	62 e1 fd 48 29 4a 04 	vmovapd %zmm17,0x100(%rdx)
  40542a:	62 e1 fd 48 29 52 08 	vmovapd %zmm18,0x200(%rdx)
  405431:	62 e1 fd 48 29 5a 0c 	vmovapd %zmm19,0x300(%rdx)
  405438:	62 e1 fd 48 29 62 10 	vmovapd %zmm20,0x400(%rdx)
  40543f:	62 e1 fd 48 29 6a 14 	vmovapd %zmm21,0x500(%rdx)
  405446:	62 e1 fd 48 29 72 18 	vmovapd %zmm22,0x600(%rdx)
  40544d:	62 e1 fd 48 29 7a 1c 	vmovapd %zmm23,0x700(%rdx)
  405454:	62 61 fd 48 29 42 20 	vmovapd %zmm24,0x800(%rdx)
  40545b:	62 61 fd 48 29 4a 24 	vmovapd %zmm25,0x900(%rdx)
  405462:	62 61 fd 48 29 52 28 	vmovapd %zmm26,0xa00(%rdx)
  405469:	62 61 fd 48 29 5a 2c 	vmovapd %zmm27,0xb00(%rdx)
  405470:	62 61 fd 48 29 62 30 	vmovapd %zmm28,0xc00(%rdx)
  405477:	62 61 fd 48 29 6a 34 	vmovapd %zmm29,0xd00(%rdx)
  40547e:	62 61 fd 48 29 72 38 	vmovapd %zmm30,0xe00(%rdx)
  405485:	62 61 fd 48 29 7a 3c 	vmovapd %zmm31,0xf00(%rdx)
  40548c:	48 81 c2 40 f0 ff ff 	add    $0xfffffffffffff040,%rdx
  405493:	62 e1 fd 48 28 02    	vmovapd (%rdx),%zmm16
  405499:	62 e1 fd 48 28 4a 04 	vmovapd 0x100(%rdx),%zmm17
  4054a0:	62 e1 fd 48 28 52 08 	vmovapd 0x200(%rdx),%zmm18
  4054a7:	62 e1 fd 48 28 5a 0c 	vmovapd 0x300(%rdx),%zmm19
  4054ae:	62 e1 fd 48 28 62 10 	vmovapd 0x400(%rdx),%zmm20
  4054b5:	62 e1 fd 48 28 6a 14 	vmovapd 0x500(%rdx),%zmm21
  4054bc:	62 e1 fd 48 28 72 18 	vmovapd 0x600(%rdx),%zmm22
  4054c3:	62 e1 fd 48 28 7a 1c 	vmovapd 0x700(%rdx),%zmm23
  4054ca:	62 61 fd 48 28 42 20 	vmovapd 0x800(%rdx),%zmm24
  4054d1:	62 61 fd 48 28 4a 24 	vmovapd 0x900(%rdx),%zmm25
  4054d8:	62 61 fd 48 28 52 28 	vmovapd 0xa00(%rdx),%zmm26
  4054df:	62 61 fd 48 28 5a 2c 	vmovapd 0xb00(%rdx),%zmm27
  4054e6:	62 61 fd 48 28 62 30 	vmovapd 0xc00(%rdx),%zmm28
  4054ed:	62 61 fd 48 28 6a 34 	vmovapd 0xd00(%rdx),%zmm29
  4054f4:	62 61 fd 48 28 72 38 	vmovapd 0xe00(%rdx),%zmm30
  4054fb:	62 61 fd 48 28 7a 3c 	vmovapd 0xf00(%rdx),%zmm31
  405502:	49 c7 c2 19 55 40 00 	mov    $0x405519,%r10
  405509:	48 83 c6 b0          	add    $0xffffffffffffffb0,%rsi
  40550d:	48 81 c7 40 20 00 00 	add    $0x2040,%rdi
  405514:	e9 93 fc ff ff       	jmpq   4051ac <CASE_1_3>

0000000000405519 <BLOCK_1_0_2_3>:
  405519:	62 e1 fd 48 29 02    	vmovapd %zmm16,(%rdx)
  40551f:	62 e1 fd 48 29 4a 04 	vmovapd %zmm17,0x100(%rdx)
  405526:	62 e1 fd 48 29 52 08 	vmovapd %zmm18,0x200(%rdx)
  40552d:	62 e1 fd 48 29 5a 0c 	vmovapd %zmm19,0x300(%rdx)
  405534:	62 e1 fd 48 29 62 10 	vmovapd %zmm20,0x400(%rdx)
  40553b:	62 e1 fd 48 29 6a 14 	vmovapd %zmm21,0x500(%rdx)
  405542:	62 e1 fd 48 29 72 18 	vmovapd %zmm22,0x600(%rdx)
  405549:	62 e1 fd 48 29 7a 1c 	vmovapd %zmm23,0x700(%rdx)
  405550:	62 61 fd 48 29 42 20 	vmovapd %zmm24,0x800(%rdx)
  405557:	62 61 fd 48 29 4a 24 	vmovapd %zmm25,0x900(%rdx)
  40555e:	62 61 fd 48 29 52 28 	vmovapd %zmm26,0xa00(%rdx)
  405565:	62 61 fd 48 29 5a 2c 	vmovapd %zmm27,0xb00(%rdx)
  40556c:	62 61 fd 48 29 62 30 	vmovapd %zmm28,0xc00(%rdx)
  405573:	62 61 fd 48 29 6a 34 	vmovapd %zmm29,0xd00(%rdx)
  40557a:	62 61 fd 48 29 72 38 	vmovapd %zmm30,0xe00(%rdx)
  405581:	62 61 fd 48 29 7a 3c 	vmovapd %zmm31,0xf00(%rdx)
  405588:	48 81 c2 00 10 00 00 	add    $0x1000,%rdx
  40558f:	62 e1 fd 48 28 02    	vmovapd (%rdx),%zmm16
  405595:	62 e1 fd 48 28 4a 04 	vmovapd 0x100(%rdx),%zmm17
  40559c:	62 e1 fd 48 28 52 08 	vmovapd 0x200(%rdx),%zmm18
  4055a3:	62 e1 fd 48 28 5a 0c 	vmovapd 0x300(%rdx),%zmm19
  4055aa:	62 e1 fd 48 28 62 10 	vmovapd 0x400(%rdx),%zmm20
  4055b1:	62 e1 fd 48 28 6a 14 	vmovapd 0x500(%rdx),%zmm21
  4055b8:	62 e1 fd 48 28 72 18 	vmovapd 0x600(%rdx),%zmm22
  4055bf:	62 e1 fd 48 28 7a 1c 	vmovapd 0x700(%rdx),%zmm23
  4055c6:	62 61 fd 48 28 42 20 	vmovapd 0x800(%rdx),%zmm24
  4055cd:	62 61 fd 48 28 4a 24 	vmovapd 0x900(%rdx),%zmm25
  4055d4:	62 61 fd 48 28 52 28 	vmovapd 0xa00(%rdx),%zmm26
  4055db:	62 61 fd 48 28 5a 2c 	vmovapd 0xb00(%rdx),%zmm27
  4055e2:	62 61 fd 48 28 62 30 	vmovapd 0xc00(%rdx),%zmm28
  4055e9:	62 61 fd 48 28 6a 34 	vmovapd 0xd00(%rdx),%zmm29
  4055f0:	62 61 fd 48 28 72 38 	vmovapd 0xe00(%rdx),%zmm30
  4055f7:	62 61 fd 48 28 7a 3c 	vmovapd 0xf00(%rdx),%zmm31
  4055fe:	49 c7 c2 15 56 40 00 	mov    $0x405615,%r10
  405605:	48 83 c6 50          	add    $0x50,%rsi
  405609:	48 81 c7 00 e0 ff ff 	add    $0xffffffffffffe000,%rdi
  405610:	e9 10 fc ff ff       	jmpq   405225 <CASE_2_3>

0000000000405615 <BLOCK_1_1_0_3>:
  405615:	62 e1 fd 48 29 02    	vmovapd %zmm16,(%rdx)
  40561b:	62 e1 fd 48 29 4a 04 	vmovapd %zmm17,0x100(%rdx)
  405622:	62 e1 fd 48 29 52 08 	vmovapd %zmm18,0x200(%rdx)
  405629:	62 e1 fd 48 29 5a 0c 	vmovapd %zmm19,0x300(%rdx)
  405630:	62 e1 fd 48 29 62 10 	vmovapd %zmm20,0x400(%rdx)
  405637:	62 e1 fd 48 29 6a 14 	vmovapd %zmm21,0x500(%rdx)
  40563e:	62 e1 fd 48 29 72 18 	vmovapd %zmm22,0x600(%rdx)
  405645:	62 e1 fd 48 29 7a 1c 	vmovapd %zmm23,0x700(%rdx)
  40564c:	62 61 fd 48 29 42 20 	vmovapd %zmm24,0x800(%rdx)
  405653:	62 61 fd 48 29 4a 24 	vmovapd %zmm25,0x900(%rdx)
  40565a:	62 61 fd 48 29 52 28 	vmovapd %zmm26,0xa00(%rdx)
  405661:	62 61 fd 48 29 5a 2c 	vmovapd %zmm27,0xb00(%rdx)
  405668:	62 61 fd 48 29 62 30 	vmovapd %zmm28,0xc00(%rdx)
  40566f:	62 61 fd 48 29 6a 34 	vmovapd %zmm29,0xd00(%rdx)
  405676:	62 61 fd 48 29 72 38 	vmovapd %zmm30,0xe00(%rdx)
  40567d:	62 61 fd 48 29 7a 3c 	vmovapd %zmm31,0xf00(%rdx)
  405684:	48 81 c2 40 f0 ff ff 	add    $0xfffffffffffff040,%rdx
  40568b:	62 e1 fd 48 28 02    	vmovapd (%rdx),%zmm16
  405691:	62 e1 fd 48 28 4a 04 	vmovapd 0x100(%rdx),%zmm17
  405698:	62 e1 fd 48 28 52 08 	vmovapd 0x200(%rdx),%zmm18
  40569f:	62 e1 fd 48 28 5a 0c 	vmovapd 0x300(%rdx),%zmm19
  4056a6:	62 e1 fd 48 28 62 10 	vmovapd 0x400(%rdx),%zmm20
  4056ad:	62 e1 fd 48 28 6a 14 	vmovapd 0x500(%rdx),%zmm21
  4056b4:	62 e1 fd 48 28 72 18 	vmovapd 0x600(%rdx),%zmm22
  4056bb:	62 e1 fd 48 28 7a 1c 	vmovapd 0x700(%rdx),%zmm23
  4056c2:	62 61 fd 48 28 42 20 	vmovapd 0x800(%rdx),%zmm24
  4056c9:	62 61 fd 48 28 4a 24 	vmovapd 0x900(%rdx),%zmm25
  4056d0:	62 61 fd 48 28 52 28 	vmovapd 0xa00(%rdx),%zmm26
  4056d7:	62 61 fd 48 28 5a 2c 	vmovapd 0xb00(%rdx),%zmm27
  4056de:	62 61 fd 48 28 62 30 	vmovapd 0xc00(%rdx),%zmm28
  4056e5:	62 61 fd 48 28 6a 34 	vmovapd 0xd00(%rdx),%zmm29
  4056ec:	62 61 fd 48 28 72 38 	vmovapd 0xe00(%rdx),%zmm30
  4056f3:	62 61 fd 48 28 7a 3c 	vmovapd 0xf00(%rdx),%zmm31
  4056fa:	49 c7 c2 11 57 40 00 	mov    $0x405711,%r10
  405701:	48 83 c6 b0          	add    $0xffffffffffffffb0,%rsi
  405705:	48 81 c7 40 20 00 00 	add    $0x2040,%rdi
  40570c:	e9 9b fa ff ff       	jmpq   4051ac <CASE_1_3>

0000000000405711 <BLOCK_2_0_2_3>:
  405711:	62 e1 fd 48 29 02    	vmovapd %zmm16,(%rdx)
  405717:	62 e1 fd 48 29 4a 04 	vmovapd %zmm17,0x100(%rdx)
  40571e:	62 e1 fd 48 29 52 08 	vmovapd %zmm18,0x200(%rdx)
  405725:	62 e1 fd 48 29 5a 0c 	vmovapd %zmm19,0x300(%rdx)
  40572c:	62 e1 fd 48 29 62 10 	vmovapd %zmm20,0x400(%rdx)
  405733:	62 e1 fd 48 29 6a 14 	vmovapd %zmm21,0x500(%rdx)
  40573a:	62 e1 fd 48 29 72 18 	vmovapd %zmm22,0x600(%rdx)
  405741:	62 e1 fd 48 29 7a 1c 	vmovapd %zmm23,0x700(%rdx)
  405748:	62 61 fd 48 29 42 20 	vmovapd %zmm24,0x800(%rdx)
  40574f:	62 61 fd 48 29 4a 24 	vmovapd %zmm25,0x900(%rdx)
  405756:	62 61 fd 48 29 52 28 	vmovapd %zmm26,0xa00(%rdx)
  40575d:	62 61 fd 48 29 5a 2c 	vmovapd %zmm27,0xb00(%rdx)
  405764:	62 61 fd 48 29 62 30 	vmovapd %zmm28,0xc00(%rdx)
  40576b:	62 61 fd 48 29 6a 34 	vmovapd %zmm29,0xd00(%rdx)
  405772:	62 61 fd 48 29 72 38 	vmovapd %zmm30,0xe00(%rdx)
  405779:	62 61 fd 48 29 7a 3c 	vmovapd %zmm31,0xf00(%rdx)
  405780:	48 81 c2 00 10 00 00 	add    $0x1000,%rdx
  405787:	62 e1 fd 48 28 02    	vmovapd (%rdx),%zmm16
  40578d:	62 e1 fd 48 28 4a 04 	vmovapd 0x100(%rdx),%zmm17
  405794:	62 e1 fd 48 28 52 08 	vmovapd 0x200(%rdx),%zmm18
  40579b:	62 e1 fd 48 28 5a 0c 	vmovapd 0x300(%rdx),%zmm19
  4057a2:	62 e1 fd 48 28 62 10 	vmovapd 0x400(%rdx),%zmm20
  4057a9:	62 e1 fd 48 28 6a 14 	vmovapd 0x500(%rdx),%zmm21
  4057b0:	62 e1 fd 48 28 72 18 	vmovapd 0x600(%rdx),%zmm22
  4057b7:	62 e1 fd 48 28 7a 1c 	vmovapd 0x700(%rdx),%zmm23
  4057be:	62 61 fd 48 28 42 20 	vmovapd 0x800(%rdx),%zmm24
  4057c5:	62 61 fd 48 28 4a 24 	vmovapd 0x900(%rdx),%zmm25
  4057cc:	62 61 fd 48 28 52 28 	vmovapd 0xa00(%rdx),%zmm26
  4057d3:	62 61 fd 48 28 5a 2c 	vmovapd 0xb00(%rdx),%zmm27
  4057da:	62 61 fd 48 28 62 30 	vmovapd 0xc00(%rdx),%zmm28
  4057e1:	62 61 fd 48 28 6a 34 	vmovapd 0xd00(%rdx),%zmm29
  4057e8:	62 61 fd 48 28 72 38 	vmovapd 0xe00(%rdx),%zmm30
  4057ef:	62 61 fd 48 28 7a 3c 	vmovapd 0xf00(%rdx),%zmm31
  4057f6:	49 c7 c2 0d 58 40 00 	mov    $0x40580d,%r10
  4057fd:	48 83 c6 50          	add    $0x50,%rsi
  405801:	48 81 c7 00 e0 ff ff 	add    $0xffffffffffffe000,%rdi
  405808:	e9 18 fa ff ff       	jmpq   405225 <CASE_2_3>

000000000040580d <BLOCK_2_1_0_3>:
  40580d:	62 e1 fd 48 29 02    	vmovapd %zmm16,(%rdx)
  405813:	62 e1 fd 48 29 4a 04 	vmovapd %zmm17,0x100(%rdx)
  40581a:	62 e1 fd 48 29 52 08 	vmovapd %zmm18,0x200(%rdx)
  405821:	62 e1 fd 48 29 5a 0c 	vmovapd %zmm19,0x300(%rdx)
  405828:	62 e1 fd 48 29 62 10 	vmovapd %zmm20,0x400(%rdx)
  40582f:	62 e1 fd 48 29 6a 14 	vmovapd %zmm21,0x500(%rdx)
  405836:	62 e1 fd 48 29 72 18 	vmovapd %zmm22,0x600(%rdx)
  40583d:	62 e1 fd 48 29 7a 1c 	vmovapd %zmm23,0x700(%rdx)
  405844:	62 61 fd 48 29 42 20 	vmovapd %zmm24,0x800(%rdx)
  40584b:	62 61 fd 48 29 4a 24 	vmovapd %zmm25,0x900(%rdx)
  405852:	62 61 fd 48 29 52 28 	vmovapd %zmm26,0xa00(%rdx)
  405859:	62 61 fd 48 29 5a 2c 	vmovapd %zmm27,0xb00(%rdx)
  405860:	62 61 fd 48 29 62 30 	vmovapd %zmm28,0xc00(%rdx)
  405867:	62 61 fd 48 29 6a 34 	vmovapd %zmm29,0xd00(%rdx)
  40586e:	62 61 fd 48 29 72 38 	vmovapd %zmm30,0xe00(%rdx)
  405875:	62 61 fd 48 29 7a 3c 	vmovapd %zmm31,0xf00(%rdx)
  40587c:	48 81 c2 40 f0 ff ff 	add    $0xfffffffffffff040,%rdx
  405883:	62 e1 fd 48 28 02    	vmovapd (%rdx),%zmm16
  405889:	62 e1 fd 48 28 4a 04 	vmovapd 0x100(%rdx),%zmm17
  405890:	62 e1 fd 48 28 52 08 	vmovapd 0x200(%rdx),%zmm18
  405897:	62 e1 fd 48 28 5a 0c 	vmovapd 0x300(%rdx),%zmm19
  40589e:	62 e1 fd 48 28 62 10 	vmovapd 0x400(%rdx),%zmm20
  4058a5:	62 e1 fd 48 28 6a 14 	vmovapd 0x500(%rdx),%zmm21
  4058ac:	62 e1 fd 48 28 72 18 	vmovapd 0x600(%rdx),%zmm22
  4058b3:	62 e1 fd 48 28 7a 1c 	vmovapd 0x700(%rdx),%zmm23
  4058ba:	62 61 fd 48 28 42 20 	vmovapd 0x800(%rdx),%zmm24
  4058c1:	62 61 fd 48 28 4a 24 	vmovapd 0x900(%rdx),%zmm25
  4058c8:	62 61 fd 48 28 52 28 	vmovapd 0xa00(%rdx),%zmm26
  4058cf:	62 61 fd 48 28 5a 2c 	vmovapd 0xb00(%rdx),%zmm27
  4058d6:	62 61 fd 48 28 62 30 	vmovapd 0xc00(%rdx),%zmm28
  4058dd:	62 61 fd 48 28 6a 34 	vmovapd 0xd00(%rdx),%zmm29
  4058e4:	62 61 fd 48 28 72 38 	vmovapd 0xe00(%rdx),%zmm30
  4058eb:	62 61 fd 48 28 7a 3c 	vmovapd 0xf00(%rdx),%zmm31
  4058f2:	49 c7 c2 09 59 40 00 	mov    $0x405909,%r10
  4058f9:	48 83 c6 b0          	add    $0xffffffffffffffb0,%rsi
  4058fd:	48 81 c7 40 20 00 00 	add    $0x2040,%rdi
  405904:	e9 a3 f8 ff ff       	jmpq   4051ac <CASE_1_3>

0000000000405909 <BLOCK_3_0_2_3>:
  405909:	62 e1 fd 48 29 02    	vmovapd %zmm16,(%rdx)
  40590f:	62 e1 fd 48 29 4a 04 	vmovapd %zmm17,0x100(%rdx)
  405916:	62 e1 fd 48 29 52 08 	vmovapd %zmm18,0x200(%rdx)
  40591d:	62 e1 fd 48 29 5a 0c 	vmovapd %zmm19,0x300(%rdx)
  405924:	62 e1 fd 48 29 62 10 	vmovapd %zmm20,0x400(%rdx)
  40592b:	62 e1 fd 48 29 6a 14 	vmovapd %zmm21,0x500(%rdx)
  405932:	62 e1 fd 48 29 72 18 	vmovapd %zmm22,0x600(%rdx)
  405939:	62 e1 fd 48 29 7a 1c 	vmovapd %zmm23,0x700(%rdx)
  405940:	62 61 fd 48 29 42 20 	vmovapd %zmm24,0x800(%rdx)
  405947:	62 61 fd 48 29 4a 24 	vmovapd %zmm25,0x900(%rdx)
  40594e:	62 61 fd 48 29 52 28 	vmovapd %zmm26,0xa00(%rdx)
  405955:	62 61 fd 48 29 5a 2c 	vmovapd %zmm27,0xb00(%rdx)
  40595c:	62 61 fd 48 29 62 30 	vmovapd %zmm28,0xc00(%rdx)
  405963:	62 61 fd 48 29 6a 34 	vmovapd %zmm29,0xd00(%rdx)
  40596a:	62 61 fd 48 29 72 38 	vmovapd %zmm30,0xe00(%rdx)
  405971:	62 61 fd 48 29 7a 3c 	vmovapd %zmm31,0xf00(%rdx)
  405978:	48 81 c2 00 10 00 00 	add    $0x1000,%rdx
  40597f:	62 e1 fd 48 28 02    	vmovapd (%rdx),%zmm16
  405985:	62 e1 fd 48 28 4a 04 	vmovapd 0x100(%rdx),%zmm17
  40598c:	62 e1 fd 48 28 52 08 	vmovapd 0x200(%rdx),%zmm18
  405993:	62 e1 fd 48 28 5a 0c 	vmovapd 0x300(%rdx),%zmm19
  40599a:	62 e1 fd 48 28 62 10 	vmovapd 0x400(%rdx),%zmm20
  4059a1:	62 e1 fd 48 28 6a 14 	vmovapd 0x500(%rdx),%zmm21
  4059a8:	62 e1 fd 48 28 72 18 	vmovapd 0x600(%rdx),%zmm22
  4059af:	62 e1 fd 48 28 7a 1c 	vmovapd 0x700(%rdx),%zmm23
  4059b6:	62 61 fd 48 28 42 20 	vmovapd 0x800(%rdx),%zmm24
  4059bd:	62 61 fd 48 28 4a 24 	vmovapd 0x900(%rdx),%zmm25
  4059c4:	62 61 fd 48 28 52 28 	vmovapd 0xa00(%rdx),%zmm26
  4059cb:	62 61 fd 48 28 5a 2c 	vmovapd 0xb00(%rdx),%zmm27
  4059d2:	62 61 fd 48 28 62 30 	vmovapd 0xc00(%rdx),%zmm28
  4059d9:	62 61 fd 48 28 6a 34 	vmovapd 0xd00(%rdx),%zmm29
  4059e0:	62 61 fd 48 28 72 38 	vmovapd 0xe00(%rdx),%zmm30
  4059e7:	62 61 fd 48 28 7a 3c 	vmovapd 0xf00(%rdx),%zmm31
  4059ee:	49 c7 c2 05 5a 40 00 	mov    $0x405a05,%r10
  4059f5:	48 83 c6 50          	add    $0x50,%rsi
  4059f9:	48 81 c7 00 e0 ff ff 	add    $0xffffffffffffe000,%rdi
  405a00:	e9 20 f8 ff ff       	jmpq   405225 <CASE_2_3>

0000000000405a05 <BLOCK_3_1_0_3>:
  405a05:	62 e1 fd 48 29 02    	vmovapd %zmm16,(%rdx)
  405a0b:	62 e1 fd 48 29 4a 04 	vmovapd %zmm17,0x100(%rdx)
  405a12:	62 e1 fd 48 29 52 08 	vmovapd %zmm18,0x200(%rdx)
  405a19:	62 e1 fd 48 29 5a 0c 	vmovapd %zmm19,0x300(%rdx)
  405a20:	62 e1 fd 48 29 62 10 	vmovapd %zmm20,0x400(%rdx)
  405a27:	62 e1 fd 48 29 6a 14 	vmovapd %zmm21,0x500(%rdx)
  405a2e:	62 e1 fd 48 29 72 18 	vmovapd %zmm22,0x600(%rdx)
  405a35:	62 e1 fd 48 29 7a 1c 	vmovapd %zmm23,0x700(%rdx)
  405a3c:	62 61 fd 48 29 42 20 	vmovapd %zmm24,0x800(%rdx)
  405a43:	62 61 fd 48 29 4a 24 	vmovapd %zmm25,0x900(%rdx)
  405a4a:	62 61 fd 48 29 52 28 	vmovapd %zmm26,0xa00(%rdx)
  405a51:	62 61 fd 48 29 5a 2c 	vmovapd %zmm27,0xb00(%rdx)
  405a58:	62 61 fd 48 29 62 30 	vmovapd %zmm28,0xc00(%rdx)
  405a5f:	62 61 fd 48 29 6a 34 	vmovapd %zmm29,0xd00(%rdx)
  405a66:	62 61 fd 48 29 72 38 	vmovapd %zmm30,0xe00(%rdx)
  405a6d:	62 61 fd 48 29 7a 3c 	vmovapd %zmm31,0xf00(%rdx)
  405a74:	41 81 f8 b8 0b 00 00 	cmp    $0xbb8,%r8d
  405a7b:	0f 8c fa f6 ff ff    	jl     40517b <BLOCK_3_1_0_2+0xb5>
  405a81:	bf 01 00 00 00       	mov    $0x1,%edi
  405a86:	48 8d b4 24 00 04 00 	lea    0x400(%rsp),%rsi
  405a8d:	00 
  405a8e:	e8 5d bb ff ff       	callq  4015f0 <clock_gettime@plt>
  405a93:	bf 80 1a 61 00       	mov    $0x611a80,%edi
  405a98:	be 3c e6 40 00       	mov    $0x40e63c,%esi
  405a9d:	e8 8e ba ff ff       	callq  401530 <_ZStlsISt11char_traitsIcEERSt13basic_ostreamIcT_ES5_PKc@plt>
  405aa2:	48 89 c7             	mov    %rax,%rdi
  405aa5:	48 8b 84 24 00 04 00 	mov    0x400(%rsp),%rax
  405aac:	00 
  405aad:	62 e3 d5 00 27 2d 88 	vgetmantsd $0x0,0x8a88(%rip),%xmm21,%xmm21        # 40e540 <_IO_stdin_used+0x100>
  405ab4:	8a 00 00 00 
  405ab8:	48 2b 84 24 f0 03 00 	sub    0x3f0(%rsp),%rax
  405abf:	00 
  405ac0:	48 69 d0 00 ca 9a 3b 	imul   $0x3b9aca00,%rax,%rdx
  405ac7:	62 a2 d5 00 cb fd    	vrcp28sd %xmm21,%xmm21,%xmm23
  405acd:	62 e1 ff 08 10 25 71 	vmovsd 0x8a71(%rip),%xmm20        # 40e548 <_IO_stdin_used+0x108>
  405ad4:	8a 00 00 
  405ad7:	62 e2 e5 00 43 1d 5f 	vgetexpsd 0x8a5f(%rip),%xmm19,%xmm19        # 40e540 <_IO_stdin_used+0x100>
  405ade:	8a 00 00 
  405ae1:	48 03 94 24 08 04 00 	add    0x408(%rsp),%rdx
  405ae8:	00 
  405ae9:	62 a2 c5 10 bd e5    	vfnmadd231sd {rn-sae},%xmm21,%xmm23,%xmm20
  405aef:	48 2b 94 24 f8 03 00 	sub    0x3f8(%rsp),%rdx
  405af6:	00 
  405af7:	62 e1 ff 00 2a c2    	vcvtsi2sd %rdx,%xmm16,%xmm16
  405afd:	62 e1 ff 00 59 0d 31 	vmulsd 0x8a31(%rip),%xmm16,%xmm17        # 40e538 <_IO_stdin_used+0xf8>
  405b04:	8a 00 00 
  405b07:	62 a3 f5 00 27 f1 00 	vgetmantsd $0x0,%xmm17,%xmm17,%xmm22
  405b0e:	62 a2 f5 00 43 d1    	vgetexpsd %xmm17,%xmm17,%xmm18
  405b14:	62 21 c7 10 59 c6    	vmulsd {rn-sae},%xmm22,%xmm23,%xmm24
  405b1a:	62 a2 dd 10 b9 ff    	vfmadd231sd {rn-sae},%xmm23,%xmm20,%xmm23
  405b20:	62 a2 bd 10 bd f5    	vfnmadd231sd {rn-sae},%xmm21,%xmm24,%xmm22
  405b26:	62 21 ef 00 5c cb    	vsubsd %xmm19,%xmm18,%xmm25
  405b2c:	62 22 cd 10 b9 c7    	vfmadd231sd {rn-sae},%xmm23,%xmm22,%xmm24
  405b32:	62 92 bd 00 2d c1    	vscalefsd %xmm25,%xmm24,%xmm0
  405b38:	e8 a3 bb ff ff       	callq  4016e0 <_ZNSolsEd@plt>
  405b3d:	48 89 c7             	mov    %rax,%rdi
  405b40:	be c0 14 40 00       	mov    $0x4014c0,%esi
  405b45:	e8 16 ba ff ff       	callq  401560 <_ZNSolsEPFRSoS_E@plt>
  405b4a:	48 8b bc 24 38 04 00 	mov    0x438(%rsp),%rdi
  405b51:	00 
  405b52:	48 c7 84 24 20 04 00 	movq   $0x611220,0x420(%rsp)
  405b59:	00 20 12 61 00 
  405b5e:	e8 4d ba ff ff       	callq  4015b0 <free@plt>
  405b63:	48 8b bc 24 f8 04 00 	mov    0x4f8(%rsp),%rdi
  405b6a:	00 
  405b6b:	48 c7 84 24 e0 04 00 	movq   $0x611220,0x4e0(%rsp)
  405b72:	00 20 12 61 00 
  405b77:	e8 34 ba ff ff       	callq  4015b0 <free@plt>
  405b7c:	48 8b 9c 24 70 04 00 	mov    0x470(%rsp),%rbx
  405b83:	00 
  405b84:	48 85 db             	test   %rbx,%rbx
  405b87:	74 39                	je     405bc2 <BLOCK_3_1_0_3+0x1bd>
  405b89:	48 8b 7b 18          	mov    0x18(%rbx),%rdi
  405b8d:	48 c7 03 d8 11 61 00 	movq   $0x6111d8,(%rbx)
  405b94:	48 85 ff             	test   %rdi,%rdi
  405b97:	74 05                	je     405b9e <BLOCK_3_1_0_3+0x199>
  405b99:	e8 42 ba ff ff       	callq  4015e0 <_ZdaPv@plt>
  405b9e:	48 8b 7b 20          	mov    0x20(%rbx),%rdi
  405ba2:	48 85 ff             	test   %rdi,%rdi
  405ba5:	74 05                	je     405bac <BLOCK_3_1_0_3+0x1a7>
  405ba7:	e8 34 ba ff ff       	callq  4015e0 <_ZdaPv@plt>
  405bac:	48 8b 7b 28          	mov    0x28(%rbx),%rdi
  405bb0:	48 85 ff             	test   %rdi,%rdi
  405bb3:	74 05                	je     405bba <BLOCK_3_1_0_3+0x1b5>
  405bb5:	e8 26 ba ff ff       	callq  4015e0 <_ZdaPv@plt>
  405bba:	48 89 df             	mov    %rbx,%rdi
  405bbd:	e8 5e b9 ff ff       	callq  401520 <_ZdlPv@plt>
  405bc2:	48 8b bc 24 d8 04 00 	mov    0x4d8(%rsp),%rdi
  405bc9:	00 
  405bca:	48 c7 84 24 70 04 00 	movq   $0x0,0x470(%rsp)
  405bd1:	00 00 00 00 00 
  405bd6:	48 c7 84 24 c0 04 00 	movq   $0x611220,0x4c0(%rsp)
  405bdd:	00 20 12 61 00 
  405be2:	e8 c9 b9 ff ff       	callq  4015b0 <free@plt>
  405be7:	48 8b bc 24 b8 04 00 	mov    0x4b8(%rsp),%rdi
  405bee:	00 
  405bef:	48 c7 84 24 a0 04 00 	movq   $0x611220,0x4a0(%rsp)
  405bf6:	00 20 12 61 00 
  405bfb:	e8 b0 b9 ff ff       	callq  4015b0 <free@plt>
  405c00:	48 8b 9c 24 48 04 00 	mov    0x448(%rsp),%rbx
  405c07:	00 
  405c08:	4c 8b a4 24 68 04 00 	mov    0x468(%rsp),%r12
  405c0f:	00 
  405c10:	4c 8b ac 24 60 04 00 	mov    0x460(%rsp),%r13
  405c17:	00 
  405c18:	4c 8b b4 24 58 04 00 	mov    0x458(%rsp),%r14
  405c1f:	00 
  405c20:	4c 8b bc 24 50 04 00 	mov    0x450(%rsp),%r15
  405c27:	00 
  405c28:	48 89 ec             	mov    %rbp,%rsp
  405c2b:	5d                   	pop    %rbp
  405c2c:	c3                   	retq   
  405c2d:	48 89 04 24          	mov    %rax,(%rsp)
  405c31:	48 8d bc 24 20 04 00 	lea    0x420(%rsp),%rdi
  405c38:	00 
  405c39:	e8 02 4e 00 00       	callq  40aa40 <_ZN11DenseMatrixD1Ev>
  405c3e:	48 8d bc 24 e0 04 00 	lea    0x4e0(%rsp),%rdi
  405c45:	00 
  405c46:	e8 f5 4d 00 00       	callq  40aa40 <_ZN11DenseMatrixD1Ev>
  405c4b:	48 8d bc 24 70 04 00 	lea    0x470(%rsp),%rdi
  405c52:	00 
  405c53:	e8 08 53 00 00       	callq  40af60 <_ZNSt10unique_ptrI12SparseMatrixSt14default_deleteIS0_EED1Ev>
  405c58:	48 8d bc 24 c0 04 00 	lea    0x4c0(%rsp),%rdi
  405c5f:	00 
  405c60:	e8 db 4d 00 00       	callq  40aa40 <_ZN11DenseMatrixD1Ev>
  405c65:	48 8d bc 24 a0 04 00 	lea    0x4a0(%rsp),%rdi
  405c6c:	00 
  405c6d:	e8 ce 4d 00 00       	callq  40aa40 <_ZN11DenseMatrixD1Ev>
  405c72:	48 8b 3c 24          	mov    (%rsp),%rdi
  405c76:	e8 35 ba ff ff       	callq  4016b0 <_Unwind_Resume@plt>
  405c7b:	31 c0                	xor    %eax,%eax
  405c7d:	e9 4a ea ff ff       	jmpq   4046cc <_Z30test_jump_penalty_2_20_generalv+0x93c>
  405c82:	31 c0                	xor    %eax,%eax
  405c84:	e9 64 e8 ff ff       	jmpq   4044ed <_Z30test_jump_penalty_2_20_generalv+0x75d>
  405c89:	48 89 04 24          	mov    %rax,(%rsp)
  405c8d:	eb c9                	jmp    405c58 <BLOCK_3_1_0_3+0x253>
  405c8f:	31 d2                	xor    %edx,%edx
  405c91:	e9 db e5 ff ff       	jmpq   404271 <_Z30test_jump_penalty_2_20_generalv+0x4e1>
  405c96:	31 d2                	xor    %edx,%edx
  405c98:	e9 87 e2 ff ff       	jmpq   403f24 <_Z30test_jump_penalty_2_20_generalv+0x194>
  405c9d:	8b 44 24 30          	mov    0x30(%rsp),%eax
  405ca1:	bb 20 00 00 00       	mov    $0x20,%ebx
  405ca6:	e9 e8 e2 ff ff       	jmpq   403f93 <_Z30test_jump_penalty_2_20_generalv+0x203>
  405cab:	0f 1f 44 00 00       	nopl   0x0(%rax,%rax,1)

0000000000405cb0 <_ZlsRSoRK6Matrix>:
  405cb0:	48 83 ec 28          	sub    $0x28,%rsp
  405cb4:	48 89 f0             	mov    %rsi,%rax
  405cb7:	31 f6                	xor    %esi,%esi
  405cb9:	83 78 08 00          	cmpl   $0x0,0x8(%rax)
  405cbd:	0f 8e a8 00 00 00    	jle    405d6b <_ZlsRSoRK6Matrix+0xbb>
  405cc3:	4c 89 64 24 18       	mov    %r12,0x18(%rsp)
  405cc8:	49 89 fc             	mov    %rdi,%r12
  405ccb:	4c 89 6c 24 10       	mov    %r13,0x10(%rsp)
  405cd0:	49 89 c5             	mov    %rax,%r13
  405cd3:	4c 89 74 24 08       	mov    %r14,0x8(%rsp)
  405cd8:	41 89 f6             	mov    %esi,%r14d
  405cdb:	4c 89 3c 24          	mov    %r15,(%rsp)
  405cdf:	45 31 ff             	xor    %r15d,%r15d
  405ce2:	41 83 7d 0c 00       	cmpl   $0x0,0xc(%r13)
  405ce7:	7e 55                	jle    405d3e <_ZlsRSoRK6Matrix+0x8e>
  405ce9:	4c 89 e7             	mov    %r12,%rdi
  405cec:	be 40 af 40 00       	mov    $0x40af40,%esi
  405cf1:	e8 8a b7 ff ff       	callq  401480 <_ZNSolsEPFRSt8ios_baseS0_E@plt>
  405cf6:	48 89 c7             	mov    %rax,%rdi
  405cf9:	be 0a 00 00 00       	mov    $0xa,%esi
  405cfe:	e8 8d b8 ff ff       	callq  401590 <_ZStlsIcSt11char_traitsIcEERSt13basic_ostreamIT_T0_ES6_St5_Setw@plt>
  405d03:	48 89 c7             	mov    %rax,%rdi
  405d06:	be 02 00 00 00       	mov    $0x2,%esi
  405d0b:	e8 40 b9 ff ff       	callq  401650 <_ZStlsIcSt11char_traitsIcEERSt13basic_ostreamIT_T0_ES6_St13_Setprecision@plt>
  405d10:	49 8b 4d 00          	mov    0x0(%r13),%rcx
  405d14:	4c 89 ef             	mov    %r13,%rdi
  405d17:	44 89 f6             	mov    %r14d,%esi
  405d1a:	44 89 fa             	mov    %r15d,%edx
  405d1d:	ff 11                	callq  *(%rcx)
  405d1f:	4c 89 e7             	mov    %r12,%rdi
  405d22:	e8 b9 b9 ff ff       	callq  4016e0 <_ZNSolsEd@plt>
  405d27:	48 89 c7             	mov    %rax,%rdi
  405d2a:	be 90 ed 40 00       	mov    $0x40ed90,%esi
  405d2f:	e8 fc b7 ff ff       	callq  401530 <_ZStlsISt11char_traitsIcEERSt13basic_ostreamIcT_ES5_PKc@plt>
  405d34:	41 83 c7 01          	add    $0x1,%r15d
  405d38:	45 3b 7d 0c          	cmp    0xc(%r13),%r15d
  405d3c:	7c ab                	jl     405ce9 <_ZlsRSoRK6Matrix+0x39>
  405d3e:	4c 89 e7             	mov    %r12,%rdi
  405d41:	be c0 14 40 00       	mov    $0x4014c0,%esi
  405d46:	e8 15 b8 ff ff       	callq  401560 <_ZNSolsEPFRSoS_E@plt>
  405d4b:	41 83 c6 01          	add    $0x1,%r14d
  405d4f:	45 3b 75 08          	cmp    0x8(%r13),%r14d
  405d53:	7c 8a                	jl     405cdf <_ZlsRSoRK6Matrix+0x2f>
  405d55:	4c 89 e7             	mov    %r12,%rdi
  405d58:	4c 8b 64 24 18       	mov    0x18(%rsp),%r12
  405d5d:	4c 8b 6c 24 10       	mov    0x10(%rsp),%r13
  405d62:	4c 8b 74 24 08       	mov    0x8(%rsp),%r14
  405d67:	4c 8b 3c 24          	mov    (%rsp),%r15
  405d6b:	48 89 f8             	mov    %rdi,%rax
  405d6e:	48 83 c4 28          	add    $0x28,%rsp
  405d72:	c3                   	retq   
  405d73:	0f 1f 00             	nopl   (%rax)
  405d76:	66 2e 0f 1f 84 00 00 	nopw   %cs:0x0(%rax,%rax,1)
  405d7d:	00 00 00 

0000000000405d80 <_Z4gemmRK6MatrixS1_RS_>:
  405d80:	48 83 ec 58          	sub    $0x58,%rsp
  405d84:	49 89 d1             	mov    %rdx,%r9
  405d87:	8b 4f 0c             	mov    0xc(%rdi),%ecx
  405d8a:	41 8b 41 0c          	mov    0xc(%r9),%eax
  405d8e:	31 d2                	xor    %edx,%edx
  405d90:	45 8b 41 08          	mov    0x8(%r9),%r8d
  405d94:	85 c0                	test   %eax,%eax
  405d96:	0f 8e e6 00 00 00    	jle    405e82 <_Z4gemmRK6MatrixS1_RS_+0x102>
  405d9c:	4c 89 24 24          	mov    %r12,(%rsp)
  405da0:	49 89 f4             	mov    %rsi,%r12
  405da3:	4c 89 6c 24 08       	mov    %r13,0x8(%rsp)
  405da8:	4d 89 cd             	mov    %r9,%r13
  405dab:	4c 89 74 24 10       	mov    %r14,0x10(%rsp)
  405db0:	49 89 fe             	mov    %rdi,%r14
  405db3:	4c 89 7c 24 18       	mov    %r15,0x18(%rsp)
  405db8:	48 89 5c 24 20       	mov    %rbx,0x20(%rsp)
  405dbd:	48 89 6c 24 28       	mov    %rbp,0x28(%rsp)
  405dc2:	89 d5                	mov    %edx,%ebp
  405dc4:	45 31 ff             	xor    %r15d,%r15d
  405dc7:	85 c9                	test   %ecx,%ecx
  405dc9:	0f 8e 8b 00 00 00    	jle    405e5a <_Z4gemmRK6MatrixS1_RS_+0xda>
  405dcf:	89 44 24 30          	mov    %eax,0x30(%rsp)
  405dd3:	31 db                	xor    %ebx,%ebx
  405dd5:	45 85 c0             	test   %r8d,%r8d
  405dd8:	7e 6e                	jle    405e48 <_Z4gemmRK6MatrixS1_RS_+0xc8>
  405dda:	89 4c 24 38          	mov    %ecx,0x38(%rsp)
  405dde:	44 89 44 24 40       	mov    %r8d,0x40(%rsp)
  405de3:	49 8b 45 00          	mov    0x0(%r13),%rax
  405de7:	4c 89 ef             	mov    %r13,%rdi
  405dea:	89 de                	mov    %ebx,%esi
  405dec:	89 ea                	mov    %ebp,%edx
  405dee:	ff 10                	callq  *(%rax)
  405df0:	c5 fb 11 44 24 50    	vmovsd %xmm0,0x50(%rsp)
  405df6:	49 8b 06             	mov    (%r14),%rax
  405df9:	4c 89 f7             	mov    %r14,%rdi
  405dfc:	89 de                	mov    %ebx,%esi
  405dfe:	44 89 fa             	mov    %r15d,%edx
  405e01:	ff 10                	callq  *(%rax)
  405e03:	c5 fb 11 44 24 48    	vmovsd %xmm0,0x48(%rsp)
  405e09:	49 8b 04 24          	mov    (%r12),%rax
  405e0d:	4c 89 e7             	mov    %r12,%rdi
  405e10:	44 89 fe             	mov    %r15d,%esi
  405e13:	89 ea                	mov    %ebp,%edx
  405e15:	ff 10                	callq  *(%rax)
  405e17:	c5 f9 28 c8          	vmovapd %xmm0,%xmm1
  405e1b:	c5 fb 10 44 24 50    	vmovsd 0x50(%rsp),%xmm0
  405e21:	49 8b 45 00          	mov    0x0(%r13),%rax
  405e25:	4c 89 ef             	mov    %r13,%rdi
  405e28:	89 de                	mov    %ebx,%esi
  405e2a:	89 ea                	mov    %ebp,%edx
  405e2c:	c4 e2 f1 b9 44 24 48 	vfmadd231sd 0x48(%rsp),%xmm1,%xmm0
  405e33:	ff 50 08             	callq  *0x8(%rax)
  405e36:	83 c3 01             	add    $0x1,%ebx
  405e39:	3b 5c 24 40          	cmp    0x40(%rsp),%ebx
  405e3d:	7c a4                	jl     405de3 <_Z4gemmRK6MatrixS1_RS_+0x63>
  405e3f:	8b 4c 24 38          	mov    0x38(%rsp),%ecx
  405e43:	44 8b 44 24 40       	mov    0x40(%rsp),%r8d
  405e48:	41 83 c7 01          	add    $0x1,%r15d
  405e4c:	41 39 cf             	cmp    %ecx,%r15d
  405e4f:	7c 82                	jl     405dd3 <_Z4gemmRK6MatrixS1_RS_+0x53>
  405e51:	0f 1f 44 00 00       	nopl   0x0(%rax,%rax,1)
  405e56:	8b 44 24 30          	mov    0x30(%rsp),%eax
  405e5a:	83 c5 01             	add    $0x1,%ebp
  405e5d:	39 c5                	cmp    %eax,%ebp
  405e5f:	0f 8c 5f ff ff ff    	jl     405dc4 <_Z4gemmRK6MatrixS1_RS_+0x44>
  405e65:	4c 8b 24 24          	mov    (%rsp),%r12
  405e69:	4c 8b 6c 24 08       	mov    0x8(%rsp),%r13
  405e6e:	4c 8b 74 24 10       	mov    0x10(%rsp),%r14
  405e73:	4c 8b 7c 24 18       	mov    0x18(%rsp),%r15
  405e78:	48 8b 5c 24 20       	mov    0x20(%rsp),%rbx
  405e7d:	48 8b 6c 24 28       	mov    0x28(%rsp),%rbp
  405e82:	48 83 c4 58          	add    $0x58,%rsp
  405e86:	c3                   	retq   
  405e87:	66 0f 1f 84 00 00 00 	nopw   0x0(%rax,%rax,1)
  405e8e:	00 00 

0000000000405e90 <_ZlsRSoRK12SparseMatrix>:
  405e90:	48 83 ec 18          	sub    $0x18,%rsp
  405e94:	31 c0                	xor    %eax,%eax
  405e96:	83 7e 10 00          	cmpl   $0x0,0x10(%rsi)
  405e9a:	7e 54                	jle    405ef0 <_ZlsRSoRK12SparseMatrix+0x60>
  405e9c:	4c 89 64 24 10       	mov    %r12,0x10(%rsp)
  405ea1:	49 89 fc             	mov    %rdi,%r12
  405ea4:	4c 89 6c 24 08       	mov    %r13,0x8(%rsp)
  405ea9:	49 89 f5             	mov    %rsi,%r13
  405eac:	4c 89 34 24          	mov    %r14,(%rsp)
  405eb0:	49 89 c6             	mov    %rax,%r14
  405eb3:	49 8b 55 18          	mov    0x18(%r13),%rdx
  405eb7:	4c 89 e7             	mov    %r12,%rdi
  405eba:	c4 a1 7b 10 04 f2    	vmovsd (%rdx,%r14,8),%xmm0
  405ec0:	e8 1b b8 ff ff       	callq  4016e0 <_ZNSolsEd@plt>
  405ec5:	48 89 c7             	mov    %rax,%rdi
  405ec8:	be 90 ed 40 00       	mov    $0x40ed90,%esi
  405ecd:	e8 5e b6 ff ff       	callq  401530 <_ZStlsISt11char_traitsIcEERSt13basic_ostreamIcT_ES5_PKc@plt>
  405ed2:	49 63 55 10          	movslq 0x10(%r13),%rdx
  405ed6:	49 83 c6 01          	add    $0x1,%r14
  405eda:	49 39 d6             	cmp    %rdx,%r14
  405edd:	7c d4                	jl     405eb3 <_ZlsRSoRK12SparseMatrix+0x23>
  405edf:	4c 89 e7             	mov    %r12,%rdi
  405ee2:	4c 8b 64 24 10       	mov    0x10(%rsp),%r12
  405ee7:	4c 8b 6c 24 08       	mov    0x8(%rsp),%r13
  405eec:	4c 8b 34 24          	mov    (%rsp),%r14
  405ef0:	48 89 f8             	mov    %rdi,%rax
  405ef3:	48 83 c4 18          	add    $0x18,%rsp
  405ef7:	c3                   	retq   
  405ef8:	0f 1f 84 00 00 00 00 	nopl   0x0(%rax,%rax,1)
  405eff:	00 

0000000000405f00 <_Z6to_cscRK6Matrix>:
  405f00:	48 83 ec 38          	sub    $0x38,%rsp
  405f04:	48 89 5c 24 08       	mov    %rbx,0x8(%rsp)
  405f09:	48 89 fb             	mov    %rdi,%rbx
  405f0c:	48 89 6c 24 30       	mov    %rbp,0x30(%rsp)
  405f11:	bf 30 00 00 00       	mov    $0x30,%edi
  405f16:	4c 89 7c 24 10       	mov    %r15,0x10(%rsp)
  405f1b:	48 89 f5             	mov    %rsi,%rbp
  405f1e:	4c 89 74 24 18       	mov    %r14,0x18(%rsp)
  405f23:	4c 89 6c 24 20       	mov    %r13,0x20(%rsp)
  405f28:	4c 89 64 24 28       	mov    %r12,0x28(%rsp)
  405f2d:	e8 1e b6 ff ff       	callq  401550 <_Znwm@plt>
  405f32:	49 89 c6             	mov    %rax,%r14
  405f35:	48 63 45 08          	movslq 0x8(%rbp),%rax
  405f39:	49 c7 06 d8 11 61 00 	movq   $0x6111d8,(%r14)
  405f40:	48 b9 ff ff ff ff ff 	movabs $0xfffffffffffffff,%rcx
  405f47:	ff ff 0f 
  405f4a:	41 c7 46 10 00 00 00 	movl   $0x0,0x10(%r14)
  405f51:	00 
  405f52:	48 63 55 0c          	movslq 0xc(%rbp),%rdx
  405f56:	41 89 46 08          	mov    %eax,0x8(%r14)
  405f5a:	49 89 c7             	mov    %rax,%r15
  405f5d:	41 89 56 0c          	mov    %edx,0xc(%r14)
  405f61:	4c 0f af fa          	imul   %rdx,%r15
  405f65:	45 89 7e 14          	mov    %r15d,0x14(%r14)
  405f69:	4c 39 f9             	cmp    %r15,%rcx
  405f6c:	73 2c                	jae    405f9a <_Z6to_cscRK6Matrix+0x9a>
  405f6e:	e8 9d b6 ff ff       	callq  401610 <__cxa_throw_bad_array_new_length@plt>
  405f73:	4a 8d 3c fd 00 00 00 	lea    0x0(,%r15,8),%rdi
  405f7a:	00 
  405f7b:	e8 e0 b4 ff ff       	callq  401460 <_Znam@plt>
  405f80:	49 bd ff ff ff ff ff 	movabs $0x1fffffffffffffff,%r13
  405f87:	ff ff 1f 
  405f8a:	49 89 46 18          	mov    %rax,0x18(%r14)
  405f8e:	4d 39 fd             	cmp    %r15,%r13
  405f91:	72 2c                	jb     405fbf <_Z6to_cscRK6Matrix+0xbf>
  405f93:	4d 85 ff             	test   %r15,%r15
  405f96:	7c 27                	jl     405fbf <_Z6to_cscRK6Matrix+0xbf>
  405f98:	eb 4a                	jmp    405fe4 <_Z6to_cscRK6Matrix+0xe4>
  405f9a:	4d 85 ff             	test   %r15,%r15
  405f9d:	7c cf                	jl     405f6e <_Z6to_cscRK6Matrix+0x6e>
  405f9f:	4a 8d 3c fd 00 00 00 	lea    0x0(,%r15,8),%rdi
  405fa6:	00 
  405fa7:	e8 b4 b4 ff ff       	callq  401460 <_Znam@plt>
  405fac:	49 bd ff ff ff ff ff 	movabs $0x1fffffffffffffff,%r13
  405fb3:	ff ff 1f 
  405fb6:	49 89 46 18          	mov    %rax,0x18(%r14)
  405fba:	4d 39 fd             	cmp    %r15,%r13
  405fbd:	73 25                	jae    405fe4 <_Z6to_cscRK6Matrix+0xe4>
  405fbf:	e8 4c b6 ff ff       	callq  401610 <__cxa_throw_bad_array_new_length@plt>
  405fc4:	4e 8d 24 bd 00 00 00 	lea    0x0(,%r15,4),%r12
  405fcb:	00 
  405fcc:	4c 89 e7             	mov    %r12,%rdi
  405fcf:	e8 8c b4 ff ff       	callq  401460 <_Znam@plt>
  405fd4:	49 89 46 20          	mov    %rax,0x20(%r14)
  405fd8:	4d 39 fd             	cmp    %r15,%r13
  405fdb:	72 20                	jb     405ffd <_Z6to_cscRK6Matrix+0xfd>
  405fdd:	4d 85 ff             	test   %r15,%r15
  405fe0:	7c 1b                	jl     405ffd <_Z6to_cscRK6Matrix+0xfd>
  405fe2:	eb 1e                	jmp    406002 <_Z6to_cscRK6Matrix+0x102>
  405fe4:	4e 8d 24 bd 00 00 00 	lea    0x0(,%r15,4),%r12
  405feb:	00 
  405fec:	4c 89 e7             	mov    %r12,%rdi
  405fef:	e8 6c b4 ff ff       	callq  401460 <_Znam@plt>
  405ff4:	49 89 46 20          	mov    %rax,0x20(%r14)
  405ff8:	4d 39 fd             	cmp    %r15,%r13
  405ffb:	73 05                	jae    406002 <_Z6to_cscRK6Matrix+0x102>
  405ffd:	e8 0e b6 ff ff       	callq  401610 <__cxa_throw_bad_array_new_length@plt>
  406002:	4c 89 e7             	mov    %r12,%rdi
  406005:	e8 56 b4 ff ff       	callq  401460 <_Znam@plt>
  40600a:	49 89 46 28          	mov    %rax,0x28(%r14)
  40600e:	48 c7 03 00 00 00 00 	movq   $0x0,(%rbx)
  406015:	8b 4d 0c             	mov    0xc(%rbp),%ecx
  406018:	4c 89 33             	mov    %r14,(%rbx)
  40601b:	45 31 e4             	xor    %r12d,%r12d
  40601e:	85 c9                	test   %ecx,%ecx
  406020:	7e 4a                	jle    40606c <_Z6to_cscRK6Matrix+0x16c>
  406022:	8b 45 08             	mov    0x8(%rbp),%eax
  406025:	45 31 ed             	xor    %r13d,%r13d
  406028:	85 c0                	test   %eax,%eax
  40602a:	7e 37                	jle    406063 <_Z6to_cscRK6Matrix+0x163>
  40602c:	48 8b 45 00          	mov    0x0(%rbp),%rax
  406030:	48 89 ef             	mov    %rbp,%rdi
  406033:	44 89 ee             	mov    %r13d,%esi
  406036:	44 89 e2             	mov    %r12d,%edx
  406039:	ff 10                	callq  *(%rax)
  40603b:	c5 f9 54 0d dd 84 00 	vandpd 0x84dd(%rip),%xmm0,%xmm1        # 40e520 <_IO_stdin_used+0xe0>
  406042:	00 
  406043:	62 f1 f7 08 c2 05 02 	vcmpgtsd 0x8502(%rip),%xmm1,%k0        # 40e550 <_IO_stdin_used+0x110>
  40604a:	85 00 00 0e 
  40604e:	c5 f8 98 c0          	kortestw %k0,%k0
  406052:	75 50                	jne    4060a4 <_Z6to_cscRK6Matrix+0x1a4>
  406054:	8b 45 08             	mov    0x8(%rbp),%eax
  406057:	41 83 c5 01          	add    $0x1,%r13d
  40605b:	41 39 c5             	cmp    %eax,%r13d
  40605e:	7c cc                	jl     40602c <_Z6to_cscRK6Matrix+0x12c>
  406060:	8b 4d 0c             	mov    0xc(%rbp),%ecx
  406063:	41 83 c4 01          	add    $0x1,%r12d
  406067:	41 39 cc             	cmp    %ecx,%r12d
  40606a:	7c b9                	jl     406025 <_Z6to_cscRK6Matrix+0x125>
  40606c:	48 8b 5c 24 08       	mov    0x8(%rsp),%rbx
  406071:	48 8b 6c 24 30       	mov    0x30(%rsp),%rbp
  406076:	4c 8b 64 24 28       	mov    0x28(%rsp),%r12
  40607b:	4c 8b 6c 24 20       	mov    0x20(%rsp),%r13
  406080:	4c 8b 74 24 18       	mov    0x18(%rsp),%r14
  406085:	4c 8b 7c 24 10       	mov    0x10(%rsp),%r15
  40608a:	48 83 c4 38          	add    $0x38,%rsp
  40608e:	c3                   	retq   
  40608f:	48 89 04 24          	mov    %rax,(%rsp)
  406093:	4c 89 f7             	mov    %r14,%rdi
  406096:	e8 85 b4 ff ff       	callq  401520 <_ZdlPv@plt>
  40609b:	48 8b 3c 24          	mov    (%rsp),%rdi
  40609f:	e8 0c b6 ff ff       	callq  4016b0 <_Unwind_Resume@plt>
  4060a4:	48 8b 3b             	mov    (%rbx),%rdi
  4060a7:	44 89 ee             	mov    %r13d,%esi
  4060aa:	44 89 e2             	mov    %r12d,%edx
  4060ad:	48 8b 07             	mov    (%rdi),%rax
  4060b0:	ff 50 08             	callq  *0x8(%rax)
  4060b3:	eb 9f                	jmp    406054 <_Z6to_cscRK6Matrix+0x154>
  4060b5:	48 89 04 24          	mov    %rax,(%rsp)
  4060b9:	48 89 df             	mov    %rbx,%rdi
  4060bc:	e8 9f 4e 00 00       	callq  40af60 <_ZNSt10unique_ptrI12SparseMatrixSt14default_deleteIS0_EED1Ev>
  4060c1:	eb d8                	jmp    40609b <_Z6to_cscRK6Matrix+0x19b>
  4060c3:	0f 1f 00             	nopl   (%rax)
  4060c6:	66 2e 0f 1f 84 00 00 	nopw   %cs:0x0(%rax,%rax,1)
  4060cd:	00 00 00 

00000000004060d0 <_Z7to_bcscRK6Matrixii>:
  4060d0:	48 83 ec 78          	sub    $0x78,%rsp
  4060d4:	48 89 5c 24 10       	mov    %rbx,0x10(%rsp)
  4060d9:	48 89 f3             	mov    %rsi,%rbx
  4060dc:	48 89 7c 24 50       	mov    %rdi,0x50(%rsp)
  4060e1:	41 89 d0             	mov    %edx,%r8d
  4060e4:	48 89 6c 24 08       	mov    %rbp,0x8(%rsp)
  4060e9:	8b 43 08             	mov    0x8(%rbx),%eax
  4060ec:	4c 89 7c 24 18       	mov    %r15,0x18(%rsp)
  4060f1:	bf 30 00 00 00       	mov    $0x30,%edi
  4060f6:	4c 89 74 24 20       	mov    %r14,0x20(%rsp)
  4060fb:	99                   	cltd   
  4060fc:	4c 89 6c 24 28       	mov    %r13,0x28(%rsp)
  406101:	41 f7 f8             	idiv   %r8d
  406104:	4c 89 64 24 30       	mov    %r12,0x30(%rsp)
  406109:	89 4c 24 60          	mov    %ecx,0x60(%rsp)
  40610d:	44 89 44 24 68       	mov    %r8d,0x68(%rsp)
  406112:	89 44 24 40          	mov    %eax,0x40(%rsp)
  406116:	8b 43 0c             	mov    0xc(%rbx),%eax
  406119:	99                   	cltd   
  40611a:	f7 f9                	idiv   %ecx
  40611c:	89 04 24             	mov    %eax,(%rsp)
  40611f:	e8 2c b4 ff ff       	callq  401550 <_Znwm@plt>
  406124:	49 89 c6             	mov    %rax,%r14
  406127:	4c 63 6b 08          	movslq 0x8(%rbx),%r13
  40612b:	49 c7 06 d8 11 61 00 	movq   $0x6111d8,(%r14)
  406132:	48 ba ff ff ff ff ff 	movabs $0xfffffffffffffff,%rdx
  406139:	ff ff 0f 
  40613c:	41 c7 46 10 00 00 00 	movl   $0x0,0x10(%r14)
  406143:	00 
  406144:	48 63 43 0c          	movslq 0xc(%rbx),%rax
  406148:	45 89 6e 08          	mov    %r13d,0x8(%r14)
  40614c:	4c 0f af e8          	imul   %rax,%r13
  406150:	41 89 46 0c          	mov    %eax,0xc(%r14)
  406154:	4c 39 ea             	cmp    %r13,%rdx
  406157:	45 89 6e 14          	mov    %r13d,0x14(%r14)
  40615b:	73 2c                	jae    406189 <_Z7to_bcscRK6Matrixii+0xb9>
  40615d:	e8 ae b4 ff ff       	callq  401610 <__cxa_throw_bad_array_new_length@plt>
  406162:	4a 8d 3c ed 00 00 00 	lea    0x0(,%r13,8),%rdi
  406169:	00 
  40616a:	e8 f1 b2 ff ff       	callq  401460 <_Znam@plt>
  40616f:	49 bc ff ff ff ff ff 	movabs $0x1fffffffffffffff,%r12
  406176:	ff ff 1f 
  406179:	49 89 46 18          	mov    %rax,0x18(%r14)
  40617d:	4d 39 ec             	cmp    %r13,%r12
  406180:	72 2c                	jb     4061ae <_Z7to_bcscRK6Matrixii+0xde>
  406182:	4d 85 ed             	test   %r13,%r13
  406185:	7c 27                	jl     4061ae <_Z7to_bcscRK6Matrixii+0xde>
  406187:	eb 4a                	jmp    4061d3 <_Z7to_bcscRK6Matrixii+0x103>
  406189:	4d 85 ed             	test   %r13,%r13
  40618c:	7c cf                	jl     40615d <_Z7to_bcscRK6Matrixii+0x8d>
  40618e:	4a 8d 3c ed 00 00 00 	lea    0x0(,%r13,8),%rdi
  406195:	00 
  406196:	e8 c5 b2 ff ff       	callq  401460 <_Znam@plt>
  40619b:	49 bc ff ff ff ff ff 	movabs $0x1fffffffffffffff,%r12
  4061a2:	ff ff 1f 
  4061a5:	49 89 46 18          	mov    %rax,0x18(%r14)
  4061a9:	4d 39 ec             	cmp    %r13,%r12
  4061ac:	73 25                	jae    4061d3 <_Z7to_bcscRK6Matrixii+0x103>
  4061ae:	e8 5d b4 ff ff       	callq  401610 <__cxa_throw_bad_array_new_length@plt>
  4061b3:	4a 8d 2c ad 00 00 00 	lea    0x0(,%r13,4),%rbp
  4061ba:	00 
  4061bb:	48 89 ef             	mov    %rbp,%rdi
  4061be:	e8 9d b2 ff ff       	callq  401460 <_Znam@plt>
  4061c3:	49 89 46 20          	mov    %rax,0x20(%r14)
  4061c7:	4d 39 ec             	cmp    %r13,%r12
  4061ca:	72 20                	jb     4061ec <_Z7to_bcscRK6Matrixii+0x11c>
  4061cc:	4d 85 ed             	test   %r13,%r13
  4061cf:	7c 1b                	jl     4061ec <_Z7to_bcscRK6Matrixii+0x11c>
  4061d1:	eb 1e                	jmp    4061f1 <_Z7to_bcscRK6Matrixii+0x121>
  4061d3:	4a 8d 2c ad 00 00 00 	lea    0x0(,%r13,4),%rbp
  4061da:	00 
  4061db:	48 89 ef             	mov    %rbp,%rdi
  4061de:	e8 7d b2 ff ff       	callq  401460 <_Znam@plt>
  4061e3:	49 89 46 20          	mov    %rax,0x20(%r14)
  4061e7:	4d 39 ec             	cmp    %r13,%r12
  4061ea:	73 05                	jae    4061f1 <_Z7to_bcscRK6Matrixii+0x121>
  4061ec:	e8 1f b4 ff ff       	callq  401610 <__cxa_throw_bad_array_new_length@plt>
  4061f1:	48 89 ef             	mov    %rbp,%rdi
  4061f4:	e8 67 b2 ff ff       	callq  401460 <_Znam@plt>
  4061f9:	49 89 46 28          	mov    %rax,0x28(%r14)
  4061fd:	48 8b 44 24 50       	mov    0x50(%rsp),%rax
  406202:	48 c7 00 00 00 00 00 	movq   $0x0,(%rax)
  406209:	31 d2                	xor    %edx,%edx
  40620b:	4c 89 30             	mov    %r14,(%rax)
  40620e:	83 3c 24 00          	cmpl   $0x0,(%rsp)
  406212:	89 54 24 38          	mov    %edx,0x38(%rsp)
  406216:	89 54 24 58          	mov    %edx,0x58(%rsp)
  40621a:	0f 8e a5 00 00 00    	jle    4062c5 <_Z7to_bcscRK6Matrixii+0x1f5>
  406220:	45 31 ff             	xor    %r15d,%r15d
  406223:	44 89 7c 24 48       	mov    %r15d,0x48(%rsp)
  406228:	83 7c 24 40 00       	cmpl   $0x0,0x40(%rsp)
  40622d:	7e 76                	jle    4062a5 <_Z7to_bcscRK6Matrixii+0x1d5>
  40622f:	45 31 f6             	xor    %r14d,%r14d
  406232:	83 7c 24 60 00       	cmpl   $0x0,0x60(%rsp)
  406237:	7e 56                	jle    40628f <_Z7to_bcscRK6Matrixii+0x1bf>
  406239:	45 31 ed             	xor    %r13d,%r13d
  40623c:	83 7c 24 68 00       	cmpl   $0x0,0x68(%rsp)
  406241:	7e 41                	jle    406284 <_Z7to_bcscRK6Matrixii+0x1b4>
  406243:	8b 44 24 58          	mov    0x58(%rsp),%eax
  406247:	42 8d 2c 30          	lea    (%rax,%r14,1),%ebp
  40624b:	47 8d 24 2f          	lea    (%r15,%r13,1),%r12d
  40624f:	48 8b 03             	mov    (%rbx),%rax
  406252:	48 89 df             	mov    %rbx,%rdi
  406255:	89 ea                	mov    %ebp,%edx
  406257:	44 89 e6             	mov    %r12d,%esi
  40625a:	ff 10                	callq  *(%rax)
  40625c:	c5 f9 54 0d bc 82 00 	vandpd 0x82bc(%rip),%xmm0,%xmm1        # 40e520 <_IO_stdin_used+0xe0>
  406263:	00 
  406264:	62 f1 f7 08 c2 05 e1 	vcmpgtsd 0x82e1(%rip),%xmm1,%k0        # 40e550 <_IO_stdin_used+0x110>
  40626b:	82 00 00 0e 
  40626f:	c5 f8 98 c0          	kortestw %k0,%k0
  406273:	0f 85 84 00 00 00    	jne    4062fd <_Z7to_bcscRK6Matrixii+0x22d>
  406279:	41 83 c5 01          	add    $0x1,%r13d
  40627d:	44 3b 6c 24 68       	cmp    0x68(%rsp),%r13d
  406282:	7c c7                	jl     40624b <_Z7to_bcscRK6Matrixii+0x17b>
  406284:	41 83 c6 01          	add    $0x1,%r14d
  406288:	44 3b 74 24 60       	cmp    0x60(%rsp),%r14d
  40628d:	7c aa                	jl     406239 <_Z7to_bcscRK6Matrixii+0x169>
  40628f:	8b 44 24 48          	mov    0x48(%rsp),%eax
  406293:	44 03 7c 24 68       	add    0x68(%rsp),%r15d
  406298:	83 c0 01             	add    $0x1,%eax
  40629b:	89 44 24 48          	mov    %eax,0x48(%rsp)
  40629f:	3b 44 24 40          	cmp    0x40(%rsp),%eax
  4062a3:	7c 8a                	jl     40622f <_Z7to_bcscRK6Matrixii+0x15f>
  4062a5:	8b 54 24 38          	mov    0x38(%rsp),%edx
  4062a9:	8b 44 24 58          	mov    0x58(%rsp),%eax
  4062ad:	83 c2 01             	add    $0x1,%edx
  4062b0:	89 54 24 38          	mov    %edx,0x38(%rsp)
  4062b4:	03 44 24 60          	add    0x60(%rsp),%eax
  4062b8:	89 44 24 58          	mov    %eax,0x58(%rsp)
  4062bc:	3b 14 24             	cmp    (%rsp),%edx
  4062bf:	0f 8c 5b ff ff ff    	jl     406220 <_Z7to_bcscRK6Matrixii+0x150>
  4062c5:	48 8b 5c 24 10       	mov    0x10(%rsp),%rbx
  4062ca:	48 8b 6c 24 08       	mov    0x8(%rsp),%rbp
  4062cf:	4c 8b 64 24 30       	mov    0x30(%rsp),%r12
  4062d4:	4c 8b 6c 24 28       	mov    0x28(%rsp),%r13
  4062d9:	4c 8b 74 24 20       	mov    0x20(%rsp),%r14
  4062de:	4c 8b 7c 24 18       	mov    0x18(%rsp),%r15
  4062e3:	48 83 c4 78          	add    $0x78,%rsp
  4062e7:	c3                   	retq   
  4062e8:	48 89 04 24          	mov    %rax,(%rsp)
  4062ec:	4c 89 f7             	mov    %r14,%rdi
  4062ef:	e8 2c b2 ff ff       	callq  401520 <_ZdlPv@plt>
  4062f4:	48 8b 3c 24          	mov    (%rsp),%rdi
  4062f8:	e8 b3 b3 ff ff       	callq  4016b0 <_Unwind_Resume@plt>
  4062fd:	48 8b 44 24 50       	mov    0x50(%rsp),%rax
  406302:	44 89 e6             	mov    %r12d,%esi
  406305:	89 ea                	mov    %ebp,%edx
  406307:	48 8b 38             	mov    (%rax),%rdi
  40630a:	48 8b 0f             	mov    (%rdi),%rcx
  40630d:	ff 51 08             	callq  *0x8(%rcx)
  406310:	e9 64 ff ff ff       	jmpq   406279 <_Z7to_bcscRK6Matrixii+0x1a9>
  406315:	48 89 04 24          	mov    %rax,(%rsp)
  406319:	48 8b 7c 24 50       	mov    0x50(%rsp),%rdi
  40631e:	e8 3d 4c 00 00       	callq  40af60 <_ZNSt10unique_ptrI12SparseMatrixSt14default_deleteIS0_EED1Ev>
  406323:	eb cf                	jmp    4062f4 <_Z7to_bcscRK6Matrixii+0x224>
  406325:	90                   	nop
  406326:	66 2e 0f 1f 84 00 00 	nopw   %cs:0x0(%rax,%rax,1)
  40632d:	00 00 00 

0000000000406330 <_Z9microsecs8timespecS_>:
  406330:	48 29 fa             	sub    %rdi,%rdx
  406333:	48 69 c2 00 ca 9a 3b 	imul   $0x3b9aca00,%rdx,%rax
  40633a:	48 01 c8             	add    %rcx,%rax
  40633d:	48 29 f0             	sub    %rsi,%rax
  406340:	62 e1 ff 00 2a c0    	vcvtsi2sd %rax,%xmm16,%xmm16
  406346:	62 f1 ff 00 59 05 e8 	vmulsd 0x81e8(%rip),%xmm16,%xmm0        # 40e538 <_IO_stdin_used+0xf8>
  40634d:	81 00 00 
  406350:	c3                   	retq   
  406351:	0f 1f 44 00 00       	nopl   0x0(%rax,%rax,1)
  406356:	66 2e 0f 1f 84 00 00 	nopw   %cs:0x0(%rax,%rax,1)
  40635d:	00 00 00 

0000000000406360 <_Z6cyclesl>:
  406360:	b8 16 00 00 00       	mov    $0x16,%eax
  406365:	c3                   	retq   
  406366:	66 2e 0f 1f 84 00 00 	nopw   %cs:0x0(%rax,%rax,1)
  40636d:	00 00 00 

0000000000406370 <_Z6gflopslli>:
  406370:	b8 16 00 00 00       	mov    $0x16,%eax
  406375:	c3                   	retq   
  406376:	66 2e 0f 1f 84 00 00 	nopw   %cs:0x0(%rax,%rax,1)
  40637d:	00 00 00 

0000000000406380 <_Z26jump_penalty_2_20_unrolledPKdS0_Pd>:
  406380:	4c 89 64 24 f0       	mov    %r12,-0x10(%rsp)
  406385:	48 89 7c 24 d8       	mov    %rdi,-0x28(%rsp)
  40638a:	48 89 74 24 e0       	mov    %rsi,-0x20(%rsp)
  40638f:	48 89 54 24 e8       	mov    %rdx,-0x18(%rsp)
  406394:	48 8b 7c 24 d8       	mov    -0x28(%rsp),%rdi
  406399:	48 8b 74 24 e0       	mov    -0x20(%rsp),%rsi
  40639e:	48 8b 54 24 e8       	mov    -0x18(%rsp),%rdx
  4063a3:	49 c7 c4 00 00 00 00 	mov    $0x0,%r12

00000000004063aa <LOOP_TOP_0_4>:
  4063aa:	62 e1 fd 48 28 02    	vmovapd (%rdx),%zmm16
  4063b0:	62 e1 fd 48 28 4a 04 	vmovapd 0x100(%rdx),%zmm17
  4063b7:	62 e1 fd 48 28 52 08 	vmovapd 0x200(%rdx),%zmm18
  4063be:	62 e1 fd 48 28 5a 0c 	vmovapd 0x300(%rdx),%zmm19
  4063c5:	62 e1 fd 48 28 62 10 	vmovapd 0x400(%rdx),%zmm20
  4063cc:	62 e1 fd 48 28 6a 14 	vmovapd 0x500(%rdx),%zmm21
  4063d3:	62 e1 fd 48 28 72 18 	vmovapd 0x600(%rdx),%zmm22
  4063da:	62 e1 fd 48 28 7a 1c 	vmovapd 0x700(%rdx),%zmm23
  4063e1:	62 61 fd 48 28 42 20 	vmovapd 0x800(%rdx),%zmm24
  4063e8:	62 61 fd 48 28 4a 24 	vmovapd 0x900(%rdx),%zmm25
  4063ef:	62 61 fd 48 28 52 28 	vmovapd 0xa00(%rdx),%zmm26
  4063f6:	62 61 fd 48 28 5a 2c 	vmovapd 0xb00(%rdx),%zmm27
  4063fd:	62 61 fd 48 28 62 30 	vmovapd 0xc00(%rdx),%zmm28
  406404:	62 61 fd 48 28 6a 34 	vmovapd 0xd00(%rdx),%zmm29
  40640b:	62 61 fd 48 28 72 38 	vmovapd 0xe00(%rdx),%zmm30
  406412:	62 61 fd 48 28 7a 3c 	vmovapd 0xf00(%rdx),%zmm31
  406419:	62 f1 fd 48 28 8f 00 	vmovapd 0x2100(%rdi),%zmm1
  406420:	21 00 00 
  406423:	62 f1 fd 48 28 97 00 	vmovapd 0x2200(%rdi),%zmm2
  40642a:	22 00 00 
  40642d:	62 f1 fd 48 28 af 00 	vmovapd 0x2500(%rdi),%zmm5
  406434:	25 00 00 
  406437:	62 71 fd 48 28 9f 00 	vmovapd 0x2b00(%rdi),%zmm11
  40643e:	2b 00 00 
  406441:	62 71 fd 48 28 a7 00 	vmovapd 0x2c00(%rdi),%zmm12
  406448:	2c 00 00 
  40644b:	62 71 fd 48 28 af 00 	vmovapd 0x2d00(%rdi),%zmm13
  406452:	2d 00 00 
  406455:	62 71 fd 48 28 b7 00 	vmovapd 0x2e00(%rdi),%zmm14
  40645c:	2e 00 00 
  40645f:	62 e2 f5 58 b8 6e 03 	vfmadd231pd 0x18(%rsi){1to8},%zmm1,%zmm21
  406466:	62 e2 f5 58 b8 7e 05 	vfmadd231pd 0x28(%rsi){1to8},%zmm1,%zmm23
  40646d:	62 62 f5 58 b8 66 07 	vfmadd231pd 0x38(%rsi){1to8},%zmm1,%zmm28
  406474:	62 62 ed 58 b8 76 08 	vfmadd231pd 0x40(%rsi){1to8},%zmm2,%zmm30
  40647b:	62 62 d5 58 b8 7e 09 	vfmadd231pd 0x48(%rsi){1to8},%zmm5,%zmm31
  406482:	62 e2 a5 58 b8 06    	vfmadd231pd (%rsi){1to8},%zmm11,%zmm16
  406488:	62 e2 9d 58 b8 4e 01 	vfmadd231pd 0x8(%rsi){1to8},%zmm12,%zmm17
  40648f:	62 e2 95 58 b8 6e 04 	vfmadd231pd 0x20(%rsi){1to8},%zmm13,%zmm21
  406496:	62 62 95 58 b8 4e 06 	vfmadd231pd 0x30(%rsi){1to8},%zmm13,%zmm25
  40649d:	62 e2 8d 58 b8 5e 02 	vfmadd231pd 0x10(%rsi){1to8},%zmm14,%zmm19
  4064a4:	62 e1 fd 48 29 02    	vmovapd %zmm16,(%rdx)
  4064aa:	62 e1 fd 48 29 4a 04 	vmovapd %zmm17,0x100(%rdx)
  4064b1:	62 e1 fd 48 29 52 08 	vmovapd %zmm18,0x200(%rdx)
  4064b8:	62 e1 fd 48 29 5a 0c 	vmovapd %zmm19,0x300(%rdx)
  4064bf:	62 e1 fd 48 29 62 10 	vmovapd %zmm20,0x400(%rdx)
  4064c6:	62 e1 fd 48 29 6a 14 	vmovapd %zmm21,0x500(%rdx)
  4064cd:	62 e1 fd 48 29 72 18 	vmovapd %zmm22,0x600(%rdx)
  4064d4:	62 e1 fd 48 29 7a 1c 	vmovapd %zmm23,0x700(%rdx)
  4064db:	62 61 fd 48 29 42 20 	vmovapd %zmm24,0x800(%rdx)
  4064e2:	62 61 fd 48 29 4a 24 	vmovapd %zmm25,0x900(%rdx)
  4064e9:	62 61 fd 48 29 52 28 	vmovapd %zmm26,0xa00(%rdx)
  4064f0:	62 61 fd 48 29 5a 2c 	vmovapd %zmm27,0xb00(%rdx)
  4064f7:	62 61 fd 48 29 62 30 	vmovapd %zmm28,0xc00(%rdx)
  4064fe:	62 61 fd 48 29 6a 34 	vmovapd %zmm29,0xd00(%rdx)
  406505:	62 61 fd 48 29 72 38 	vmovapd %zmm30,0xe00(%rdx)
  40650c:	62 61 fd 48 29 7a 3c 	vmovapd %zmm31,0xf00(%rdx)
  406513:	48 81 c2 00 10 00 00 	add    $0x1000,%rdx
  40651a:	62 e1 fd 48 28 02    	vmovapd (%rdx),%zmm16
  406520:	62 e1 fd 48 28 4a 04 	vmovapd 0x100(%rdx),%zmm17
  406527:	62 e1 fd 48 28 52 08 	vmovapd 0x200(%rdx),%zmm18
  40652e:	62 e1 fd 48 28 5a 0c 	vmovapd 0x300(%rdx),%zmm19
  406535:	62 e1 fd 48 28 62 10 	vmovapd 0x400(%rdx),%zmm20
  40653c:	62 e1 fd 48 28 6a 14 	vmovapd 0x500(%rdx),%zmm21
  406543:	62 e1 fd 48 28 72 18 	vmovapd 0x600(%rdx),%zmm22
  40654a:	62 e1 fd 48 28 7a 1c 	vmovapd 0x700(%rdx),%zmm23
  406551:	62 61 fd 48 28 42 20 	vmovapd 0x800(%rdx),%zmm24
  406558:	62 61 fd 48 28 4a 24 	vmovapd 0x900(%rdx),%zmm25
  40655f:	62 61 fd 48 28 52 28 	vmovapd 0xa00(%rdx),%zmm26
  406566:	62 61 fd 48 28 5a 2c 	vmovapd 0xb00(%rdx),%zmm27
  40656d:	62 61 fd 48 28 62 30 	vmovapd 0xc00(%rdx),%zmm28
  406574:	62 61 fd 48 28 6a 34 	vmovapd 0xd00(%rdx),%zmm29
  40657b:	62 61 fd 48 28 72 38 	vmovapd 0xe00(%rdx),%zmm30
  406582:	62 61 fd 48 28 7a 3c 	vmovapd 0xf00(%rdx),%zmm31
  406589:	62 f1 fd 48 28 4f 04 	vmovapd 0x100(%rdi),%zmm1
  406590:	62 f1 fd 48 28 67 10 	vmovapd 0x400(%rdi),%zmm4
  406597:	62 71 fd 48 28 47 20 	vmovapd 0x800(%rdi),%zmm8
  40659e:	62 71 fd 48 28 4f 24 	vmovapd 0x900(%rdi),%zmm9
  4065a5:	62 71 fd 48 28 67 30 	vmovapd 0xc00(%rdi),%zmm12
  4065ac:	62 71 fd 48 28 6f 34 	vmovapd 0xd00(%rdi),%zmm13
  4065b3:	62 e2 f5 58 b8 46 0a 	vfmadd231pd 0x50(%rsi){1to8},%zmm1,%zmm16
  4065ba:	62 62 f5 58 b8 7e 12 	vfmadd231pd 0x90(%rsi){1to8},%zmm1,%zmm31
  4065c1:	62 e2 dd 58 b8 56 0b 	vfmadd231pd 0x58(%rsi){1to8},%zmm4,%zmm18
  4065c8:	62 e2 dd 58 b8 66 0e 	vfmadd231pd 0x70(%rsi){1to8},%zmm4,%zmm20
  4065cf:	62 e2 bd 58 b8 56 0c 	vfmadd231pd 0x60(%rsi){1to8},%zmm8,%zmm18
  4065d6:	62 e2 b5 58 b8 56 0d 	vfmadd231pd 0x68(%rsi){1to8},%zmm9,%zmm18
  4065dd:	62 e2 9d 58 b8 6e 0f 	vfmadd231pd 0x78(%rsi){1to8},%zmm12,%zmm21
  4065e4:	62 62 9d 58 b8 4e 10 	vfmadd231pd 0x80(%rsi){1to8},%zmm12,%zmm25
  4065eb:	62 62 9d 58 b8 7e 13 	vfmadd231pd 0x98(%rsi){1to8},%zmm12,%zmm31
  4065f2:	62 62 95 58 b8 56 11 	vfmadd231pd 0x88(%rsi){1to8},%zmm13,%zmm26
  4065f9:	62 e1 fd 48 29 02    	vmovapd %zmm16,(%rdx)
  4065ff:	62 e1 fd 48 29 4a 04 	vmovapd %zmm17,0x100(%rdx)
  406606:	62 e1 fd 48 29 52 08 	vmovapd %zmm18,0x200(%rdx)
  40660d:	62 e1 fd 48 29 5a 0c 	vmovapd %zmm19,0x300(%rdx)
  406614:	62 e1 fd 48 29 62 10 	vmovapd %zmm20,0x400(%rdx)
  40661b:	62 e1 fd 48 29 6a 14 	vmovapd %zmm21,0x500(%rdx)
  406622:	62 e1 fd 48 29 72 18 	vmovapd %zmm22,0x600(%rdx)
  406629:	62 e1 fd 48 29 7a 1c 	vmovapd %zmm23,0x700(%rdx)
  406630:	62 61 fd 48 29 42 20 	vmovapd %zmm24,0x800(%rdx)
  406637:	62 61 fd 48 29 4a 24 	vmovapd %zmm25,0x900(%rdx)
  40663e:	62 61 fd 48 29 52 28 	vmovapd %zmm26,0xa00(%rdx)
  406645:	62 61 fd 48 29 5a 2c 	vmovapd %zmm27,0xb00(%rdx)
  40664c:	62 61 fd 48 29 62 30 	vmovapd %zmm28,0xc00(%rdx)
  406653:	62 61 fd 48 29 6a 34 	vmovapd %zmm29,0xd00(%rdx)
  40665a:	62 61 fd 48 29 72 38 	vmovapd %zmm30,0xe00(%rdx)
  406661:	62 61 fd 48 29 7a 3c 	vmovapd %zmm31,0xf00(%rdx)
  406668:	48 83 c7 40          	add    $0x40,%rdi
  40666c:	48 81 c2 40 f0 ff ff 	add    $0xfffffffffffff040,%rdx
  406673:	49 83 c4 01          	add    $0x1,%r12
  406677:	49 83 fc 04          	cmp    $0x4,%r12
  40667b:	0f 8c 29 fd ff ff    	jl     4063aa <LOOP_TOP_0_4>
  406681:	4c 8b 64 24 f0       	mov    -0x10(%rsp),%r12
  406686:	c3                   	retq   
  406687:	66 0f 1f 84 00 00 00 	nopw   0x0(%rax,%rax,1)
  40668e:	00 00 

0000000000406690 <_Z25jump_penalty_2_20_generalPKdS0_Pd>:
  406690:	48 89 7c 24 e8       	mov    %rdi,-0x18(%rsp)
  406695:	48 89 74 24 f0       	mov    %rsi,-0x10(%rsp)
  40669a:	48 89 54 24 f8       	mov    %rdx,-0x8(%rsp)
  40669f:	48 8b 7c 24 e8       	mov    -0x18(%rsp),%rdi
  4066a4:	48 8b 74 24 f0       	mov    -0x10(%rsp),%rsi
  4066a9:	48 8b 54 24 f8       	mov    -0x8(%rsp),%rdx
  4066ae:	e9 eb 00 00 00       	jmpq   40679e <END_SWITCH_5>

00000000004066b3 <CASE_1_5>:
  4066b3:	62 f1 fd 48 28 4f 04 	vmovapd 0x100(%rdi),%zmm1
  4066ba:	62 f1 fd 48 28 57 08 	vmovapd 0x200(%rdi),%zmm2
  4066c1:	62 f1 fd 48 28 6f 14 	vmovapd 0x500(%rdi),%zmm5
  4066c8:	62 71 fd 48 28 5f 2c 	vmovapd 0xb00(%rdi),%zmm11
  4066cf:	62 71 fd 48 28 67 30 	vmovapd 0xc00(%rdi),%zmm12
  4066d6:	62 71 fd 48 28 6f 34 	vmovapd 0xd00(%rdi),%zmm13
  4066dd:	62 71 fd 48 28 77 38 	vmovapd 0xe00(%rdi),%zmm14
  4066e4:	62 e2 f5 58 b8 6e 03 	vfmadd231pd 0x18(%rsi){1to8},%zmm1,%zmm21
  4066eb:	62 e2 f5 58 b8 7e 05 	vfmadd231pd 0x28(%rsi){1to8},%zmm1,%zmm23
  4066f2:	62 62 f5 58 b8 66 07 	vfmadd231pd 0x38(%rsi){1to8},%zmm1,%zmm28
  4066f9:	62 62 ed 58 b8 76 08 	vfmadd231pd 0x40(%rsi){1to8},%zmm2,%zmm30
  406700:	62 62 d5 58 b8 7e 09 	vfmadd231pd 0x48(%rsi){1to8},%zmm5,%zmm31
  406707:	62 e2 a5 58 b8 06    	vfmadd231pd (%rsi){1to8},%zmm11,%zmm16
  40670d:	62 e2 9d 58 b8 4e 01 	vfmadd231pd 0x8(%rsi){1to8},%zmm12,%zmm17
  406714:	62 e2 95 58 b8 6e 04 	vfmadd231pd 0x20(%rsi){1to8},%zmm13,%zmm21
  40671b:	62 62 95 58 b8 4e 06 	vfmadd231pd 0x30(%rsi){1to8},%zmm13,%zmm25
  406722:	62 e2 8d 58 b8 5e 02 	vfmadd231pd 0x10(%rsi){1to8},%zmm14,%zmm19
  406729:	41 ff e2             	jmpq   *%r10

000000000040672c <CASE_2_5>:
  40672c:	62 f1 fd 48 28 4f 04 	vmovapd 0x100(%rdi),%zmm1
  406733:	62 f1 fd 48 28 67 10 	vmovapd 0x400(%rdi),%zmm4
  40673a:	62 71 fd 48 28 47 20 	vmovapd 0x800(%rdi),%zmm8
  406741:	62 71 fd 48 28 4f 24 	vmovapd 0x900(%rdi),%zmm9
  406748:	62 71 fd 48 28 67 30 	vmovapd 0xc00(%rdi),%zmm12
  40674f:	62 71 fd 48 28 6f 34 	vmovapd 0xd00(%rdi),%zmm13
  406756:	62 e2 f5 58 b8 06    	vfmadd231pd (%rsi){1to8},%zmm1,%zmm16
  40675c:	62 62 f5 58 b8 7e 08 	vfmadd231pd 0x40(%rsi){1to8},%zmm1,%zmm31
  406763:	62 e2 dd 58 b8 56 01 	vfmadd231pd 0x8(%rsi){1to8},%zmm4,%zmm18
  40676a:	62 e2 dd 58 b8 66 04 	vfmadd231pd 0x20(%rsi){1to8},%zmm4,%zmm20
  406771:	62 e2 bd 58 b8 56 02 	vfmadd231pd 0x10(%rsi){1to8},%zmm8,%zmm18
  406778:	62 e2 b5 58 b8 56 03 	vfmadd231pd 0x18(%rsi){1to8},%zmm9,%zmm18
  40677f:	62 e2 9d 58 b8 6e 05 	vfmadd231pd 0x28(%rsi){1to8},%zmm12,%zmm21
  406786:	62 62 9d 58 b8 4e 06 	vfmadd231pd 0x30(%rsi){1to8},%zmm12,%zmm25
  40678d:	62 62 9d 58 b8 7e 09 	vfmadd231pd 0x48(%rsi){1to8},%zmm12,%zmm31
  406794:	62 62 95 58 b8 56 07 	vfmadd231pd 0x38(%rsi){1to8},%zmm13,%zmm26
  40679b:	41 ff e2             	jmpq   *%r10

000000000040679e <END_SWITCH_5>:
  40679e:	48 83 c2 00          	add    $0x0,%rdx
  4067a2:	62 e1 fd 48 28 02    	vmovapd (%rdx),%zmm16
  4067a8:	62 e1 fd 48 28 4a 04 	vmovapd 0x100(%rdx),%zmm17
  4067af:	62 e1 fd 48 28 52 08 	vmovapd 0x200(%rdx),%zmm18
  4067b6:	62 e1 fd 48 28 5a 0c 	vmovapd 0x300(%rdx),%zmm19
  4067bd:	62 e1 fd 48 28 62 10 	vmovapd 0x400(%rdx),%zmm20
  4067c4:	62 e1 fd 48 28 6a 14 	vmovapd 0x500(%rdx),%zmm21
  4067cb:	62 e1 fd 48 28 72 18 	vmovapd 0x600(%rdx),%zmm22
  4067d2:	62 e1 fd 48 28 7a 1c 	vmovapd 0x700(%rdx),%zmm23
  4067d9:	62 61 fd 48 28 42 20 	vmovapd 0x800(%rdx),%zmm24
  4067e0:	62 61 fd 48 28 4a 24 	vmovapd 0x900(%rdx),%zmm25
  4067e7:	62 61 fd 48 28 52 28 	vmovapd 0xa00(%rdx),%zmm26
  4067ee:	62 61 fd 48 28 5a 2c 	vmovapd 0xb00(%rdx),%zmm27
  4067f5:	62 61 fd 48 28 62 30 	vmovapd 0xc00(%rdx),%zmm28
  4067fc:	62 61 fd 48 28 6a 34 	vmovapd 0xd00(%rdx),%zmm29
  406803:	62 61 fd 48 28 72 38 	vmovapd 0xe00(%rdx),%zmm30
  40680a:	62 61 fd 48 28 7a 3c 	vmovapd 0xf00(%rdx),%zmm31
  406811:	49 c7 c2 28 68 40 00 	mov    $0x406828,%r10
  406818:	48 83 c6 00          	add    $0x0,%rsi
  40681c:	48 81 c7 00 20 00 00 	add    $0x2000,%rdi
  406823:	e9 8b fe ff ff       	jmpq   4066b3 <CASE_1_5>

0000000000406828 <BLOCK_0_0_2_5>:
  406828:	62 e1 fd 48 29 02    	vmovapd %zmm16,(%rdx)
  40682e:	62 e1 fd 48 29 4a 04 	vmovapd %zmm17,0x100(%rdx)
  406835:	62 e1 fd 48 29 52 08 	vmovapd %zmm18,0x200(%rdx)
  40683c:	62 e1 fd 48 29 5a 0c 	vmovapd %zmm19,0x300(%rdx)
  406843:	62 e1 fd 48 29 62 10 	vmovapd %zmm20,0x400(%rdx)
  40684a:	62 e1 fd 48 29 6a 14 	vmovapd %zmm21,0x500(%rdx)
  406851:	62 e1 fd 48 29 72 18 	vmovapd %zmm22,0x600(%rdx)
  406858:	62 e1 fd 48 29 7a 1c 	vmovapd %zmm23,0x700(%rdx)
  40685f:	62 61 fd 48 29 42 20 	vmovapd %zmm24,0x800(%rdx)
  406866:	62 61 fd 48 29 4a 24 	vmovapd %zmm25,0x900(%rdx)
  40686d:	62 61 fd 48 29 52 28 	vmovapd %zmm26,0xa00(%rdx)
  406874:	62 61 fd 48 29 5a 2c 	vmovapd %zmm27,0xb00(%rdx)
  40687b:	62 61 fd 48 29 62 30 	vmovapd %zmm28,0xc00(%rdx)
  406882:	62 61 fd 48 29 6a 34 	vmovapd %zmm29,0xd00(%rdx)
  406889:	62 61 fd 48 29 72 38 	vmovapd %zmm30,0xe00(%rdx)
  406890:	62 61 fd 48 29 7a 3c 	vmovapd %zmm31,0xf00(%rdx)
  406897:	48 81 c2 00 10 00 00 	add    $0x1000,%rdx
  40689e:	62 e1 fd 48 28 02    	vmovapd (%rdx),%zmm16
  4068a4:	62 e1 fd 48 28 4a 04 	vmovapd 0x100(%rdx),%zmm17
  4068ab:	62 e1 fd 48 28 52 08 	vmovapd 0x200(%rdx),%zmm18
  4068b2:	62 e1 fd 48 28 5a 0c 	vmovapd 0x300(%rdx),%zmm19
  4068b9:	62 e1 fd 48 28 62 10 	vmovapd 0x400(%rdx),%zmm20
  4068c0:	62 e1 fd 48 28 6a 14 	vmovapd 0x500(%rdx),%zmm21
  4068c7:	62 e1 fd 48 28 72 18 	vmovapd 0x600(%rdx),%zmm22
  4068ce:	62 e1 fd 48 28 7a 1c 	vmovapd 0x700(%rdx),%zmm23
  4068d5:	62 61 fd 48 28 42 20 	vmovapd 0x800(%rdx),%zmm24
  4068dc:	62 61 fd 48 28 4a 24 	vmovapd 0x900(%rdx),%zmm25
  4068e3:	62 61 fd 48 28 52 28 	vmovapd 0xa00(%rdx),%zmm26
  4068ea:	62 61 fd 48 28 5a 2c 	vmovapd 0xb00(%rdx),%zmm27
  4068f1:	62 61 fd 48 28 62 30 	vmovapd 0xc00(%rdx),%zmm28
  4068f8:	62 61 fd 48 28 6a 34 	vmovapd 0xd00(%rdx),%zmm29
  4068ff:	62 61 fd 48 28 72 38 	vmovapd 0xe00(%rdx),%zmm30
  406906:	62 61 fd 48 28 7a 3c 	vmovapd 0xf00(%rdx),%zmm31
  40690d:	49 c7 c2 24 69 40 00 	mov    $0x406924,%r10
  406914:	48 83 c6 50          	add    $0x50,%rsi
  406918:	48 81 c7 00 e0 ff ff 	add    $0xffffffffffffe000,%rdi
  40691f:	e9 08 fe ff ff       	jmpq   40672c <CASE_2_5>

0000000000406924 <BLOCK_0_1_0_5>:
  406924:	62 e1 fd 48 29 02    	vmovapd %zmm16,(%rdx)
  40692a:	62 e1 fd 48 29 4a 04 	vmovapd %zmm17,0x100(%rdx)
  406931:	62 e1 fd 48 29 52 08 	vmovapd %zmm18,0x200(%rdx)
  406938:	62 e1 fd 48 29 5a 0c 	vmovapd %zmm19,0x300(%rdx)
  40693f:	62 e1 fd 48 29 62 10 	vmovapd %zmm20,0x400(%rdx)
  406946:	62 e1 fd 48 29 6a 14 	vmovapd %zmm21,0x500(%rdx)
  40694d:	62 e1 fd 48 29 72 18 	vmovapd %zmm22,0x600(%rdx)
  406954:	62 e1 fd 48 29 7a 1c 	vmovapd %zmm23,0x700(%rdx)
  40695b:	62 61 fd 48 29 42 20 	vmovapd %zmm24,0x800(%rdx)
  406962:	62 61 fd 48 29 4a 24 	vmovapd %zmm25,0x900(%rdx)
  406969:	62 61 fd 48 29 52 28 	vmovapd %zmm26,0xa00(%rdx)
  406970:	62 61 fd 48 29 5a 2c 	vmovapd %zmm27,0xb00(%rdx)
  406977:	62 61 fd 48 29 62 30 	vmovapd %zmm28,0xc00(%rdx)
  40697e:	62 61 fd 48 29 6a 34 	vmovapd %zmm29,0xd00(%rdx)
  406985:	62 61 fd 48 29 72 38 	vmovapd %zmm30,0xe00(%rdx)
  40698c:	62 61 fd 48 29 7a 3c 	vmovapd %zmm31,0xf00(%rdx)
  406993:	48 81 c2 40 f0 ff ff 	add    $0xfffffffffffff040,%rdx
  40699a:	62 e1 fd 48 28 02    	vmovapd (%rdx),%zmm16
  4069a0:	62 e1 fd 48 28 4a 04 	vmovapd 0x100(%rdx),%zmm17
  4069a7:	62 e1 fd 48 28 52 08 	vmovapd 0x200(%rdx),%zmm18
  4069ae:	62 e1 fd 48 28 5a 0c 	vmovapd 0x300(%rdx),%zmm19
  4069b5:	62 e1 fd 48 28 62 10 	vmovapd 0x400(%rdx),%zmm20
  4069bc:	62 e1 fd 48 28 6a 14 	vmovapd 0x500(%rdx),%zmm21
  4069c3:	62 e1 fd 48 28 72 18 	vmovapd 0x600(%rdx),%zmm22
  4069ca:	62 e1 fd 48 28 7a 1c 	vmovapd 0x700(%rdx),%zmm23
  4069d1:	62 61 fd 48 28 42 20 	vmovapd 0x800(%rdx),%zmm24
  4069d8:	62 61 fd 48 28 4a 24 	vmovapd 0x900(%rdx),%zmm25
  4069df:	62 61 fd 48 28 52 28 	vmovapd 0xa00(%rdx),%zmm26
  4069e6:	62 61 fd 48 28 5a 2c 	vmovapd 0xb00(%rdx),%zmm27
  4069ed:	62 61 fd 48 28 62 30 	vmovapd 0xc00(%rdx),%zmm28
  4069f4:	62 61 fd 48 28 6a 34 	vmovapd 0xd00(%rdx),%zmm29
  4069fb:	62 61 fd 48 28 72 38 	vmovapd 0xe00(%rdx),%zmm30
  406a02:	62 61 fd 48 28 7a 3c 	vmovapd 0xf00(%rdx),%zmm31
  406a09:	49 c7 c2 20 6a 40 00 	mov    $0x406a20,%r10
  406a10:	48 83 c6 b0          	add    $0xffffffffffffffb0,%rsi
  406a14:	48 81 c7 40 20 00 00 	add    $0x2040,%rdi
  406a1b:	e9 93 fc ff ff       	jmpq   4066b3 <CASE_1_5>

0000000000406a20 <BLOCK_1_0_2_5>:
  406a20:	62 e1 fd 48 29 02    	vmovapd %zmm16,(%rdx)
  406a26:	62 e1 fd 48 29 4a 04 	vmovapd %zmm17,0x100(%rdx)
  406a2d:	62 e1 fd 48 29 52 08 	vmovapd %zmm18,0x200(%rdx)
  406a34:	62 e1 fd 48 29 5a 0c 	vmovapd %zmm19,0x300(%rdx)
  406a3b:	62 e1 fd 48 29 62 10 	vmovapd %zmm20,0x400(%rdx)
  406a42:	62 e1 fd 48 29 6a 14 	vmovapd %zmm21,0x500(%rdx)
