
build/exp_seissol_star:     file format elf64-x86-64


Disassembly of section .init:

0000000000401500 <_init>:
  401500:	48 83 ec 08          	sub    $0x8,%rsp
  401504:	48 8b 05 ed 5a 21 00 	mov    0x215aed(%rip),%rax        # 616ff8 <_DYNAMIC+0x238>
  40150b:	48 85 c0             	test   %rax,%rax
  40150e:	74 05                	je     401515 <_init+0x15>
  401510:	e8 fb 02 00 00       	callq  401810 <_ZNSt8ios_base4InitD1Ev@plt+0x10>
  401515:	48 83 c4 08          	add    $0x8,%rsp
  401519:	c3                   	retq   

Disassembly of section .plt:

0000000000401520 <__printf_chk@plt-0x10>:
  401520:	ff 35 e2 5a 21 00    	pushq  0x215ae2(%rip)        # 617008 <_GLOBAL_OFFSET_TABLE_+0x8>
  401526:	ff 25 e4 5a 21 00    	jmpq   *0x215ae4(%rip)        # 617010 <_GLOBAL_OFFSET_TABLE_+0x10>
  40152c:	0f 1f 40 00          	nopl   0x0(%rax)

0000000000401530 <__printf_chk@plt>:
  401530:	ff 25 e2 5a 21 00    	jmpq   *0x215ae2(%rip)        # 617018 <_GLOBAL_OFFSET_TABLE_+0x18>
  401536:	68 00 00 00 00       	pushq  $0x0
  40153b:	e9 e0 ff ff ff       	jmpq   401520 <_init+0x20>

0000000000401540 <_Znam@plt>:
  401540:	ff 25 da 5a 21 00    	jmpq   *0x215ada(%rip)        # 617020 <_GLOBAL_OFFSET_TABLE_+0x20>
  401546:	68 01 00 00 00       	pushq  $0x1
  40154b:	e9 d0 ff ff ff       	jmpq   401520 <_init+0x20>

0000000000401550 <rand@plt>:
  401550:	ff 25 d2 5a 21 00    	jmpq   *0x215ad2(%rip)        # 617028 <_GLOBAL_OFFSET_TABLE_+0x28>
  401556:	68 02 00 00 00       	pushq  $0x2
  40155b:	e9 c0 ff ff ff       	jmpq   401520 <_init+0x20>

0000000000401560 <_ZNSolsEPFRSt8ios_baseS0_E@plt>:
  401560:	ff 25 ca 5a 21 00    	jmpq   *0x215aca(%rip)        # 617030 <_GLOBAL_OFFSET_TABLE_+0x30>
  401566:	68 03 00 00 00       	pushq  $0x3
  40156b:	e9 b0 ff ff ff       	jmpq   401520 <_init+0x20>

0000000000401570 <strchr@plt>:
  401570:	ff 25 c2 5a 21 00    	jmpq   *0x215ac2(%rip)        # 617038 <_GLOBAL_OFFSET_TABLE_+0x38>
  401576:	68 04 00 00 00       	pushq  $0x4
  40157b:	e9 a0 ff ff ff       	jmpq   401520 <_init+0x20>

0000000000401580 <strlen@plt>:
  401580:	ff 25 ba 5a 21 00    	jmpq   *0x215aba(%rip)        # 617040 <_GLOBAL_OFFSET_TABLE_+0x40>
  401586:	68 05 00 00 00       	pushq  $0x5
  40158b:	e9 90 ff ff ff       	jmpq   401520 <_init+0x20>

0000000000401590 <__strncat_chk@plt>:
  401590:	ff 25 b2 5a 21 00    	jmpq   *0x215ab2(%rip)        # 617048 <_GLOBAL_OFFSET_TABLE_+0x48>
  401596:	68 06 00 00 00       	pushq  $0x6
  40159b:	e9 80 ff ff ff       	jmpq   401520 <_init+0x20>

00000000004015a0 <_ZSt4endlIcSt11char_traitsIcEERSt13basic_ostreamIT_T0_ES6_@plt>:
  4015a0:	ff 25 aa 5a 21 00    	jmpq   *0x215aaa(%rip)        # 617050 <_GLOBAL_OFFSET_TABLE_+0x50>
  4015a6:	68 07 00 00 00       	pushq  $0x7
  4015ab:	e9 70 ff ff ff       	jmpq   401520 <_init+0x20>

00000000004015b0 <__cxa_allocate_exception@plt>:
  4015b0:	ff 25 a2 5a 21 00    	jmpq   *0x215aa2(%rip)        # 617058 <_GLOBAL_OFFSET_TABLE_+0x58>
  4015b6:	68 08 00 00 00       	pushq  $0x8
  4015bb:	e9 60 ff ff ff       	jmpq   401520 <_init+0x20>

00000000004015c0 <posix_memalign@plt>:
  4015c0:	ff 25 9a 5a 21 00    	jmpq   *0x215a9a(%rip)        # 617060 <_GLOBAL_OFFSET_TABLE_+0x60>
  4015c6:	68 09 00 00 00       	pushq  $0x9
  4015cb:	e9 50 ff ff ff       	jmpq   401520 <_init+0x20>

00000000004015d0 <catopen@plt>:
  4015d0:	ff 25 92 5a 21 00    	jmpq   *0x215a92(%rip)        # 617068 <_GLOBAL_OFFSET_TABLE_+0x68>
  4015d6:	68 0a 00 00 00       	pushq  $0xa
  4015db:	e9 40 ff ff ff       	jmpq   401520 <_init+0x20>

00000000004015e0 <strncpy@plt>:
  4015e0:	ff 25 8a 5a 21 00    	jmpq   *0x215a8a(%rip)        # 617070 <_GLOBAL_OFFSET_TABLE_+0x70>
  4015e6:	68 0b 00 00 00       	pushq  $0xb
  4015eb:	e9 30 ff ff ff       	jmpq   401520 <_init+0x20>

00000000004015f0 <_ZNSs4_Rep10_M_destroyERKSaIcE@plt>:
  4015f0:	ff 25 82 5a 21 00    	jmpq   *0x215a82(%rip)        # 617078 <_GLOBAL_OFFSET_TABLE_+0x78>
  4015f6:	68 0c 00 00 00       	pushq  $0xc
  4015fb:	e9 20 ff ff ff       	jmpq   401520 <_init+0x20>

0000000000401600 <__cxa_atexit@plt>:
  401600:	ff 25 7a 5a 21 00    	jmpq   *0x215a7a(%rip)        # 617080 <_GLOBAL_OFFSET_TABLE_+0x80>
  401606:	68 0d 00 00 00       	pushq  $0xd
  40160b:	e9 10 ff ff ff       	jmpq   401520 <_init+0x20>

0000000000401610 <_ZdlPv@plt>:
  401610:	ff 25 72 5a 21 00    	jmpq   *0x215a72(%rip)        # 617088 <_GLOBAL_OFFSET_TABLE_+0x88>
  401616:	68 0e 00 00 00       	pushq  $0xe
  40161b:	e9 00 ff ff ff       	jmpq   401520 <_init+0x20>

0000000000401620 <_ZStlsISt11char_traitsIcEERSt13basic_ostreamIcT_ES5_PKc@plt>:
  401620:	ff 25 6a 5a 21 00    	jmpq   *0x215a6a(%rip)        # 617090 <_GLOBAL_OFFSET_TABLE_+0x90>
  401626:	68 0f 00 00 00       	pushq  $0xf
  40162b:	e9 f0 fe ff ff       	jmpq   401520 <_init+0x20>

0000000000401630 <fclose@plt>:
  401630:	ff 25 62 5a 21 00    	jmpq   *0x215a62(%rip)        # 617098 <_GLOBAL_OFFSET_TABLE_+0x98>
  401636:	68 10 00 00 00       	pushq  $0x10
  40163b:	e9 e0 fe ff ff       	jmpq   401520 <_init+0x20>

0000000000401640 <_Znwm@plt>:
  401640:	ff 25 5a 5a 21 00    	jmpq   *0x215a5a(%rip)        # 6170a0 <_GLOBAL_OFFSET_TABLE_+0xa0>
  401646:	68 11 00 00 00       	pushq  $0x11
  40164b:	e9 d0 fe ff ff       	jmpq   401520 <_init+0x20>

0000000000401650 <_ZNSolsEPFRSoS_E@plt>:
  401650:	ff 25 52 5a 21 00    	jmpq   *0x215a52(%rip)        # 6170a8 <_GLOBAL_OFFSET_TABLE_+0xa8>
  401656:	68 12 00 00 00       	pushq  $0x12
  40165b:	e9 c0 fe ff ff       	jmpq   401520 <_init+0x20>

0000000000401660 <catgets@plt>:
  401660:	ff 25 4a 5a 21 00    	jmpq   *0x215a4a(%rip)        # 6170b0 <_GLOBAL_OFFSET_TABLE_+0xb0>
  401666:	68 13 00 00 00       	pushq  $0x13
  40166b:	e9 b0 fe ff ff       	jmpq   401520 <_init+0x20>

0000000000401670 <__stack_chk_fail@plt>:
  401670:	ff 25 42 5a 21 00    	jmpq   *0x215a42(%rip)        # 6170b8 <_GLOBAL_OFFSET_TABLE_+0xb8>
  401676:	68 14 00 00 00       	pushq  $0x14
  40167b:	e9 a0 fe ff ff       	jmpq   401520 <_init+0x20>

0000000000401680 <_ZNSsC1EPKcRKSaIcE@plt>:
  401680:	ff 25 3a 5a 21 00    	jmpq   *0x215a3a(%rip)        # 6170c0 <_GLOBAL_OFFSET_TABLE_+0xc0>
  401686:	68 15 00 00 00       	pushq  $0x15
  40168b:	e9 90 fe ff ff       	jmpq   401520 <_init+0x20>

0000000000401690 <_ZStlsIcSt11char_traitsIcEERSt13basic_ostreamIT_T0_ES6_St5_Setw@plt>:
  401690:	ff 25 32 5a 21 00    	jmpq   *0x215a32(%rip)        # 6170c8 <_GLOBAL_OFFSET_TABLE_+0xc8>
  401696:	68 16 00 00 00       	pushq  $0x16
  40169b:	e9 80 fe ff ff       	jmpq   401520 <_init+0x20>

00000000004016a0 <fopen@plt>:
  4016a0:	ff 25 2a 5a 21 00    	jmpq   *0x215a2a(%rip)        # 6170d0 <_GLOBAL_OFFSET_TABLE_+0xd0>
  4016a6:	68 17 00 00 00       	pushq  $0x17
  4016ab:	e9 70 fe ff ff       	jmpq   401520 <_init+0x20>

00000000004016b0 <free@plt>:
  4016b0:	ff 25 22 5a 21 00    	jmpq   *0x215a22(%rip)        # 6170d8 <_GLOBAL_OFFSET_TABLE_+0xd8>
  4016b6:	68 18 00 00 00       	pushq  $0x18
  4016bb:	e9 60 fe ff ff       	jmpq   401520 <_init+0x20>

00000000004016c0 <exit@plt>:
  4016c0:	ff 25 1a 5a 21 00    	jmpq   *0x215a1a(%rip)        # 6170e0 <_GLOBAL_OFFSET_TABLE_+0xe0>
  4016c6:	68 19 00 00 00       	pushq  $0x19
  4016cb:	e9 50 fe ff ff       	jmpq   401520 <_init+0x20>

00000000004016d0 <getenv@plt>:
  4016d0:	ff 25 12 5a 21 00    	jmpq   *0x215a12(%rip)        # 6170e8 <_GLOBAL_OFFSET_TABLE_+0xe8>
  4016d6:	68 1a 00 00 00       	pushq  $0x1a
  4016db:	e9 40 fe ff ff       	jmpq   401520 <_init+0x20>

00000000004016e0 <_ZdaPv@plt>:
  4016e0:	ff 25 0a 5a 21 00    	jmpq   *0x215a0a(%rip)        # 6170f0 <_GLOBAL_OFFSET_TABLE_+0xf0>
  4016e6:	68 1b 00 00 00       	pushq  $0x1b
  4016eb:	e9 30 fe ff ff       	jmpq   401520 <_init+0x20>

00000000004016f0 <clock_gettime@plt>:
  4016f0:	ff 25 02 5a 21 00    	jmpq   *0x215a02(%rip)        # 6170f8 <_GLOBAL_OFFSET_TABLE_+0xf8>
  4016f6:	68 1c 00 00 00       	pushq  $0x1c
  4016fb:	e9 20 fe ff ff       	jmpq   401520 <_init+0x20>

0000000000401700 <__vsprintf_chk@plt>:
  401700:	ff 25 fa 59 21 00    	jmpq   *0x2159fa(%rip)        # 617100 <_GLOBAL_OFFSET_TABLE_+0x100>
  401706:	68 1d 00 00 00       	pushq  $0x1d
  40170b:	e9 10 fe ff ff       	jmpq   401520 <_init+0x20>

0000000000401710 <setenv@plt>:
  401710:	ff 25 f2 59 21 00    	jmpq   *0x2159f2(%rip)        # 617108 <_GLOBAL_OFFSET_TABLE_+0x108>
  401716:	68 1e 00 00 00       	pushq  $0x1e
  40171b:	e9 00 fe ff ff       	jmpq   401520 <_init+0x20>

0000000000401720 <_ZNSt8ios_base4InitC1Ev@plt>:
  401720:	ff 25 ea 59 21 00    	jmpq   *0x2159ea(%rip)        # 617110 <_GLOBAL_OFFSET_TABLE_+0x110>
  401726:	68 1f 00 00 00       	pushq  $0x1f
  40172b:	e9 f0 fd ff ff       	jmpq   401520 <_init+0x20>

0000000000401730 <fgets@plt>:
  401730:	ff 25 e2 59 21 00    	jmpq   *0x2159e2(%rip)        # 617118 <_GLOBAL_OFFSET_TABLE_+0x118>
  401736:	68 20 00 00 00       	pushq  $0x20
  40173b:	e9 e0 fd ff ff       	jmpq   401520 <_init+0x20>

0000000000401740 <_ZStlsIcSt11char_traitsIcEERSt13basic_ostreamIT_T0_ES6_St13_Setprecision@plt>:
  401740:	ff 25 da 59 21 00    	jmpq   *0x2159da(%rip)        # 617120 <_GLOBAL_OFFSET_TABLE_+0x120>
  401746:	68 21 00 00 00       	pushq  $0x21
  40174b:	e9 d0 fd ff ff       	jmpq   401520 <_init+0x20>

0000000000401750 <__fprintf_chk@plt>:
  401750:	ff 25 d2 59 21 00    	jmpq   *0x2159d2(%rip)        # 617128 <_GLOBAL_OFFSET_TABLE_+0x128>
  401756:	68 22 00 00 00       	pushq  $0x22
  40175b:	e9 c0 fd ff ff       	jmpq   401520 <_init+0x20>

0000000000401760 <__gxx_personality_v0@plt>:
  401760:	ff 25 ca 59 21 00    	jmpq   *0x2159ca(%rip)        # 617130 <_GLOBAL_OFFSET_TABLE_+0x130>
  401766:	68 23 00 00 00       	pushq  $0x23
  40176b:	e9 b0 fd ff ff       	jmpq   401520 <_init+0x20>

0000000000401770 <_ZNSt16invalid_argumentD1Ev@plt>:
  401770:	ff 25 c2 59 21 00    	jmpq   *0x2159c2(%rip)        # 617138 <_GLOBAL_OFFSET_TABLE_+0x138>
  401776:	68 24 00 00 00       	pushq  $0x24
  40177b:	e9 a0 fd ff ff       	jmpq   401520 <_init+0x20>

0000000000401780 <__pthread_key_create@plt>:
  401780:	ff 25 ba 59 21 00    	jmpq   *0x2159ba(%rip)        # 617140 <_GLOBAL_OFFSET_TABLE_+0x140>
  401786:	68 25 00 00 00       	pushq  $0x25
  40178b:	e9 90 fd ff ff       	jmpq   401520 <_init+0x20>

0000000000401790 <__cxa_throw@plt>:
  401790:	ff 25 b2 59 21 00    	jmpq   *0x2159b2(%rip)        # 617148 <_GLOBAL_OFFSET_TABLE_+0x148>
  401796:	68 26 00 00 00       	pushq  $0x26
  40179b:	e9 80 fd ff ff       	jmpq   401520 <_init+0x20>

00000000004017a0 <_ZNSolsEi@plt>:
  4017a0:	ff 25 aa 59 21 00    	jmpq   *0x2159aa(%rip)        # 617150 <_GLOBAL_OFFSET_TABLE_+0x150>
  4017a6:	68 27 00 00 00       	pushq  $0x27
  4017ab:	e9 70 fd ff ff       	jmpq   401520 <_init+0x20>

00000000004017b0 <_Unwind_Resume@plt>:
  4017b0:	ff 25 a2 59 21 00    	jmpq   *0x2159a2(%rip)        # 617158 <_GLOBAL_OFFSET_TABLE_+0x158>
  4017b6:	68 28 00 00 00       	pushq  $0x28
  4017bb:	e9 60 fd ff ff       	jmpq   401520 <_init+0x20>

00000000004017c0 <_ZNSt16invalid_argumentC1ERKSs@plt>:
  4017c0:	ff 25 9a 59 21 00    	jmpq   *0x21599a(%rip)        # 617160 <_GLOBAL_OFFSET_TABLE_+0x160>
  4017c6:	68 29 00 00 00       	pushq  $0x29
  4017cb:	e9 50 fd ff ff       	jmpq   401520 <_init+0x20>

00000000004017d0 <__libc_start_main@plt>:
  4017d0:	ff 25 92 59 21 00    	jmpq   *0x215992(%rip)        # 617168 <_GLOBAL_OFFSET_TABLE_+0x168>
  4017d6:	68 2a 00 00 00       	pushq  $0x2a
  4017db:	e9 40 fd ff ff       	jmpq   401520 <_init+0x20>

00000000004017e0 <_ZNSolsEd@plt>:
  4017e0:	ff 25 8a 59 21 00    	jmpq   *0x21598a(%rip)        # 617170 <_GLOBAL_OFFSET_TABLE_+0x170>
  4017e6:	68 2b 00 00 00       	pushq  $0x2b
  4017eb:	e9 30 fd ff ff       	jmpq   401520 <_init+0x20>

00000000004017f0 <fscanf@plt>:
  4017f0:	ff 25 82 59 21 00    	jmpq   *0x215982(%rip)        # 617178 <_GLOBAL_OFFSET_TABLE_+0x178>
  4017f6:	68 2c 00 00 00       	pushq  $0x2c
  4017fb:	e9 20 fd ff ff       	jmpq   401520 <_init+0x20>

0000000000401800 <_ZNSt8ios_base4InitD1Ev@plt>:
  401800:	ff 25 7a 59 21 00    	jmpq   *0x21597a(%rip)        # 617180 <_GLOBAL_OFFSET_TABLE_+0x180>
  401806:	68 2d 00 00 00       	pushq  $0x2d
  40180b:	e9 10 fd ff ff       	jmpq   401520 <_init+0x20>

Disassembly of section .plt.got:

0000000000401810 <.plt.got>:
  401810:	ff 25 e2 57 21 00    	jmpq   *0x2157e2(%rip)        # 616ff8 <_DYNAMIC+0x238>
  401816:	66 90                	xchg   %ax,%ax

Disassembly of section .text:

0000000000401840 <_start>:
  401840:	31 ed                	xor    %ebp,%ebp
  401842:	49 89 d1             	mov    %rdx,%r9
  401845:	5e                   	pop    %rsi
  401846:	48 89 e2             	mov    %rsp,%rdx
  401849:	48 83 e4 f0          	and    $0xfffffffffffffff0,%rsp
  40184d:	50                   	push   %rax
  40184e:	54                   	push   %rsp
  40184f:	49 c7 c0 10 43 41 00 	mov    $0x414310,%r8
  401856:	48 c7 c1 a0 42 41 00 	mov    $0x4142a0,%rcx
  40185d:	48 c7 c7 30 19 40 00 	mov    $0x401930,%rdi
  401864:	e8 67 ff ff ff       	callq  4017d0 <__libc_start_main@plt>
  401869:	f4                   	hlt    
  40186a:	66 0f 1f 44 00 00    	nopw   0x0(%rax,%rax,1)

0000000000401870 <deregister_tm_clones>:
  401870:	b8 a7 7a 61 00       	mov    $0x617aa7,%eax
  401875:	55                   	push   %rbp
  401876:	48 2d a0 7a 61 00    	sub    $0x617aa0,%rax
  40187c:	48 83 f8 0e          	cmp    $0xe,%rax
  401880:	48 89 e5             	mov    %rsp,%rbp
  401883:	77 02                	ja     401887 <deregister_tm_clones+0x17>
  401885:	5d                   	pop    %rbp
  401886:	c3                   	retq   
  401887:	b8 00 00 00 00       	mov    $0x0,%eax
  40188c:	48 85 c0             	test   %rax,%rax
  40188f:	74 f4                	je     401885 <deregister_tm_clones+0x15>
  401891:	5d                   	pop    %rbp
  401892:	bf a0 7a 61 00       	mov    $0x617aa0,%edi
  401897:	ff e0                	jmpq   *%rax
  401899:	0f 1f 80 00 00 00 00 	nopl   0x0(%rax)

00000000004018a0 <register_tm_clones>:
  4018a0:	b8 a0 7a 61 00       	mov    $0x617aa0,%eax
  4018a5:	55                   	push   %rbp
  4018a6:	48 2d a0 7a 61 00    	sub    $0x617aa0,%rax
  4018ac:	48 c1 f8 03          	sar    $0x3,%rax
  4018b0:	48 89 e5             	mov    %rsp,%rbp
  4018b3:	48 89 c2             	mov    %rax,%rdx
  4018b6:	48 c1 ea 3f          	shr    $0x3f,%rdx
  4018ba:	48 01 d0             	add    %rdx,%rax
  4018bd:	48 d1 f8             	sar    %rax
  4018c0:	75 02                	jne    4018c4 <register_tm_clones+0x24>
  4018c2:	5d                   	pop    %rbp
  4018c3:	c3                   	retq   
  4018c4:	ba 00 00 00 00       	mov    $0x0,%edx
  4018c9:	48 85 d2             	test   %rdx,%rdx
  4018cc:	74 f4                	je     4018c2 <register_tm_clones+0x22>
  4018ce:	5d                   	pop    %rbp
  4018cf:	48 89 c6             	mov    %rax,%rsi
  4018d2:	bf a0 7a 61 00       	mov    $0x617aa0,%edi
  4018d7:	ff e2                	jmpq   *%rdx
  4018d9:	0f 1f 80 00 00 00 00 	nopl   0x0(%rax)

00000000004018e0 <__do_global_dtors_aux>:
  4018e0:	80 3d 01 63 21 00 00 	cmpb   $0x0,0x216301(%rip)        # 617be8 <completed.6338>
  4018e7:	75 11                	jne    4018fa <__do_global_dtors_aux+0x1a>
  4018e9:	55                   	push   %rbp
  4018ea:	48 89 e5             	mov    %rsp,%rbp
  4018ed:	e8 7e ff ff ff       	callq  401870 <deregister_tm_clones>
  4018f2:	5d                   	pop    %rbp
  4018f3:	c6 05 ee 62 21 00 01 	movb   $0x1,0x2162ee(%rip)        # 617be8 <completed.6338>
  4018fa:	f3 c3                	repz retq 
  4018fc:	0f 1f 40 00          	nopl   0x0(%rax)

0000000000401900 <frame_dummy>:
  401900:	48 83 3d 30 4f 21 00 	cmpq   $0x0,0x214f30(%rip)        # 616838 <__JCR_END__>
  401907:	00 
  401908:	74 1e                	je     401928 <frame_dummy+0x28>
  40190a:	b8 00 00 00 00       	mov    $0x0,%eax
  40190f:	48 85 c0             	test   %rax,%rax
  401912:	74 14                	je     401928 <frame_dummy+0x28>
  401914:	55                   	push   %rbp
  401915:	bf 38 68 61 00       	mov    $0x616838,%edi
  40191a:	48 89 e5             	mov    %rsp,%rbp
  40191d:	ff d0                	callq  *%rax
  40191f:	5d                   	pop    %rbp
  401920:	e9 7b ff ff ff       	jmpq   4018a0 <register_tm_clones>
  401925:	0f 1f 00             	nopl   (%rax)
  401928:	e9 73 ff ff ff       	jmpq   4018a0 <register_tm_clones>
  40192d:	0f 1f 00             	nopl   (%rax)

0000000000401930 <main>:
  401930:	55                   	push   %rbp
  401931:	48 89 e5             	mov    %rsp,%rbp
  401934:	48 83 e4 80          	and    $0xffffffffffffff80,%rsp
  401938:	48 81 ec 00 0a 00 00 	sub    $0xa00,%rsp
  40193f:	48 89 9c 24 30 08 00 	mov    %rbx,0x830(%rsp)
  401946:	00 
  401947:	48 be fe 9f 9d 38 07 	movabs $0x7389d9ffe,%rsi
  40194e:	00 00 00 
  401951:	4c 89 bc 24 28 08 00 	mov    %r15,0x828(%rsp)
  401958:	00 
  401959:	bf 03 00 00 00       	mov    $0x3,%edi
  40195e:	4c 89 b4 24 20 08 00 	mov    %r14,0x820(%rsp)
  401965:	00 
  401966:	4c 89 ac 24 38 08 00 	mov    %r13,0x838(%rsp)
  40196d:	00 
  40196e:	4c 89 a4 24 40 08 00 	mov    %r12,0x840(%rsp)
  401975:	00 
  401976:	e8 55 f5 00 00       	callq  410ed0 <__intel_new_feature_proc_init>
  40197b:	c5 f8 ae 1c 24       	vstmxcsr (%rsp)
  401980:	b8 28 00 00 00       	mov    $0x28,%eax
  401985:	48 c7 84 24 08 09 00 	movq   $0x617240,0x908(%rsp)
  40198c:	00 40 72 61 00 
  401991:	be 40 00 00 00       	mov    $0x40,%esi
  401996:	81 0c 24 40 80 00 00 	orl    $0x8040,(%rsp)
  40199d:	48 8d bc 24 20 09 00 	lea    0x920(%rsp),%rdi
  4019a4:	00 
  4019a5:	89 84 24 18 09 00 00 	mov    %eax,0x918(%rsp)
  4019ac:	ba 40 0b 00 00       	mov    $0xb40,%edx
  4019b1:	89 84 24 10 09 00 00 	mov    %eax,0x910(%rsp)
  4019b8:	c5 f8 ae 14 24       	vldmxcsr (%rsp)
  4019bd:	c7 84 24 14 09 00 00 	movl   $0x9,0x914(%rsp)
  4019c4:	09 00 00 00 
  4019c8:	e8 f3 fb ff ff       	callq  4015c0 <posix_memalign@plt>
  4019cd:	8b 84 24 14 09 00 00 	mov    0x914(%rsp),%eax
  4019d4:	45 31 e4             	xor    %r12d,%r12d
  4019d7:	85 c0                	test   %eax,%eax
  4019d9:	0f 8e 6e 02 00 00    	jle    401c4d <main+0x31d>
  4019df:	44 8b 84 24 10 09 00 	mov    0x910(%rsp),%r8d
  4019e6:	00 
  4019e7:	44 8b 8c 24 18 09 00 	mov    0x918(%rsp),%r9d
  4019ee:	00 
  4019ef:	ba 08 00 00 00       	mov    $0x8,%edx
  4019f4:	62 f1 ed 48 ef d2    	vpxorq %zmm2,%zmm2,%zmm2
  4019fa:	45 31 ff             	xor    %r15d,%r15d
  4019fd:	c5 f9 6e ca          	vmovd  %edx,%xmm1
  401a01:	31 db                	xor    %ebx,%ebx
  401a03:	44 89 c6             	mov    %r8d,%esi
  401a06:	49 63 f8             	movslq %r8d,%rdi
  401a09:	4c 8b b4 24 20 09 00 	mov    0x920(%rsp),%r14
  401a10:	00 
  401a11:	c5 fe 6f 05 e7 29 01 	vmovdqu 0x129e7(%rip),%ymm0        # 414400 <_IO_stdin_used+0xc0>
  401a18:	00 
  401a19:	83 e6 f8             	and    $0xfffffff8,%esi
  401a1c:	4d 63 e9             	movslq %r9d,%r13
  401a1f:	48 63 ce             	movslq %esi,%rcx
  401a22:	48 89 4c 24 48       	mov    %rcx,0x48(%rsp)
  401a27:	48 8d 14 fd 00 00 00 	lea    0x0(,%rdi,8),%rdx
  401a2e:	00 
  401a2f:	48 89 54 24 40       	mov    %rdx,0x40(%rsp)
  401a34:	c4 e2 7d 58 c9       	vpbroadcastd %xmm1,%ymm1
  401a39:	45 85 c0             	test   %r8d,%r8d
  401a3c:	0f 8e fe 00 00 00    	jle    401b40 <main+0x210>
  401a42:	41 83 f8 0c          	cmp    $0xc,%r8d
  401a46:	7e 77                	jle    401abf <main+0x18f>
  401a48:	c5 fe 7f 0c 24       	vmovdqu %ymm1,(%rsp)
  401a4d:	48 89 7c 24 20       	mov    %rdi,0x20(%rsp)
  401a52:	89 74 24 28          	mov    %esi,0x28(%rsp)
  401a56:	44 89 44 24 30       	mov    %r8d,0x30(%rsp)
  401a5b:	44 89 4c 24 50       	mov    %r9d,0x50(%rsp)
  401a60:	89 44 24 38          	mov    %eax,0x38(%rsp)
  401a64:	4d 63 ff             	movslq %r15d,%r15
  401a67:	31 f6                	xor    %esi,%esi
  401a69:	48 8b 54 24 40       	mov    0x40(%rsp),%rdx
  401a6e:	4b 8d 3c fe          	lea    (%r14,%r15,8),%rdi
  401a72:	e8 09 f8 00 00       	callq  411280 <__intel_mic_avx512f_memset>
  401a77:	41 83 c4 01          	add    $0x1,%r12d
  401a7b:	4c 01 eb             	add    %r13,%rbx
  401a7e:	44 03 7c 24 50       	add    0x50(%rsp),%r15d
  401a83:	44 3b 64 24 38       	cmp    0x38(%rsp),%r12d
  401a88:	0f 83 b9 19 00 00    	jae    403447 <main+0x1b17>
  401a8e:	83 7c 24 30 0c       	cmpl   $0xc,0x30(%rsp)
  401a93:	7f cf                	jg     401a64 <main+0x134>
  401a95:	c5 fe 6f 05 63 29 01 	vmovdqu 0x12963(%rip),%ymm0        # 414400 <_IO_stdin_used+0xc0>
  401a9c:	00 
  401a9d:	c5 fe 6f 0c 24       	vmovdqu (%rsp),%ymm1
  401aa2:	62 f1 ed 48 ef d2    	vpxorq %zmm2,%zmm2,%zmm2
  401aa8:	48 8b 7c 24 20       	mov    0x20(%rsp),%rdi
  401aad:	8b 74 24 28          	mov    0x28(%rsp),%esi
  401ab1:	44 8b 44 24 30       	mov    0x30(%rsp),%r8d
  401ab6:	44 8b 4c 24 50       	mov    0x50(%rsp),%r9d
  401abb:	8b 44 24 38          	mov    0x38(%rsp),%eax
  401abf:	41 83 f8 08          	cmp    $0x8,%r8d
  401ac3:	0f 8c 77 19 00 00    	jl     403440 <main+0x1b10>
  401ac9:	89 f2                	mov    %esi,%edx
  401acb:	45 31 d2             	xor    %r10d,%r10d
  401ace:	49 8d 0c de          	lea    (%r14,%rbx,8),%rcx
  401ad2:	4c 8b 5c 24 48       	mov    0x48(%rsp),%r11
  401ad7:	62 b1 fd 48 11 14 d1 	vmovupd %zmm2,(%rcx,%r10,8)
  401ade:	49 83 c2 08          	add    $0x8,%r10
  401ae2:	4d 39 da             	cmp    %r11,%r10
  401ae5:	72 f0                	jb     401ad7 <main+0x1a7>
  401ae7:	8d 4a 01             	lea    0x1(%rdx),%ecx
  401aea:	44 39 c1             	cmp    %r8d,%ecx
  401aed:	77 51                	ja     401b40 <main+0x210>
  401aef:	45 89 c2             	mov    %r8d,%r10d
  401af2:	b9 ff 00 00 00       	mov    $0xff,%ecx
  401af7:	c5 fd 6f e0          	vmovdqa %ymm0,%ymm4
  401afb:	41 29 d2             	sub    %edx,%r10d
  401afe:	48 63 d2             	movslq %edx,%rdx
  401b01:	c4 c1 79 6e da       	vmovd  %r10d,%xmm3
  401b06:	4c 8d 1c 13          	lea    (%rbx,%rdx,1),%r11
  401b0a:	48 f7 da             	neg    %rdx
  401b0d:	c5 f8 92 c9          	kmovw  %ecx,%k1
  401b11:	c4 e2 7d 58 db       	vpbroadcastd %xmm3,%ymm3
  401b16:	31 c9                	xor    %ecx,%ecx
  401b18:	4f 8d 1c de          	lea    (%r14,%r11,8),%r11
  401b1c:	48 01 fa             	add    %rdi,%rdx
  401b1f:	45 31 d2             	xor    %r10d,%r10d
  401b22:	48 83 c1 08          	add    $0x8,%rcx
  401b26:	62 f1 65 49 66 d4    	vpcmpgtd %zmm4,%zmm3,%k2{%k1}
  401b2c:	62 91 fd 4a 11 14 1a 	vmovupd %zmm2,(%r10,%r11,1){%k2}
  401b33:	49 83 c2 40          	add    $0x40,%r10
  401b37:	c5 dd fe e1          	vpaddd %ymm1,%ymm4,%ymm4
  401b3b:	48 39 d1             	cmp    %rdx,%rcx
  401b3e:	72 e2                	jb     401b22 <main+0x1f2>
  401b40:	41 83 c4 01          	add    $0x1,%r12d
  401b44:	4c 01 eb             	add    %r13,%rbx
  401b47:	45 01 cf             	add    %r9d,%r15d
  401b4a:	41 39 c4             	cmp    %eax,%r12d
  401b4d:	0f 82 e6 fe ff ff    	jb     401a39 <main+0x109>
  401b53:	31 c9                	xor    %ecx,%ecx
  401b55:	8b 94 24 18 09 00 00 	mov    0x918(%rsp),%edx
  401b5c:	4c 63 b4 24 10 09 00 	movslq 0x910(%rsp),%r14
  401b63:	00 
  401b64:	31 db                	xor    %ebx,%ebx
  401b66:	4c 8b bc 24 20 09 00 	mov    0x920(%rsp),%r15
  401b6d:	00 
  401b6e:	c5 fb 10 05 ba 28 01 	vmovsd 0x128ba(%rip),%xmm0        # 414430 <_IO_stdin_used+0xf0>
  401b75:	00 
  401b76:	45 31 e4             	xor    %r12d,%r12d
  401b79:	4d 85 f6             	test   %r14,%r14
  401b7c:	0f 8e be 00 00 00    	jle    401c40 <main+0x310>
  401b82:	62 f3 fd 08 27 e0 00 	vgetmantsd $0x0,%xmm0,%xmm0,%xmm4
  401b89:	89 54 24 08          	mov    %edx,0x8(%rsp)
  401b8d:	c5 fb 10 0d bb 28 01 	vmovsd 0x128bb(%rip),%xmm1        # 414450 <_IO_stdin_used+0x110>
  401b94:	00 
  401b95:	89 0c 24             	mov    %ecx,(%rsp)
  401b98:	62 f2 fd 08 43 d8    	vgetexpsd %xmm0,%xmm0,%xmm3
  401b9e:	89 44 24 38          	mov    %eax,0x38(%rsp)
  401ba2:	48 63 db             	movslq %ebx,%rbx
  401ba5:	c5 fb 11 64 24 28    	vmovsd %xmm4,0x28(%rsp)
  401bab:	62 f2 dd 08 cb d4    	vrcp28sd %xmm4,%xmm4,%xmm2
  401bb1:	c5 fb 11 5c 24 10    	vmovsd %xmm3,0x10(%rsp)
  401bb7:	4d 8d 2c df          	lea    (%r15,%rbx,8),%r13
  401bbb:	c5 fb 11 54 24 18    	vmovsd %xmm2,0x18(%rsp)
  401bc1:	62 f2 ed 18 bd cc    	vfnmadd231sd {rn-sae},%xmm4,%xmm2,%xmm1
  401bc7:	62 f2 ed 18 99 ca    	vfmadd132sd {rn-sae},%xmm2,%xmm2,%xmm1
  401bcd:	c5 fb 11 4c 24 20    	vmovsd %xmm1,0x20(%rsp)
  401bd3:	e8 78 f9 ff ff       	callq  401550 <rand@plt>
  401bd8:	c5 f9 57 c0          	vxorpd %xmm0,%xmm0,%xmm0
  401bdc:	c5 fb 2a c0          	vcvtsi2sd %eax,%xmm0,%xmm0
  401be0:	c5 fb 10 54 24 18    	vmovsd 0x18(%rsp),%xmm2
  401be6:	c5 fb 10 5c 24 28    	vmovsd 0x28(%rsp),%xmm3
  401bec:	62 f3 fd 08 27 e0 00 	vgetmantsd $0x0,%xmm0,%xmm0,%xmm4
  401bf3:	62 f2 fd 08 43 c8    	vgetexpsd %xmm0,%xmm0,%xmm1
  401bf9:	c5 fb 10 6c 24 20    	vmovsd 0x20(%rsp),%xmm5
  401bff:	62 f1 ef 18 59 f4    	vmulsd {rn-sae},%xmm4,%xmm2,%xmm6
  401c05:	c5 f3 5c 7c 24 10    	vsubsd 0x10(%rsp),%xmm1,%xmm7
  401c0b:	62 f2 cd 18 bd e3    	vfnmadd231sd {rn-sae},%xmm3,%xmm6,%xmm4
  401c11:	62 f2 dd 18 b9 f5    	vfmadd231sd {rn-sae},%xmm5,%xmm4,%xmm6
  401c17:	62 72 cd 08 2d c7    	vscalefsd %xmm7,%xmm6,%xmm8
  401c1d:	c4 01 7b 11 44 e5 00 	vmovsd %xmm8,0x0(%r13,%r12,8)
  401c24:	49 83 c4 01          	add    $0x1,%r12
  401c28:	4d 39 f4             	cmp    %r14,%r12
  401c2b:	72 a6                	jb     401bd3 <main+0x2a3>
  401c2d:	c5 fb 10 05 fb 27 01 	vmovsd 0x127fb(%rip),%xmm0        # 414430 <_IO_stdin_used+0xf0>
  401c34:	00 
  401c35:	8b 54 24 08          	mov    0x8(%rsp),%edx
  401c39:	8b 0c 24             	mov    (%rsp),%ecx
  401c3c:	8b 44 24 38          	mov    0x38(%rsp),%eax
  401c40:	83 c1 01             	add    $0x1,%ecx
  401c43:	01 d3                	add    %edx,%ebx
  401c45:	39 c1                	cmp    %eax,%ecx
  401c47:	0f 82 29 ff ff ff    	jb     401b76 <main+0x246>
  401c4d:	bf 58 44 41 00       	mov    $0x414458,%edi
  401c52:	48 c7 84 24 28 09 00 	movq   $0x617240,0x928(%rsp)
  401c59:	00 40 72 61 00 
  401c5e:	be 8c 44 41 00       	mov    $0x41448c,%esi
  401c63:	e8 38 fa ff ff       	callq  4016a0 <fopen@plt>
  401c68:	49 89 c7             	mov    %rax,%r15
  401c6b:	48 8d 7c 24 08       	lea    0x8(%rsp),%rdi
  401c70:	be e8 03 00 00       	mov    $0x3e8,%esi
  401c75:	4c 89 fa             	mov    %r15,%rdx
  401c78:	e8 b3 fa ff ff       	callq  401730 <fgets@plt>
  401c7d:	48 8d 7c 24 08       	lea    0x8(%rsp),%rdi
  401c82:	be e8 03 00 00       	mov    $0x3e8,%esi
  401c87:	4c 89 fa             	mov    %r15,%rdx
  401c8a:	e8 a1 fa ff ff       	callq  401730 <fgets@plt>
  401c8f:	4c 89 ff             	mov    %r15,%rdi
  401c92:	be 90 44 41 00       	mov    $0x414490,%esi
  401c97:	48 8d 94 24 30 09 00 	lea    0x930(%rsp),%rdx
  401c9e:	00 
  401c9f:	48 8d 8c 24 34 09 00 	lea    0x934(%rsp),%rcx
  401ca6:	00 
  401ca7:	4c 8d 84 24 90 08 00 	lea    0x890(%rsp),%r8
  401cae:	00 
  401caf:	31 c0                	xor    %eax,%eax
  401cb1:	e8 3a fb ff ff       	callq  4017f0 <fscanf@plt>
  401cb6:	8b 84 24 30 09 00 00 	mov    0x930(%rsp),%eax
  401cbd:	89 84 24 38 09 00 00 	mov    %eax,0x938(%rsp)
  401cc4:	8b 94 24 34 09 00 00 	mov    0x934(%rsp),%edx
  401ccb:	be 40 00 00 00       	mov    $0x40,%esi
  401cd0:	48 8d bc 24 40 09 00 	lea    0x940(%rsp),%rdi
  401cd7:	00 
  401cd8:	0f af d0             	imul   %eax,%edx
  401cdb:	48 63 d2             	movslq %edx,%rdx
  401cde:	48 c1 e2 03          	shl    $0x3,%rdx
  401ce2:	e8 d9 f8 ff ff       	callq  4015c0 <posix_memalign@plt>
  401ce7:	8b 84 24 34 09 00 00 	mov    0x934(%rsp),%eax
  401cee:	45 31 f6             	xor    %r14d,%r14d
  401cf1:	85 c0                	test   %eax,%eax
  401cf3:	0f 8e 9e 01 00 00    	jle    401e97 <main+0x567>
  401cf9:	8b 8c 24 30 09 00 00 	mov    0x930(%rsp),%ecx
  401d00:	4c 89 3c 24          	mov    %r15,(%rsp)
  401d04:	bb 08 00 00 00       	mov    $0x8,%ebx
  401d09:	62 f1 ed 48 ef d2    	vpxorq %zmm2,%zmm2,%zmm2
  401d0f:	41 89 c7             	mov    %eax,%r15d
  401d12:	48 8b b4 24 40 09 00 	mov    0x940(%rsp),%rsi
  401d19:	00 
  401d1a:	c5 f9 6e cb          	vmovd  %ebx,%xmm1
  401d1e:	31 db                	xor    %ebx,%ebx
  401d20:	4c 63 d1             	movslq %ecx,%r10
  401d23:	41 89 c8             	mov    %ecx,%r8d
  401d26:	4c 63 ac 24 38 09 00 	movslq 0x938(%rsp),%r13
  401d2d:	00 
  401d2e:	41 83 e0 f8          	and    $0xfffffff8,%r8d
  401d32:	4e 8d 1c d5 00 00 00 	lea    0x0(,%r10,8),%r11
  401d39:	00 
  401d3a:	4c 89 9c 24 38 04 00 	mov    %r11,0x438(%rsp)
  401d41:	00 
  401d42:	c5 fe 6f 05 b6 26 01 	vmovdqu 0x126b6(%rip),%ymm0        # 414400 <_IO_stdin_used+0xc0>
  401d49:	00 
  401d4a:	49 89 f4             	mov    %rsi,%r12
  401d4d:	c4 e2 7d 58 c9       	vpbroadcastd %xmm1,%ymm1
  401d52:	4d 63 c8             	movslq %r8d,%r9
  401d55:	85 c9                	test   %ecx,%ecx
  401d57:	0f 8e 22 01 00 00    	jle    401e7f <main+0x54f>
  401d5d:	83 f9 0c             	cmp    $0xc,%ecx
  401d60:	0f 8e 9e 00 00 00    	jle    401e04 <main+0x4d4>
  401d66:	c5 fe 7f 8c 24 00 04 	vmovdqu %ymm1,0x400(%rsp)
  401d6d:	00 00 
  401d6f:	4c 89 94 24 f0 03 00 	mov    %r10,0x3f0(%rsp)
  401d76:	00 
  401d77:	4c 89 8c 24 f8 03 00 	mov    %r9,0x3f8(%rsp)
  401d7e:	00 
  401d7f:	44 89 84 24 20 04 00 	mov    %r8d,0x420(%rsp)
  401d86:	00 
  401d87:	48 89 b4 24 28 04 00 	mov    %rsi,0x428(%rsp)
  401d8e:	00 
  401d8f:	89 8c 24 30 04 00 00 	mov    %ecx,0x430(%rsp)
  401d96:	4c 89 e7             	mov    %r12,%rdi
  401d99:	31 f6                	xor    %esi,%esi
  401d9b:	48 8b 94 24 38 04 00 	mov    0x438(%rsp),%rdx
  401da2:	00 
  401da3:	e8 d8 f4 00 00       	callq  411280 <__intel_mic_avx512f_memset>
  401da8:	41 83 c6 01          	add    $0x1,%r14d
  401dac:	4c 01 eb             	add    %r13,%rbx
  401daf:	4f 8d 24 ec          	lea    (%r12,%r13,8),%r12
  401db3:	45 39 fe             	cmp    %r15d,%r14d
  401db6:	0f 83 d7 00 00 00    	jae    401e93 <main+0x563>
  401dbc:	83 bc 24 30 04 00 00 	cmpl   $0xc,0x430(%rsp)
  401dc3:	0c 
  401dc4:	7f d0                	jg     401d96 <main+0x466>
  401dc6:	c5 fe 6f 05 32 26 01 	vmovdqu 0x12632(%rip),%ymm0        # 414400 <_IO_stdin_used+0xc0>
  401dcd:	00 
  401dce:	c5 fe 6f 8c 24 00 04 	vmovdqu 0x400(%rsp),%ymm1
  401dd5:	00 00 
  401dd7:	62 f1 ed 48 ef d2    	vpxorq %zmm2,%zmm2,%zmm2
  401ddd:	4c 8b 94 24 f0 03 00 	mov    0x3f0(%rsp),%r10
  401de4:	00 
  401de5:	4c 8b 8c 24 f8 03 00 	mov    0x3f8(%rsp),%r9
  401dec:	00 
  401ded:	44 8b 84 24 20 04 00 	mov    0x420(%rsp),%r8d
  401df4:	00 
  401df5:	48 8b b4 24 28 04 00 	mov    0x428(%rsp),%rsi
  401dfc:	00 
  401dfd:	8b 8c 24 30 04 00 00 	mov    0x430(%rsp),%ecx
  401e04:	83 f9 08             	cmp    $0x8,%ecx
  401e07:	0f 8c 2c 16 00 00    	jl     403439 <main+0x1b09>
  401e0d:	44 89 c0             	mov    %r8d,%eax
  401e10:	45 31 db             	xor    %r11d,%r11d
  401e13:	48 8d 14 de          	lea    (%rsi,%rbx,8),%rdx
  401e17:	62 b1 fd 48 11 14 da 	vmovupd %zmm2,(%rdx,%r11,8)
  401e1e:	49 83 c3 08          	add    $0x8,%r11
  401e22:	4d 39 cb             	cmp    %r9,%r11
  401e25:	72 f0                	jb     401e17 <main+0x4e7>
  401e27:	8d 50 01             	lea    0x1(%rax),%edx
  401e2a:	39 ca                	cmp    %ecx,%edx
  401e2c:	77 51                	ja     401e7f <main+0x54f>
  401e2e:	41 89 cb             	mov    %ecx,%r11d
  401e31:	ba ff 00 00 00       	mov    $0xff,%edx
  401e36:	c5 fd 6f e0          	vmovdqa %ymm0,%ymm4
  401e3a:	41 29 c3             	sub    %eax,%r11d
  401e3d:	48 63 c0             	movslq %eax,%rax
  401e40:	c4 c1 79 6e db       	vmovd  %r11d,%xmm3
  401e45:	4c 8d 1c 03          	lea    (%rbx,%rax,1),%r11
  401e49:	48 f7 d8             	neg    %rax
  401e4c:	c5 f8 92 ca          	kmovw  %edx,%k1
  401e50:	c4 e2 7d 58 db       	vpbroadcastd %xmm3,%ymm3
  401e55:	31 d2                	xor    %edx,%edx
  401e57:	4a 8d 3c de          	lea    (%rsi,%r11,8),%rdi
  401e5b:	4c 01 d0             	add    %r10,%rax
  401e5e:	45 31 db             	xor    %r11d,%r11d
  401e61:	48 83 c2 08          	add    $0x8,%rdx
  401e65:	62 f1 65 49 66 d4    	vpcmpgtd %zmm4,%zmm3,%k2{%k1}
  401e6b:	62 d1 fd 4a 11 14 3b 	vmovupd %zmm2,(%r11,%rdi,1){%k2}
  401e72:	49 83 c3 40          	add    $0x40,%r11
  401e76:	c5 dd fe e1          	vpaddd %ymm1,%ymm4,%ymm4
  401e7a:	48 39 c2             	cmp    %rax,%rdx
  401e7d:	72 e2                	jb     401e61 <main+0x531>
  401e7f:	41 83 c6 01          	add    $0x1,%r14d
  401e83:	4c 01 eb             	add    %r13,%rbx
  401e86:	4f 8d 24 ec          	lea    (%r12,%r13,8),%r12
  401e8a:	45 39 fe             	cmp    %r15d,%r14d
  401e8d:	0f 82 c2 fe ff ff    	jb     401d55 <main+0x425>
  401e93:	4c 8b 3c 24          	mov    (%rsp),%r15
  401e97:	31 db                	xor    %ebx,%ebx
  401e99:	83 bc 24 90 08 00 00 	cmpl   $0x0,0x890(%rsp)
  401ea0:	00 
  401ea1:	7e 64                	jle    401f07 <main+0x5d7>
  401ea3:	4c 89 ff             	mov    %r15,%rdi
  401ea6:	be 9c 44 41 00       	mov    $0x41449c,%esi
  401eab:	48 8d 94 24 94 08 00 	lea    0x894(%rsp),%rdx
  401eb2:	00 
  401eb3:	48 8d 8c 24 98 08 00 	lea    0x898(%rsp),%rcx
  401eba:	00 
  401ebb:	4c 8d 84 24 80 08 00 	lea    0x880(%rsp),%r8
  401ec2:	00 
  401ec3:	31 c0                	xor    %eax,%eax
  401ec5:	e8 26 f9 ff ff       	callq  4017f0 <fscanf@plt>
  401eca:	8b 84 24 98 08 00 00 	mov    0x898(%rsp),%eax
  401ed1:	48 8b 8c 24 80 08 00 	mov    0x880(%rsp),%rcx
  401ed8:	00 
  401ed9:	83 c3 01             	add    $0x1,%ebx
  401edc:	83 c0 ff             	add    $0xffffffff,%eax
  401edf:	48 8b b4 24 40 09 00 	mov    0x940(%rsp),%rsi
  401ee6:	00 
  401ee7:	0f af 84 24 38 09 00 	imul   0x938(%rsp),%eax
  401eee:	00 
  401eef:	03 84 24 94 08 00 00 	add    0x894(%rsp),%eax
  401ef6:	48 63 c0             	movslq %eax,%rax
  401ef9:	48 89 4c c6 f8       	mov    %rcx,-0x8(%rsi,%rax,8)
  401efe:	3b 9c 24 90 08 00 00 	cmp    0x890(%rsp),%ebx
  401f05:	7c 9c                	jl     401ea3 <main+0x573>
  401f07:	4c 89 ff             	mov    %r15,%rdi
  401f0a:	e8 21 f7 ff ff       	callq  401630 <fclose@plt>
  401f0f:	b8 28 00 00 00       	mov    $0x28,%eax
  401f14:	48 c7 84 24 a8 08 00 	movq   $0x617240,0x8a8(%rsp)
  401f1b:	00 40 72 61 00 
  401f20:	48 8d bc 24 c0 08 00 	lea    0x8c0(%rsp),%rdi
  401f27:	00 
  401f28:	89 84 24 b8 08 00 00 	mov    %eax,0x8b8(%rsp)
  401f2f:	be 40 00 00 00       	mov    $0x40,%esi
  401f34:	89 84 24 b0 08 00 00 	mov    %eax,0x8b0(%rsp)
  401f3b:	ba c0 12 00 00       	mov    $0x12c0,%edx
  401f40:	c7 84 24 b4 08 00 00 	movl   $0xf,0x8b4(%rsp)
  401f47:	0f 00 00 00 
  401f4b:	e8 70 f6 ff ff       	callq  4015c0 <posix_memalign@plt>
  401f50:	44 8b ac 24 b4 08 00 	mov    0x8b4(%rsp),%r13d
  401f57:	00 
  401f58:	45 31 ff             	xor    %r15d,%r15d
  401f5b:	45 85 ed             	test   %r13d,%r13d
  401f5e:	0f 8e 92 01 00 00    	jle    4020f6 <main+0x7c6>
  401f64:	44 8b 94 24 b0 08 00 	mov    0x8b0(%rsp),%r10d
  401f6b:	00 
  401f6c:	4c 8b 8c 24 c0 08 00 	mov    0x8c0(%rsp),%r9
  401f73:	00 
  401f74:	b8 08 00 00 00       	mov    $0x8,%eax
  401f79:	62 f1 ed 48 ef d2    	vpxorq %zmm2,%zmm2,%zmm2
  401f7f:	31 db                	xor    %ebx,%ebx
  401f81:	c5 f9 6e c8          	vmovd  %eax,%xmm1
  401f85:	49 63 ca             	movslq %r10d,%rcx
  401f88:	45 89 d0             	mov    %r10d,%r8d
  401f8b:	4c 63 a4 24 b8 08 00 	movslq 0x8b8(%rsp),%r12
  401f92:	00 
  401f93:	c5 fe 6f 05 65 24 01 	vmovdqu 0x12465(%rip),%ymm0        # 414400 <_IO_stdin_used+0xc0>
  401f9a:	00 
  401f9b:	41 83 e0 f8          	and    $0xfffffff8,%r8d
  401f9f:	4d 89 ce             	mov    %r9,%r14
  401fa2:	48 8d 04 cd 00 00 00 	lea    0x0(,%rcx,8),%rax
  401fa9:	00 
  401faa:	48 89 84 24 30 04 00 	mov    %rax,0x430(%rsp)
  401fb1:	00 
  401fb2:	c4 e2 7d 58 c9       	vpbroadcastd %xmm1,%ymm1
  401fb7:	49 63 f0             	movslq %r8d,%rsi
  401fba:	45 85 d2             	test   %r10d,%r10d
  401fbd:	0f 8e 1f 01 00 00    	jle    4020e2 <main+0x7b2>
  401fc3:	41 83 fa 0c          	cmp    $0xc,%r10d
  401fc7:	0f 8e 98 00 00 00    	jle    402065 <main+0x735>
  401fcd:	c5 fe 7f 8c 24 00 04 	vmovdqu %ymm1,0x400(%rsp)
  401fd4:	00 00 
  401fd6:	48 89 0c 24          	mov    %rcx,(%rsp)
  401fda:	48 89 b4 24 f0 03 00 	mov    %rsi,0x3f0(%rsp)
  401fe1:	00 
  401fe2:	44 89 84 24 f8 03 00 	mov    %r8d,0x3f8(%rsp)
  401fe9:	00 
  401fea:	4c 89 8c 24 20 04 00 	mov    %r9,0x420(%rsp)
  401ff1:	00 
  401ff2:	44 89 94 24 28 04 00 	mov    %r10d,0x428(%rsp)
  401ff9:	00 
  401ffa:	4c 89 f7             	mov    %r14,%rdi
  401ffd:	31 f6                	xor    %esi,%esi
  401fff:	48 8b 94 24 30 04 00 	mov    0x430(%rsp),%rdx
  402006:	00 
  402007:	e8 74 f2 00 00       	callq  411280 <__intel_mic_avx512f_memset>
  40200c:	41 83 c7 01          	add    $0x1,%r15d
  402010:	4c 01 e3             	add    %r12,%rbx
  402013:	4f 8d 34 e6          	lea    (%r14,%r12,8),%r14
  402017:	45 39 ef             	cmp    %r13d,%r15d
  40201a:	0f 83 d6 00 00 00    	jae    4020f6 <main+0x7c6>
  402020:	83 bc 24 28 04 00 00 	cmpl   $0xc,0x428(%rsp)
  402027:	0c 
  402028:	7f d0                	jg     401ffa <main+0x6ca>
  40202a:	c5 fe 6f 05 ce 23 01 	vmovdqu 0x123ce(%rip),%ymm0        # 414400 <_IO_stdin_used+0xc0>
  402031:	00 
  402032:	c5 fe 6f 8c 24 00 04 	vmovdqu 0x400(%rsp),%ymm1
  402039:	00 00 
  40203b:	62 f1 ed 48 ef d2    	vpxorq %zmm2,%zmm2,%zmm2
  402041:	48 8b b4 24 f0 03 00 	mov    0x3f0(%rsp),%rsi
  402048:	00 
  402049:	44 8b 84 24 f8 03 00 	mov    0x3f8(%rsp),%r8d
  402050:	00 
  402051:	4c 8b 8c 24 20 04 00 	mov    0x420(%rsp),%r9
  402058:	00 
  402059:	44 8b 94 24 28 04 00 	mov    0x428(%rsp),%r10d
  402060:	00 
  402061:	48 8b 0c 24          	mov    (%rsp),%rcx
  402065:	41 83 fa 08          	cmp    $0x8,%r10d
  402069:	0f 8c c3 13 00 00    	jl     403432 <main+0x1b02>
  40206f:	44 89 c0             	mov    %r8d,%eax
  402072:	45 31 db             	xor    %r11d,%r11d
  402075:	49 8d 14 d9          	lea    (%r9,%rbx,8),%rdx
  402079:	62 b1 fd 48 11 14 da 	vmovupd %zmm2,(%rdx,%r11,8)
  402080:	49 83 c3 08          	add    $0x8,%r11
  402084:	49 39 f3             	cmp    %rsi,%r11
  402087:	72 f0                	jb     402079 <main+0x749>
  402089:	8d 50 01             	lea    0x1(%rax),%edx
  40208c:	44 39 d2             	cmp    %r10d,%edx
  40208f:	77 51                	ja     4020e2 <main+0x7b2>
  402091:	45 89 d3             	mov    %r10d,%r11d
  402094:	ba ff 00 00 00       	mov    $0xff,%edx
  402099:	c5 fd 6f e0          	vmovdqa %ymm0,%ymm4
  40209d:	41 29 c3             	sub    %eax,%r11d
  4020a0:	48 63 c0             	movslq %eax,%rax
  4020a3:	c4 c1 79 6e db       	vmovd  %r11d,%xmm3
  4020a8:	4c 8d 1c 03          	lea    (%rbx,%rax,1),%r11
  4020ac:	48 f7 d8             	neg    %rax
  4020af:	c5 f8 92 ca          	kmovw  %edx,%k1
  4020b3:	c4 e2 7d 58 db       	vpbroadcastd %xmm3,%ymm3
  4020b8:	31 d2                	xor    %edx,%edx
  4020ba:	4b 8d 3c d9          	lea    (%r9,%r11,8),%rdi
  4020be:	48 01 c8             	add    %rcx,%rax
  4020c1:	45 31 db             	xor    %r11d,%r11d
  4020c4:	48 83 c2 08          	add    $0x8,%rdx
  4020c8:	62 f1 65 49 66 d4    	vpcmpgtd %zmm4,%zmm3,%k2{%k1}
  4020ce:	62 d1 fd 4a 11 14 3b 	vmovupd %zmm2,(%r11,%rdi,1){%k2}
  4020d5:	49 83 c3 40          	add    $0x40,%r11
  4020d9:	c5 dd fe e1          	vpaddd %ymm1,%ymm4,%ymm4
  4020dd:	48 39 c2             	cmp    %rax,%rdx
  4020e0:	72 e2                	jb     4020c4 <main+0x794>
  4020e2:	41 83 c7 01          	add    $0x1,%r15d
  4020e6:	4c 01 e3             	add    %r12,%rbx
  4020e9:	4f 8d 34 e6          	lea    (%r14,%r12,8),%r14
  4020ed:	45 39 ef             	cmp    %r13d,%r15d
  4020f0:	0f 82 c4 fe ff ff    	jb     401fba <main+0x68a>
  4020f6:	b8 28 00 00 00       	mov    $0x28,%eax
  4020fb:	48 c7 84 24 48 09 00 	movq   $0x617240,0x948(%rsp)
  402102:	00 40 72 61 00 
  402107:	48 8d bc 24 60 09 00 	lea    0x960(%rsp),%rdi
  40210e:	00 
  40210f:	89 84 24 58 09 00 00 	mov    %eax,0x958(%rsp)
  402116:	be 40 00 00 00       	mov    $0x40,%esi
  40211b:	89 84 24 50 09 00 00 	mov    %eax,0x950(%rsp)
  402122:	ba c0 12 00 00       	mov    $0x12c0,%edx
  402127:	c7 84 24 54 09 00 00 	movl   $0xf,0x954(%rsp)
  40212e:	0f 00 00 00 
  402132:	e8 89 f4 ff ff       	callq  4015c0 <posix_memalign@plt>
  402137:	44 8b ac 24 54 09 00 	mov    0x954(%rsp),%r13d
  40213e:	00 
  40213f:	45 31 ff             	xor    %r15d,%r15d
  402142:	45 85 ed             	test   %r13d,%r13d
  402145:	0f 8e 92 01 00 00    	jle    4022dd <main+0x9ad>
  40214b:	44 8b 94 24 50 09 00 	mov    0x950(%rsp),%r10d
  402152:	00 
  402153:	4c 8b 8c 24 60 09 00 	mov    0x960(%rsp),%r9
  40215a:	00 
  40215b:	b8 08 00 00 00       	mov    $0x8,%eax
  402160:	62 f1 ed 48 ef d2    	vpxorq %zmm2,%zmm2,%zmm2
  402166:	31 db                	xor    %ebx,%ebx
  402168:	c5 f9 6e c8          	vmovd  %eax,%xmm1
  40216c:	49 63 ca             	movslq %r10d,%rcx
  40216f:	45 89 d0             	mov    %r10d,%r8d
  402172:	4c 63 a4 24 58 09 00 	movslq 0x958(%rsp),%r12
  402179:	00 
  40217a:	c5 fe 6f 05 7e 22 01 	vmovdqu 0x1227e(%rip),%ymm0        # 414400 <_IO_stdin_used+0xc0>
  402181:	00 
  402182:	41 83 e0 f8          	and    $0xfffffff8,%r8d
  402186:	4d 89 ce             	mov    %r9,%r14
  402189:	48 8d 04 cd 00 00 00 	lea    0x0(,%rcx,8),%rax
  402190:	00 
  402191:	48 89 84 24 30 04 00 	mov    %rax,0x430(%rsp)
  402198:	00 
  402199:	c4 e2 7d 58 c9       	vpbroadcastd %xmm1,%ymm1
  40219e:	49 63 f0             	movslq %r8d,%rsi
  4021a1:	45 85 d2             	test   %r10d,%r10d
  4021a4:	0f 8e 1f 01 00 00    	jle    4022c9 <main+0x999>
  4021aa:	41 83 fa 0c          	cmp    $0xc,%r10d
  4021ae:	0f 8e 98 00 00 00    	jle    40224c <main+0x91c>
  4021b4:	c5 fe 7f 8c 24 00 04 	vmovdqu %ymm1,0x400(%rsp)
  4021bb:	00 00 
  4021bd:	48 89 0c 24          	mov    %rcx,(%rsp)
  4021c1:	48 89 b4 24 f0 03 00 	mov    %rsi,0x3f0(%rsp)
  4021c8:	00 
  4021c9:	44 89 84 24 f8 03 00 	mov    %r8d,0x3f8(%rsp)
  4021d0:	00 
  4021d1:	4c 89 8c 24 20 04 00 	mov    %r9,0x420(%rsp)
  4021d8:	00 
  4021d9:	44 89 94 24 28 04 00 	mov    %r10d,0x428(%rsp)
  4021e0:	00 
  4021e1:	4c 89 f7             	mov    %r14,%rdi
  4021e4:	31 f6                	xor    %esi,%esi
  4021e6:	48 8b 94 24 30 04 00 	mov    0x430(%rsp),%rdx
  4021ed:	00 
  4021ee:	e8 8d f0 00 00       	callq  411280 <__intel_mic_avx512f_memset>
  4021f3:	41 83 c7 01          	add    $0x1,%r15d
  4021f7:	4c 01 e3             	add    %r12,%rbx
  4021fa:	4f 8d 34 e6          	lea    (%r14,%r12,8),%r14
  4021fe:	45 39 ef             	cmp    %r13d,%r15d
  402201:	0f 83 d6 00 00 00    	jae    4022dd <main+0x9ad>
  402207:	83 bc 24 28 04 00 00 	cmpl   $0xc,0x428(%rsp)
  40220e:	0c 
  40220f:	7f d0                	jg     4021e1 <main+0x8b1>
  402211:	c5 fe 6f 05 e7 21 01 	vmovdqu 0x121e7(%rip),%ymm0        # 414400 <_IO_stdin_used+0xc0>
  402218:	00 
  402219:	c5 fe 6f 8c 24 00 04 	vmovdqu 0x400(%rsp),%ymm1
  402220:	00 00 
  402222:	62 f1 ed 48 ef d2    	vpxorq %zmm2,%zmm2,%zmm2
  402228:	48 8b b4 24 f0 03 00 	mov    0x3f0(%rsp),%rsi
  40222f:	00 
  402230:	44 8b 84 24 f8 03 00 	mov    0x3f8(%rsp),%r8d
  402237:	00 
  402238:	4c 8b 8c 24 20 04 00 	mov    0x420(%rsp),%r9
  40223f:	00 
  402240:	44 8b 94 24 28 04 00 	mov    0x428(%rsp),%r10d
  402247:	00 
  402248:	48 8b 0c 24          	mov    (%rsp),%rcx
  40224c:	41 83 fa 08          	cmp    $0x8,%r10d
  402250:	0f 8c d5 11 00 00    	jl     40342b <main+0x1afb>
  402256:	44 89 c0             	mov    %r8d,%eax
  402259:	45 31 db             	xor    %r11d,%r11d
  40225c:	49 8d 14 d9          	lea    (%r9,%rbx,8),%rdx
  402260:	62 b1 fd 48 11 14 da 	vmovupd %zmm2,(%rdx,%r11,8)
  402267:	49 83 c3 08          	add    $0x8,%r11
  40226b:	49 39 f3             	cmp    %rsi,%r11
  40226e:	72 f0                	jb     402260 <main+0x930>
  402270:	8d 50 01             	lea    0x1(%rax),%edx
  402273:	44 39 d2             	cmp    %r10d,%edx
  402276:	77 51                	ja     4022c9 <main+0x999>
  402278:	45 89 d3             	mov    %r10d,%r11d
  40227b:	ba ff 00 00 00       	mov    $0xff,%edx
  402280:	c5 fd 6f e0          	vmovdqa %ymm0,%ymm4
  402284:	41 29 c3             	sub    %eax,%r11d
  402287:	48 63 c0             	movslq %eax,%rax
  40228a:	c4 c1 79 6e db       	vmovd  %r11d,%xmm3
  40228f:	4c 8d 1c 03          	lea    (%rbx,%rax,1),%r11
  402293:	48 f7 d8             	neg    %rax
  402296:	c5 f8 92 ca          	kmovw  %edx,%k1
  40229a:	c4 e2 7d 58 db       	vpbroadcastd %xmm3,%ymm3
  40229f:	31 d2                	xor    %edx,%edx
  4022a1:	4b 8d 3c d9          	lea    (%r9,%r11,8),%rdi
  4022a5:	48 01 c8             	add    %rcx,%rax
  4022a8:	45 31 db             	xor    %r11d,%r11d
  4022ab:	48 83 c2 08          	add    $0x8,%rdx
  4022af:	62 f1 65 49 66 d4    	vpcmpgtd %zmm4,%zmm3,%k2{%k1}
  4022b5:	62 d1 fd 4a 11 14 3b 	vmovupd %zmm2,(%r11,%rdi,1){%k2}
  4022bc:	49 83 c3 40          	add    $0x40,%r11
  4022c0:	c5 dd fe e1          	vpaddd %ymm1,%ymm4,%ymm4
  4022c4:	48 39 c2             	cmp    %rax,%rdx
  4022c7:	72 e2                	jb     4022ab <main+0x97b>
  4022c9:	41 83 c7 01          	add    $0x1,%r15d
  4022cd:	4c 01 e3             	add    %r12,%rbx
  4022d0:	4f 8d 34 e6          	lea    (%r14,%r12,8),%r14
  4022d4:	45 39 ef             	cmp    %r13d,%r15d
  4022d7:	0f 82 c4 fe ff ff    	jb     4021a1 <main+0x871>
  4022dd:	8b 84 24 b4 08 00 00 	mov    0x8b4(%rsp),%eax
  4022e4:	89 04 24             	mov    %eax,(%rsp)
  4022e7:	44 8b b4 24 b0 08 00 	mov    0x8b0(%rsp),%r14d
  4022ee:	00 
  4022ef:	31 db                	xor    %ebx,%ebx
  4022f1:	44 8b bc 24 14 09 00 	mov    0x914(%rsp),%r15d
  4022f8:	00 
  4022f9:	85 c0                	test   %eax,%eax
  4022fb:	0f 8e c5 00 00 00    	jle    4023c6 <main+0xa96>
  402301:	45 31 e4             	xor    %r12d,%r12d
  402304:	45 85 ff             	test   %r15d,%r15d
  402307:	0f 8e ad 00 00 00    	jle    4023ba <main+0xa8a>
  40230d:	45 31 ed             	xor    %r13d,%r13d
  402310:	45 85 f6             	test   %r14d,%r14d
  402313:	0f 8e 94 00 00 00    	jle    4023ad <main+0xa7d>
  402319:	48 8b 84 24 a8 08 00 	mov    0x8a8(%rsp),%rax
  402320:	00 
  402321:	48 8d bc 24 a8 08 00 	lea    0x8a8(%rsp),%rdi
  402328:	00 
  402329:	44 89 ee             	mov    %r13d,%esi
  40232c:	89 da                	mov    %ebx,%edx
  40232e:	ff 10                	callq  *(%rax)
  402330:	c5 fb 11 84 24 f8 03 	vmovsd %xmm0,0x3f8(%rsp)
  402337:	00 00 
  402339:	48 8b 84 24 08 09 00 	mov    0x908(%rsp),%rax
  402340:	00 
  402341:	48 8d bc 24 08 09 00 	lea    0x908(%rsp),%rdi
  402348:	00 
  402349:	44 89 ee             	mov    %r13d,%esi
  40234c:	44 89 e2             	mov    %r12d,%edx
  40234f:	ff 10                	callq  *(%rax)
  402351:	c5 fb 11 84 24 f0 03 	vmovsd %xmm0,0x3f0(%rsp)
  402358:	00 00 
  40235a:	48 8b 84 24 28 09 00 	mov    0x928(%rsp),%rax
  402361:	00 
  402362:	48 8d bc 24 28 09 00 	lea    0x928(%rsp),%rdi
  402369:	00 
  40236a:	44 89 e6             	mov    %r12d,%esi
  40236d:	89 da                	mov    %ebx,%edx
  40236f:	ff 10                	callq  *(%rax)
  402371:	c5 f9 28 c8          	vmovapd %xmm0,%xmm1
  402375:	c5 fb 10 84 24 f8 03 	vmovsd 0x3f8(%rsp),%xmm0
  40237c:	00 00 
  40237e:	48 8b 84 24 a8 08 00 	mov    0x8a8(%rsp),%rax
  402385:	00 
  402386:	44 89 ee             	mov    %r13d,%esi
  402389:	89 da                	mov    %ebx,%edx
  40238b:	48 8d bc 24 a8 08 00 	lea    0x8a8(%rsp),%rdi
  402392:	00 
  402393:	c4 e2 f1 b9 84 24 f0 	vfmadd231sd 0x3f0(%rsp),%xmm1,%xmm0
  40239a:	03 00 00 
  40239d:	ff 50 08             	callq  *0x8(%rax)
  4023a0:	41 83 c5 01          	add    $0x1,%r13d
  4023a4:	45 39 f5             	cmp    %r14d,%r13d
  4023a7:	0f 8c 6c ff ff ff    	jl     402319 <main+0x9e9>
  4023ad:	41 83 c4 01          	add    $0x1,%r12d
  4023b1:	45 39 fc             	cmp    %r15d,%r12d
  4023b4:	0f 8c 53 ff ff ff    	jl     40230d <main+0x9dd>
  4023ba:	83 c3 01             	add    $0x1,%ebx
  4023bd:	3b 1c 24             	cmp    (%rsp),%ebx
  4023c0:	0f 8c 3b ff ff ff    	jl     402301 <main+0x9d1>
  4023c6:	48 8b bc 24 20 09 00 	mov    0x920(%rsp),%rdi
  4023cd:	00 
  4023ce:	48 8b b4 24 40 09 00 	mov    0x940(%rsp),%rsi
  4023d5:	00 
  4023d6:	48 8b 94 24 60 09 00 	mov    0x960(%rsp),%rdx
  4023dd:	00 
  4023de:	e8 3d c2 00 00       	callq  40e620 <_Z7libxsmmPKdS0_Pd>
  4023e3:	48 8d bc 24 a8 08 00 	lea    0x8a8(%rsp),%rdi
  4023ea:	00 
  4023eb:	48 8d b4 24 48 09 00 	lea    0x948(%rsp),%rsi
  4023f2:	00 
  4023f3:	e8 58 10 00 00       	callq  403450 <_Z13assert_equalsRK6MatrixS1_>
  4023f8:	bf 01 00 00 00       	mov    $0x1,%edi
  4023fd:	48 8d b4 24 d8 07 00 	lea    0x7d8(%rsp),%rsi
  402404:	00 
  402405:	e8 e6 f2 ff ff       	callq  4016f0 <clock_gettime@plt>
  40240a:	31 db                	xor    %ebx,%ebx
  40240c:	48 8b bc 24 20 09 00 	mov    0x920(%rsp),%rdi
  402413:	00 
  402414:	48 8b b4 24 40 09 00 	mov    0x940(%rsp),%rsi
  40241b:	00 
  40241c:	48 8b 94 24 60 09 00 	mov    0x960(%rsp),%rdx
  402423:	00 
  402424:	e8 f7 c1 00 00       	callq  40e620 <_Z7libxsmmPKdS0_Pd>
  402429:	83 c3 01             	add    $0x1,%ebx
  40242c:	81 fb b8 0b 00 00    	cmp    $0xbb8,%ebx
  402432:	7c d8                	jl     40240c <main+0xadc>
  402434:	bf 01 00 00 00       	mov    $0x1,%edi
  402439:	48 8d b4 24 e8 07 00 	lea    0x7e8(%rsp),%rsi
  402440:	00 
  402441:	e8 aa f2 ff ff       	callq  4016f0 <clock_gettime@plt>
  402446:	bf c0 7a 61 00       	mov    $0x617ac0,%edi
  40244b:	be a8 44 41 00       	mov    $0x4144a8,%esi
  402450:	e8 cb f1 ff ff       	callq  401620 <_ZStlsISt11char_traitsIcEERSt13basic_ostreamIcT_ES5_PKc@plt>
  402455:	48 89 c7             	mov    %rax,%rdi
  402458:	48 8b 84 24 e8 07 00 	mov    0x7e8(%rsp),%rax
  40245f:	00 
  402460:	62 e3 d5 00 27 2d d5 	vgetmantsd $0x0,0x11fd5(%rip),%xmm21,%xmm21        # 414440 <_IO_stdin_used+0x100>
  402467:	1f 01 00 00 
  40246b:	62 e1 ff 08 11 ac 24 	vmovsd %xmm21,0x848(%rsp)
  402472:	48 08 00 00 
  402476:	48 2b 84 24 d8 07 00 	sub    0x7d8(%rsp),%rax
  40247d:	00 
  40247e:	62 a2 d5 00 cb e5    	vrcp28sd %xmm21,%xmm21,%xmm20
  402484:	62 e1 ff 08 11 a4 24 	vmovsd %xmm20,0x850(%rsp)
  40248b:	50 08 00 00 
  40248f:	48 69 d0 00 ca 9a 3b 	imul   $0x3b9aca00,%rax,%rdx
  402496:	62 e1 ff 08 10 3d b0 	vmovsd 0x11fb0(%rip),%xmm23        # 414450 <_IO_stdin_used+0x110>
  40249d:	1f 01 00 
  4024a0:	48 03 94 24 f0 07 00 	add    0x7f0(%rsp),%rdx
  4024a7:	00 
  4024a8:	62 a2 dd 10 bd fd    	vfnmadd231sd {rn-sae},%xmm21,%xmm20,%xmm23
  4024ae:	62 e2 e5 00 43 1d 88 	vgetexpsd 0x11f88(%rip),%xmm19,%xmm19        # 414440 <_IO_stdin_used+0x100>
  4024b5:	1f 01 00 
  4024b8:	48 2b 94 24 e0 07 00 	sub    0x7e0(%rsp),%rdx
  4024bf:	00 
  4024c0:	62 e1 ff 00 2a c2    	vcvtsi2sd %rdx,%xmm16,%xmm16
  4024c6:	62 e1 ff 00 59 0d 68 	vmulsd 0x11f68(%rip),%xmm16,%xmm17        # 414438 <_IO_stdin_used+0xf8>
  4024cd:	1f 01 00 
  4024d0:	62 a2 dd 10 99 fc    	vfmadd132sd {rn-sae},%xmm20,%xmm20,%xmm23
  4024d6:	62 e1 ff 08 11 bc 24 	vmovsd %xmm23,0x858(%rsp)
  4024dd:	58 08 00 00 
  4024e1:	62 a3 f5 00 27 f1 00 	vgetmantsd $0x0,%xmm17,%xmm17,%xmm22
  4024e8:	62 a2 f5 00 43 d1    	vgetexpsd %xmm17,%xmm17,%xmm18
  4024ee:	62 21 df 10 59 c6    	vmulsd {rn-sae},%xmm22,%xmm20,%xmm24
  4024f4:	62 21 ef 00 5c cb    	vsubsd %xmm19,%xmm18,%xmm25
  4024fa:	62 a2 bd 10 bd f5    	vfnmadd231sd {rn-sae},%xmm21,%xmm24,%xmm22
  402500:	62 22 cd 10 b9 c7    	vfmadd231sd {rn-sae},%xmm23,%xmm22,%xmm24
  402506:	62 92 bd 00 2d c1    	vscalefsd %xmm25,%xmm24,%xmm0
  40250c:	e8 cf f2 ff ff       	callq  4017e0 <_ZNSolsEd@plt>
  402511:	48 89 c7             	mov    %rax,%rdi
  402514:	be a0 15 40 00       	mov    $0x4015a0,%esi
  402519:	e8 32 f1 ff ff       	callq  401650 <_ZNSolsEPFRSoS_E@plt>
  40251e:	48 8b bc 24 60 09 00 	mov    0x960(%rsp),%rdi
  402525:	00 
  402526:	48 c7 84 24 48 09 00 	movq   $0x617240,0x948(%rsp)
  40252d:	00 40 72 61 00 
  402532:	e8 79 f1 ff ff       	callq  4016b0 <free@plt>
  402537:	48 8b bc 24 c0 08 00 	mov    0x8c0(%rsp),%rdi
  40253e:	00 
  40253f:	48 c7 84 24 a8 08 00 	movq   $0x617240,0x8a8(%rsp)
  402546:	00 40 72 61 00 
  40254b:	e8 60 f1 ff ff       	callq  4016b0 <free@plt>
  402550:	48 8b bc 24 40 09 00 	mov    0x940(%rsp),%rdi
  402557:	00 
  402558:	48 c7 84 24 28 09 00 	movq   $0x617240,0x928(%rsp)
  40255f:	00 40 72 61 00 
  402564:	e8 47 f1 ff ff       	callq  4016b0 <free@plt>
  402569:	48 8b bc 24 20 09 00 	mov    0x920(%rsp),%rdi
  402570:	00 
  402571:	48 c7 84 24 08 09 00 	movq   $0x617240,0x908(%rsp)
  402578:	00 40 72 61 00 
  40257d:	e8 2e f1 ff ff       	callq  4016b0 <free@plt>
  402582:	b8 28 00 00 00       	mov    $0x28,%eax
  402587:	48 c7 84 24 68 09 00 	movq   $0x617240,0x968(%rsp)
  40258e:	00 40 72 61 00 
  402593:	48 8d bc 24 80 09 00 	lea    0x980(%rsp),%rdi
  40259a:	00 
  40259b:	89 84 24 78 09 00 00 	mov    %eax,0x978(%rsp)
  4025a2:	be 40 00 00 00       	mov    $0x40,%esi
  4025a7:	89 84 24 70 09 00 00 	mov    %eax,0x970(%rsp)
  4025ae:	ba 40 0b 00 00       	mov    $0xb40,%edx
  4025b3:	c7 84 24 74 09 00 00 	movl   $0x9,0x974(%rsp)
  4025ba:	09 00 00 00 
  4025be:	e8 fd ef ff ff       	callq  4015c0 <posix_memalign@plt>
  4025c3:	8b 84 24 74 09 00 00 	mov    0x974(%rsp),%eax
  4025ca:	45 31 e4             	xor    %r12d,%r12d
  4025cd:	85 c0                	test   %eax,%eax
  4025cf:	0f 8e c9 02 00 00    	jle    40289e <main+0xf6e>
  4025d5:	44 8b 84 24 70 09 00 	mov    0x970(%rsp),%r8d
  4025dc:	00 
  4025dd:	44 8b 8c 24 78 09 00 	mov    0x978(%rsp),%r9d
  4025e4:	00 
  4025e5:	ba 08 00 00 00       	mov    $0x8,%edx
  4025ea:	62 f1 ed 48 ef d2    	vpxorq %zmm2,%zmm2,%zmm2
  4025f0:	45 31 ff             	xor    %r15d,%r15d
  4025f3:	c5 f9 6e ca          	vmovd  %edx,%xmm1
  4025f7:	31 db                	xor    %ebx,%ebx
  4025f9:	44 89 c6             	mov    %r8d,%esi
  4025fc:	49 63 f8             	movslq %r8d,%rdi
  4025ff:	4c 8b b4 24 80 09 00 	mov    0x980(%rsp),%r14
  402606:	00 
  402607:	c5 fe 6f 05 f1 1d 01 	vmovdqu 0x11df1(%rip),%ymm0        # 414400 <_IO_stdin_used+0xc0>
  40260e:	00 
  40260f:	83 e6 f8             	and    $0xfffffff8,%esi
  402612:	4d 63 e9             	movslq %r9d,%r13
  402615:	48 63 ce             	movslq %esi,%rcx
  402618:	48 89 8c 24 30 04 00 	mov    %rcx,0x430(%rsp)
  40261f:	00 
  402620:	48 8d 14 fd 00 00 00 	lea    0x0(,%rdi,8),%rdx
  402627:	00 
  402628:	48 89 94 24 28 04 00 	mov    %rdx,0x428(%rsp)
  40262f:	00 
  402630:	c4 e2 7d 58 c9       	vpbroadcastd %xmm1,%ymm1
  402635:	45 85 c0             	test   %r8d,%r8d
  402638:	0f 8e 2f 01 00 00    	jle    40276d <main+0xe3d>
  40263e:	41 83 f8 0c          	cmp    $0xc,%r8d
  402642:	0f 8e a1 00 00 00    	jle    4026e9 <main+0xdb9>
  402648:	c5 fe 7f 8c 24 00 04 	vmovdqu %ymm1,0x400(%rsp)
  40264f:	00 00 
  402651:	48 89 3c 24          	mov    %rdi,(%rsp)
  402655:	89 b4 24 f0 03 00 00 	mov    %esi,0x3f0(%rsp)
  40265c:	44 89 84 24 f8 03 00 	mov    %r8d,0x3f8(%rsp)
  402663:	00 
  402664:	44 89 8c 24 38 04 00 	mov    %r9d,0x438(%rsp)
  40266b:	00 
  40266c:	89 84 24 20 04 00 00 	mov    %eax,0x420(%rsp)
  402673:	4d 63 ff             	movslq %r15d,%r15
  402676:	31 f6                	xor    %esi,%esi
  402678:	48 8b 94 24 28 04 00 	mov    0x428(%rsp),%rdx
  40267f:	00 
  402680:	4b 8d 3c fe          	lea    (%r14,%r15,8),%rdi
  402684:	e8 f7 eb 00 00       	callq  411280 <__intel_mic_avx512f_memset>
  402689:	41 83 c4 01          	add    $0x1,%r12d
  40268d:	4c 01 eb             	add    %r13,%rbx
  402690:	44 03 bc 24 38 04 00 	add    0x438(%rsp),%r15d
  402697:	00 
  402698:	44 3b a4 24 20 04 00 	cmp    0x420(%rsp),%r12d
  40269f:	00 
  4026a0:	0f 83 3c 0d 00 00    	jae    4033e2 <main+0x1ab2>
  4026a6:	83 bc 24 f8 03 00 00 	cmpl   $0xc,0x3f8(%rsp)
  4026ad:	0c 
  4026ae:	7f c3                	jg     402673 <main+0xd43>
  4026b0:	c5 fe 6f 05 48 1d 01 	vmovdqu 0x11d48(%rip),%ymm0        # 414400 <_IO_stdin_used+0xc0>
  4026b7:	00 
  4026b8:	c5 fe 6f 8c 24 00 04 	vmovdqu 0x400(%rsp),%ymm1
  4026bf:	00 00 
  4026c1:	62 f1 ed 48 ef d2    	vpxorq %zmm2,%zmm2,%zmm2
  4026c7:	8b b4 24 f0 03 00 00 	mov    0x3f0(%rsp),%esi
  4026ce:	44 8b 84 24 f8 03 00 	mov    0x3f8(%rsp),%r8d
  4026d5:	00 
  4026d6:	44 8b 8c 24 38 04 00 	mov    0x438(%rsp),%r9d
  4026dd:	00 
  4026de:	8b 84 24 20 04 00 00 	mov    0x420(%rsp),%eax
  4026e5:	48 8b 3c 24          	mov    (%rsp),%rdi
  4026e9:	41 83 f8 08          	cmp    $0x8,%r8d
  4026ed:	0f 8c e8 0c 00 00    	jl     4033db <main+0x1aab>
  4026f3:	89 f2                	mov    %esi,%edx
  4026f5:	45 31 d2             	xor    %r10d,%r10d
  4026f8:	49 8d 0c de          	lea    (%r14,%rbx,8),%rcx
  4026fc:	4c 8b 9c 24 30 04 00 	mov    0x430(%rsp),%r11
  402703:	00 
  402704:	62 b1 fd 48 11 14 d1 	vmovupd %zmm2,(%rcx,%r10,8)
  40270b:	49 83 c2 08          	add    $0x8,%r10
  40270f:	4d 39 da             	cmp    %r11,%r10
  402712:	72 f0                	jb     402704 <main+0xdd4>
  402714:	8d 4a 01             	lea    0x1(%rdx),%ecx
  402717:	44 39 c1             	cmp    %r8d,%ecx
  40271a:	77 51                	ja     40276d <main+0xe3d>
  40271c:	45 89 c2             	mov    %r8d,%r10d
  40271f:	b9 ff 00 00 00       	mov    $0xff,%ecx
  402724:	c5 fd 6f e0          	vmovdqa %ymm0,%ymm4
  402728:	41 29 d2             	sub    %edx,%r10d
  40272b:	48 63 d2             	movslq %edx,%rdx
  40272e:	c4 c1 79 6e da       	vmovd  %r10d,%xmm3
  402733:	4c 8d 1c 13          	lea    (%rbx,%rdx,1),%r11
  402737:	48 f7 da             	neg    %rdx
  40273a:	c5 f8 92 c9          	kmovw  %ecx,%k1
  40273e:	c4 e2 7d 58 db       	vpbroadcastd %xmm3,%ymm3
  402743:	31 c9                	xor    %ecx,%ecx
  402745:	4f 8d 1c de          	lea    (%r14,%r11,8),%r11
  402749:	48 01 fa             	add    %rdi,%rdx
  40274c:	45 31 d2             	xor    %r10d,%r10d
  40274f:	48 83 c1 08          	add    $0x8,%rcx
  402753:	62 f1 65 49 66 d4    	vpcmpgtd %zmm4,%zmm3,%k2{%k1}
  402759:	62 91 fd 4a 11 14 1a 	vmovupd %zmm2,(%r10,%r11,1){%k2}
  402760:	49 83 c2 40          	add    $0x40,%r10
  402764:	c5 dd fe e1          	vpaddd %ymm1,%ymm4,%ymm4
  402768:	48 39 d1             	cmp    %rdx,%rcx
  40276b:	72 e2                	jb     40274f <main+0xe1f>
  40276d:	41 83 c4 01          	add    $0x1,%r12d
  402771:	4c 01 eb             	add    %r13,%rbx
  402774:	45 01 cf             	add    %r9d,%r15d
  402777:	41 39 c4             	cmp    %eax,%r12d
  40277a:	0f 82 b5 fe ff ff    	jb     402635 <main+0xd05>
  402780:	c5 fb 10 05 a8 1c 01 	vmovsd 0x11ca8(%rip),%xmm0        # 414430 <_IO_stdin_used+0xf0>
  402787:	00 
  402788:	31 c9                	xor    %ecx,%ecx
  40278a:	8b 94 24 78 09 00 00 	mov    0x978(%rsp),%edx
  402791:	31 db                	xor    %ebx,%ebx
  402793:	4c 63 b4 24 70 09 00 	movslq 0x970(%rsp),%r14
  40279a:	00 
  40279b:	4c 8b bc 24 80 09 00 	mov    0x980(%rsp),%r15
  4027a2:	00 
  4027a3:	45 31 e4             	xor    %r12d,%r12d
  4027a6:	4d 85 f6             	test   %r14,%r14
  4027a9:	0f 8e e2 00 00 00    	jle    402891 <main+0xf61>
  4027af:	62 f3 fd 08 27 e0 00 	vgetmantsd $0x0,%xmm0,%xmm0,%xmm4
  4027b6:	89 94 24 f0 03 00 00 	mov    %edx,0x3f0(%rsp)
  4027bd:	c5 fb 10 0d 8b 1c 01 	vmovsd 0x11c8b(%rip),%xmm1        # 414450 <_IO_stdin_used+0x110>
  4027c4:	00 
  4027c5:	89 0c 24             	mov    %ecx,(%rsp)
  4027c8:	62 f2 fd 08 43 d8    	vgetexpsd %xmm0,%xmm0,%xmm3
  4027ce:	89 84 24 20 04 00 00 	mov    %eax,0x420(%rsp)
  4027d5:	48 63 db             	movslq %ebx,%rbx
  4027d8:	c5 fb 11 a4 24 10 04 	vmovsd %xmm4,0x410(%rsp)
  4027df:	00 00 
  4027e1:	62 f2 dd 08 cb d4    	vrcp28sd %xmm4,%xmm4,%xmm2
  4027e7:	c5 fb 11 9c 24 f8 03 	vmovsd %xmm3,0x3f8(%rsp)
  4027ee:	00 00 
  4027f0:	4d 8d 2c df          	lea    (%r15,%rbx,8),%r13
  4027f4:	c5 fb 11 94 24 08 04 	vmovsd %xmm2,0x408(%rsp)
  4027fb:	00 00 
  4027fd:	62 f2 ed 18 bd cc    	vfnmadd231sd {rn-sae},%xmm4,%xmm2,%xmm1
  402803:	62 f2 ed 18 99 ca    	vfmadd132sd {rn-sae},%xmm2,%xmm2,%xmm1
  402809:	c5 fb 11 8c 24 00 04 	vmovsd %xmm1,0x400(%rsp)
  402810:	00 00 
  402812:	e8 39 ed ff ff       	callq  401550 <rand@plt>
  402817:	c5 f9 57 c0          	vxorpd %xmm0,%xmm0,%xmm0
  40281b:	c5 fb 2a c0          	vcvtsi2sd %eax,%xmm0,%xmm0
  40281f:	c5 fb 10 94 24 08 04 	vmovsd 0x408(%rsp),%xmm2
  402826:	00 00 
  402828:	c5 fb 10 9c 24 10 04 	vmovsd 0x410(%rsp),%xmm3
  40282f:	00 00 
  402831:	62 f3 fd 08 27 e0 00 	vgetmantsd $0x0,%xmm0,%xmm0,%xmm4
  402838:	62 f2 fd 08 43 c8    	vgetexpsd %xmm0,%xmm0,%xmm1
  40283e:	c5 fb 10 ac 24 00 04 	vmovsd 0x400(%rsp),%xmm5
  402845:	00 00 
  402847:	62 f1 ef 18 59 f4    	vmulsd {rn-sae},%xmm4,%xmm2,%xmm6
  40284d:	c5 f3 5c bc 24 f8 03 	vsubsd 0x3f8(%rsp),%xmm1,%xmm7
  402854:	00 00 
  402856:	62 f2 cd 18 bd e3    	vfnmadd231sd {rn-sae},%xmm3,%xmm6,%xmm4
  40285c:	62 f2 dd 18 b9 f5    	vfmadd231sd {rn-sae},%xmm5,%xmm4,%xmm6
  402862:	62 72 cd 08 2d c7    	vscalefsd %xmm7,%xmm6,%xmm8
  402868:	c4 01 7b 11 44 e5 00 	vmovsd %xmm8,0x0(%r13,%r12,8)
  40286f:	49 83 c4 01          	add    $0x1,%r12
  402873:	4d 39 f4             	cmp    %r14,%r12
  402876:	72 9a                	jb     402812 <main+0xee2>
  402878:	c5 fb 10 05 b0 1b 01 	vmovsd 0x11bb0(%rip),%xmm0        # 414430 <_IO_stdin_used+0xf0>
  40287f:	00 
  402880:	8b 94 24 f0 03 00 00 	mov    0x3f0(%rsp),%edx
  402887:	8b 84 24 20 04 00 00 	mov    0x420(%rsp),%eax
  40288e:	8b 0c 24             	mov    (%rsp),%ecx
  402891:	83 c1 01             	add    $0x1,%ecx
  402894:	01 d3                	add    %edx,%ebx
  402896:	39 c1                	cmp    %eax,%ecx
  402898:	0f 82 05 ff ff ff    	jb     4027a3 <main+0xe73>
  40289e:	bf 58 44 41 00       	mov    $0x414458,%edi
  4028a3:	48 c7 84 24 c8 08 00 	movq   $0x617240,0x8c8(%rsp)
  4028aa:	00 40 72 61 00 
  4028af:	be 8c 44 41 00       	mov    $0x41448c,%esi
  4028b4:	e8 e7 ed ff ff       	callq  4016a0 <fopen@plt>
  4028b9:	49 89 c7             	mov    %rax,%r15
  4028bc:	48 8d bc 24 f0 03 00 	lea    0x3f0(%rsp),%rdi
  4028c3:	00 
  4028c4:	be e8 03 00 00       	mov    $0x3e8,%esi
  4028c9:	4c 89 fa             	mov    %r15,%rdx
  4028cc:	e8 5f ee ff ff       	callq  401730 <fgets@plt>
  4028d1:	48 8d bc 24 f0 03 00 	lea    0x3f0(%rsp),%rdi
  4028d8:	00 
  4028d9:	be e8 03 00 00       	mov    $0x3e8,%esi
  4028de:	4c 89 fa             	mov    %r15,%rdx
  4028e1:	e8 4a ee ff ff       	callq  401730 <fgets@plt>
  4028e6:	4c 89 ff             	mov    %r15,%rdi
  4028e9:	be 90 44 41 00       	mov    $0x414490,%esi
  4028ee:	48 8d 94 24 d0 08 00 	lea    0x8d0(%rsp),%rdx
  4028f5:	00 
  4028f6:	48 8d 8c 24 d4 08 00 	lea    0x8d4(%rsp),%rcx
  4028fd:	00 
  4028fe:	4c 8d 84 24 9c 08 00 	lea    0x89c(%rsp),%r8
  402905:	00 
  402906:	31 c0                	xor    %eax,%eax
  402908:	e8 e3 ee ff ff       	callq  4017f0 <fscanf@plt>
  40290d:	8b 84 24 d0 08 00 00 	mov    0x8d0(%rsp),%eax
  402914:	89 84 24 d8 08 00 00 	mov    %eax,0x8d8(%rsp)
  40291b:	8b 94 24 d4 08 00 00 	mov    0x8d4(%rsp),%edx
  402922:	be 40 00 00 00       	mov    $0x40,%esi
  402927:	48 8d bc 24 e0 08 00 	lea    0x8e0(%rsp),%rdi
  40292e:	00 
  40292f:	0f af d0             	imul   %eax,%edx
  402932:	48 63 d2             	movslq %edx,%rdx
  402935:	48 c1 e2 03          	shl    $0x3,%rdx
  402939:	e8 82 ec ff ff       	callq  4015c0 <posix_memalign@plt>
  40293e:	8b 84 24 d4 08 00 00 	mov    0x8d4(%rsp),%eax
  402945:	45 31 f6             	xor    %r14d,%r14d
  402948:	85 c0                	test   %eax,%eax
  40294a:	0f 8e 9e 01 00 00    	jle    402aee <main+0x11be>
  402950:	8b 8c 24 d0 08 00 00 	mov    0x8d0(%rsp),%ecx
  402957:	4c 89 3c 24          	mov    %r15,(%rsp)
  40295b:	bb 08 00 00 00       	mov    $0x8,%ebx
  402960:	62 f1 ed 48 ef d2    	vpxorq %zmm2,%zmm2,%zmm2
  402966:	41 89 c7             	mov    %eax,%r15d
  402969:	48 8b b4 24 e0 08 00 	mov    0x8e0(%rsp),%rsi
  402970:	00 
  402971:	c5 f9 6e cb          	vmovd  %ebx,%xmm1
  402975:	31 db                	xor    %ebx,%ebx
  402977:	4c 63 d1             	movslq %ecx,%r10
  40297a:	41 89 c8             	mov    %ecx,%r8d
  40297d:	4c 63 ac 24 d8 08 00 	movslq 0x8d8(%rsp),%r13
  402984:	00 
  402985:	41 83 e0 f8          	and    $0xfffffff8,%r8d
  402989:	4e 8d 1c d5 00 00 00 	lea    0x0(,%r10,8),%r11
  402990:	00 
  402991:	4c 89 9c 24 88 08 00 	mov    %r11,0x888(%rsp)
  402998:	00 
  402999:	c5 fe 6f 05 5f 1a 01 	vmovdqu 0x11a5f(%rip),%ymm0        # 414400 <_IO_stdin_used+0xc0>
  4029a0:	00 
  4029a1:	49 89 f4             	mov    %rsi,%r12
  4029a4:	c4 e2 7d 58 c9       	vpbroadcastd %xmm1,%ymm1
  4029a9:	4d 63 c8             	movslq %r8d,%r9
  4029ac:	85 c9                	test   %ecx,%ecx
  4029ae:	0f 8e 22 01 00 00    	jle    402ad6 <main+0x11a6>
  4029b4:	83 f9 0c             	cmp    $0xc,%ecx
  4029b7:	0f 8e 9e 00 00 00    	jle    402a5b <main+0x112b>
  4029bd:	c5 fe 7f 8c 24 00 08 	vmovdqu %ymm1,0x800(%rsp)
  4029c4:	00 00 
  4029c6:	4c 89 94 24 f8 07 00 	mov    %r10,0x7f8(%rsp)
  4029cd:	00 
  4029ce:	4c 89 8c 24 60 08 00 	mov    %r9,0x860(%rsp)
  4029d5:	00 
  4029d6:	44 89 84 24 68 08 00 	mov    %r8d,0x868(%rsp)
  4029dd:	00 
  4029de:	48 89 b4 24 70 08 00 	mov    %rsi,0x870(%rsp)
  4029e5:	00 
  4029e6:	89 8c 24 78 08 00 00 	mov    %ecx,0x878(%rsp)
  4029ed:	4c 89 e7             	mov    %r12,%rdi
  4029f0:	31 f6                	xor    %esi,%esi
  4029f2:	48 8b 94 24 88 08 00 	mov    0x888(%rsp),%rdx
  4029f9:	00 
  4029fa:	e8 81 e8 00 00       	callq  411280 <__intel_mic_avx512f_memset>
  4029ff:	41 83 c6 01          	add    $0x1,%r14d
  402a03:	4c 01 eb             	add    %r13,%rbx
  402a06:	4f 8d 24 ec          	lea    (%r12,%r13,8),%r12
  402a0a:	45 39 fe             	cmp    %r15d,%r14d
  402a0d:	0f 83 d7 00 00 00    	jae    402aea <main+0x11ba>
  402a13:	83 bc 24 78 08 00 00 	cmpl   $0xc,0x878(%rsp)
  402a1a:	0c 
  402a1b:	7f d0                	jg     4029ed <main+0x10bd>
  402a1d:	c5 fe 6f 05 db 19 01 	vmovdqu 0x119db(%rip),%ymm0        # 414400 <_IO_stdin_used+0xc0>
  402a24:	00 
  402a25:	c5 fe 6f 8c 24 00 08 	vmovdqu 0x800(%rsp),%ymm1
  402a2c:	00 00 
  402a2e:	62 f1 ed 48 ef d2    	vpxorq %zmm2,%zmm2,%zmm2
  402a34:	4c 8b 94 24 f8 07 00 	mov    0x7f8(%rsp),%r10
  402a3b:	00 
  402a3c:	4c 8b 8c 24 60 08 00 	mov    0x860(%rsp),%r9
  402a43:	00 
  402a44:	44 8b 84 24 68 08 00 	mov    0x868(%rsp),%r8d
  402a4b:	00 
  402a4c:	48 8b b4 24 70 08 00 	mov    0x870(%rsp),%rsi
  402a53:	00 
  402a54:	8b 8c 24 78 08 00 00 	mov    0x878(%rsp),%ecx
  402a5b:	83 f9 08             	cmp    $0x8,%ecx
  402a5e:	0f 8c 70 09 00 00    	jl     4033d4 <main+0x1aa4>
  402a64:	44 89 c0             	mov    %r8d,%eax
  402a67:	45 31 db             	xor    %r11d,%r11d
  402a6a:	48 8d 14 de          	lea    (%rsi,%rbx,8),%rdx
  402a6e:	62 b1 fd 48 11 14 da 	vmovupd %zmm2,(%rdx,%r11,8)
  402a75:	49 83 c3 08          	add    $0x8,%r11
  402a79:	4d 39 cb             	cmp    %r9,%r11
  402a7c:	72 f0                	jb     402a6e <main+0x113e>
  402a7e:	8d 50 01             	lea    0x1(%rax),%edx
  402a81:	39 ca                	cmp    %ecx,%edx
  402a83:	77 51                	ja     402ad6 <main+0x11a6>
  402a85:	41 89 cb             	mov    %ecx,%r11d
  402a88:	ba ff 00 00 00       	mov    $0xff,%edx
  402a8d:	c5 fd 6f e0          	vmovdqa %ymm0,%ymm4
  402a91:	41 29 c3             	sub    %eax,%r11d
  402a94:	48 63 c0             	movslq %eax,%rax
  402a97:	c4 c1 79 6e db       	vmovd  %r11d,%xmm3
  402a9c:	4c 8d 1c 03          	lea    (%rbx,%rax,1),%r11
  402aa0:	48 f7 d8             	neg    %rax
  402aa3:	c5 f8 92 ca          	kmovw  %edx,%k1
  402aa7:	c4 e2 7d 58 db       	vpbroadcastd %xmm3,%ymm3
  402aac:	31 d2                	xor    %edx,%edx
  402aae:	4a 8d 3c de          	lea    (%rsi,%r11,8),%rdi
  402ab2:	4c 01 d0             	add    %r10,%rax
  402ab5:	45 31 db             	xor    %r11d,%r11d
  402ab8:	48 83 c2 08          	add    $0x8,%rdx
  402abc:	62 f1 65 49 66 d4    	vpcmpgtd %zmm4,%zmm3,%k2{%k1}
  402ac2:	62 d1 fd 4a 11 14 3b 	vmovupd %zmm2,(%r11,%rdi,1){%k2}
  402ac9:	49 83 c3 40          	add    $0x40,%r11
  402acd:	c5 dd fe e1          	vpaddd %ymm1,%ymm4,%ymm4
  402ad1:	48 39 c2             	cmp    %rax,%rdx
  402ad4:	72 e2                	jb     402ab8 <main+0x1188>
  402ad6:	41 83 c6 01          	add    $0x1,%r14d
  402ada:	4c 01 eb             	add    %r13,%rbx
  402add:	4f 8d 24 ec          	lea    (%r12,%r13,8),%r12
  402ae1:	45 39 fe             	cmp    %r15d,%r14d
  402ae4:	0f 82 c2 fe ff ff    	jb     4029ac <main+0x107c>
  402aea:	4c 8b 3c 24          	mov    (%rsp),%r15
  402aee:	31 db                	xor    %ebx,%ebx
  402af0:	83 bc 24 9c 08 00 00 	cmpl   $0x0,0x89c(%rsp)
  402af7:	00 
  402af8:	7e 64                	jle    402b5e <main+0x122e>
  402afa:	4c 89 ff             	mov    %r15,%rdi
  402afd:	be 9c 44 41 00       	mov    $0x41449c,%esi
  402b02:	48 8d 94 24 a0 08 00 	lea    0x8a0(%rsp),%rdx
  402b09:	00 
  402b0a:	48 8d 8c 24 a4 08 00 	lea    0x8a4(%rsp),%rcx
  402b11:	00 
  402b12:	4c 8d 84 24 78 08 00 	lea    0x878(%rsp),%r8
  402b19:	00 
  402b1a:	31 c0                	xor    %eax,%eax
  402b1c:	e8 cf ec ff ff       	callq  4017f0 <fscanf@plt>
  402b21:	8b 84 24 a4 08 00 00 	mov    0x8a4(%rsp),%eax
  402b28:	48 8b b4 24 e0 08 00 	mov    0x8e0(%rsp),%rsi
  402b2f:	00 
  402b30:	83 c3 01             	add    $0x1,%ebx
  402b33:	83 c0 ff             	add    $0xffffffff,%eax
  402b36:	48 8b 8c 24 78 08 00 	mov    0x878(%rsp),%rcx
  402b3d:	00 
  402b3e:	0f af 84 24 d8 08 00 	imul   0x8d8(%rsp),%eax
  402b45:	00 
  402b46:	03 84 24 a0 08 00 00 	add    0x8a0(%rsp),%eax
  402b4d:	48 63 c0             	movslq %eax,%rax
  402b50:	48 89 4c c6 f8       	mov    %rcx,-0x8(%rsi,%rax,8)
  402b55:	3b 9c 24 9c 08 00 00 	cmp    0x89c(%rsp),%ebx
  402b5c:	7c 9c                	jl     402afa <main+0x11ca>
  402b5e:	4c 89 ff             	mov    %r15,%rdi
  402b61:	e8 ca ea ff ff       	callq  401630 <fclose@plt>
  402b66:	bf 30 00 00 00       	mov    $0x30,%edi
  402b6b:	e8 d0 ea ff ff       	callq  401640 <_Znwm@plt>
  402b70:	49 89 c4             	mov    %rax,%r12
  402b73:	48 63 84 24 d0 08 00 	movslq 0x8d0(%rsp),%rax
  402b7a:	00 
  402b7b:	49 c7 04 24 f8 71 61 	movq   $0x6171f8,(%r12)
  402b82:	00 
  402b83:	48 63 94 24 d4 08 00 	movslq 0x8d4(%rsp),%rdx
  402b8a:	00 
  402b8b:	41 89 44 24 08       	mov    %eax,0x8(%r12)
  402b90:	48 89 c3             	mov    %rax,%rbx
  402b93:	41 89 54 24 0c       	mov    %edx,0xc(%r12)
  402b98:	48 0f af da          	imul   %rdx,%rbx
  402b9c:	41 c7 44 24 10 00 00 	movl   $0x0,0x10(%r12)
  402ba3:	00 00 
  402ba5:	48 8d 3c dd 00 00 00 	lea    0x0(,%rbx,8),%rdi
  402bac:	00 
  402bad:	41 89 5c 24 14       	mov    %ebx,0x14(%r12)
  402bb2:	e8 89 e9 ff ff       	callq  401540 <_Znam@plt>
  402bb7:	48 c1 e3 02          	shl    $0x2,%rbx
  402bbb:	49 89 44 24 18       	mov    %rax,0x18(%r12)
  402bc0:	48 89 df             	mov    %rbx,%rdi
  402bc3:	e8 78 e9 ff ff       	callq  401540 <_Znam@plt>
  402bc8:	48 89 df             	mov    %rbx,%rdi
  402bcb:	49 89 44 24 20       	mov    %rax,0x20(%r12)
  402bd0:	e8 6b e9 ff ff       	callq  401540 <_Znam@plt>
  402bd5:	8b 8c 24 d4 08 00 00 	mov    0x8d4(%rsp),%ecx
  402bdc:	49 89 44 24 28       	mov    %rax,0x28(%r12)
  402be1:	85 c9                	test   %ecx,%ecx
  402be3:	4c 89 a4 24 a8 09 00 	mov    %r12,0x9a8(%rsp)
  402bea:	00 
  402beb:	41 bc 00 00 00 00    	mov    $0x0,%r12d
  402bf1:	7e 5f                	jle    402c52 <main+0x1322>
  402bf3:	8b 84 24 d0 08 00 00 	mov    0x8d0(%rsp),%eax
  402bfa:	31 db                	xor    %ebx,%ebx
  402bfc:	85 c0                	test   %eax,%eax
  402bfe:	7e 49                	jle    402c49 <main+0x1319>
  402c00:	48 8b 84 24 c8 08 00 	mov    0x8c8(%rsp),%rax
  402c07:	00 
  402c08:	48 8d bc 24 c8 08 00 	lea    0x8c8(%rsp),%rdi
  402c0f:	00 
  402c10:	89 de                	mov    %ebx,%esi
  402c12:	44 89 e2             	mov    %r12d,%edx
  402c15:	ff 10                	callq  *(%rax)
  402c17:	c5 f9 54 0d 01 18 01 	vandpd 0x11801(%rip),%xmm0,%xmm1        # 414420 <_IO_stdin_used+0xe0>
  402c1e:	00 
  402c1f:	62 f1 f7 08 c2 05 1e 	vcmpgtsd 0x1181e(%rip),%xmm1,%k0        # 414448 <_IO_stdin_used+0x108>
  402c26:	18 01 00 0e 
  402c2a:	c5 f8 98 c0          	kortestw %k0,%k0
  402c2e:	0f 85 61 07 00 00    	jne    403395 <main+0x1a65>
  402c34:	8b 84 24 d0 08 00 00 	mov    0x8d0(%rsp),%eax
  402c3b:	83 c3 01             	add    $0x1,%ebx
  402c3e:	39 c3                	cmp    %eax,%ebx
  402c40:	7c be                	jl     402c00 <main+0x12d0>
  402c42:	8b 8c 24 d4 08 00 00 	mov    0x8d4(%rsp),%ecx
  402c49:	41 83 c4 01          	add    $0x1,%r12d
  402c4d:	41 39 cc             	cmp    %ecx,%r12d
  402c50:	7c a8                	jl     402bfa <main+0x12ca>
  402c52:	b8 28 00 00 00       	mov    $0x28,%eax
  402c57:	48 c7 84 24 e8 08 00 	movq   $0x617240,0x8e8(%rsp)
  402c5e:	00 40 72 61 00 
  402c63:	48 8d bc 24 00 09 00 	lea    0x900(%rsp),%rdi
  402c6a:	00 
  402c6b:	89 84 24 f8 08 00 00 	mov    %eax,0x8f8(%rsp)
  402c72:	be 40 00 00 00       	mov    $0x40,%esi
  402c77:	89 84 24 f0 08 00 00 	mov    %eax,0x8f0(%rsp)
  402c7e:	ba c0 12 00 00       	mov    $0x12c0,%edx
  402c83:	c7 84 24 f4 08 00 00 	movl   $0xf,0x8f4(%rsp)
  402c8a:	0f 00 00 00 
  402c8e:	e8 2d e9 ff ff       	callq  4015c0 <posix_memalign@plt>
  402c93:	44 8b ac 24 f4 08 00 	mov    0x8f4(%rsp),%r13d
  402c9a:	00 
  402c9b:	45 31 ff             	xor    %r15d,%r15d
  402c9e:	45 85 ed             	test   %r13d,%r13d
  402ca1:	0f 8e 92 01 00 00    	jle    402e39 <main+0x1509>
  402ca7:	44 8b 94 24 f0 08 00 	mov    0x8f0(%rsp),%r10d
  402cae:	00 
  402caf:	4c 8b 8c 24 00 09 00 	mov    0x900(%rsp),%r9
  402cb6:	00 
  402cb7:	b8 08 00 00 00       	mov    $0x8,%eax
  402cbc:	62 f1 ed 48 ef d2    	vpxorq %zmm2,%zmm2,%zmm2
  402cc2:	31 db                	xor    %ebx,%ebx
  402cc4:	c5 f9 6e c8          	vmovd  %eax,%xmm1
  402cc8:	49 63 ca             	movslq %r10d,%rcx
  402ccb:	45 89 d0             	mov    %r10d,%r8d
  402cce:	4c 63 a4 24 f8 08 00 	movslq 0x8f8(%rsp),%r12
  402cd5:	00 
  402cd6:	c5 fe 6f 05 22 17 01 	vmovdqu 0x11722(%rip),%ymm0        # 414400 <_IO_stdin_used+0xc0>
  402cdd:	00 
  402cde:	41 83 e0 f8          	and    $0xfffffff8,%r8d
  402ce2:	4d 89 ce             	mov    %r9,%r14
  402ce5:	48 8d 04 cd 00 00 00 	lea    0x0(,%rcx,8),%rax
  402cec:	00 
  402ced:	48 89 84 24 88 08 00 	mov    %rax,0x888(%rsp)
  402cf4:	00 
  402cf5:	c4 e2 7d 58 c9       	vpbroadcastd %xmm1,%ymm1
  402cfa:	49 63 f0             	movslq %r8d,%rsi
  402cfd:	45 85 d2             	test   %r10d,%r10d
  402d00:	0f 8e 1f 01 00 00    	jle    402e25 <main+0x14f5>
  402d06:	41 83 fa 0c          	cmp    $0xc,%r10d
  402d0a:	0f 8e 98 00 00 00    	jle    402da8 <main+0x1478>
  402d10:	c5 fe 7f 8c 24 00 08 	vmovdqu %ymm1,0x800(%rsp)
  402d17:	00 00 
  402d19:	48 89 0c 24          	mov    %rcx,(%rsp)
  402d1d:	48 89 b4 24 f8 07 00 	mov    %rsi,0x7f8(%rsp)
  402d24:	00 
  402d25:	44 89 84 24 60 08 00 	mov    %r8d,0x860(%rsp)
  402d2c:	00 
  402d2d:	4c 89 8c 24 68 08 00 	mov    %r9,0x868(%rsp)
  402d34:	00 
  402d35:	44 89 94 24 70 08 00 	mov    %r10d,0x870(%rsp)
  402d3c:	00 
  402d3d:	4c 89 f7             	mov    %r14,%rdi
  402d40:	31 f6                	xor    %esi,%esi
  402d42:	48 8b 94 24 88 08 00 	mov    0x888(%rsp),%rdx
  402d49:	00 
  402d4a:	e8 31 e5 00 00       	callq  411280 <__intel_mic_avx512f_memset>
  402d4f:	41 83 c7 01          	add    $0x1,%r15d
  402d53:	4c 01 e3             	add    %r12,%rbx
  402d56:	4f 8d 34 e6          	lea    (%r14,%r12,8),%r14
  402d5a:	45 39 ef             	cmp    %r13d,%r15d
  402d5d:	0f 83 d6 00 00 00    	jae    402e39 <main+0x1509>
  402d63:	83 bc 24 70 08 00 00 	cmpl   $0xc,0x870(%rsp)
  402d6a:	0c 
  402d6b:	7f d0                	jg     402d3d <main+0x140d>
  402d6d:	c5 fe 6f 05 8b 16 01 	vmovdqu 0x1168b(%rip),%ymm0        # 414400 <_IO_stdin_used+0xc0>
  402d74:	00 
  402d75:	c5 fe 6f 8c 24 00 08 	vmovdqu 0x800(%rsp),%ymm1
  402d7c:	00 00 
  402d7e:	62 f1 ed 48 ef d2    	vpxorq %zmm2,%zmm2,%zmm2
  402d84:	48 8b b4 24 f8 07 00 	mov    0x7f8(%rsp),%rsi
  402d8b:	00 
  402d8c:	48 8b 0c 24          	mov    (%rsp),%rcx
  402d90:	44 8b 84 24 60 08 00 	mov    0x860(%rsp),%r8d
  402d97:	00 
  402d98:	4c 8b 8c 24 68 08 00 	mov    0x868(%rsp),%r9
  402d9f:	00 
  402da0:	44 8b 94 24 70 08 00 	mov    0x870(%rsp),%r10d
  402da7:	00 
  402da8:	41 83 fa 08          	cmp    $0x8,%r10d
  402dac:	0f 8c dc 05 00 00    	jl     40338e <main+0x1a5e>
  402db2:	44 89 c0             	mov    %r8d,%eax
  402db5:	45 31 db             	xor    %r11d,%r11d
  402db8:	49 8d 14 d9          	lea    (%r9,%rbx,8),%rdx
  402dbc:	62 b1 fd 48 11 14 da 	vmovupd %zmm2,(%rdx,%r11,8)
  402dc3:	49 83 c3 08          	add    $0x8,%r11
  402dc7:	49 39 f3             	cmp    %rsi,%r11
  402dca:	72 f0                	jb     402dbc <main+0x148c>
  402dcc:	8d 50 01             	lea    0x1(%rax),%edx
  402dcf:	44 39 d2             	cmp    %r10d,%edx
  402dd2:	77 51                	ja     402e25 <main+0x14f5>
  402dd4:	45 89 d3             	mov    %r10d,%r11d
  402dd7:	ba ff 00 00 00       	mov    $0xff,%edx
  402ddc:	c5 fd 6f e0          	vmovdqa %ymm0,%ymm4
  402de0:	41 29 c3             	sub    %eax,%r11d
  402de3:	48 63 c0             	movslq %eax,%rax
  402de6:	c4 c1 79 6e db       	vmovd  %r11d,%xmm3
  402deb:	4c 8d 1c 03          	lea    (%rbx,%rax,1),%r11
  402def:	48 f7 d8             	neg    %rax
  402df2:	c5 f8 92 ca          	kmovw  %edx,%k1
  402df6:	c4 e2 7d 58 db       	vpbroadcastd %xmm3,%ymm3
  402dfb:	31 d2                	xor    %edx,%edx
  402dfd:	4b 8d 3c d9          	lea    (%r9,%r11,8),%rdi
  402e01:	48 01 c8             	add    %rcx,%rax
  402e04:	45 31 db             	xor    %r11d,%r11d
  402e07:	48 83 c2 08          	add    $0x8,%rdx
  402e0b:	62 f1 65 49 66 d4    	vpcmpgtd %zmm4,%zmm3,%k2{%k1}
  402e11:	62 d1 fd 4a 11 14 3b 	vmovupd %zmm2,(%r11,%rdi,1){%k2}
  402e18:	49 83 c3 40          	add    $0x40,%r11
  402e1c:	c5 dd fe e1          	vpaddd %ymm1,%ymm4,%ymm4
  402e20:	48 39 c2             	cmp    %rax,%rdx
  402e23:	72 e2                	jb     402e07 <main+0x14d7>
  402e25:	41 83 c7 01          	add    $0x1,%r15d
  402e29:	4c 01 e3             	add    %r12,%rbx
  402e2c:	4f 8d 34 e6          	lea    (%r14,%r12,8),%r14
  402e30:	45 39 ef             	cmp    %r13d,%r15d
  402e33:	0f 82 c4 fe ff ff    	jb     402cfd <main+0x13cd>
  402e39:	b8 28 00 00 00       	mov    $0x28,%eax
  402e3e:	48 c7 84 24 88 09 00 	movq   $0x617240,0x988(%rsp)
  402e45:	00 40 72 61 00 
  402e4a:	48 8d bc 24 a0 09 00 	lea    0x9a0(%rsp),%rdi
  402e51:	00 
  402e52:	89 84 24 98 09 00 00 	mov    %eax,0x998(%rsp)
  402e59:	be 40 00 00 00       	mov    $0x40,%esi
  402e5e:	89 84 24 90 09 00 00 	mov    %eax,0x990(%rsp)
  402e65:	ba c0 12 00 00       	mov    $0x12c0,%edx
  402e6a:	c7 84 24 94 09 00 00 	movl   $0xf,0x994(%rsp)
  402e71:	0f 00 00 00 
  402e75:	e8 46 e7 ff ff       	callq  4015c0 <posix_memalign@plt>
  402e7a:	44 8b ac 24 94 09 00 	mov    0x994(%rsp),%r13d
  402e81:	00 
  402e82:	45 31 ff             	xor    %r15d,%r15d
  402e85:	45 85 ed             	test   %r13d,%r13d
  402e88:	0f 8e 8e 01 00 00    	jle    40301c <main+0x16ec>
  402e8e:	44 8b 8c 24 90 09 00 	mov    0x990(%rsp),%r9d
  402e95:	00 
  402e96:	4c 8b 84 24 a0 09 00 	mov    0x9a0(%rsp),%r8
  402e9d:	00 
  402e9e:	b8 08 00 00 00       	mov    $0x8,%eax
  402ea3:	62 f1 ed 48 ef d2    	vpxorq %zmm2,%zmm2,%zmm2
  402ea9:	31 db                	xor    %ebx,%ebx
  402eab:	c5 f9 6e c8          	vmovd  %eax,%xmm1
  402eaf:	49 63 c9             	movslq %r9d,%rcx
  402eb2:	44 89 ce             	mov    %r9d,%esi
  402eb5:	4c 63 a4 24 98 09 00 	movslq 0x998(%rsp),%r12
  402ebc:	00 
  402ebd:	c5 fe 6f 05 3b 15 01 	vmovdqu 0x1153b(%rip),%ymm0        # 414400 <_IO_stdin_used+0xc0>
  402ec4:	00 
  402ec5:	83 e6 f8             	and    $0xfffffff8,%esi
  402ec8:	4d 89 c6             	mov    %r8,%r14
  402ecb:	48 8d 04 cd 00 00 00 	lea    0x0(,%rcx,8),%rax
  402ed2:	00 
  402ed3:	48 89 84 24 88 08 00 	mov    %rax,0x888(%rsp)
  402eda:	00 
  402edb:	4c 63 d6             	movslq %esi,%r10
  402ede:	c4 e2 7d 58 c9       	vpbroadcastd %xmm1,%ymm1
  402ee3:	45 85 c9             	test   %r9d,%r9d
  402ee6:	0f 8e 1c 01 00 00    	jle    403008 <main+0x16d8>
  402eec:	41 83 f9 0c          	cmp    $0xc,%r9d
  402ef0:	0f 8e 96 00 00 00    	jle    402f8c <main+0x165c>
  402ef6:	c5 fe 7f 8c 24 00 08 	vmovdqu %ymm1,0x800(%rsp)
  402efd:	00 00 
  402eff:	48 89 0c 24          	mov    %rcx,(%rsp)
  402f03:	4c 89 94 24 f8 07 00 	mov    %r10,0x7f8(%rsp)
  402f0a:	00 
  402f0b:	89 b4 24 60 08 00 00 	mov    %esi,0x860(%rsp)
  402f12:	4c 89 84 24 68 08 00 	mov    %r8,0x868(%rsp)
  402f19:	00 
  402f1a:	44 89 8c 24 70 08 00 	mov    %r9d,0x870(%rsp)
  402f21:	00 
  402f22:	4c 89 f7             	mov    %r14,%rdi
  402f25:	31 f6                	xor    %esi,%esi
  402f27:	48 8b 94 24 88 08 00 	mov    0x888(%rsp),%rdx
  402f2e:	00 
  402f2f:	e8 4c e3 00 00       	callq  411280 <__intel_mic_avx512f_memset>
  402f34:	41 83 c7 01          	add    $0x1,%r15d
  402f38:	4c 01 e3             	add    %r12,%rbx
  402f3b:	4f 8d 34 e6          	lea    (%r14,%r12,8),%r14
  402f3f:	45 39 ef             	cmp    %r13d,%r15d
  402f42:	0f 83 d4 00 00 00    	jae    40301c <main+0x16ec>
  402f48:	83 bc 24 70 08 00 00 	cmpl   $0xc,0x870(%rsp)
  402f4f:	0c 
  402f50:	7f d0                	jg     402f22 <main+0x15f2>
  402f52:	c5 fe 6f 05 a6 14 01 	vmovdqu 0x114a6(%rip),%ymm0        # 414400 <_IO_stdin_used+0xc0>
  402f59:	00 
  402f5a:	c5 fe 6f 8c 24 00 08 	vmovdqu 0x800(%rsp),%ymm1
  402f61:	00 00 
  402f63:	62 f1 ed 48 ef d2    	vpxorq %zmm2,%zmm2,%zmm2
  402f69:	4c 8b 94 24 f8 07 00 	mov    0x7f8(%rsp),%r10
  402f70:	00 
  402f71:	48 8b 0c 24          	mov    (%rsp),%rcx
  402f75:	8b b4 24 60 08 00 00 	mov    0x860(%rsp),%esi
  402f7c:	4c 8b 84 24 68 08 00 	mov    0x868(%rsp),%r8
  402f83:	00 
  402f84:	44 8b 8c 24 70 08 00 	mov    0x870(%rsp),%r9d
  402f8b:	00 
  402f8c:	41 83 f9 08          	cmp    $0x8,%r9d
  402f90:	0f 8c f1 03 00 00    	jl     403387 <main+0x1a57>
  402f96:	89 f0                	mov    %esi,%eax
  402f98:	45 31 db             	xor    %r11d,%r11d
  402f9b:	49 8d 14 d8          	lea    (%r8,%rbx,8),%rdx
  402f9f:	62 b1 fd 48 11 14 da 	vmovupd %zmm2,(%rdx,%r11,8)
  402fa6:	49 83 c3 08          	add    $0x8,%r11
  402faa:	4d 39 d3             	cmp    %r10,%r11
  402fad:	72 f0                	jb     402f9f <main+0x166f>
  402faf:	8d 50 01             	lea    0x1(%rax),%edx
  402fb2:	44 39 ca             	cmp    %r9d,%edx
  402fb5:	77 51                	ja     403008 <main+0x16d8>
  402fb7:	45 89 cb             	mov    %r9d,%r11d
  402fba:	ba ff 00 00 00       	mov    $0xff,%edx
  402fbf:	c5 fd 6f e0          	vmovdqa %ymm0,%ymm4
  402fc3:	41 29 c3             	sub    %eax,%r11d
  402fc6:	48 63 c0             	movslq %eax,%rax
  402fc9:	c4 c1 79 6e db       	vmovd  %r11d,%xmm3
  402fce:	4c 8d 1c 03          	lea    (%rbx,%rax,1),%r11
  402fd2:	48 f7 d8             	neg    %rax
  402fd5:	c5 f8 92 ca          	kmovw  %edx,%k1
  402fd9:	c4 e2 7d 58 db       	vpbroadcastd %xmm3,%ymm3
  402fde:	31 d2                	xor    %edx,%edx
  402fe0:	4b 8d 3c d8          	lea    (%r8,%r11,8),%rdi
  402fe4:	48 01 c8             	add    %rcx,%rax
  402fe7:	45 31 db             	xor    %r11d,%r11d
  402fea:	48 83 c2 08          	add    $0x8,%rdx
  402fee:	62 f1 65 49 66 d4    	vpcmpgtd %zmm4,%zmm3,%k2{%k1}
  402ff4:	62 d1 fd 4a 11 14 3b 	vmovupd %zmm2,(%r11,%rdi,1){%k2}
  402ffb:	49 83 c3 40          	add    $0x40,%r11
  402fff:	c5 dd fe e1          	vpaddd %ymm1,%ymm4,%ymm4
  403003:	48 39 c2             	cmp    %rax,%rdx
  403006:	72 e2                	jb     402fea <main+0x16ba>
  403008:	41 83 c7 01          	add    $0x1,%r15d
  40300c:	4c 01 e3             	add    %r12,%rbx
  40300f:	4f 8d 34 e6          	lea    (%r14,%r12,8),%r14
  403013:	45 39 ef             	cmp    %r13d,%r15d
  403016:	0f 82 c7 fe ff ff    	jb     402ee3 <main+0x15b3>
  40301c:	8b 84 24 f4 08 00 00 	mov    0x8f4(%rsp),%eax
  403023:	89 04 24             	mov    %eax,(%rsp)
  403026:	44 8b ac 24 f0 08 00 	mov    0x8f0(%rsp),%r13d
  40302d:	00 
  40302e:	45 31 ff             	xor    %r15d,%r15d
  403031:	44 8b b4 24 74 09 00 	mov    0x974(%rsp),%r14d
  403038:	00 
  403039:	85 c0                	test   %eax,%eax
  40303b:	0f 8e c6 00 00 00    	jle    403107 <main+0x17d7>
  403041:	31 db                	xor    %ebx,%ebx
  403043:	45 85 f6             	test   %r14d,%r14d
  403046:	0f 8e ad 00 00 00    	jle    4030f9 <main+0x17c9>
  40304c:	45 31 e4             	xor    %r12d,%r12d
  40304f:	45 85 ed             	test   %r13d,%r13d
  403052:	0f 8e 95 00 00 00    	jle    4030ed <main+0x17bd>
  403058:	48 8b 84 24 e8 08 00 	mov    0x8e8(%rsp),%rax
  40305f:	00 
  403060:	48 8d bc 24 e8 08 00 	lea    0x8e8(%rsp),%rdi
  403067:	00 
  403068:	44 89 e6             	mov    %r12d,%esi
  40306b:	44 89 fa             	mov    %r15d,%edx
  40306e:	ff 10                	callq  *(%rax)
  403070:	c5 fb 11 84 24 00 08 	vmovsd %xmm0,0x800(%rsp)
  403077:	00 00 
  403079:	48 8b 84 24 68 09 00 	mov    0x968(%rsp),%rax
  403080:	00 
  403081:	48 8d bc 24 68 09 00 	lea    0x968(%rsp),%rdi
  403088:	00 
  403089:	44 89 e6             	mov    %r12d,%esi
  40308c:	89 da                	mov    %ebx,%edx
  40308e:	ff 10                	callq  *(%rax)
  403090:	c5 fb 11 84 24 f8 07 	vmovsd %xmm0,0x7f8(%rsp)
  403097:	00 00 
  403099:	48 8b 84 24 c8 08 00 	mov    0x8c8(%rsp),%rax
  4030a0:	00 
  4030a1:	48 8d bc 24 c8 08 00 	lea    0x8c8(%rsp),%rdi
  4030a8:	00 
  4030a9:	89 de                	mov    %ebx,%esi
  4030ab:	44 89 fa             	mov    %r15d,%edx
  4030ae:	ff 10                	callq  *(%rax)
  4030b0:	c5 f9 28 c8          	vmovapd %xmm0,%xmm1
  4030b4:	c5 fb 10 84 24 00 08 	vmovsd 0x800(%rsp),%xmm0
  4030bb:	00 00 
  4030bd:	48 8b 84 24 e8 08 00 	mov    0x8e8(%rsp),%rax
  4030c4:	00 
  4030c5:	44 89 e6             	mov    %r12d,%esi
  4030c8:	44 89 fa             	mov    %r15d,%edx
  4030cb:	48 8d bc 24 e8 08 00 	lea    0x8e8(%rsp),%rdi
  4030d2:	00 
  4030d3:	c4 e2 f1 b9 84 24 f8 	vfmadd231sd 0x7f8(%rsp),%xmm1,%xmm0
  4030da:	07 00 00 
  4030dd:	ff 50 08             	callq  *0x8(%rax)
  4030e0:	41 83 c4 01          	add    $0x1,%r12d
  4030e4:	45 39 ec             	cmp    %r13d,%r12d
  4030e7:	0f 8c 6b ff ff ff    	jl     403058 <main+0x1728>
  4030ed:	83 c3 01             	add    $0x1,%ebx
  4030f0:	44 39 f3             	cmp    %r14d,%ebx
  4030f3:	0f 8c 53 ff ff ff    	jl     40304c <main+0x171c>
  4030f9:	41 83 c7 01          	add    $0x1,%r15d
  4030fd:	44 3b 3c 24          	cmp    (%rsp),%r15d
  403101:	0f 8c 3a ff ff ff    	jl     403041 <main+0x1711>
  403107:	48 8b 84 24 a8 09 00 	mov    0x9a8(%rsp),%rax
  40310e:	00 
  40310f:	48 8b bc 24 80 09 00 	mov    0x980(%rsp),%rdi
  403116:	00 
  403117:	48 8b 94 24 a0 09 00 	mov    0x9a0(%rsp),%rdx
  40311e:	00 
  40311f:	48 8b 70 18          	mov    0x18(%rax),%rsi
  403123:	e8 08 c9 00 00       	callq  40fa30 <_Z6breuerPKdS0_Pd>
  403128:	48 8d bc 24 e8 08 00 	lea    0x8e8(%rsp),%rdi
  40312f:	00 
  403130:	48 8d b4 24 88 09 00 	lea    0x988(%rsp),%rsi
  403137:	00 
  403138:	e8 13 03 00 00       	callq  403450 <_Z13assert_equalsRK6MatrixS1_>
  40313d:	bf 01 00 00 00       	mov    $0x1,%edi
  403142:	48 8d b4 24 f8 07 00 	lea    0x7f8(%rsp),%rsi
  403149:	00 
  40314a:	e8 a1 e5 ff ff       	callq  4016f0 <clock_gettime@plt>
  40314f:	31 db                	xor    %ebx,%ebx
  403151:	48 8b 84 24 a8 09 00 	mov    0x9a8(%rsp),%rax
  403158:	00 
  403159:	48 8b bc 24 80 09 00 	mov    0x980(%rsp),%rdi
  403160:	00 
  403161:	48 8b 94 24 a0 09 00 	mov    0x9a0(%rsp),%rdx
  403168:	00 
  403169:	48 8b 70 18          	mov    0x18(%rax),%rsi
  40316d:	e8 be c8 00 00       	callq  40fa30 <_Z6breuerPKdS0_Pd>
  403172:	83 c3 01             	add    $0x1,%ebx
  403175:	81 fb b8 0b 00 00    	cmp    $0xbb8,%ebx
  40317b:	7c d4                	jl     403151 <main+0x1821>
  40317d:	bf 01 00 00 00       	mov    $0x1,%edi
  403182:	48 8d b4 24 08 08 00 	lea    0x808(%rsp),%rsi
  403189:	00 
  40318a:	e8 61 e5 ff ff       	callq  4016f0 <clock_gettime@plt>
  40318f:	bf c0 7a 61 00       	mov    $0x617ac0,%edi
  403194:	be b4 44 41 00       	mov    $0x4144b4,%esi
  403199:	e8 82 e4 ff ff       	callq  401620 <_ZStlsISt11char_traitsIcEERSt13basic_ostreamIcT_ES5_PKc@plt>
  40319e:	48 89 c7             	mov    %rax,%rdi
  4031a1:	48 8b 84 24 08 08 00 	mov    0x808(%rsp),%rax
  4031a8:	00 
  4031a9:	62 e1 ff 08 10 a4 24 	vmovsd 0x850(%rsp),%xmm20
  4031b0:	50 08 00 00 
  4031b4:	48 2b 84 24 f8 07 00 	sub    0x7f8(%rsp),%rax
  4031bb:	00 
  4031bc:	48 69 d0 00 ca 9a 3b 	imul   $0x3b9aca00,%rax,%rdx
  4031c3:	62 e1 ff 08 10 ac 24 	vmovsd 0x848(%rsp),%xmm21
  4031ca:	48 08 00 00 
  4031ce:	62 e2 e5 00 43 1d 68 	vgetexpsd 0x11268(%rip),%xmm19,%xmm19        # 414440 <_IO_stdin_used+0x100>
  4031d5:	12 01 00 
  4031d8:	48 03 94 24 10 08 00 	add    0x810(%rsp),%rdx
  4031df:	00 
  4031e0:	62 e1 ff 08 10 bc 24 	vmovsd 0x858(%rsp),%xmm23
  4031e7:	58 08 00 00 
  4031eb:	48 2b 94 24 00 08 00 	sub    0x800(%rsp),%rdx
  4031f2:	00 
  4031f3:	62 e1 ff 00 2a c2    	vcvtsi2sd %rdx,%xmm16,%xmm16
  4031f9:	62 e1 ff 00 59 0d 35 	vmulsd 0x11235(%rip),%xmm16,%xmm17        # 414438 <_IO_stdin_used+0xf8>
  403200:	12 01 00 
  403203:	62 a3 f5 00 27 f1 00 	vgetmantsd $0x0,%xmm17,%xmm17,%xmm22
  40320a:	62 a2 f5 00 43 d1    	vgetexpsd %xmm17,%xmm17,%xmm18
  403210:	62 21 df 10 59 c6    	vmulsd {rn-sae},%xmm22,%xmm20,%xmm24
  403216:	62 21 ef 00 5c cb    	vsubsd %xmm19,%xmm18,%xmm25
  40321c:	62 a2 bd 10 bd f5    	vfnmadd231sd {rn-sae},%xmm21,%xmm24,%xmm22
  403222:	62 22 cd 10 b9 c7    	vfmadd231sd {rn-sae},%xmm23,%xmm22,%xmm24
  403228:	62 92 bd 00 2d c1    	vscalefsd %xmm25,%xmm24,%xmm0
  40322e:	e8 ad e5 ff ff       	callq  4017e0 <_ZNSolsEd@plt>
  403233:	48 89 c7             	mov    %rax,%rdi
  403236:	be a0 15 40 00       	mov    $0x4015a0,%esi
  40323b:	e8 10 e4 ff ff       	callq  401650 <_ZNSolsEPFRSoS_E@plt>
  403240:	48 8b bc 24 a0 09 00 	mov    0x9a0(%rsp),%rdi
  403247:	00 
  403248:	48 c7 84 24 88 09 00 	movq   $0x617240,0x988(%rsp)
  40324f:	00 40 72 61 00 
  403254:	e8 57 e4 ff ff       	callq  4016b0 <free@plt>
  403259:	48 8b bc 24 00 09 00 	mov    0x900(%rsp),%rdi
  403260:	00 
  403261:	48 c7 84 24 e8 08 00 	movq   $0x617240,0x8e8(%rsp)
  403268:	00 40 72 61 00 
  40326d:	e8 3e e4 ff ff       	callq  4016b0 <free@plt>
  403272:	48 8b 9c 24 a8 09 00 	mov    0x9a8(%rsp),%rbx
  403279:	00 
  40327a:	48 85 db             	test   %rbx,%rbx
  40327d:	74 39                	je     4032b8 <main+0x1988>
  40327f:	48 8b 7b 18          	mov    0x18(%rbx),%rdi
  403283:	48 c7 03 f8 71 61 00 	movq   $0x6171f8,(%rbx)
  40328a:	48 85 ff             	test   %rdi,%rdi
  40328d:	74 05                	je     403294 <main+0x1964>
  40328f:	e8 4c e4 ff ff       	callq  4016e0 <_ZdaPv@plt>
  403294:	48 8b 7b 20          	mov    0x20(%rbx),%rdi
  403298:	48 85 ff             	test   %rdi,%rdi
  40329b:	74 05                	je     4032a2 <main+0x1972>
  40329d:	e8 3e e4 ff ff       	callq  4016e0 <_ZdaPv@plt>
  4032a2:	48 8b 7b 28          	mov    0x28(%rbx),%rdi
  4032a6:	48 85 ff             	test   %rdi,%rdi
  4032a9:	74 05                	je     4032b0 <main+0x1980>
  4032ab:	e8 30 e4 ff ff       	callq  4016e0 <_ZdaPv@plt>
  4032b0:	48 89 df             	mov    %rbx,%rdi
  4032b3:	e8 58 e3 ff ff       	callq  401610 <_ZdlPv@plt>
  4032b8:	48 8b bc 24 e0 08 00 	mov    0x8e0(%rsp),%rdi
  4032bf:	00 
  4032c0:	48 c7 84 24 a8 09 00 	movq   $0x0,0x9a8(%rsp)
  4032c7:	00 00 00 00 00 
  4032cc:	48 c7 84 24 c8 08 00 	movq   $0x617240,0x8c8(%rsp)
  4032d3:	00 40 72 61 00 
  4032d8:	e8 d3 e3 ff ff       	callq  4016b0 <free@plt>
  4032dd:	48 8b bc 24 80 09 00 	mov    0x980(%rsp),%rdi
  4032e4:	00 
  4032e5:	48 c7 84 24 68 09 00 	movq   $0x617240,0x968(%rsp)
  4032ec:	00 40 72 61 00 
  4032f1:	e8 ba e3 ff ff       	callq  4016b0 <free@plt>
  4032f6:	e8 85 04 00 00       	callq  403780 <_Z15test_unrolled_8v>
  4032fb:	e8 70 18 00 00       	callq  404b70 <_Z16test_unrolled_40v>
  403300:	e8 4b 3e 00 00       	callq  407150 <_Z14test_general_8v>
  403305:	e8 c6 5d 00 00       	callq  4090d0 <_Z15test_general_40v>
  40330a:	48 8b 9c 24 30 08 00 	mov    0x830(%rsp),%rbx
  403311:	00 
  403312:	4c 8b a4 24 40 08 00 	mov    0x840(%rsp),%r12
  403319:	00 
  40331a:	31 c0                	xor    %eax,%eax
  40331c:	4c 8b ac 24 38 08 00 	mov    0x838(%rsp),%r13
  403323:	00 
  403324:	4c 8b b4 24 20 08 00 	mov    0x820(%rsp),%r14
  40332b:	00 
  40332c:	4c 8b bc 24 28 08 00 	mov    0x828(%rsp),%r15
  403333:	00 
  403334:	48 89 ec             	mov    %rbp,%rsp
  403337:	5d                   	pop    %rbp
  403338:	c3                   	retq   
  403339:	48 89 04 24          	mov    %rax,(%rsp)
  40333d:	48 8d bc 24 88 09 00 	lea    0x988(%rsp),%rdi
  403344:	00 
  403345:	e8 96 d5 00 00       	callq  4108e0 <_ZN11DenseMatrixD1Ev>
  40334a:	48 8d bc 24 e8 08 00 	lea    0x8e8(%rsp),%rdi
  403351:	00 
  403352:	e8 89 d5 00 00       	callq  4108e0 <_ZN11DenseMatrixD1Ev>
  403357:	48 8d bc 24 a8 09 00 	lea    0x9a8(%rsp),%rdi
  40335e:	00 
  40335f:	e8 fc da 00 00       	callq  410e60 <_ZNSt10unique_ptrI12SparseMatrixSt14default_deleteIS0_EED1Ev>
  403364:	48 8d bc 24 c8 08 00 	lea    0x8c8(%rsp),%rdi
  40336b:	00 
  40336c:	e8 6f d5 00 00       	callq  4108e0 <_ZN11DenseMatrixD1Ev>
  403371:	48 8d bc 24 68 09 00 	lea    0x968(%rsp),%rdi
  403378:	00 
  403379:	e8 62 d5 00 00       	callq  4108e0 <_ZN11DenseMatrixD1Ev>
  40337e:	48 8b 3c 24          	mov    (%rsp),%rdi
  403382:	e8 29 e4 ff ff       	callq  4017b0 <_Unwind_Resume@plt>
  403387:	31 c0                	xor    %eax,%eax
  403389:	e9 21 fc ff ff       	jmpq   402faf <main+0x167f>
  40338e:	31 c0                	xor    %eax,%eax
  403390:	e9 37 fa ff ff       	jmpq   402dcc <main+0x149c>
  403395:	48 8b bc 24 a8 09 00 	mov    0x9a8(%rsp),%rdi
  40339c:	00 
  40339d:	89 de                	mov    %ebx,%esi
  40339f:	44 89 e2             	mov    %r12d,%edx
  4033a2:	48 8b 07             	mov    (%rdi),%rax
  4033a5:	ff 50 08             	callq  *0x8(%rax)
  4033a8:	e9 87 f8 ff ff       	jmpq   402c34 <main+0x1304>
  4033ad:	48 89 04 24          	mov    %rax,(%rsp)
  4033b1:	48 8d bc 24 a8 09 00 	lea    0x9a8(%rsp),%rdi
  4033b8:	00 
  4033b9:	e8 a2 da 00 00       	callq  410e60 <_ZNSt10unique_ptrI12SparseMatrixSt14default_deleteIS0_EED1Ev>
  4033be:	eb a4                	jmp    403364 <main+0x1a34>
  4033c0:	48 89 04 24          	mov    %rax,(%rsp)
  4033c4:	4c 89 e7             	mov    %r12,%rdi
  4033c7:	e8 44 e2 ff ff       	callq  401610 <_ZdlPv@plt>
  4033cc:	eb 96                	jmp    403364 <main+0x1a34>
  4033ce:	48 89 04 24          	mov    %rax,(%rsp)
  4033d2:	eb 90                	jmp    403364 <main+0x1a34>
  4033d4:	31 c0                	xor    %eax,%eax
  4033d6:	e9 a3 f6 ff ff       	jmpq   402a7e <main+0x114e>
  4033db:	31 d2                	xor    %edx,%edx
  4033dd:	e9 32 f3 ff ff       	jmpq   402714 <main+0xde4>
  4033e2:	8b 84 24 20 04 00 00 	mov    0x420(%rsp),%eax
  4033e9:	e9 92 f3 ff ff       	jmpq   402780 <main+0xe50>
  4033ee:	48 89 04 24          	mov    %rax,(%rsp)
  4033f2:	48 8d bc 24 48 09 00 	lea    0x948(%rsp),%rdi
  4033f9:	00 
  4033fa:	e8 e1 d4 00 00       	callq  4108e0 <_ZN11DenseMatrixD1Ev>
  4033ff:	48 8d bc 24 a8 08 00 	lea    0x8a8(%rsp),%rdi
  403406:	00 
  403407:	e8 d4 d4 00 00       	callq  4108e0 <_ZN11DenseMatrixD1Ev>
  40340c:	48 8d bc 24 28 09 00 	lea    0x928(%rsp),%rdi
  403413:	00 
  403414:	e8 c7 d4 00 00       	callq  4108e0 <_ZN11DenseMatrixD1Ev>
  403419:	48 8d bc 24 08 09 00 	lea    0x908(%rsp),%rdi
  403420:	00 
  403421:	e8 ba d4 00 00       	callq  4108e0 <_ZN11DenseMatrixD1Ev>
  403426:	e9 53 ff ff ff       	jmpq   40337e <main+0x1a4e>
  40342b:	31 c0                	xor    %eax,%eax
  40342d:	e9 3e ee ff ff       	jmpq   402270 <main+0x940>
  403432:	31 c0                	xor    %eax,%eax
  403434:	e9 50 ec ff ff       	jmpq   402089 <main+0x759>
  403439:	31 c0                	xor    %eax,%eax
  40343b:	e9 e7 e9 ff ff       	jmpq   401e27 <main+0x4f7>
  403440:	31 d2                	xor    %edx,%edx
  403442:	e9 a0 e6 ff ff       	jmpq   401ae7 <main+0x1b7>
  403447:	8b 44 24 38          	mov    0x38(%rsp),%eax
  40344b:	e9 03 e7 ff ff       	jmpq   401b53 <main+0x223>

0000000000403450 <_Z13assert_equalsRK6MatrixS1_>:
  403450:	48 83 ec 38          	sub    $0x38,%rsp
  403454:	4c 89 64 24 20       	mov    %r12,0x20(%rsp)
  403459:	49 89 fc             	mov    %rdi,%r12
  40345c:	4c 89 6c 24 18       	mov    %r13,0x18(%rsp)
  403461:	49 89 f5             	mov    %rsi,%r13
  403464:	4c 89 74 24 10       	mov    %r14,0x10(%rsp)
  403469:	41 8b 44 24 08       	mov    0x8(%r12),%eax
  40346e:	41 3b 45 08          	cmp    0x8(%r13),%eax
  403472:	75 08                	jne    40347c <_Z13assert_equalsRK6MatrixS1_+0x2c>
  403474:	41 be 01 00 00 00    	mov    $0x1,%r14d
  40347a:	eb 45                	jmp    4034c1 <_Z13assert_equalsRK6MatrixS1_+0x71>
  40347c:	bf c0 7a 61 00       	mov    $0x617ac0,%edi
  403481:	be c0 44 41 00       	mov    $0x4144c0,%esi
  403486:	45 31 f6             	xor    %r14d,%r14d
  403489:	e8 92 e1 ff ff       	callq  401620 <_ZStlsISt11char_traitsIcEERSt13basic_ostreamIcT_ES5_PKc@plt>
  40348e:	48 89 c7             	mov    %rax,%rdi
  403491:	41 8b 74 24 08       	mov    0x8(%r12),%esi
  403496:	e8 05 e3 ff ff       	callq  4017a0 <_ZNSolsEi@plt>
  40349b:	48 89 c7             	mov    %rax,%rdi
  40349e:	be d8 44 41 00       	mov    $0x4144d8,%esi
  4034a3:	e8 78 e1 ff ff       	callq  401620 <_ZStlsISt11char_traitsIcEERSt13basic_ostreamIcT_ES5_PKc@plt>
  4034a8:	48 89 c7             	mov    %rax,%rdi
  4034ab:	41 8b 75 08          	mov    0x8(%r13),%esi
  4034af:	e8 ec e2 ff ff       	callq  4017a0 <_ZNSolsEi@plt>
  4034b4:	48 89 c7             	mov    %rax,%rdi
  4034b7:	be a0 15 40 00       	mov    $0x4015a0,%esi
  4034bc:	e8 8f e1 ff ff       	callq  401650 <_ZNSolsEPFRSoS_E@plt>
  4034c1:	41 8b 44 24 0c       	mov    0xc(%r12),%eax
  4034c6:	41 3b 45 0c          	cmp    0xc(%r13),%eax
  4034ca:	75 0e                	jne    4034da <_Z13assert_equalsRK6MatrixS1_+0x8a>
  4034cc:	41 8b 4c 24 08       	mov    0x8(%r12),%ecx
  4034d1:	85 c9                	test   %ecx,%ecx
  4034d3:	7f 5c                	jg     403531 <_Z13assert_equalsRK6MatrixS1_+0xe1>
  4034d5:	e9 de 00 00 00       	jmpq   4035b8 <_Z13assert_equalsRK6MatrixS1_+0x168>
  4034da:	bf c0 7a 61 00       	mov    $0x617ac0,%edi
  4034df:	be e0 44 41 00       	mov    $0x4144e0,%esi
  4034e4:	45 31 f6             	xor    %r14d,%r14d
  4034e7:	e8 34 e1 ff ff       	callq  401620 <_ZStlsISt11char_traitsIcEERSt13basic_ostreamIcT_ES5_PKc@plt>
  4034ec:	48 89 c7             	mov    %rax,%rdi
  4034ef:	41 8b 74 24 0c       	mov    0xc(%r12),%esi
  4034f4:	e8 a7 e2 ff ff       	callq  4017a0 <_ZNSolsEi@plt>
  4034f9:	48 89 c7             	mov    %rax,%rdi
  4034fc:	be d8 44 41 00       	mov    $0x4144d8,%esi
  403501:	e8 1a e1 ff ff       	callq  401620 <_ZStlsISt11char_traitsIcEERSt13basic_ostreamIcT_ES5_PKc@plt>
  403506:	48 89 c7             	mov    %rax,%rdi
  403509:	41 8b 75 0c          	mov    0xc(%r13),%esi
  40350d:	e8 8e e2 ff ff       	callq  4017a0 <_ZNSolsEi@plt>
  403512:	48 89 c7             	mov    %rax,%rdi
  403515:	be a0 15 40 00       	mov    $0x4015a0,%esi
  40351a:	e8 31 e1 ff ff       	callq  401650 <_ZNSolsEPFRSoS_E@plt>
  40351f:	41 8b 4c 24 08       	mov    0x8(%r12),%ecx
  403524:	85 c9                	test   %ecx,%ecx
  403526:	0f 8e 95 00 00 00    	jle    4035c1 <_Z13assert_equalsRK6MatrixS1_+0x171>
  40352c:	41 8b 44 24 0c       	mov    0xc(%r12),%eax
  403531:	31 f6                	xor    %esi,%esi
  403533:	4c 89 7c 24 08       	mov    %r15,0x8(%rsp)
  403538:	c5 fb 10 05 08 0f 01 	vmovsd 0x10f08(%rip),%xmm0        # 414448 <_IO_stdin_used+0x108>
  40353f:	00 
  403540:	48 89 1c 24          	mov    %rbx,(%rsp)
  403544:	89 f3                	mov    %esi,%ebx
  403546:	45 31 ff             	xor    %r15d,%r15d
  403549:	85 c0                	test   %eax,%eax
  40354b:	7e 5b                	jle    4035a8 <_Z13assert_equalsRK6MatrixS1_+0x158>
  40354d:	49 8b 04 24          	mov    (%r12),%rax
  403551:	4c 89 e7             	mov    %r12,%rdi
  403554:	89 de                	mov    %ebx,%esi
  403556:	44 89 fa             	mov    %r15d,%edx
  403559:	ff 10                	callq  *(%rax)
  40355b:	c5 fb 11 44 24 28    	vmovsd %xmm0,0x28(%rsp)
  403561:	49 8b 45 00          	mov    0x0(%r13),%rax
  403565:	4c 89 ef             	mov    %r13,%rdi
  403568:	89 de                	mov    %ebx,%esi
  40356a:	44 89 fa             	mov    %r15d,%edx
  40356d:	ff 10                	callq  *(%rax)
  40356f:	c5 f9 28 c8          	vmovapd %xmm0,%xmm1
  403573:	c5 fb 10 44 24 28    	vmovsd 0x28(%rsp),%xmm0
  403579:	41 83 c7 01          	add    $0x1,%r15d
  40357d:	c5 fb 5c c9          	vsubsd %xmm1,%xmm0,%xmm1
  403581:	c5 f1 54 15 97 0e 01 	vandpd 0x10e97(%rip),%xmm1,%xmm2        # 414420 <_IO_stdin_used+0xe0>
  403588:	00 
  403589:	c5 eb c2 1d b6 0e 01 	vcmpngtsd 0x10eb6(%rip),%xmm2,%xmm3        # 414448 <_IO_stdin_used+0x108>
  403590:	00 0a 
  403592:	c5 f9 7e d8          	vmovd  %xmm3,%eax
  403596:	41 21 c6             	and    %eax,%r14d
  403599:	41 8b 44 24 0c       	mov    0xc(%r12),%eax
  40359e:	41 39 c7             	cmp    %eax,%r15d
  4035a1:	7c aa                	jl     40354d <_Z13assert_equalsRK6MatrixS1_+0xfd>
  4035a3:	41 8b 4c 24 08       	mov    0x8(%r12),%ecx
  4035a8:	83 c3 01             	add    $0x1,%ebx
  4035ab:	39 cb                	cmp    %ecx,%ebx
  4035ad:	7c 97                	jl     403546 <_Z13assert_equalsRK6MatrixS1_+0xf6>
  4035af:	4c 8b 7c 24 08       	mov    0x8(%rsp),%r15
  4035b4:	48 8b 1c 24          	mov    (%rsp),%rbx
  4035b8:	45 85 f6             	test   %r14d,%r14d
  4035bb:	0f 85 a7 01 00 00    	jne    403768 <_Z13assert_equalsRK6MatrixS1_+0x318>
  4035c1:	bf c0 7a 61 00       	mov    $0x617ac0,%edi
  4035c6:	be a0 15 40 00       	mov    $0x4015a0,%esi
  4035cb:	e8 80 e0 ff ff       	callq  401650 <_ZNSolsEPFRSoS_E@plt>
  4035d0:	48 89 c7             	mov    %rax,%rdi
  4035d3:	be a0 15 40 00       	mov    $0x4015a0,%esi
  4035d8:	e8 73 e0 ff ff       	callq  401650 <_ZNSolsEPFRSoS_E@plt>
  4035dd:	48 89 c7             	mov    %rax,%rdi
  4035e0:	be fc 44 41 00       	mov    $0x4144fc,%esi
  4035e5:	e8 36 e0 ff ff       	callq  401620 <_ZStlsISt11char_traitsIcEERSt13basic_ostreamIcT_ES5_PKc@plt>
  4035ea:	48 89 c7             	mov    %rax,%rdi
  4035ed:	be a0 15 40 00       	mov    $0x4015a0,%esi
  4035f2:	e8 59 e0 ff ff       	callq  401650 <_ZNSolsEPFRSoS_E@plt>
  4035f7:	45 31 f6             	xor    %r14d,%r14d
  4035fa:	41 83 7c 24 08 00    	cmpl   $0x0,0x8(%r12)
  403600:	0f 8e 8e 00 00 00    	jle    403694 <_Z13assert_equalsRK6MatrixS1_+0x244>
  403606:	4c 89 7c 24 08       	mov    %r15,0x8(%rsp)
  40360b:	48 89 1c 24          	mov    %rbx,(%rsp)
  40360f:	48 89 c3             	mov    %rax,%rbx
  403612:	45 31 ff             	xor    %r15d,%r15d
  403615:	41 83 7c 24 0c 00    	cmpl   $0x0,0xc(%r12)
  40361b:	7e 56                	jle    403673 <_Z13assert_equalsRK6MatrixS1_+0x223>
  40361d:	48 89 df             	mov    %rbx,%rdi
  403620:	be 40 0e 41 00       	mov    $0x410e40,%esi
  403625:	e8 36 df ff ff       	callq  401560 <_ZNSolsEPFRSt8ios_baseS0_E@plt>
  40362a:	48 89 c7             	mov    %rax,%rdi
  40362d:	be 0a 00 00 00       	mov    $0xa,%esi
  403632:	e8 59 e0 ff ff       	callq  401690 <_ZStlsIcSt11char_traitsIcEERSt13basic_ostreamIT_T0_ES6_St5_Setw@plt>
  403637:	48 89 c7             	mov    %rax,%rdi
  40363a:	be 02 00 00 00       	mov    $0x2,%esi
  40363f:	e8 fc e0 ff ff       	callq  401740 <_ZStlsIcSt11char_traitsIcEERSt13basic_ostreamIT_T0_ES6_St13_Setprecision@plt>
  403644:	49 8b 0c 24          	mov    (%r12),%rcx
  403648:	4c 89 e7             	mov    %r12,%rdi
  40364b:	44 89 f6             	mov    %r14d,%esi
  40364e:	44 89 fa             	mov    %r15d,%edx
  403651:	ff 11                	callq  *(%rcx)
  403653:	48 89 df             	mov    %rbx,%rdi
  403656:	e8 85 e1 ff ff       	callq  4017e0 <_ZNSolsEd@plt>
  40365b:	48 89 c7             	mov    %rax,%rdi
  40365e:	be 2c 45 41 00       	mov    $0x41452c,%esi
  403663:	e8 b8 df ff ff       	callq  401620 <_ZStlsISt11char_traitsIcEERSt13basic_ostreamIcT_ES5_PKc@plt>
  403668:	41 83 c7 01          	add    $0x1,%r15d
  40366c:	45 3b 7c 24 0c       	cmp    0xc(%r12),%r15d
  403671:	7c aa                	jl     40361d <_Z13assert_equalsRK6MatrixS1_+0x1cd>
  403673:	48 89 df             	mov    %rbx,%rdi
  403676:	be a0 15 40 00       	mov    $0x4015a0,%esi
  40367b:	e8 d0 df ff ff       	callq  401650 <_ZNSolsEPFRSoS_E@plt>
  403680:	41 83 c6 01          	add    $0x1,%r14d
  403684:	45 3b 74 24 08       	cmp    0x8(%r12),%r14d
  403689:	7c 87                	jl     403612 <_Z13assert_equalsRK6MatrixS1_+0x1c2>
  40368b:	4c 8b 7c 24 08       	mov    0x8(%rsp),%r15
  403690:	48 8b 1c 24          	mov    (%rsp),%rbx
  403694:	bf c0 7a 61 00       	mov    $0x617ac0,%edi
  403699:	be a0 15 40 00       	mov    $0x4015a0,%esi
  40369e:	e8 ad df ff ff       	callq  401650 <_ZNSolsEPFRSoS_E@plt>
  4036a3:	48 89 c7             	mov    %rax,%rdi
  4036a6:	be a0 15 40 00       	mov    $0x4015a0,%esi
  4036ab:	e8 a0 df ff ff       	callq  401650 <_ZNSolsEPFRSoS_E@plt>
  4036b0:	48 89 c7             	mov    %rax,%rdi
  4036b3:	be 08 45 41 00       	mov    $0x414508,%esi
  4036b8:	e8 63 df ff ff       	callq  401620 <_ZStlsISt11char_traitsIcEERSt13basic_ostreamIcT_ES5_PKc@plt>
  4036bd:	48 89 c7             	mov    %rax,%rdi
  4036c0:	be a0 15 40 00       	mov    $0x4015a0,%esi
  4036c5:	e8 86 df ff ff       	callq  401650 <_ZNSolsEPFRSoS_E@plt>
  4036ca:	49 89 c6             	mov    %rax,%r14
  4036cd:	45 31 e4             	xor    %r12d,%r12d
  4036d0:	41 83 7d 08 00       	cmpl   $0x0,0x8(%r13)
  4036d5:	0f 8e 80 00 00 00    	jle    40375b <_Z13assert_equalsRK6MatrixS1_+0x30b>
  4036db:	4c 89 7c 24 08       	mov    %r15,0x8(%rsp)
  4036e0:	45 31 ff             	xor    %r15d,%r15d
  4036e3:	41 83 7d 0c 00       	cmpl   $0x0,0xc(%r13)
  4036e8:	7e 55                	jle    40373f <_Z13assert_equalsRK6MatrixS1_+0x2ef>
  4036ea:	4c 89 f7             	mov    %r14,%rdi
  4036ed:	be 40 0e 41 00       	mov    $0x410e40,%esi
  4036f2:	e8 69 de ff ff       	callq  401560 <_ZNSolsEPFRSt8ios_baseS0_E@plt>
  4036f7:	48 89 c7             	mov    %rax,%rdi
  4036fa:	be 0a 00 00 00       	mov    $0xa,%esi
  4036ff:	e8 8c df ff ff       	callq  401690 <_ZStlsIcSt11char_traitsIcEERSt13basic_ostreamIT_T0_ES6_St5_Setw@plt>
  403704:	48 89 c7             	mov    %rax,%rdi
  403707:	be 02 00 00 00       	mov    $0x2,%esi
  40370c:	e8 2f e0 ff ff       	callq  401740 <_ZStlsIcSt11char_traitsIcEERSt13basic_ostreamIT_T0_ES6_St13_Setprecision@plt>
  403711:	49 8b 45 00          	mov    0x0(%r13),%rax
  403715:	4c 89 ef             	mov    %r13,%rdi
  403718:	44 89 e6             	mov    %r12d,%esi
  40371b:	44 89 fa             	mov    %r15d,%edx
  40371e:	ff 10                	callq  *(%rax)
  403720:	4c 89 f7             	mov    %r14,%rdi
  403723:	e8 b8 e0 ff ff       	callq  4017e0 <_ZNSolsEd@plt>
  403728:	48 89 c7             	mov    %rax,%rdi
  40372b:	be 2c 45 41 00       	mov    $0x41452c,%esi
  403730:	e8 eb de ff ff       	callq  401620 <_ZStlsISt11char_traitsIcEERSt13basic_ostreamIcT_ES5_PKc@plt>
  403735:	41 83 c7 01          	add    $0x1,%r15d
  403739:	45 3b 7d 0c          	cmp    0xc(%r13),%r15d
  40373d:	7c ab                	jl     4036ea <_Z13assert_equalsRK6MatrixS1_+0x29a>
  40373f:	4c 89 f7             	mov    %r14,%rdi
  403742:	be a0 15 40 00       	mov    $0x4015a0,%esi
  403747:	e8 04 df ff ff       	callq  401650 <_ZNSolsEPFRSoS_E@plt>
  40374c:	41 83 c4 01          	add    $0x1,%r12d
  403750:	45 3b 65 08          	cmp    0x8(%r13),%r12d
  403754:	7c 8a                	jl     4036e0 <_Z13assert_equalsRK6MatrixS1_+0x290>
  403756:	4c 8b 7c 24 08       	mov    0x8(%rsp),%r15
  40375b:	4c 89 f7             	mov    %r14,%rdi
  40375e:	be a0 15 40 00       	mov    $0x4015a0,%esi
  403763:	e8 e8 de ff ff       	callq  401650 <_ZNSolsEPFRSoS_E@plt>
  403768:	4c 8b 64 24 20       	mov    0x20(%rsp),%r12
  40376d:	4c 8b 6c 24 18       	mov    0x18(%rsp),%r13
  403772:	4c 8b 74 24 10       	mov    0x10(%rsp),%r14
  403777:	48 83 c4 38          	add    $0x38,%rsp
  40377b:	c3                   	retq   
  40377c:	0f 1f 40 00          	nopl   0x0(%rax)

0000000000403780 <_Z15test_unrolled_8v>:
  403780:	55                   	push   %rbp
  403781:	48 89 e5             	mov    %rsp,%rbp
  403784:	48 83 e4 c0          	and    $0xffffffffffffffc0,%rsp
  403788:	48 81 ec 00 05 00 00 	sub    $0x500,%rsp
  40378f:	48 89 9c 24 48 04 00 	mov    %rbx,0x448(%rsp)
  403796:	00 
  403797:	b8 28 00 00 00       	mov    $0x28,%eax
  40379c:	4c 89 bc 24 50 04 00 	mov    %r15,0x450(%rsp)
  4037a3:	00 
  4037a4:	be 40 00 00 00       	mov    $0x40,%esi
  4037a9:	4c 89 b4 24 58 04 00 	mov    %r14,0x458(%rsp)
  4037b0:	00 
  4037b1:	48 8d bc 24 b0 04 00 	lea    0x4b0(%rsp),%rdi
  4037b8:	00 
  4037b9:	4c 89 ac 24 60 04 00 	mov    %r13,0x460(%rsp)
  4037c0:	00 
  4037c1:	ba 40 0b 00 00       	mov    $0xb40,%edx
  4037c6:	4c 89 a4 24 40 04 00 	mov    %r12,0x440(%rsp)
  4037cd:	00 
  4037ce:	48 c7 84 24 98 04 00 	movq   $0x617240,0x498(%rsp)
  4037d5:	00 40 72 61 00 
  4037da:	89 84 24 a8 04 00 00 	mov    %eax,0x4a8(%rsp)
  4037e1:	89 84 24 a0 04 00 00 	mov    %eax,0x4a0(%rsp)
  4037e8:	c7 84 24 a4 04 00 00 	movl   $0x9,0x4a4(%rsp)
  4037ef:	09 00 00 00 
  4037f3:	e8 c8 dd ff ff       	callq  4015c0 <posix_memalign@plt>
  4037f8:	8b 84 24 a4 04 00 00 	mov    0x4a4(%rsp),%eax
  4037ff:	45 31 e4             	xor    %r12d,%r12d
  403802:	85 c0                	test   %eax,%eax
  403804:	0f 8e 6e 02 00 00    	jle    403a78 <_Z15test_unrolled_8v+0x2f8>
  40380a:	44 8b 84 24 a0 04 00 	mov    0x4a0(%rsp),%r8d
  403811:	00 
  403812:	44 8b 8c 24 a8 04 00 	mov    0x4a8(%rsp),%r9d
  403819:	00 
  40381a:	ba 08 00 00 00       	mov    $0x8,%edx
  40381f:	62 f1 ed 48 ef d2    	vpxorq %zmm2,%zmm2,%zmm2
  403825:	45 31 ff             	xor    %r15d,%r15d
  403828:	c5 f9 6e ca          	vmovd  %edx,%xmm1
  40382c:	31 db                	xor    %ebx,%ebx
  40382e:	44 89 c6             	mov    %r8d,%esi
  403831:	49 63 f8             	movslq %r8d,%rdi
  403834:	4c 8b b4 24 b0 04 00 	mov    0x4b0(%rsp),%r14
  40383b:	00 
  40383c:	c5 fe 6f 05 bc 0b 01 	vmovdqu 0x10bbc(%rip),%ymm0        # 414400 <_IO_stdin_used+0xc0>
  403843:	00 
  403844:	83 e6 f8             	and    $0xfffffff8,%esi
  403847:	4d 63 e9             	movslq %r9d,%r13
  40384a:	48 63 ce             	movslq %esi,%rcx
  40384d:	48 89 4c 24 48       	mov    %rcx,0x48(%rsp)
  403852:	48 8d 14 fd 00 00 00 	lea    0x0(,%rdi,8),%rdx
  403859:	00 
  40385a:	48 89 54 24 40       	mov    %rdx,0x40(%rsp)
  40385f:	c4 e2 7d 58 c9       	vpbroadcastd %xmm1,%ymm1
  403864:	45 85 c0             	test   %r8d,%r8d
  403867:	0f 8e fe 00 00 00    	jle    40396b <_Z15test_unrolled_8v+0x1eb>
  40386d:	41 83 f8 0c          	cmp    $0xc,%r8d
  403871:	7e 77                	jle    4038ea <_Z15test_unrolled_8v+0x16a>
  403873:	c5 fe 7f 0c 24       	vmovdqu %ymm1,(%rsp)
  403878:	48 89 7c 24 20       	mov    %rdi,0x20(%rsp)
  40387d:	89 74 24 28          	mov    %esi,0x28(%rsp)
  403881:	44 89 44 24 30       	mov    %r8d,0x30(%rsp)
  403886:	44 89 4c 24 50       	mov    %r9d,0x50(%rsp)
  40388b:	89 44 24 38          	mov    %eax,0x38(%rsp)
  40388f:	4d 63 ff             	movslq %r15d,%r15
  403892:	31 f6                	xor    %esi,%esi
  403894:	48 8b 54 24 40       	mov    0x40(%rsp),%rdx
  403899:	4b 8d 3c fe          	lea    (%r14,%r15,8),%rdi
  40389d:	e8 de d9 00 00       	callq  411280 <__intel_mic_avx512f_memset>
  4038a2:	41 83 c4 01          	add    $0x1,%r12d
  4038a6:	4c 01 eb             	add    %r13,%rbx
  4038a9:	44 03 7c 24 50       	add    0x50(%rsp),%r15d
  4038ae:	44 3b 64 24 38       	cmp    0x38(%rsp),%r12d
  4038b3:	0f 83 a7 12 00 00    	jae    404b60 <LOOP_TOP_0_1+0x4c8>
  4038b9:	83 7c 24 30 0c       	cmpl   $0xc,0x30(%rsp)
  4038be:	7f cf                	jg     40388f <_Z15test_unrolled_8v+0x10f>
  4038c0:	c5 fe 6f 05 38 0b 01 	vmovdqu 0x10b38(%rip),%ymm0        # 414400 <_IO_stdin_used+0xc0>
  4038c7:	00 
  4038c8:	c5 fe 6f 0c 24       	vmovdqu (%rsp),%ymm1
  4038cd:	62 f1 ed 48 ef d2    	vpxorq %zmm2,%zmm2,%zmm2
  4038d3:	48 8b 7c 24 20       	mov    0x20(%rsp),%rdi
  4038d8:	8b 74 24 28          	mov    0x28(%rsp),%esi
  4038dc:	44 8b 44 24 30       	mov    0x30(%rsp),%r8d
  4038e1:	44 8b 4c 24 50       	mov    0x50(%rsp),%r9d
  4038e6:	8b 44 24 38          	mov    0x38(%rsp),%eax
  4038ea:	41 83 f8 08          	cmp    $0x8,%r8d
  4038ee:	0f 8c 65 12 00 00    	jl     404b59 <LOOP_TOP_0_1+0x4c1>
  4038f4:	89 f2                	mov    %esi,%edx
  4038f6:	45 31 d2             	xor    %r10d,%r10d
  4038f9:	49 8d 0c de          	lea    (%r14,%rbx,8),%rcx
  4038fd:	4c 8b 5c 24 48       	mov    0x48(%rsp),%r11
  403902:	62 b1 fd 48 11 14 d1 	vmovupd %zmm2,(%rcx,%r10,8)
  403909:	49 83 c2 08          	add    $0x8,%r10
  40390d:	4d 39 da             	cmp    %r11,%r10
  403910:	72 f0                	jb     403902 <_Z15test_unrolled_8v+0x182>
  403912:	8d 4a 01             	lea    0x1(%rdx),%ecx
  403915:	44 39 c1             	cmp    %r8d,%ecx
  403918:	77 51                	ja     40396b <_Z15test_unrolled_8v+0x1eb>
  40391a:	45 89 c2             	mov    %r8d,%r10d
  40391d:	b9 ff 00 00 00       	mov    $0xff,%ecx
  403922:	c5 fd 6f e0          	vmovdqa %ymm0,%ymm4
  403926:	41 29 d2             	sub    %edx,%r10d
  403929:	48 63 d2             	movslq %edx,%rdx
  40392c:	c4 c1 79 6e da       	vmovd  %r10d,%xmm3
  403931:	4c 8d 1c 13          	lea    (%rbx,%rdx,1),%r11
  403935:	48 f7 da             	neg    %rdx
  403938:	c5 f8 92 c9          	kmovw  %ecx,%k1
  40393c:	c4 e2 7d 58 db       	vpbroadcastd %xmm3,%ymm3
  403941:	31 c9                	xor    %ecx,%ecx
  403943:	4f 8d 1c de          	lea    (%r14,%r11,8),%r11
  403947:	48 01 fa             	add    %rdi,%rdx
  40394a:	45 31 d2             	xor    %r10d,%r10d
  40394d:	48 83 c1 08          	add    $0x8,%rcx
  403951:	62 f1 65 49 66 d4    	vpcmpgtd %zmm4,%zmm3,%k2{%k1}
  403957:	62 91 fd 4a 11 14 1a 	vmovupd %zmm2,(%r10,%r11,1){%k2}
  40395e:	49 83 c2 40          	add    $0x40,%r10
  403962:	c5 dd fe e1          	vpaddd %ymm1,%ymm4,%ymm4
  403966:	48 39 d1             	cmp    %rdx,%rcx
  403969:	72 e2                	jb     40394d <_Z15test_unrolled_8v+0x1cd>
  40396b:	41 83 c4 01          	add    $0x1,%r12d
  40396f:	4c 01 eb             	add    %r13,%rbx
  403972:	45 01 cf             	add    %r9d,%r15d
  403975:	41 39 c4             	cmp    %eax,%r12d
  403978:	0f 82 e6 fe ff ff    	jb     403864 <_Z15test_unrolled_8v+0xe4>
  40397e:	31 c9                	xor    %ecx,%ecx
  403980:	8b 94 24 a8 04 00 00 	mov    0x4a8(%rsp),%edx
  403987:	4c 63 b4 24 a0 04 00 	movslq 0x4a0(%rsp),%r14
  40398e:	00 
  40398f:	31 db                	xor    %ebx,%ebx
  403991:	4c 8b bc 24 b0 04 00 	mov    0x4b0(%rsp),%r15
  403998:	00 
  403999:	c5 fb 10 05 8f 0a 01 	vmovsd 0x10a8f(%rip),%xmm0        # 414430 <_IO_stdin_used+0xf0>
  4039a0:	00 
  4039a1:	45 31 e4             	xor    %r12d,%r12d
  4039a4:	4d 85 f6             	test   %r14,%r14
  4039a7:	0f 8e be 00 00 00    	jle    403a6b <_Z15test_unrolled_8v+0x2eb>
  4039ad:	62 f3 fd 08 27 e0 00 	vgetmantsd $0x0,%xmm0,%xmm0,%xmm4
  4039b4:	89 54 24 08          	mov    %edx,0x8(%rsp)
  4039b8:	c5 fb 10 0d 90 0a 01 	vmovsd 0x10a90(%rip),%xmm1        # 414450 <_IO_stdin_used+0x110>
  4039bf:	00 
  4039c0:	89 0c 24             	mov    %ecx,(%rsp)
  4039c3:	62 f2 fd 08 43 d8    	vgetexpsd %xmm0,%xmm0,%xmm3
  4039c9:	89 44 24 38          	mov    %eax,0x38(%rsp)
  4039cd:	48 63 db             	movslq %ebx,%rbx
  4039d0:	c5 fb 11 64 24 28    	vmovsd %xmm4,0x28(%rsp)
  4039d6:	62 f2 dd 08 cb d4    	vrcp28sd %xmm4,%xmm4,%xmm2
  4039dc:	c5 fb 11 5c 24 10    	vmovsd %xmm3,0x10(%rsp)
  4039e2:	4d 8d 2c df          	lea    (%r15,%rbx,8),%r13
  4039e6:	c5 fb 11 54 24 18    	vmovsd %xmm2,0x18(%rsp)
  4039ec:	62 f2 ed 18 bd cc    	vfnmadd231sd {rn-sae},%xmm4,%xmm2,%xmm1
  4039f2:	62 f2 ed 18 99 ca    	vfmadd132sd {rn-sae},%xmm2,%xmm2,%xmm1
  4039f8:	c5 fb 11 4c 24 20    	vmovsd %xmm1,0x20(%rsp)
  4039fe:	e8 4d db ff ff       	callq  401550 <rand@plt>
  403a03:	c5 f9 57 c0          	vxorpd %xmm0,%xmm0,%xmm0
  403a07:	c5 fb 2a c0          	vcvtsi2sd %eax,%xmm0,%xmm0
  403a0b:	c5 fb 10 54 24 18    	vmovsd 0x18(%rsp),%xmm2
  403a11:	c5 fb 10 5c 24 28    	vmovsd 0x28(%rsp),%xmm3
  403a17:	62 f3 fd 08 27 e0 00 	vgetmantsd $0x0,%xmm0,%xmm0,%xmm4
  403a1e:	62 f2 fd 08 43 c8    	vgetexpsd %xmm0,%xmm0,%xmm1
  403a24:	c5 fb 10 6c 24 20    	vmovsd 0x20(%rsp),%xmm5
  403a2a:	62 f1 ef 18 59 f4    	vmulsd {rn-sae},%xmm4,%xmm2,%xmm6
  403a30:	c5 f3 5c 7c 24 10    	vsubsd 0x10(%rsp),%xmm1,%xmm7
  403a36:	62 f2 cd 18 bd e3    	vfnmadd231sd {rn-sae},%xmm3,%xmm6,%xmm4
  403a3c:	62 f2 dd 18 b9 f5    	vfmadd231sd {rn-sae},%xmm5,%xmm4,%xmm6
  403a42:	62 72 cd 08 2d c7    	vscalefsd %xmm7,%xmm6,%xmm8
  403a48:	c4 01 7b 11 44 e5 00 	vmovsd %xmm8,0x0(%r13,%r12,8)
  403a4f:	49 83 c4 01          	add    $0x1,%r12
  403a53:	4d 39 f4             	cmp    %r14,%r12
  403a56:	72 a6                	jb     4039fe <_Z15test_unrolled_8v+0x27e>
  403a58:	c5 fb 10 05 d0 09 01 	vmovsd 0x109d0(%rip),%xmm0        # 414430 <_IO_stdin_used+0xf0>
  403a5f:	00 
  403a60:	8b 54 24 08          	mov    0x8(%rsp),%edx
  403a64:	8b 0c 24             	mov    (%rsp),%ecx
  403a67:	8b 44 24 38          	mov    0x38(%rsp),%eax
  403a6b:	83 c1 01             	add    $0x1,%ecx
  403a6e:	01 d3                	add    %edx,%ebx
  403a70:	39 c1                	cmp    %eax,%ecx
  403a72:	0f 82 29 ff ff ff    	jb     4039a1 <_Z15test_unrolled_8v+0x221>
  403a78:	bf 58 44 41 00       	mov    $0x414458,%edi
  403a7d:	48 c7 84 24 e0 04 00 	movq   $0x617240,0x4e0(%rsp)
  403a84:	00 40 72 61 00 
  403a89:	be 8c 44 41 00       	mov    $0x41448c,%esi
  403a8e:	e8 0d dc ff ff       	callq  4016a0 <fopen@plt>
  403a93:	49 89 c7             	mov    %rax,%r15
  403a96:	48 8d 7c 24 08       	lea    0x8(%rsp),%rdi
  403a9b:	be e8 03 00 00       	mov    $0x3e8,%esi
  403aa0:	4c 89 fa             	mov    %r15,%rdx
  403aa3:	e8 88 dc ff ff       	callq  401730 <fgets@plt>
  403aa8:	48 8d 7c 24 08       	lea    0x8(%rsp),%rdi
  403aad:	be e8 03 00 00       	mov    $0x3e8,%esi
  403ab2:	4c 89 fa             	mov    %r15,%rdx
  403ab5:	e8 76 dc ff ff       	callq  401730 <fgets@plt>
  403aba:	4c 89 ff             	mov    %r15,%rdi
  403abd:	be 90 44 41 00       	mov    $0x414490,%esi
  403ac2:	48 8d 94 24 e8 04 00 	lea    0x4e8(%rsp),%rdx
  403ac9:	00 
  403aca:	48 8d 8c 24 ec 04 00 	lea    0x4ec(%rsp),%rcx
  403ad1:	00 
  403ad2:	4c 8d 84 24 88 04 00 	lea    0x488(%rsp),%r8
  403ad9:	00 
  403ada:	31 c0                	xor    %eax,%eax
  403adc:	e8 0f dd ff ff       	callq  4017f0 <fscanf@plt>
  403ae1:	8b 84 24 e8 04 00 00 	mov    0x4e8(%rsp),%eax
  403ae8:	89 84 24 f0 04 00 00 	mov    %eax,0x4f0(%rsp)
  403aef:	8b 94 24 ec 04 00 00 	mov    0x4ec(%rsp),%edx
  403af6:	be 40 00 00 00       	mov    $0x40,%esi
  403afb:	48 8d bc 24 f8 04 00 	lea    0x4f8(%rsp),%rdi
  403b02:	00 
  403b03:	0f af d0             	imul   %eax,%edx
  403b06:	48 63 d2             	movslq %edx,%rdx
  403b09:	48 c1 e2 03          	shl    $0x3,%rdx
  403b0d:	e8 ae da ff ff       	callq  4015c0 <posix_memalign@plt>
  403b12:	8b 84 24 ec 04 00 00 	mov    0x4ec(%rsp),%eax
  403b19:	45 31 f6             	xor    %r14d,%r14d
  403b1c:	85 c0                	test   %eax,%eax
  403b1e:	0f 8e 9e 01 00 00    	jle    403cc2 <_Z15test_unrolled_8v+0x542>
  403b24:	8b 8c 24 e8 04 00 00 	mov    0x4e8(%rsp),%ecx
  403b2b:	4c 89 3c 24          	mov    %r15,(%rsp)
  403b2f:	bb 08 00 00 00       	mov    $0x8,%ebx
  403b34:	62 f1 ed 48 ef d2    	vpxorq %zmm2,%zmm2,%zmm2
  403b3a:	41 89 c7             	mov    %eax,%r15d
  403b3d:	48 8b b4 24 f8 04 00 	mov    0x4f8(%rsp),%rsi
  403b44:	00 
  403b45:	c5 f9 6e cb          	vmovd  %ebx,%xmm1
  403b49:	31 db                	xor    %ebx,%ebx
  403b4b:	4c 63 d1             	movslq %ecx,%r10
  403b4e:	41 89 c8             	mov    %ecx,%r8d
  403b51:	4c 63 ac 24 f0 04 00 	movslq 0x4f0(%rsp),%r13
  403b58:	00 
  403b59:	41 83 e0 f8          	and    $0xfffffff8,%r8d
  403b5d:	4e 8d 1c d5 00 00 00 	lea    0x0(,%r10,8),%r11
  403b64:	00 
  403b65:	4c 89 9c 24 38 04 00 	mov    %r11,0x438(%rsp)
  403b6c:	00 
  403b6d:	c5 fe 6f 05 8b 08 01 	vmovdqu 0x1088b(%rip),%ymm0        # 414400 <_IO_stdin_used+0xc0>
  403b74:	00 
  403b75:	49 89 f4             	mov    %rsi,%r12
  403b78:	c4 e2 7d 58 c9       	vpbroadcastd %xmm1,%ymm1
  403b7d:	4d 63 c8             	movslq %r8d,%r9
  403b80:	85 c9                	test   %ecx,%ecx
  403b82:	0f 8e 22 01 00 00    	jle    403caa <_Z15test_unrolled_8v+0x52a>
  403b88:	83 f9 0c             	cmp    $0xc,%ecx
  403b8b:	0f 8e 9e 00 00 00    	jle    403c2f <_Z15test_unrolled_8v+0x4af>
  403b91:	c5 fe 7f 8c 24 00 04 	vmovdqu %ymm1,0x400(%rsp)
  403b98:	00 00 
  403b9a:	4c 89 94 24 f0 03 00 	mov    %r10,0x3f0(%rsp)
  403ba1:	00 
  403ba2:	4c 89 8c 24 f8 03 00 	mov    %r9,0x3f8(%rsp)
  403ba9:	00 
  403baa:	44 89 84 24 20 04 00 	mov    %r8d,0x420(%rsp)
  403bb1:	00 
  403bb2:	48 89 b4 24 28 04 00 	mov    %rsi,0x428(%rsp)
  403bb9:	00 
  403bba:	89 8c 24 30 04 00 00 	mov    %ecx,0x430(%rsp)
  403bc1:	4c 89 e7             	mov    %r12,%rdi
  403bc4:	31 f6                	xor    %esi,%esi
  403bc6:	48 8b 94 24 38 04 00 	mov    0x438(%rsp),%rdx
  403bcd:	00 
  403bce:	e8 ad d6 00 00       	callq  411280 <__intel_mic_avx512f_memset>
  403bd3:	41 83 c6 01          	add    $0x1,%r14d
  403bd7:	4c 01 eb             	add    %r13,%rbx
  403bda:	4f 8d 24 ec          	lea    (%r12,%r13,8),%r12
  403bde:	45 39 fe             	cmp    %r15d,%r14d
  403be1:	0f 83 d7 00 00 00    	jae    403cbe <_Z15test_unrolled_8v+0x53e>
  403be7:	83 bc 24 30 04 00 00 	cmpl   $0xc,0x430(%rsp)
  403bee:	0c 
  403bef:	7f d0                	jg     403bc1 <_Z15test_unrolled_8v+0x441>
  403bf1:	c5 fe 6f 05 07 08 01 	vmovdqu 0x10807(%rip),%ymm0        # 414400 <_IO_stdin_used+0xc0>
  403bf8:	00 
  403bf9:	c5 fe 6f 8c 24 00 04 	vmovdqu 0x400(%rsp),%ymm1
  403c00:	00 00 
  403c02:	62 f1 ed 48 ef d2    	vpxorq %zmm2,%zmm2,%zmm2
  403c08:	4c 8b 94 24 f0 03 00 	mov    0x3f0(%rsp),%r10
  403c0f:	00 
  403c10:	4c 8b 8c 24 f8 03 00 	mov    0x3f8(%rsp),%r9
  403c17:	00 
  403c18:	44 8b 84 24 20 04 00 	mov    0x420(%rsp),%r8d
  403c1f:	00 
  403c20:	48 8b b4 24 28 04 00 	mov    0x428(%rsp),%rsi
  403c27:	00 
  403c28:	8b 8c 24 30 04 00 00 	mov    0x430(%rsp),%ecx
  403c2f:	83 f9 08             	cmp    $0x8,%ecx
  403c32:	0f 8c 1a 0f 00 00    	jl     404b52 <LOOP_TOP_0_1+0x4ba>
  403c38:	44 89 c0             	mov    %r8d,%eax
  403c3b:	45 31 db             	xor    %r11d,%r11d
  403c3e:	48 8d 14 de          	lea    (%rsi,%rbx,8),%rdx
  403c42:	62 b1 fd 48 11 14 da 	vmovupd %zmm2,(%rdx,%r11,8)
  403c49:	49 83 c3 08          	add    $0x8,%r11
  403c4d:	4d 39 cb             	cmp    %r9,%r11
  403c50:	72 f0                	jb     403c42 <_Z15test_unrolled_8v+0x4c2>
  403c52:	8d 50 01             	lea    0x1(%rax),%edx
  403c55:	39 ca                	cmp    %ecx,%edx
  403c57:	77 51                	ja     403caa <_Z15test_unrolled_8v+0x52a>
  403c59:	41 89 cb             	mov    %ecx,%r11d
  403c5c:	ba ff 00 00 00       	mov    $0xff,%edx
  403c61:	c5 fd 6f e0          	vmovdqa %ymm0,%ymm4
  403c65:	41 29 c3             	sub    %eax,%r11d
  403c68:	48 63 c0             	movslq %eax,%rax
  403c6b:	c4 c1 79 6e db       	vmovd  %r11d,%xmm3
  403c70:	4c 8d 1c 03          	lea    (%rbx,%rax,1),%r11
  403c74:	48 f7 d8             	neg    %rax
  403c77:	c5 f8 92 ca          	kmovw  %edx,%k1
  403c7b:	c4 e2 7d 58 db       	vpbroadcastd %xmm3,%ymm3
  403c80:	31 d2                	xor    %edx,%edx
  403c82:	4a 8d 3c de          	lea    (%rsi,%r11,8),%rdi
  403c86:	4c 01 d0             	add    %r10,%rax
  403c89:	45 31 db             	xor    %r11d,%r11d
  403c8c:	48 83 c2 08          	add    $0x8,%rdx
  403c90:	62 f1 65 49 66 d4    	vpcmpgtd %zmm4,%zmm3,%k2{%k1}
  403c96:	62 d1 fd 4a 11 14 3b 	vmovupd %zmm2,(%r11,%rdi,1){%k2}
  403c9d:	49 83 c3 40          	add    $0x40,%r11
  403ca1:	c5 dd fe e1          	vpaddd %ymm1,%ymm4,%ymm4
  403ca5:	48 39 c2             	cmp    %rax,%rdx
  403ca8:	72 e2                	jb     403c8c <_Z15test_unrolled_8v+0x50c>
  403caa:	41 83 c6 01          	add    $0x1,%r14d
  403cae:	4c 01 eb             	add    %r13,%rbx
  403cb1:	4f 8d 24 ec          	lea    (%r12,%r13,8),%r12
  403cb5:	45 39 fe             	cmp    %r15d,%r14d
  403cb8:	0f 82 c2 fe ff ff    	jb     403b80 <_Z15test_unrolled_8v+0x400>
  403cbe:	4c 8b 3c 24          	mov    (%rsp),%r15
  403cc2:	31 db                	xor    %ebx,%ebx
  403cc4:	83 bc 24 88 04 00 00 	cmpl   $0x0,0x488(%rsp)
  403ccb:	00 
  403ccc:	7e 64                	jle    403d32 <_Z15test_unrolled_8v+0x5b2>
  403cce:	4c 89 ff             	mov    %r15,%rdi
  403cd1:	be 9c 44 41 00       	mov    $0x41449c,%esi
  403cd6:	48 8d 94 24 8c 04 00 	lea    0x48c(%rsp),%rdx
  403cdd:	00 
  403cde:	48 8d 8c 24 90 04 00 	lea    0x490(%rsp),%rcx
  403ce5:	00 
  403ce6:	4c 8d 84 24 78 04 00 	lea    0x478(%rsp),%r8
  403ced:	00 
  403cee:	31 c0                	xor    %eax,%eax
  403cf0:	e8 fb da ff ff       	callq  4017f0 <fscanf@plt>
  403cf5:	8b 84 24 90 04 00 00 	mov    0x490(%rsp),%eax
  403cfc:	48 8b 8c 24 78 04 00 	mov    0x478(%rsp),%rcx
  403d03:	00 
  403d04:	83 c3 01             	add    $0x1,%ebx
  403d07:	83 c0 ff             	add    $0xffffffff,%eax
  403d0a:	48 8b b4 24 f8 04 00 	mov    0x4f8(%rsp),%rsi
  403d11:	00 
  403d12:	0f af 84 24 f0 04 00 	imul   0x4f0(%rsp),%eax
  403d19:	00 
  403d1a:	03 84 24 8c 04 00 00 	add    0x48c(%rsp),%eax
  403d21:	48 63 c0             	movslq %eax,%rax
  403d24:	48 89 4c c6 f8       	mov    %rcx,-0x8(%rsi,%rax,8)
  403d29:	3b 9c 24 88 04 00 00 	cmp    0x488(%rsp),%ebx
  403d30:	7c 9c                	jl     403cce <_Z15test_unrolled_8v+0x54e>
  403d32:	4c 89 ff             	mov    %r15,%rdi
  403d35:	e8 f6 d8 ff ff       	callq  401630 <fclose@plt>
  403d3a:	8b 8c 24 e8 04 00 00 	mov    0x4e8(%rsp),%ecx
  403d41:	b8 56 55 55 55       	mov    $0x55555556,%eax
  403d46:	8b 9c 24 ec 04 00 00 	mov    0x4ec(%rsp),%ebx
  403d4d:	bf 30 00 00 00       	mov    $0x30,%edi
  403d52:	f7 e9                	imul   %ecx
  403d54:	c1 f9 1f             	sar    $0x1f,%ecx
  403d57:	b8 56 55 55 55       	mov    $0x55555556,%eax
  403d5c:	29 ca                	sub    %ecx,%edx
  403d5e:	89 94 24 f8 03 00 00 	mov    %edx,0x3f8(%rsp)
  403d65:	f7 eb                	imul   %ebx
  403d67:	c1 fb 1f             	sar    $0x1f,%ebx
  403d6a:	29 da                	sub    %ebx,%edx
  403d6c:	89 14 24             	mov    %edx,(%rsp)
  403d6f:	e8 cc d8 ff ff       	callq  401640 <_Znwm@plt>
  403d74:	49 89 c4             	mov    %rax,%r12
  403d77:	48 63 84 24 e8 04 00 	movslq 0x4e8(%rsp),%rax
  403d7e:	00 
  403d7f:	49 c7 04 24 f8 71 61 	movq   $0x6171f8,(%r12)
  403d86:	00 
  403d87:	48 63 94 24 ec 04 00 	movslq 0x4ec(%rsp),%rdx
  403d8e:	00 
  403d8f:	41 89 44 24 08       	mov    %eax,0x8(%r12)
  403d94:	48 89 c3             	mov    %rax,%rbx
  403d97:	41 89 54 24 0c       	mov    %edx,0xc(%r12)
  403d9c:	48 0f af da          	imul   %rdx,%rbx
  403da0:	41 c7 44 24 10 00 00 	movl   $0x0,0x10(%r12)
  403da7:	00 00 
  403da9:	48 8d 3c dd 00 00 00 	lea    0x0(,%rbx,8),%rdi
  403db0:	00 
  403db1:	41 89 5c 24 14       	mov    %ebx,0x14(%r12)
  403db6:	e8 85 d7 ff ff       	callq  401540 <_Znam@plt>
  403dbb:	48 c1 e3 02          	shl    $0x2,%rbx
  403dbf:	49 89 44 24 18       	mov    %rax,0x18(%r12)
  403dc4:	48 89 df             	mov    %rbx,%rdi
  403dc7:	e8 74 d7 ff ff       	callq  401540 <_Znam@plt>
  403dcc:	48 89 df             	mov    %rbx,%rdi
  403dcf:	49 89 44 24 20       	mov    %rax,0x20(%r12)
  403dd4:	e8 67 d7 ff ff       	callq  401540 <_Znam@plt>
  403dd9:	49 89 44 24 28       	mov    %rax,0x28(%r12)
  403dde:	83 3c 24 00          	cmpl   $0x0,(%rsp)
  403de2:	4c 89 a4 24 d8 04 00 	mov    %r12,0x4d8(%rsp)
  403de9:	00 
  403dea:	c7 84 24 f0 03 00 00 	movl   $0x0,0x3f0(%rsp)
  403df1:	00 00 00 00 
  403df5:	0f 8e bf 00 00 00    	jle    403eba <_Z15test_unrolled_8v+0x73a>
  403dfb:	45 31 ff             	xor    %r15d,%r15d
  403dfe:	44 89 bc 24 00 04 00 	mov    %r15d,0x400(%rsp)
  403e05:	00 
  403e06:	83 bc 24 f8 03 00 00 	cmpl   $0x0,0x3f8(%rsp)
  403e0d:	00 
  403e0e:	0f 8e 8c 00 00 00    	jle    403ea0 <_Z15test_unrolled_8v+0x720>
  403e14:	8b 84 24 f0 03 00 00 	mov    0x3f0(%rsp),%eax
  403e1b:	8d 14 40             	lea    (%rax,%rax,2),%edx
  403e1e:	89 94 24 08 04 00 00 	mov    %edx,0x408(%rsp)
  403e25:	45 31 f6             	xor    %r14d,%r14d
  403e28:	8b 84 24 08 04 00 00 	mov    0x408(%rsp),%eax
  403e2f:	45 31 ed             	xor    %r13d,%r13d
  403e32:	42 8d 1c 30          	lea    (%rax,%r14,1),%ebx
  403e36:	47 8d 24 2f          	lea    (%r15,%r13,1),%r12d
  403e3a:	48 8b 84 24 e0 04 00 	mov    0x4e0(%rsp),%rax
  403e41:	00 
  403e42:	89 da                	mov    %ebx,%edx
  403e44:	48 8d bc 24 e0 04 00 	lea    0x4e0(%rsp),%rdi
  403e4b:	00 
  403e4c:	44 89 e6             	mov    %r12d,%esi
  403e4f:	ff 10                	callq  *(%rax)
  403e51:	c5 f9 54 0d c7 05 01 	vandpd 0x105c7(%rip),%xmm0,%xmm1        # 414420 <_IO_stdin_used+0xe0>
  403e58:	00 
  403e59:	62 f1 f7 08 c2 05 e4 	vcmpgtsd 0x105e4(%rip),%xmm1,%k0        # 414448 <_IO_stdin_used+0x108>
  403e60:	05 01 00 0e 
  403e64:	c5 f8 98 c0          	kortestw %k0,%k0
  403e68:	0f 85 a5 0c 00 00    	jne    404b13 <LOOP_TOP_0_1+0x47b>
  403e6e:	41 83 c5 01          	add    $0x1,%r13d
  403e72:	41 83 fd 03          	cmp    $0x3,%r13d
  403e76:	7c be                	jl     403e36 <_Z15test_unrolled_8v+0x6b6>
  403e78:	41 83 c6 01          	add    $0x1,%r14d
  403e7c:	41 83 fe 03          	cmp    $0x3,%r14d
  403e80:	7c a6                	jl     403e28 <_Z15test_unrolled_8v+0x6a8>
  403e82:	8b 84 24 00 04 00 00 	mov    0x400(%rsp),%eax
  403e89:	41 83 c7 03          	add    $0x3,%r15d
  403e8d:	83 c0 01             	add    $0x1,%eax
  403e90:	89 84 24 00 04 00 00 	mov    %eax,0x400(%rsp)
  403e97:	3b 84 24 f8 03 00 00 	cmp    0x3f8(%rsp),%eax
  403e9e:	7c 85                	jl     403e25 <_Z15test_unrolled_8v+0x6a5>
  403ea0:	8b 84 24 f0 03 00 00 	mov    0x3f0(%rsp),%eax
  403ea7:	83 c0 01             	add    $0x1,%eax
  403eaa:	89 84 24 f0 03 00 00 	mov    %eax,0x3f0(%rsp)
  403eb1:	3b 04 24             	cmp    (%rsp),%eax
  403eb4:	0f 8c 41 ff ff ff    	jl     403dfb <_Z15test_unrolled_8v+0x67b>
  403eba:	b8 28 00 00 00       	mov    $0x28,%eax
  403ebf:	48 c7 84 24 b8 04 00 	movq   $0x617240,0x4b8(%rsp)
  403ec6:	00 40 72 61 00 
  403ecb:	48 8d bc 24 d0 04 00 	lea    0x4d0(%rsp),%rdi
  403ed2:	00 
  403ed3:	89 84 24 c8 04 00 00 	mov    %eax,0x4c8(%rsp)
  403eda:	be 40 00 00 00       	mov    $0x40,%esi
  403edf:	89 84 24 c0 04 00 00 	mov    %eax,0x4c0(%rsp)
  403ee6:	ba c0 12 00 00       	mov    $0x12c0,%edx
  403eeb:	c7 84 24 c4 04 00 00 	movl   $0xf,0x4c4(%rsp)
  403ef2:	0f 00 00 00 
  403ef6:	e8 c5 d6 ff ff       	callq  4015c0 <posix_memalign@plt>
  403efb:	44 8b ac 24 c4 04 00 	mov    0x4c4(%rsp),%r13d
  403f02:	00 
  403f03:	45 31 ff             	xor    %r15d,%r15d
  403f06:	45 85 ed             	test   %r13d,%r13d
  403f09:	0f 8e 92 01 00 00    	jle    4040a1 <_Z15test_unrolled_8v+0x921>
  403f0f:	44 8b 94 24 c0 04 00 	mov    0x4c0(%rsp),%r10d
  403f16:	00 
  403f17:	4c 8b 8c 24 d0 04 00 	mov    0x4d0(%rsp),%r9
  403f1e:	00 
  403f1f:	b8 08 00 00 00       	mov    $0x8,%eax
  403f24:	62 f1 ed 48 ef d2    	vpxorq %zmm2,%zmm2,%zmm2
  403f2a:	31 db                	xor    %ebx,%ebx
  403f2c:	c5 f9 6e c8          	vmovd  %eax,%xmm1
  403f30:	49 63 ca             	movslq %r10d,%rcx
  403f33:	45 89 d0             	mov    %r10d,%r8d
  403f36:	4c 63 a4 24 c8 04 00 	movslq 0x4c8(%rsp),%r12
  403f3d:	00 
  403f3e:	c5 fe 6f 05 ba 04 01 	vmovdqu 0x104ba(%rip),%ymm0        # 414400 <_IO_stdin_used+0xc0>
  403f45:	00 
  403f46:	41 83 e0 f8          	and    $0xfffffff8,%r8d
  403f4a:	4d 89 ce             	mov    %r9,%r14
  403f4d:	48 8d 04 cd 00 00 00 	lea    0x0(,%rcx,8),%rax
  403f54:	00 
  403f55:	48 89 84 24 30 04 00 	mov    %rax,0x430(%rsp)
  403f5c:	00 
  403f5d:	c4 e2 7d 58 c9       	vpbroadcastd %xmm1,%ymm1
  403f62:	49 63 f0             	movslq %r8d,%rsi
  403f65:	45 85 d2             	test   %r10d,%r10d
  403f68:	0f 8e 1f 01 00 00    	jle    40408d <_Z15test_unrolled_8v+0x90d>
  403f6e:	41 83 fa 0c          	cmp    $0xc,%r10d
  403f72:	0f 8e 98 00 00 00    	jle    404010 <_Z15test_unrolled_8v+0x890>
  403f78:	c5 fe 7f 8c 24 00 04 	vmovdqu %ymm1,0x400(%rsp)
  403f7f:	00 00 
  403f81:	48 89 0c 24          	mov    %rcx,(%rsp)
  403f85:	48 89 b4 24 f0 03 00 	mov    %rsi,0x3f0(%rsp)
  403f8c:	00 
  403f8d:	44 89 84 24 f8 03 00 	mov    %r8d,0x3f8(%rsp)
  403f94:	00 
  403f95:	4c 89 8c 24 20 04 00 	mov    %r9,0x420(%rsp)
  403f9c:	00 
  403f9d:	44 89 94 24 28 04 00 	mov    %r10d,0x428(%rsp)
  403fa4:	00 
  403fa5:	4c 89 f7             	mov    %r14,%rdi
  403fa8:	31 f6                	xor    %esi,%esi
  403faa:	48 8b 94 24 30 04 00 	mov    0x430(%rsp),%rdx
  403fb1:	00 
  403fb2:	e8 c9 d2 00 00       	callq  411280 <__intel_mic_avx512f_memset>
  403fb7:	41 83 c7 01          	add    $0x1,%r15d
  403fbb:	4c 01 e3             	add    %r12,%rbx
  403fbe:	4f 8d 34 e6          	lea    (%r14,%r12,8),%r14
  403fc2:	45 39 ef             	cmp    %r13d,%r15d
  403fc5:	0f 83 d6 00 00 00    	jae    4040a1 <_Z15test_unrolled_8v+0x921>
  403fcb:	83 bc 24 28 04 00 00 	cmpl   $0xc,0x428(%rsp)
  403fd2:	0c 
  403fd3:	7f d0                	jg     403fa5 <_Z15test_unrolled_8v+0x825>
  403fd5:	c5 fe 6f 05 23 04 01 	vmovdqu 0x10423(%rip),%ymm0        # 414400 <_IO_stdin_used+0xc0>
  403fdc:	00 
  403fdd:	c5 fe 6f 8c 24 00 04 	vmovdqu 0x400(%rsp),%ymm1
  403fe4:	00 00 
  403fe6:	62 f1 ed 48 ef d2    	vpxorq %zmm2,%zmm2,%zmm2
  403fec:	48 8b b4 24 f0 03 00 	mov    0x3f0(%rsp),%rsi
  403ff3:	00 
  403ff4:	44 8b 84 24 f8 03 00 	mov    0x3f8(%rsp),%r8d
  403ffb:	00 
  403ffc:	4c 8b 8c 24 20 04 00 	mov    0x420(%rsp),%r9
  404003:	00 
  404004:	44 8b 94 24 28 04 00 	mov    0x428(%rsp),%r10d
  40400b:	00 
  40400c:	48 8b 0c 24          	mov    (%rsp),%rcx
  404010:	41 83 fa 08          	cmp    $0x8,%r10d
  404014:	0f 8c f2 0a 00 00    	jl     404b0c <LOOP_TOP_0_1+0x474>
  40401a:	44 89 c0             	mov    %r8d,%eax
  40401d:	45 31 db             	xor    %r11d,%r11d
  404020:	49 8d 14 d9          	lea    (%r9,%rbx,8),%rdx
  404024:	62 b1 fd 48 11 14 da 	vmovupd %zmm2,(%rdx,%r11,8)
  40402b:	49 83 c3 08          	add    $0x8,%r11
  40402f:	49 39 f3             	cmp    %rsi,%r11
  404032:	72 f0                	jb     404024 <_Z15test_unrolled_8v+0x8a4>
  404034:	8d 50 01             	lea    0x1(%rax),%edx
  404037:	44 39 d2             	cmp    %r10d,%edx
  40403a:	77 51                	ja     40408d <_Z15test_unrolled_8v+0x90d>
  40403c:	45 89 d3             	mov    %r10d,%r11d
  40403f:	ba ff 00 00 00       	mov    $0xff,%edx
  404044:	c5 fd 6f e0          	vmovdqa %ymm0,%ymm4
  404048:	41 29 c3             	sub    %eax,%r11d
  40404b:	48 63 c0             	movslq %eax,%rax
  40404e:	c4 c1 79 6e db       	vmovd  %r11d,%xmm3
  404053:	4c 8d 1c 03          	lea    (%rbx,%rax,1),%r11
  404057:	48 f7 d8             	neg    %rax
  40405a:	c5 f8 92 ca          	kmovw  %edx,%k1
  40405e:	c4 e2 7d 58 db       	vpbroadcastd %xmm3,%ymm3
  404063:	31 d2                	xor    %edx,%edx
  404065:	4b 8d 3c d9          	lea    (%r9,%r11,8),%rdi
  404069:	48 01 c8             	add    %rcx,%rax
  40406c:	45 31 db             	xor    %r11d,%r11d
  40406f:	48 83 c2 08          	add    $0x8,%rdx
  404073:	62 f1 65 49 66 d4    	vpcmpgtd %zmm4,%zmm3,%k2{%k1}
  404079:	62 d1 fd 4a 11 14 3b 	vmovupd %zmm2,(%r11,%rdi,1){%k2}
  404080:	49 83 c3 40          	add    $0x40,%r11
  404084:	c5 dd fe e1          	vpaddd %ymm1,%ymm4,%ymm4
  404088:	48 39 c2             	cmp    %rax,%rdx
  40408b:	72 e2                	jb     40406f <_Z15test_unrolled_8v+0x8ef>
  40408d:	41 83 c7 01          	add    $0x1,%r15d
  404091:	4c 01 e3             	add    %r12,%rbx
  404094:	4f 8d 34 e6          	lea    (%r14,%r12,8),%r14
  404098:	45 39 ef             	cmp    %r13d,%r15d
  40409b:	0f 82 c4 fe ff ff    	jb     403f65 <_Z15test_unrolled_8v+0x7e5>
  4040a1:	b8 28 00 00 00       	mov    $0x28,%eax
  4040a6:	48 c7 84 24 f0 03 00 	movq   $0x617240,0x3f0(%rsp)
  4040ad:	00 40 72 61 00 
  4040b2:	48 8d bc 24 08 04 00 	lea    0x408(%rsp),%rdi
  4040b9:	00 
  4040ba:	89 84 24 00 04 00 00 	mov    %eax,0x400(%rsp)
  4040c1:	be 40 00 00 00       	mov    $0x40,%esi
  4040c6:	89 84 24 f8 03 00 00 	mov    %eax,0x3f8(%rsp)
  4040cd:	ba c0 12 00 00       	mov    $0x12c0,%edx
  4040d2:	c7 84 24 fc 03 00 00 	movl   $0xf,0x3fc(%rsp)
  4040d9:	0f 00 00 00 
  4040dd:	e8 de d4 ff ff       	callq  4015c0 <posix_memalign@plt>
  4040e2:	44 8b ac 24 fc 03 00 	mov    0x3fc(%rsp),%r13d
  4040e9:	00 
  4040ea:	45 31 ff             	xor    %r15d,%r15d
  4040ed:	45 85 ed             	test   %r13d,%r13d
  4040f0:	0f 8e 8e 01 00 00    	jle    404284 <_Z15test_unrolled_8v+0xb04>
  4040f6:	44 8b 8c 24 f8 03 00 	mov    0x3f8(%rsp),%r9d
  4040fd:	00 
  4040fe:	4c 8b 84 24 08 04 00 	mov    0x408(%rsp),%r8
  404105:	00 
  404106:	b8 08 00 00 00       	mov    $0x8,%eax
  40410b:	62 f1 ed 48 ef d2    	vpxorq %zmm2,%zmm2,%zmm2
  404111:	31 db                	xor    %ebx,%ebx
  404113:	c5 f9 6e c8          	vmovd  %eax,%xmm1
  404117:	49 63 c9             	movslq %r9d,%rcx
  40411a:	44 89 ce             	mov    %r9d,%esi
  40411d:	4c 63 a4 24 00 04 00 	movslq 0x400(%rsp),%r12
  404124:	00 
  404125:	c5 fe 6f 05 d3 02 01 	vmovdqu 0x102d3(%rip),%ymm0        # 414400 <_IO_stdin_used+0xc0>
  40412c:	00 
  40412d:	83 e6 f8             	and    $0xfffffff8,%esi
  404130:	4d 89 c6             	mov    %r8,%r14
  404133:	48 8d 04 cd 00 00 00 	lea    0x0(,%rcx,8),%rax
  40413a:	00 
  40413b:	48 89 84 24 80 04 00 	mov    %rax,0x480(%rsp)
  404142:	00 
  404143:	4c 63 d6             	movslq %esi,%r10
  404146:	c4 e2 7d 58 c9       	vpbroadcastd %xmm1,%ymm1
  40414b:	45 85 c9             	test   %r9d,%r9d
  40414e:	0f 8e 1c 01 00 00    	jle    404270 <_Z15test_unrolled_8v+0xaf0>
  404154:	41 83 f9 0c          	cmp    $0xc,%r9d
  404158:	0f 8e 96 00 00 00    	jle    4041f4 <_Z15test_unrolled_8v+0xa74>
  40415e:	c5 fe 7f 8c 24 20 04 	vmovdqu %ymm1,0x420(%rsp)
  404165:	00 00 
  404167:	48 89 0c 24          	mov    %rcx,(%rsp)
  40416b:	4c 89 94 24 10 04 00 	mov    %r10,0x410(%rsp)
  404172:	00 
  404173:	89 b4 24 18 04 00 00 	mov    %esi,0x418(%rsp)
  40417a:	4c 89 84 24 68 04 00 	mov    %r8,0x468(%rsp)
  404181:	00 
  404182:	44 89 8c 24 70 04 00 	mov    %r9d,0x470(%rsp)
  404189:	00 
  40418a:	4c 89 f7             	mov    %r14,%rdi
  40418d:	31 f6                	xor    %esi,%esi
  40418f:	48 8b 94 24 80 04 00 	mov    0x480(%rsp),%rdx
  404196:	00 
  404197:	e8 e4 d0 00 00       	callq  411280 <__intel_mic_avx512f_memset>
  40419c:	41 83 c7 01          	add    $0x1,%r15d
  4041a0:	4c 01 e3             	add    %r12,%rbx
  4041a3:	4f 8d 34 e6          	lea    (%r14,%r12,8),%r14
  4041a7:	45 39 ef             	cmp    %r13d,%r15d
  4041aa:	0f 83 d4 00 00 00    	jae    404284 <_Z15test_unrolled_8v+0xb04>
  4041b0:	83 bc 24 70 04 00 00 	cmpl   $0xc,0x470(%rsp)
  4041b7:	0c 
  4041b8:	7f d0                	jg     40418a <_Z15test_unrolled_8v+0xa0a>
  4041ba:	c5 fe 6f 05 3e 02 01 	vmovdqu 0x1023e(%rip),%ymm0        # 414400 <_IO_stdin_used+0xc0>
  4041c1:	00 
  4041c2:	c5 fe 6f 8c 24 20 04 	vmovdqu 0x420(%rsp),%ymm1
  4041c9:	00 00 
  4041cb:	62 f1 ed 48 ef d2    	vpxorq %zmm2,%zmm2,%zmm2
  4041d1:	4c 8b 94 24 10 04 00 	mov    0x410(%rsp),%r10
  4041d8:	00 
  4041d9:	8b b4 24 18 04 00 00 	mov    0x418(%rsp),%esi
  4041e0:	48 8b 0c 24          	mov    (%rsp),%rcx
  4041e4:	4c 8b 84 24 68 04 00 	mov    0x468(%rsp),%r8
  4041eb:	00 
  4041ec:	44 8b 8c 24 70 04 00 	mov    0x470(%rsp),%r9d
  4041f3:	00 
  4041f4:	41 83 f9 08          	cmp    $0x8,%r9d
  4041f8:	0f 8c 07 09 00 00    	jl     404b05 <LOOP_TOP_0_1+0x46d>
  4041fe:	89 f0                	mov    %esi,%eax
  404200:	45 31 db             	xor    %r11d,%r11d
  404203:	49 8d 14 d8          	lea    (%r8,%rbx,8),%rdx
  404207:	62 b1 fd 48 11 14 da 	vmovupd %zmm2,(%rdx,%r11,8)
  40420e:	49 83 c3 08          	add    $0x8,%r11
  404212:	4d 39 d3             	cmp    %r10,%r11
  404215:	72 f0                	jb     404207 <_Z15test_unrolled_8v+0xa87>
  404217:	8d 50 01             	lea    0x1(%rax),%edx
  40421a:	44 39 ca             	cmp    %r9d,%edx
  40421d:	77 51                	ja     404270 <_Z15test_unrolled_8v+0xaf0>
  40421f:	45 89 cb             	mov    %r9d,%r11d
  404222:	ba ff 00 00 00       	mov    $0xff,%edx
  404227:	c5 fd 6f e0          	vmovdqa %ymm0,%ymm4
  40422b:	41 29 c3             	sub    %eax,%r11d
  40422e:	48 63 c0             	movslq %eax,%rax
  404231:	c4 c1 79 6e db       	vmovd  %r11d,%xmm3
  404236:	4c 8d 1c 03          	lea    (%rbx,%rax,1),%r11
  40423a:	48 f7 d8             	neg    %rax
  40423d:	c5 f8 92 ca          	kmovw  %edx,%k1
  404241:	c4 e2 7d 58 db       	vpbroadcastd %xmm3,%ymm3
  404246:	31 d2                	xor    %edx,%edx
  404248:	4b 8d 3c d8          	lea    (%r8,%r11,8),%rdi
  40424c:	48 01 c8             	add    %rcx,%rax
  40424f:	45 31 db             	xor    %r11d,%r11d
  404252:	48 83 c2 08          	add    $0x8,%rdx
  404256:	62 f1 65 49 66 d4    	vpcmpgtd %zmm4,%zmm3,%k2{%k1}
  40425c:	62 d1 fd 4a 11 14 3b 	vmovupd %zmm2,(%r11,%rdi,1){%k2}
  404263:	49 83 c3 40          	add    $0x40,%r11
  404267:	c5 dd fe e1          	vpaddd %ymm1,%ymm4,%ymm4
  40426b:	48 39 c2             	cmp    %rax,%rdx
  40426e:	72 e2                	jb     404252 <_Z15test_unrolled_8v+0xad2>
  404270:	41 83 c7 01          	add    $0x1,%r15d
  404274:	4c 01 e3             	add    %r12,%rbx
  404277:	4f 8d 34 e6          	lea    (%r14,%r12,8),%r14
  40427b:	45 39 ef             	cmp    %r13d,%r15d
  40427e:	0f 82 c7 fe ff ff    	jb     40414b <_Z15test_unrolled_8v+0x9cb>
  404284:	8b 84 24 c4 04 00 00 	mov    0x4c4(%rsp),%eax
  40428b:	89 04 24             	mov    %eax,(%rsp)
  40428e:	44 8b ac 24 c0 04 00 	mov    0x4c0(%rsp),%r13d
  404295:	00 
  404296:	45 31 ff             	xor    %r15d,%r15d
  404299:	44 8b b4 24 a4 04 00 	mov    0x4a4(%rsp),%r14d
  4042a0:	00 
  4042a1:	85 c0                	test   %eax,%eax
  4042a3:	0f 8e c6 00 00 00    	jle    40436f <_Z15test_unrolled_8v+0xbef>
  4042a9:	31 db                	xor    %ebx,%ebx
  4042ab:	45 85 f6             	test   %r14d,%r14d
  4042ae:	0f 8e ad 00 00 00    	jle    404361 <_Z15test_unrolled_8v+0xbe1>
  4042b4:	45 31 e4             	xor    %r12d,%r12d
  4042b7:	45 85 ed             	test   %r13d,%r13d
  4042ba:	0f 8e 95 00 00 00    	jle    404355 <_Z15test_unrolled_8v+0xbd5>
  4042c0:	48 8b 84 24 b8 04 00 	mov    0x4b8(%rsp),%rax
  4042c7:	00 
  4042c8:	48 8d bc 24 b8 04 00 	lea    0x4b8(%rsp),%rdi
  4042cf:	00 
  4042d0:	44 89 e6             	mov    %r12d,%esi
  4042d3:	44 89 fa             	mov    %r15d,%edx
  4042d6:	ff 10                	callq  *(%rax)
  4042d8:	c5 fb 11 84 24 18 04 	vmovsd %xmm0,0x418(%rsp)
  4042df:	00 00 
  4042e1:	48 8b 84 24 98 04 00 	mov    0x498(%rsp),%rax
  4042e8:	00 
  4042e9:	48 8d bc 24 98 04 00 	lea    0x498(%rsp),%rdi
  4042f0:	00 
  4042f1:	44 89 e6             	mov    %r12d,%esi
  4042f4:	89 da                	mov    %ebx,%edx
  4042f6:	ff 10                	callq  *(%rax)
  4042f8:	c5 fb 11 84 24 10 04 	vmovsd %xmm0,0x410(%rsp)
  4042ff:	00 00 
  404301:	48 8b 84 24 e0 04 00 	mov    0x4e0(%rsp),%rax
  404308:	00 
  404309:	48 8d bc 24 e0 04 00 	lea    0x4e0(%rsp),%rdi
  404310:	00 
  404311:	89 de                	mov    %ebx,%esi
  404313:	44 89 fa             	mov    %r15d,%edx
  404316:	ff 10                	callq  *(%rax)
  404318:	c5 f9 28 c8          	vmovapd %xmm0,%xmm1
  40431c:	c5 fb 10 84 24 18 04 	vmovsd 0x418(%rsp),%xmm0
  404323:	00 00 
  404325:	48 8b 84 24 b8 04 00 	mov    0x4b8(%rsp),%rax
  40432c:	00 
  40432d:	44 89 e6             	mov    %r12d,%esi
  404330:	44 89 fa             	mov    %r15d,%edx
  404333:	48 8d bc 24 b8 04 00 	lea    0x4b8(%rsp),%rdi
  40433a:	00 
  40433b:	c4 e2 f1 b9 84 24 10 	vfmadd231sd 0x410(%rsp),%xmm1,%xmm0
  404342:	04 00 00 
  404345:	ff 50 08             	callq  *0x8(%rax)
  404348:	41 83 c4 01          	add    $0x1,%r12d
  40434c:	45 39 ec             	cmp    %r13d,%r12d
  40434f:	0f 8c 6b ff ff ff    	jl     4042c0 <_Z15test_unrolled_8v+0xb40>
  404355:	83 c3 01             	add    $0x1,%ebx
  404358:	44 39 f3             	cmp    %r14d,%ebx
  40435b:	0f 8c 53 ff ff ff    	jl     4042b4 <_Z15test_unrolled_8v+0xb34>
  404361:	41 83 c7 01          	add    $0x1,%r15d
  404365:	44 3b 3c 24          	cmp    (%rsp),%r15d
  404369:	0f 8c 3a ff ff ff    	jl     4042a9 <_Z15test_unrolled_8v+0xb29>
  40436f:	48 8b 94 24 d8 04 00 	mov    0x4d8(%rsp),%rdx
  404376:	00 
  404377:	48 8b 84 24 b0 04 00 	mov    0x4b0(%rsp),%rax
  40437e:	00 
  40437f:	48 89 04 24          	mov    %rax,(%rsp)
  404383:	48 8b 4a 18          	mov    0x18(%rdx),%rcx
  404387:	48 89 8c 24 10 04 00 	mov    %rcx,0x410(%rsp)
  40438e:	00 
  40438f:	48 8b 9c 24 08 04 00 	mov    0x408(%rsp),%rbx
  404396:	00 
  404397:	48 89 9c 24 18 04 00 	mov    %rbx,0x418(%rsp)
  40439e:	00 
  40439f:	48 8d b4 24 f0 03 00 	lea    0x3f0(%rsp),%rsi
  4043a6:	00 
  4043a7:	48 8b 3c 24          	mov    (%rsp),%rdi
  4043ab:	48 8b b4 24 10 04 00 	mov    0x410(%rsp),%rsi
  4043b2:	00 
  4043b3:	48 8b 94 24 18 04 00 	mov    0x418(%rsp),%rdx
  4043ba:	00 
  4043bb:	49 c7 c4 00 00 00 00 	mov    $0x0,%r12

00000000004043c2 <LOOP_TOP_0_0>:
  4043c2:	62 61 fd 48 28 2a    	vmovapd (%rdx),%zmm29
  4043c8:	62 61 fd 48 28 72 05 	vmovapd 0x140(%rdx),%zmm30
  4043cf:	62 61 fd 48 28 7a 0a 	vmovapd 0x280(%rdx),%zmm31
  4043d6:	62 f1 fd 48 28 47 1e 	vmovapd 0x780(%rdi),%zmm0
  4043dd:	62 f1 fd 48 28 4f 23 	vmovapd 0x8c0(%rdi),%zmm1
  4043e4:	62 f1 fd 48 28 57 28 	vmovapd 0xa00(%rdi),%zmm2
  4043eb:	62 62 fd 58 b8 2e    	vfmadd231pd (%rsi){1to8},%zmm0,%zmm29
  4043f1:	62 62 fd 58 b8 76 03 	vfmadd231pd 0x18(%rsi){1to8},%zmm0,%zmm30
  4043f8:	62 62 fd 58 b8 7e 06 	vfmadd231pd 0x30(%rsi){1to8},%zmm0,%zmm31
  4043ff:	62 62 f5 58 b8 6e 01 	vfmadd231pd 0x8(%rsi){1to8},%zmm1,%zmm29
  404406:	62 62 f5 58 b8 76 04 	vfmadd231pd 0x20(%rsi){1to8},%zmm1,%zmm30
  40440d:	62 62 f5 58 b8 7e 07 	vfmadd231pd 0x38(%rsi){1to8},%zmm1,%zmm31
  404414:	62 62 ed 58 b8 6e 02 	vfmadd231pd 0x10(%rsi){1to8},%zmm2,%zmm29
  40441b:	62 62 ed 58 b8 76 05 	vfmadd231pd 0x28(%rsi){1to8},%zmm2,%zmm30
  404422:	62 62 ed 58 b8 7e 08 	vfmadd231pd 0x40(%rsi){1to8},%zmm2,%zmm31
  404429:	62 61 fd 48 29 2a    	vmovapd %zmm29,(%rdx)
  40442f:	62 61 fd 48 29 72 05 	vmovapd %zmm30,0x140(%rdx)
  404436:	62 61 fd 48 29 7a 0a 	vmovapd %zmm31,0x280(%rdx)
  40443d:	48 81 c2 c0 03 00 00 	add    $0x3c0,%rdx
  404444:	62 61 fd 48 28 2a    	vmovapd (%rdx),%zmm29
  40444a:	62 61 fd 48 28 72 05 	vmovapd 0x140(%rdx),%zmm30
  404451:	62 61 fd 48 28 7a 0a 	vmovapd 0x280(%rdx),%zmm31
  404458:	62 f1 fd 48 28 47 1e 	vmovapd 0x780(%rdi),%zmm0
  40445f:	62 f1 fd 48 28 4f 23 	vmovapd 0x8c0(%rdi),%zmm1
  404466:	62 f1 fd 48 28 57 28 	vmovapd 0xa00(%rdi),%zmm2
  40446d:	62 62 fd 58 b8 6e 09 	vfmadd231pd 0x48(%rsi){1to8},%zmm0,%zmm29
  404474:	62 62 fd 58 b8 7e 0d 	vfmadd231pd 0x68(%rsi){1to8},%zmm0,%zmm31
  40447b:	62 62 f5 58 b8 6e 0a 	vfmadd231pd 0x50(%rsi){1to8},%zmm1,%zmm29
  404482:	62 62 f5 58 b8 76 0b 	vfmadd231pd 0x58(%rsi){1to8},%zmm1,%zmm30
  404489:	62 62 ed 58 b8 76 0c 	vfmadd231pd 0x60(%rsi){1to8},%zmm2,%zmm30
  404490:	62 62 ed 58 b8 7e 0e 	vfmadd231pd 0x70(%rsi){1to8},%zmm2,%zmm31
  404497:	62 61 fd 48 29 2a    	vmovapd %zmm29,(%rdx)
  40449d:	62 61 fd 48 29 72 05 	vmovapd %zmm30,0x140(%rdx)
  4044a4:	62 61 fd 48 29 7a 0a 	vmovapd %zmm31,0x280(%rdx)
  4044ab:	48 81 c2 c0 03 00 00 	add    $0x3c0,%rdx
  4044b2:	62 61 fd 48 28 2a    	vmovapd (%rdx),%zmm29
  4044b8:	62 61 fd 48 28 72 05 	vmovapd 0x140(%rdx),%zmm30
  4044bf:	62 61 fd 48 28 7a 0a 	vmovapd 0x280(%rdx),%zmm31
  4044c6:	62 f1 fd 48 28 07    	vmovapd (%rdi),%zmm0
  4044cc:	62 f1 fd 48 28 4f 05 	vmovapd 0x140(%rdi),%zmm1
  4044d3:	62 f1 fd 48 28 57 0a 	vmovapd 0x280(%rdi),%zmm2
  4044da:	62 62 fd 58 b8 6e 0f 	vfmadd231pd 0x78(%rsi){1to8},%zmm0,%zmm29
  4044e1:	62 62 f5 58 b8 76 10 	vfmadd231pd 0x80(%rsi){1to8},%zmm1,%zmm30
  4044e8:	62 62 ed 58 b8 7e 11 	vfmadd231pd 0x88(%rsi){1to8},%zmm2,%zmm31
  4044ef:	62 f1 fd 48 28 47 0f 	vmovapd 0x3c0(%rdi),%zmm0
  4044f6:	62 f1 fd 48 28 4f 14 	vmovapd 0x500(%rdi),%zmm1
  4044fd:	62 f1 fd 48 28 57 19 	vmovapd 0x640(%rdi),%zmm2
  404504:	62 62 fd 58 b8 6e 12 	vfmadd231pd 0x90(%rsi){1to8},%zmm0,%zmm29
  40450b:	62 62 fd 58 b8 76 14 	vfmadd231pd 0xa0(%rsi){1to8},%zmm0,%zmm30
  404512:	62 62 fd 58 b8 7e 16 	vfmadd231pd 0xb0(%rsi){1to8},%zmm0,%zmm31
  404519:	62 62 f5 58 b8 76 15 	vfmadd231pd 0xa8(%rsi){1to8},%zmm1,%zmm30
  404520:	62 62 f5 58 b8 7e 17 	vfmadd231pd 0xb8(%rsi){1to8},%zmm1,%zmm31
  404527:	62 62 ed 58 b8 6e 13 	vfmadd231pd 0x98(%rsi){1to8},%zmm2,%zmm29
  40452e:	62 62 ed 58 b8 7e 18 	vfmadd231pd 0xc0(%rsi){1to8},%zmm2,%zmm31
  404535:	62 61 fd 48 29 2a    	vmovapd %zmm29,(%rdx)
  40453b:	62 61 fd 48 29 72 05 	vmovapd %zmm30,0x140(%rdx)
  404542:	62 61 fd 48 29 7a 0a 	vmovapd %zmm31,0x280(%rdx)
  404549:	48 81 c2 c0 03 00 00 	add    $0x3c0,%rdx
  404550:	62 61 fd 48 28 2a    	vmovapd (%rdx),%zmm29
  404556:	62 61 fd 48 28 72 05 	vmovapd 0x140(%rdx),%zmm30
  40455d:	62 61 fd 48 28 7a 0a 	vmovapd 0x280(%rdx),%zmm31
  404564:	62 f1 fd 48 28 47 1e 	vmovapd 0x780(%rdi),%zmm0
  40456b:	62 f1 fd 48 28 4f 23 	vmovapd 0x8c0(%rdi),%zmm1
  404572:	62 f1 fd 48 28 57 28 	vmovapd 0xa00(%rdi),%zmm2
  404579:	62 62 fd 58 b8 6e 19 	vfmadd231pd 0xc8(%rsi){1to8},%zmm0,%zmm29
  404580:	62 62 f5 58 b8 76 1a 	vfmadd231pd 0xd0(%rsi){1to8},%zmm1,%zmm30
  404587:	62 62 ed 58 b8 7e 1b 	vfmadd231pd 0xd8(%rsi){1to8},%zmm2,%zmm31
  40458e:	62 61 fd 48 29 2a    	vmovapd %zmm29,(%rdx)
  404594:	62 61 fd 48 29 72 05 	vmovapd %zmm30,0x140(%rdx)
  40459b:	62 61 fd 48 29 7a 0a 	vmovapd %zmm31,0x280(%rdx)
  4045a2:	48 81 c2 c0 03 00 00 	add    $0x3c0,%rdx
  4045a9:	62 61 fd 48 28 2a    	vmovapd (%rdx),%zmm29
  4045af:	62 61 fd 48 28 72 05 	vmovapd 0x140(%rdx),%zmm30
  4045b6:	62 61 fd 48 28 7a 0a 	vmovapd 0x280(%rdx),%zmm31
  4045bd:	62 f1 fd 48 28 47 1e 	vmovapd 0x780(%rdi),%zmm0
  4045c4:	62 f1 fd 48 28 4f 23 	vmovapd 0x8c0(%rdi),%zmm1
  4045cb:	62 f1 fd 48 28 57 28 	vmovapd 0xa00(%rdi),%zmm2
  4045d2:	62 62 fd 58 b8 6e 1c 	vfmadd231pd 0xe0(%rsi){1to8},%zmm0,%zmm29
  4045d9:	62 62 fd 58 b8 7e 20 	vfmadd231pd 0x100(%rsi){1to8},%zmm0,%zmm31
  4045e0:	62 62 f5 58 b8 6e 1d 	vfmadd231pd 0xe8(%rsi){1to8},%zmm1,%zmm29
  4045e7:	62 62 f5 58 b8 76 1e 	vfmadd231pd 0xf0(%rsi){1to8},%zmm1,%zmm30
  4045ee:	62 62 ed 58 b8 76 1f 	vfmadd231pd 0xf8(%rsi){1to8},%zmm2,%zmm30
  4045f5:	62 62 ed 58 b8 7e 21 	vfmadd231pd 0x108(%rsi){1to8},%zmm2,%zmm31
  4045fc:	62 61 fd 48 29 2a    	vmovapd %zmm29,(%rdx)
  404602:	62 61 fd 48 29 72 05 	vmovapd %zmm30,0x140(%rdx)
  404609:	62 61 fd 48 29 7a 0a 	vmovapd %zmm31,0x280(%rdx)
  404610:	48 83 c7 40          	add    $0x40,%rdi
  404614:	48 81 c2 40 f1 ff ff 	add    $0xfffffffffffff140,%rdx
  40461b:	49 83 c4 01          	add    $0x1,%r12
  40461f:	49 83 fc 05          	cmp    $0x5,%r12
  404623:	0f 8c 99 fd ff ff    	jl     4043c2 <LOOP_TOP_0_0>
  404629:	48 8d bc 24 b8 04 00 	lea    0x4b8(%rsp),%rdi
  404630:	00 
  404631:	e8 1a ee ff ff       	callq  403450 <_Z13assert_equalsRK6MatrixS1_>
  404636:	bf 01 00 00 00       	mov    $0x1,%edi
  40463b:	48 8d b4 24 10 04 00 	lea    0x410(%rsp),%rsi
  404642:	00 
  404643:	e8 a8 d0 ff ff       	callq  4016f0 <clock_gettime@plt>
  404648:	48 8b 84 24 d8 04 00 	mov    0x4d8(%rsp),%rax
  40464f:	00 
  404650:	48 8b 9c 24 b0 04 00 	mov    0x4b0(%rsp),%rbx
  404657:	00 
  404658:	31 f6                	xor    %esi,%esi
  40465a:	48 8b 8c 24 08 04 00 	mov    0x408(%rsp),%rcx
  404661:	00 
  404662:	48 8b 40 18          	mov    0x18(%rax),%rax
  404666:	83 c6 01             	add    $0x1,%esi
  404669:	48 89 1c 24          	mov    %rbx,(%rsp)
  40466d:	48 89 84 24 20 04 00 	mov    %rax,0x420(%rsp)
  404674:	00 
  404675:	48 89 8c 24 28 04 00 	mov    %rcx,0x428(%rsp)
  40467c:	00 
  40467d:	48 8b 3c 24          	mov    (%rsp),%rdi
  404681:	48 8b b4 24 20 04 00 	mov    0x420(%rsp),%rsi
  404688:	00 
  404689:	48 8b 94 24 28 04 00 	mov    0x428(%rsp),%rdx
  404690:	00 
  404691:	49 c7 c4 00 00 00 00 	mov    $0x0,%r12

0000000000404698 <LOOP_TOP_0_1>:
  404698:	62 61 fd 48 28 2a    	vmovapd (%rdx),%zmm29
  40469e:	62 61 fd 48 28 72 05 	vmovapd 0x140(%rdx),%zmm30
  4046a5:	62 61 fd 48 28 7a 0a 	vmovapd 0x280(%rdx),%zmm31
  4046ac:	62 f1 fd 48 28 47 1e 	vmovapd 0x780(%rdi),%zmm0
  4046b3:	62 f1 fd 48 28 4f 23 	vmovapd 0x8c0(%rdi),%zmm1
  4046ba:	62 f1 fd 48 28 57 28 	vmovapd 0xa00(%rdi),%zmm2
  4046c1:	62 62 fd 58 b8 2e    	vfmadd231pd (%rsi){1to8},%zmm0,%zmm29
  4046c7:	62 62 fd 58 b8 76 03 	vfmadd231pd 0x18(%rsi){1to8},%zmm0,%zmm30
  4046ce:	62 62 fd 58 b8 7e 06 	vfmadd231pd 0x30(%rsi){1to8},%zmm0,%zmm31
  4046d5:	62 62 f5 58 b8 6e 01 	vfmadd231pd 0x8(%rsi){1to8},%zmm1,%zmm29
  4046dc:	62 62 f5 58 b8 76 04 	vfmadd231pd 0x20(%rsi){1to8},%zmm1,%zmm30
  4046e3:	62 62 f5 58 b8 7e 07 	vfmadd231pd 0x38(%rsi){1to8},%zmm1,%zmm31
  4046ea:	62 62 ed 58 b8 6e 02 	vfmadd231pd 0x10(%rsi){1to8},%zmm2,%zmm29
  4046f1:	62 62 ed 58 b8 76 05 	vfmadd231pd 0x28(%rsi){1to8},%zmm2,%zmm30
  4046f8:	62 62 ed 58 b8 7e 08 	vfmadd231pd 0x40(%rsi){1to8},%zmm2,%zmm31
  4046ff:	62 61 fd 48 29 2a    	vmovapd %zmm29,(%rdx)
  404705:	62 61 fd 48 29 72 05 	vmovapd %zmm30,0x140(%rdx)
  40470c:	62 61 fd 48 29 7a 0a 	vmovapd %zmm31,0x280(%rdx)
  404713:	48 81 c2 c0 03 00 00 	add    $0x3c0,%rdx
  40471a:	62 61 fd 48 28 2a    	vmovapd (%rdx),%zmm29
  404720:	62 61 fd 48 28 72 05 	vmovapd 0x140(%rdx),%zmm30
  404727:	62 61 fd 48 28 7a 0a 	vmovapd 0x280(%rdx),%zmm31
  40472e:	62 f1 fd 48 28 47 1e 	vmovapd 0x780(%rdi),%zmm0
  404735:	62 f1 fd 48 28 4f 23 	vmovapd 0x8c0(%rdi),%zmm1
  40473c:	62 f1 fd 48 28 57 28 	vmovapd 0xa00(%rdi),%zmm2
  404743:	62 62 fd 58 b8 6e 09 	vfmadd231pd 0x48(%rsi){1to8},%zmm0,%zmm29
  40474a:	62 62 fd 58 b8 7e 0d 	vfmadd231pd 0x68(%rsi){1to8},%zmm0,%zmm31
  404751:	62 62 f5 58 b8 6e 0a 	vfmadd231pd 0x50(%rsi){1to8},%zmm1,%zmm29
  404758:	62 62 f5 58 b8 76 0b 	vfmadd231pd 0x58(%rsi){1to8},%zmm1,%zmm30
  40475f:	62 62 ed 58 b8 76 0c 	vfmadd231pd 0x60(%rsi){1to8},%zmm2,%zmm30
  404766:	62 62 ed 58 b8 7e 0e 	vfmadd231pd 0x70(%rsi){1to8},%zmm2,%zmm31
  40476d:	62 61 fd 48 29 2a    	vmovapd %zmm29,(%rdx)
  404773:	62 61 fd 48 29 72 05 	vmovapd %zmm30,0x140(%rdx)
  40477a:	62 61 fd 48 29 7a 0a 	vmovapd %zmm31,0x280(%rdx)
  404781:	48 81 c2 c0 03 00 00 	add    $0x3c0,%rdx
  404788:	62 61 fd 48 28 2a    	vmovapd (%rdx),%zmm29
  40478e:	62 61 fd 48 28 72 05 	vmovapd 0x140(%rdx),%zmm30
  404795:	62 61 fd 48 28 7a 0a 	vmovapd 0x280(%rdx),%zmm31
  40479c:	62 f1 fd 48 28 07    	vmovapd (%rdi),%zmm0
  4047a2:	62 f1 fd 48 28 4f 05 	vmovapd 0x140(%rdi),%zmm1
  4047a9:	62 f1 fd 48 28 57 0a 	vmovapd 0x280(%rdi),%zmm2
  4047b0:	62 62 fd 58 b8 6e 0f 	vfmadd231pd 0x78(%rsi){1to8},%zmm0,%zmm29
  4047b7:	62 62 f5 58 b8 76 10 	vfmadd231pd 0x80(%rsi){1to8},%zmm1,%zmm30
  4047be:	62 62 ed 58 b8 7e 11 	vfmadd231pd 0x88(%rsi){1to8},%zmm2,%zmm31
  4047c5:	62 f1 fd 48 28 47 0f 	vmovapd 0x3c0(%rdi),%zmm0
  4047cc:	62 f1 fd 48 28 4f 14 	vmovapd 0x500(%rdi),%zmm1
  4047d3:	62 f1 fd 48 28 57 19 	vmovapd 0x640(%rdi),%zmm2
  4047da:	62 62 fd 58 b8 6e 12 	vfmadd231pd 0x90(%rsi){1to8},%zmm0,%zmm29
  4047e1:	62 62 fd 58 b8 76 14 	vfmadd231pd 0xa0(%rsi){1to8},%zmm0,%zmm30
  4047e8:	62 62 fd 58 b8 7e 16 	vfmadd231pd 0xb0(%rsi){1to8},%zmm0,%zmm31
  4047ef:	62 62 f5 58 b8 76 15 	vfmadd231pd 0xa8(%rsi){1to8},%zmm1,%zmm30
  4047f6:	62 62 f5 58 b8 7e 17 	vfmadd231pd 0xb8(%rsi){1to8},%zmm1,%zmm31
  4047fd:	62 62 ed 58 b8 6e 13 	vfmadd231pd 0x98(%rsi){1to8},%zmm2,%zmm29
  404804:	62 62 ed 58 b8 7e 18 	vfmadd231pd 0xc0(%rsi){1to8},%zmm2,%zmm31
  40480b:	62 61 fd 48 29 2a    	vmovapd %zmm29,(%rdx)
  404811:	62 61 fd 48 29 72 05 	vmovapd %zmm30,0x140(%rdx)
  404818:	62 61 fd 48 29 7a 0a 	vmovapd %zmm31,0x280(%rdx)
  40481f:	48 81 c2 c0 03 00 00 	add    $0x3c0,%rdx
  404826:	62 61 fd 48 28 2a    	vmovapd (%rdx),%zmm29
  40482c:	62 61 fd 48 28 72 05 	vmovapd 0x140(%rdx),%zmm30
  404833:	62 61 fd 48 28 7a 0a 	vmovapd 0x280(%rdx),%zmm31
  40483a:	62 f1 fd 48 28 47 1e 	vmovapd 0x780(%rdi),%zmm0
  404841:	62 f1 fd 48 28 4f 23 	vmovapd 0x8c0(%rdi),%zmm1
  404848:	62 f1 fd 48 28 57 28 	vmovapd 0xa00(%rdi),%zmm2
  40484f:	62 62 fd 58 b8 6e 19 	vfmadd231pd 0xc8(%rsi){1to8},%zmm0,%zmm29
  404856:	62 62 f5 58 b8 76 1a 	vfmadd231pd 0xd0(%rsi){1to8},%zmm1,%zmm30
  40485d:	62 62 ed 58 b8 7e 1b 	vfmadd231pd 0xd8(%rsi){1to8},%zmm2,%zmm31
  404864:	62 61 fd 48 29 2a    	vmovapd %zmm29,(%rdx)
  40486a:	62 61 fd 48 29 72 05 	vmovapd %zmm30,0x140(%rdx)
  404871:	62 61 fd 48 29 7a 0a 	vmovapd %zmm31,0x280(%rdx)
  404878:	48 81 c2 c0 03 00 00 	add    $0x3c0,%rdx
  40487f:	62 61 fd 48 28 2a    	vmovapd (%rdx),%zmm29
  404885:	62 61 fd 48 28 72 05 	vmovapd 0x140(%rdx),%zmm30
  40488c:	62 61 fd 48 28 7a 0a 	vmovapd 0x280(%rdx),%zmm31
  404893:	62 f1 fd 48 28 47 1e 	vmovapd 0x780(%rdi),%zmm0
  40489a:	62 f1 fd 48 28 4f 23 	vmovapd 0x8c0(%rdi),%zmm1
  4048a1:	62 f1 fd 48 28 57 28 	vmovapd 0xa00(%rdi),%zmm2
  4048a8:	62 62 fd 58 b8 6e 1c 	vfmadd231pd 0xe0(%rsi){1to8},%zmm0,%zmm29
  4048af:	62 62 fd 58 b8 7e 20 	vfmadd231pd 0x100(%rsi){1to8},%zmm0,%zmm31
  4048b6:	62 62 f5 58 b8 6e 1d 	vfmadd231pd 0xe8(%rsi){1to8},%zmm1,%zmm29
  4048bd:	62 62 f5 58 b8 76 1e 	vfmadd231pd 0xf0(%rsi){1to8},%zmm1,%zmm30
  4048c4:	62 62 ed 58 b8 76 1f 	vfmadd231pd 0xf8(%rsi){1to8},%zmm2,%zmm30
  4048cb:	62 62 ed 58 b8 7e 21 	vfmadd231pd 0x108(%rsi){1to8},%zmm2,%zmm31
  4048d2:	62 61 fd 48 29 2a    	vmovapd %zmm29,(%rdx)
  4048d8:	62 61 fd 48 29 72 05 	vmovapd %zmm30,0x140(%rdx)
  4048df:	62 61 fd 48 29 7a 0a 	vmovapd %zmm31,0x280(%rdx)
  4048e6:	48 83 c7 40          	add    $0x40,%rdi
  4048ea:	48 81 c2 40 f1 ff ff 	add    $0xfffffffffffff140,%rdx
  4048f1:	49 83 c4 01          	add    $0x1,%r12
  4048f5:	49 83 fc 05          	cmp    $0x5,%r12
  4048f9:	0f 8c 99 fd ff ff    	jl     404698 <LOOP_TOP_0_1>
  4048ff:	81 fe b8 0b 00 00    	cmp    $0xbb8,%esi
  404905:	0f 8c 5b fd ff ff    	jl     404666 <LOOP_TOP_0_0+0x2a4>
  40490b:	bf 01 00 00 00       	mov    $0x1,%edi
  404910:	48 8d b4 24 20 04 00 	lea    0x420(%rsp),%rsi
  404917:	00 
  404918:	e8 d3 cd ff ff       	callq  4016f0 <clock_gettime@plt>
  40491d:	bf c0 7a 61 00       	mov    $0x617ac0,%edi
  404922:	be 10 45 41 00       	mov    $0x414510,%esi
  404927:	e8 f4 cc ff ff       	callq  401620 <_ZStlsISt11char_traitsIcEERSt13basic_ostreamIcT_ES5_PKc@plt>
  40492c:	48 89 c7             	mov    %rax,%rdi
  40492f:	48 8b 84 24 20 04 00 	mov    0x420(%rsp),%rax
  404936:	00 
  404937:	62 e3 d5 00 27 2d fe 	vgetmantsd $0x0,0xfafe(%rip),%xmm21,%xmm21        # 414440 <_IO_stdin_used+0x100>
  40493e:	fa 00 00 00 
  404942:	48 2b 84 24 10 04 00 	sub    0x410(%rsp),%rax
  404949:	00 
  40494a:	48 69 d0 00 ca 9a 3b 	imul   $0x3b9aca00,%rax,%rdx
  404951:	62 a2 d5 00 cb fd    	vrcp28sd %xmm21,%xmm21,%xmm23
  404957:	62 e1 ff 08 10 25 ef 	vmovsd 0xfaef(%rip),%xmm20        # 414450 <_IO_stdin_used+0x110>
  40495e:	fa 00 00 
  404961:	62 e2 e5 00 43 1d d5 	vgetexpsd 0xfad5(%rip),%xmm19,%xmm19        # 414440 <_IO_stdin_used+0x100>
  404968:	fa 00 00 
  40496b:	48 03 94 24 28 04 00 	add    0x428(%rsp),%rdx
  404972:	00 
  404973:	62 a2 c5 10 bd e5    	vfnmadd231sd {rn-sae},%xmm21,%xmm23,%xmm20
  404979:	48 2b 94 24 18 04 00 	sub    0x418(%rsp),%rdx
  404980:	00 
  404981:	62 e1 ff 00 2a c2    	vcvtsi2sd %rdx,%xmm16,%xmm16
  404987:	62 e1 ff 00 59 0d a7 	vmulsd 0xfaa7(%rip),%xmm16,%xmm17        # 414438 <_IO_stdin_used+0xf8>
  40498e:	fa 00 00 
  404991:	62 a3 f5 00 27 f1 00 	vgetmantsd $0x0,%xmm17,%xmm17,%xmm22
  404998:	62 a2 f5 00 43 d1    	vgetexpsd %xmm17,%xmm17,%xmm18
  40499e:	62 21 c7 10 59 c6    	vmulsd {rn-sae},%xmm22,%xmm23,%xmm24
  4049a4:	62 a2 dd 10 b9 ff    	vfmadd231sd {rn-sae},%xmm23,%xmm20,%xmm23
  4049aa:	62 a2 bd 10 bd f5    	vfnmadd231sd {rn-sae},%xmm21,%xmm24,%xmm22
  4049b0:	62 21 ef 00 5c cb    	vsubsd %xmm19,%xmm18,%xmm25
  4049b6:	62 22 cd 10 b9 c7    	vfmadd231sd {rn-sae},%xmm23,%xmm22,%xmm24
  4049bc:	62 92 bd 00 2d c1    	vscalefsd %xmm25,%xmm24,%xmm0
  4049c2:	e8 19 ce ff ff       	callq  4017e0 <_ZNSolsEd@plt>
  4049c7:	48 89 c7             	mov    %rax,%rdi
  4049ca:	be a0 15 40 00       	mov    $0x4015a0,%esi
  4049cf:	e8 7c cc ff ff       	callq  401650 <_ZNSolsEPFRSoS_E@plt>
  4049d4:	48 8b bc 24 08 04 00 	mov    0x408(%rsp),%rdi
  4049db:	00 
  4049dc:	48 c7 84 24 f0 03 00 	movq   $0x617240,0x3f0(%rsp)
  4049e3:	00 40 72 61 00 
  4049e8:	e8 c3 cc ff ff       	callq  4016b0 <free@plt>
  4049ed:	48 8b bc 24 d0 04 00 	mov    0x4d0(%rsp),%rdi
  4049f4:	00 
  4049f5:	48 c7 84 24 b8 04 00 	movq   $0x617240,0x4b8(%rsp)
  4049fc:	00 40 72 61 00 
  404a01:	e8 aa cc ff ff       	callq  4016b0 <free@plt>
  404a06:	48 8b 9c 24 d8 04 00 	mov    0x4d8(%rsp),%rbx
  404a0d:	00 
  404a0e:	48 85 db             	test   %rbx,%rbx
  404a11:	74 39                	je     404a4c <LOOP_TOP_0_1+0x3b4>
  404a13:	48 8b 7b 18          	mov    0x18(%rbx),%rdi
  404a17:	48 c7 03 f8 71 61 00 	movq   $0x6171f8,(%rbx)
  404a1e:	48 85 ff             	test   %rdi,%rdi
  404a21:	74 05                	je     404a28 <LOOP_TOP_0_1+0x390>
  404a23:	e8 b8 cc ff ff       	callq  4016e0 <_ZdaPv@plt>
  404a28:	48 8b 7b 20          	mov    0x20(%rbx),%rdi
  404a2c:	48 85 ff             	test   %rdi,%rdi
  404a2f:	74 05                	je     404a36 <LOOP_TOP_0_1+0x39e>
  404a31:	e8 aa cc ff ff       	callq  4016e0 <_ZdaPv@plt>
  404a36:	48 8b 7b 28          	mov    0x28(%rbx),%rdi
  404a3a:	48 85 ff             	test   %rdi,%rdi
  404a3d:	74 05                	je     404a44 <LOOP_TOP_0_1+0x3ac>
  404a3f:	e8 9c cc ff ff       	callq  4016e0 <_ZdaPv@plt>
  404a44:	48 89 df             	mov    %rbx,%rdi
  404a47:	e8 c4 cb ff ff       	callq  401610 <_ZdlPv@plt>
  404a4c:	48 8b bc 24 f8 04 00 	mov    0x4f8(%rsp),%rdi
  404a53:	00 
  404a54:	48 c7 84 24 d8 04 00 	movq   $0x0,0x4d8(%rsp)
  404a5b:	00 00 00 00 00 
  404a60:	48 c7 84 24 e0 04 00 	movq   $0x617240,0x4e0(%rsp)
  404a67:	00 40 72 61 00 
  404a6c:	e8 3f cc ff ff       	callq  4016b0 <free@plt>
  404a71:	48 8b bc 24 b0 04 00 	mov    0x4b0(%rsp),%rdi
  404a78:	00 
  404a79:	48 c7 84 24 98 04 00 	movq   $0x617240,0x498(%rsp)
  404a80:	00 40 72 61 00 
  404a85:	e8 26 cc ff ff       	callq  4016b0 <free@plt>
  404a8a:	48 8b 9c 24 48 04 00 	mov    0x448(%rsp),%rbx
  404a91:	00 
  404a92:	4c 8b a4 24 40 04 00 	mov    0x440(%rsp),%r12
  404a99:	00 
  404a9a:	4c 8b ac 24 60 04 00 	mov    0x460(%rsp),%r13
  404aa1:	00 
  404aa2:	4c 8b b4 24 58 04 00 	mov    0x458(%rsp),%r14
  404aa9:	00 
  404aaa:	4c 8b bc 24 50 04 00 	mov    0x450(%rsp),%r15
  404ab1:	00 
  404ab2:	48 89 ec             	mov    %rbp,%rsp
  404ab5:	5d                   	pop    %rbp
  404ab6:	c3                   	retq   
  404ab7:	48 89 04 24          	mov    %rax,(%rsp)
  404abb:	48 8d bc 24 f0 03 00 	lea    0x3f0(%rsp),%rdi
  404ac2:	00 
  404ac3:	e8 18 be 00 00       	callq  4108e0 <_ZN11DenseMatrixD1Ev>
  404ac8:	48 8d bc 24 b8 04 00 	lea    0x4b8(%rsp),%rdi
  404acf:	00 
  404ad0:	e8 0b be 00 00       	callq  4108e0 <_ZN11DenseMatrixD1Ev>
  404ad5:	48 8d bc 24 d8 04 00 	lea    0x4d8(%rsp),%rdi
  404adc:	00 
  404add:	e8 7e c3 00 00       	callq  410e60 <_ZNSt10unique_ptrI12SparseMatrixSt14default_deleteIS0_EED1Ev>
  404ae2:	48 8d bc 24 e0 04 00 	lea    0x4e0(%rsp),%rdi
  404ae9:	00 
  404aea:	e8 f1 bd 00 00       	callq  4108e0 <_ZN11DenseMatrixD1Ev>
  404aef:	48 8d bc 24 98 04 00 	lea    0x498(%rsp),%rdi
  404af6:	00 
  404af7:	e8 e4 bd 00 00       	callq  4108e0 <_ZN11DenseMatrixD1Ev>
  404afc:	48 8b 3c 24          	mov    (%rsp),%rdi
  404b00:	e8 ab cc ff ff       	callq  4017b0 <_Unwind_Resume@plt>
  404b05:	31 c0                	xor    %eax,%eax
  404b07:	e9 0b f7 ff ff       	jmpq   404217 <_Z15test_unrolled_8v+0xa97>
  404b0c:	31 c0                	xor    %eax,%eax
  404b0e:	e9 21 f5 ff ff       	jmpq   404034 <_Z15test_unrolled_8v+0x8b4>
  404b13:	48 8b bc 24 d8 04 00 	mov    0x4d8(%rsp),%rdi
  404b1a:	00 
  404b1b:	44 89 e6             	mov    %r12d,%esi
  404b1e:	89 da                	mov    %ebx,%edx
  404b20:	48 8b 07             	mov    (%rdi),%rax
  404b23:	ff 50 08             	callq  *0x8(%rax)
  404b26:	e9 43 f3 ff ff       	jmpq   403e6e <_Z15test_unrolled_8v+0x6ee>
  404b2b:	48 89 04 24          	mov    %rax,(%rsp)
  404b2f:	48 8d bc 24 d8 04 00 	lea    0x4d8(%rsp),%rdi
  404b36:	00 
  404b37:	e8 24 c3 00 00       	callq  410e60 <_ZNSt10unique_ptrI12SparseMatrixSt14default_deleteIS0_EED1Ev>
  404b3c:	eb a4                	jmp    404ae2 <LOOP_TOP_0_1+0x44a>
  404b3e:	48 89 04 24          	mov    %rax,(%rsp)
  404b42:	4c 89 e7             	mov    %r12,%rdi
  404b45:	e8 c6 ca ff ff       	callq  401610 <_ZdlPv@plt>
  404b4a:	eb 96                	jmp    404ae2 <LOOP_TOP_0_1+0x44a>
  404b4c:	48 89 04 24          	mov    %rax,(%rsp)
  404b50:	eb 90                	jmp    404ae2 <LOOP_TOP_0_1+0x44a>
  404b52:	31 c0                	xor    %eax,%eax
  404b54:	e9 f9 f0 ff ff       	jmpq   403c52 <_Z15test_unrolled_8v+0x4d2>
  404b59:	31 d2                	xor    %edx,%edx
  404b5b:	e9 b2 ed ff ff       	jmpq   403912 <_Z15test_unrolled_8v+0x192>
  404b60:	8b 44 24 38          	mov    0x38(%rsp),%eax
  404b64:	e9 15 ee ff ff       	jmpq   40397e <_Z15test_unrolled_8v+0x1fe>
  404b69:	0f 1f 80 00 00 00 00 	nopl   0x0(%rax)

0000000000404b70 <_Z16test_unrolled_40v>:
  404b70:	55                   	push   %rbp
  404b71:	48 89 e5             	mov    %rsp,%rbp
  404b74:	48 83 e4 c0          	and    $0xffffffffffffffc0,%rsp
  404b78:	48 81 ec 00 05 00 00 	sub    $0x500,%rsp
  404b7f:	48 89 9c 24 48 04 00 	mov    %rbx,0x448(%rsp)
  404b86:	00 
  404b87:	b8 28 00 00 00       	mov    $0x28,%eax
  404b8c:	4c 89 bc 24 50 04 00 	mov    %r15,0x450(%rsp)
  404b93:	00 
  404b94:	be 40 00 00 00       	mov    $0x40,%esi
  404b99:	4c 89 b4 24 58 04 00 	mov    %r14,0x458(%rsp)
  404ba0:	00 
  404ba1:	48 8d bc 24 b0 04 00 	lea    0x4b0(%rsp),%rdi
  404ba8:	00 
  404ba9:	4c 89 ac 24 60 04 00 	mov    %r13,0x460(%rsp)
  404bb0:	00 
  404bb1:	ba 40 0b 00 00       	mov    $0xb40,%edx
  404bb6:	4c 89 a4 24 40 04 00 	mov    %r12,0x440(%rsp)
  404bbd:	00 
  404bbe:	48 c7 84 24 98 04 00 	movq   $0x617240,0x498(%rsp)
  404bc5:	00 40 72 61 00 
  404bca:	89 84 24 a8 04 00 00 	mov    %eax,0x4a8(%rsp)
  404bd1:	89 84 24 a0 04 00 00 	mov    %eax,0x4a0(%rsp)
  404bd8:	c7 84 24 a4 04 00 00 	movl   $0x9,0x4a4(%rsp)
  404bdf:	09 00 00 00 
  404be3:	e8 d8 c9 ff ff       	callq  4015c0 <posix_memalign@plt>
  404be8:	8b 84 24 a4 04 00 00 	mov    0x4a4(%rsp),%eax
  404bef:	45 31 e4             	xor    %r12d,%r12d
  404bf2:	85 c0                	test   %eax,%eax
  404bf4:	0f 8e 6e 02 00 00    	jle    404e68 <_Z16test_unrolled_40v+0x2f8>
  404bfa:	44 8b 84 24 a0 04 00 	mov    0x4a0(%rsp),%r8d
  404c01:	00 
  404c02:	44 8b 8c 24 a8 04 00 	mov    0x4a8(%rsp),%r9d
  404c09:	00 
  404c0a:	ba 08 00 00 00       	mov    $0x8,%edx
  404c0f:	62 f1 ed 48 ef d2    	vpxorq %zmm2,%zmm2,%zmm2
  404c15:	45 31 ff             	xor    %r15d,%r15d
  404c18:	c5 f9 6e ca          	vmovd  %edx,%xmm1
  404c1c:	31 db                	xor    %ebx,%ebx
  404c1e:	44 89 c6             	mov    %r8d,%esi
  404c21:	49 63 f8             	movslq %r8d,%rdi
  404c24:	4c 8b b4 24 b0 04 00 	mov    0x4b0(%rsp),%r14
  404c2b:	00 
  404c2c:	c5 fe 6f 05 cc f7 00 	vmovdqu 0xf7cc(%rip),%ymm0        # 414400 <_IO_stdin_used+0xc0>
  404c33:	00 
  404c34:	83 e6 f8             	and    $0xfffffff8,%esi
  404c37:	4d 63 e9             	movslq %r9d,%r13
  404c3a:	48 63 ce             	movslq %esi,%rcx
  404c3d:	48 89 4c 24 48       	mov    %rcx,0x48(%rsp)
  404c42:	48 8d 14 fd 00 00 00 	lea    0x0(,%rdi,8),%rdx
  404c49:	00 
  404c4a:	48 89 54 24 40       	mov    %rdx,0x40(%rsp)
  404c4f:	c4 e2 7d 58 c9       	vpbroadcastd %xmm1,%ymm1
  404c54:	45 85 c0             	test   %r8d,%r8d
  404c57:	0f 8e fe 00 00 00    	jle    404d5b <_Z16test_unrolled_40v+0x1eb>
  404c5d:	41 83 f8 0c          	cmp    $0xc,%r8d
  404c61:	7e 77                	jle    404cda <_Z16test_unrolled_40v+0x16a>
  404c63:	c5 fe 7f 0c 24       	vmovdqu %ymm1,(%rsp)
  404c68:	48 89 7c 24 20       	mov    %rdi,0x20(%rsp)
  404c6d:	89 74 24 28          	mov    %esi,0x28(%rsp)
  404c71:	44 89 44 24 30       	mov    %r8d,0x30(%rsp)
  404c76:	44 89 4c 24 50       	mov    %r9d,0x50(%rsp)
  404c7b:	89 44 24 38          	mov    %eax,0x38(%rsp)
  404c7f:	4d 63 ff             	movslq %r15d,%r15
  404c82:	31 f6                	xor    %esi,%esi
  404c84:	48 8b 54 24 40       	mov    0x40(%rsp),%rdx
  404c89:	4b 8d 3c fe          	lea    (%r14,%r15,8),%rdi
  404c8d:	e8 ee c5 00 00       	callq  411280 <__intel_mic_avx512f_memset>
  404c92:	41 83 c4 01          	add    $0x1,%r12d
  404c96:	4c 01 eb             	add    %r13,%rbx
  404c99:	44 03 7c 24 50       	add    0x50(%rsp),%r15d
  404c9e:	44 3b 64 24 38       	cmp    0x38(%rsp),%r12d
  404ca3:	0f 83 95 24 00 00    	jae    40713e <LOOP_TOP_1_3+0xdbf>
  404ca9:	83 7c 24 30 0c       	cmpl   $0xc,0x30(%rsp)
  404cae:	7f cf                	jg     404c7f <_Z16test_unrolled_40v+0x10f>
  404cb0:	c5 fe 6f 05 48 f7 00 	vmovdqu 0xf748(%rip),%ymm0        # 414400 <_IO_stdin_used+0xc0>
  404cb7:	00 
  404cb8:	c5 fe 6f 0c 24       	vmovdqu (%rsp),%ymm1
  404cbd:	62 f1 ed 48 ef d2    	vpxorq %zmm2,%zmm2,%zmm2
  404cc3:	48 8b 7c 24 20       	mov    0x20(%rsp),%rdi
  404cc8:	8b 74 24 28          	mov    0x28(%rsp),%esi
  404ccc:	44 8b 44 24 30       	mov    0x30(%rsp),%r8d
  404cd1:	44 8b 4c 24 50       	mov    0x50(%rsp),%r9d
  404cd6:	8b 44 24 38          	mov    0x38(%rsp),%eax
  404cda:	41 83 f8 08          	cmp    $0x8,%r8d
  404cde:	0f 8c 53 24 00 00    	jl     407137 <LOOP_TOP_1_3+0xdb8>
  404ce4:	89 f2                	mov    %esi,%edx
  404ce6:	45 31 d2             	xor    %r10d,%r10d
  404ce9:	49 8d 0c de          	lea    (%r14,%rbx,8),%rcx
  404ced:	4c 8b 5c 24 48       	mov    0x48(%rsp),%r11
  404cf2:	62 b1 fd 48 11 14 d1 	vmovupd %zmm2,(%rcx,%r10,8)
  404cf9:	49 83 c2 08          	add    $0x8,%r10
  404cfd:	4d 39 da             	cmp    %r11,%r10
  404d00:	72 f0                	jb     404cf2 <_Z16test_unrolled_40v+0x182>
  404d02:	8d 4a 01             	lea    0x1(%rdx),%ecx
  404d05:	44 39 c1             	cmp    %r8d,%ecx
  404d08:	77 51                	ja     404d5b <_Z16test_unrolled_40v+0x1eb>
  404d0a:	45 89 c2             	mov    %r8d,%r10d
  404d0d:	b9 ff 00 00 00       	mov    $0xff,%ecx
  404d12:	c5 fd 6f e0          	vmovdqa %ymm0,%ymm4
  404d16:	41 29 d2             	sub    %edx,%r10d
  404d19:	48 63 d2             	movslq %edx,%rdx
  404d1c:	c4 c1 79 6e da       	vmovd  %r10d,%xmm3
  404d21:	4c 8d 1c 13          	lea    (%rbx,%rdx,1),%r11
  404d25:	48 f7 da             	neg    %rdx
  404d28:	c5 f8 92 c9          	kmovw  %ecx,%k1
  404d2c:	c4 e2 7d 58 db       	vpbroadcastd %xmm3,%ymm3
  404d31:	31 c9                	xor    %ecx,%ecx
  404d33:	4f 8d 1c de          	lea    (%r14,%r11,8),%r11
  404d37:	48 01 fa             	add    %rdi,%rdx
  404d3a:	45 31 d2             	xor    %r10d,%r10d
  404d3d:	48 83 c1 08          	add    $0x8,%rcx
  404d41:	62 f1 65 49 66 d4    	vpcmpgtd %zmm4,%zmm3,%k2{%k1}
  404d47:	62 91 fd 4a 11 14 1a 	vmovupd %zmm2,(%r10,%r11,1){%k2}
  404d4e:	49 83 c2 40          	add    $0x40,%r10
  404d52:	c5 dd fe e1          	vpaddd %ymm1,%ymm4,%ymm4
  404d56:	48 39 d1             	cmp    %rdx,%rcx
  404d59:	72 e2                	jb     404d3d <_Z16test_unrolled_40v+0x1cd>
  404d5b:	41 83 c4 01          	add    $0x1,%r12d
  404d5f:	4c 01 eb             	add    %r13,%rbx
  404d62:	45 01 cf             	add    %r9d,%r15d
  404d65:	41 39 c4             	cmp    %eax,%r12d
  404d68:	0f 82 e6 fe ff ff    	jb     404c54 <_Z16test_unrolled_40v+0xe4>
  404d6e:	31 c9                	xor    %ecx,%ecx
  404d70:	8b 94 24 a8 04 00 00 	mov    0x4a8(%rsp),%edx
  404d77:	4c 63 b4 24 a0 04 00 	movslq 0x4a0(%rsp),%r14
  404d7e:	00 
  404d7f:	31 db                	xor    %ebx,%ebx
  404d81:	4c 8b bc 24 b0 04 00 	mov    0x4b0(%rsp),%r15
  404d88:	00 
  404d89:	c5 fb 10 05 9f f6 00 	vmovsd 0xf69f(%rip),%xmm0        # 414430 <_IO_stdin_used+0xf0>
  404d90:	00 
  404d91:	45 31 e4             	xor    %r12d,%r12d
  404d94:	4d 85 f6             	test   %r14,%r14
  404d97:	0f 8e be 00 00 00    	jle    404e5b <_Z16test_unrolled_40v+0x2eb>
  404d9d:	62 f3 fd 08 27 e0 00 	vgetmantsd $0x0,%xmm0,%xmm0,%xmm4
  404da4:	89 54 24 08          	mov    %edx,0x8(%rsp)
  404da8:	c5 fb 10 0d a0 f6 00 	vmovsd 0xf6a0(%rip),%xmm1        # 414450 <_IO_stdin_used+0x110>
  404daf:	00 
  404db0:	89 0c 24             	mov    %ecx,(%rsp)
  404db3:	62 f2 fd 08 43 d8    	vgetexpsd %xmm0,%xmm0,%xmm3
  404db9:	89 44 24 38          	mov    %eax,0x38(%rsp)
  404dbd:	48 63 db             	movslq %ebx,%rbx
  404dc0:	c5 fb 11 64 24 28    	vmovsd %xmm4,0x28(%rsp)
  404dc6:	62 f2 dd 08 cb d4    	vrcp28sd %xmm4,%xmm4,%xmm2
  404dcc:	c5 fb 11 5c 24 10    	vmovsd %xmm3,0x10(%rsp)
  404dd2:	4d 8d 2c df          	lea    (%r15,%rbx,8),%r13
  404dd6:	c5 fb 11 54 24 18    	vmovsd %xmm2,0x18(%rsp)
  404ddc:	62 f2 ed 18 bd cc    	vfnmadd231sd {rn-sae},%xmm4,%xmm2,%xmm1
  404de2:	62 f2 ed 18 99 ca    	vfmadd132sd {rn-sae},%xmm2,%xmm2,%xmm1
  404de8:	c5 fb 11 4c 24 20    	vmovsd %xmm1,0x20(%rsp)
  404dee:	e8 5d c7 ff ff       	callq  401550 <rand@plt>
  404df3:	c5 f9 57 c0          	vxorpd %xmm0,%xmm0,%xmm0
  404df7:	c5 fb 2a c0          	vcvtsi2sd %eax,%xmm0,%xmm0
  404dfb:	c5 fb 10 54 24 18    	vmovsd 0x18(%rsp),%xmm2
  404e01:	c5 fb 10 5c 24 28    	vmovsd 0x28(%rsp),%xmm3
  404e07:	62 f3 fd 08 27 e0 00 	vgetmantsd $0x0,%xmm0,%xmm0,%xmm4
  404e0e:	62 f2 fd 08 43 c8    	vgetexpsd %xmm0,%xmm0,%xmm1
  404e14:	c5 fb 10 6c 24 20    	vmovsd 0x20(%rsp),%xmm5
  404e1a:	62 f1 ef 18 59 f4    	vmulsd {rn-sae},%xmm4,%xmm2,%xmm6
  404e20:	c5 f3 5c 7c 24 10    	vsubsd 0x10(%rsp),%xmm1,%xmm7
  404e26:	62 f2 cd 18 bd e3    	vfnmadd231sd {rn-sae},%xmm3,%xmm6,%xmm4
  404e2c:	62 f2 dd 18 b9 f5    	vfmadd231sd {rn-sae},%xmm5,%xmm4,%xmm6
  404e32:	62 72 cd 08 2d c7    	vscalefsd %xmm7,%xmm6,%xmm8
  404e38:	c4 01 7b 11 44 e5 00 	vmovsd %xmm8,0x0(%r13,%r12,8)
  404e3f:	49 83 c4 01          	add    $0x1,%r12
  404e43:	4d 39 f4             	cmp    %r14,%r12
  404e46:	72 a6                	jb     404dee <_Z16test_unrolled_40v+0x27e>
  404e48:	c5 fb 10 05 e0 f5 00 	vmovsd 0xf5e0(%rip),%xmm0        # 414430 <_IO_stdin_used+0xf0>
  404e4f:	00 
  404e50:	8b 54 24 08          	mov    0x8(%rsp),%edx
  404e54:	8b 0c 24             	mov    (%rsp),%ecx
  404e57:	8b 44 24 38          	mov    0x38(%rsp),%eax
  404e5b:	83 c1 01             	add    $0x1,%ecx
  404e5e:	01 d3                	add    %edx,%ebx
  404e60:	39 c1                	cmp    %eax,%ecx
  404e62:	0f 82 29 ff ff ff    	jb     404d91 <_Z16test_unrolled_40v+0x221>
  404e68:	bf 58 44 41 00       	mov    $0x414458,%edi
  404e6d:	48 c7 84 24 e0 04 00 	movq   $0x617240,0x4e0(%rsp)
  404e74:	00 40 72 61 00 
  404e79:	be 8c 44 41 00       	mov    $0x41448c,%esi
  404e7e:	e8 1d c8 ff ff       	callq  4016a0 <fopen@plt>
  404e83:	49 89 c7             	mov    %rax,%r15
  404e86:	48 8d 7c 24 08       	lea    0x8(%rsp),%rdi
  404e8b:	be e8 03 00 00       	mov    $0x3e8,%esi
  404e90:	4c 89 fa             	mov    %r15,%rdx
  404e93:	e8 98 c8 ff ff       	callq  401730 <fgets@plt>
  404e98:	48 8d 7c 24 08       	lea    0x8(%rsp),%rdi
  404e9d:	be e8 03 00 00       	mov    $0x3e8,%esi
  404ea2:	4c 89 fa             	mov    %r15,%rdx
  404ea5:	e8 86 c8 ff ff       	callq  401730 <fgets@plt>
  404eaa:	4c 89 ff             	mov    %r15,%rdi
  404ead:	be 90 44 41 00       	mov    $0x414490,%esi
  404eb2:	48 8d 94 24 e8 04 00 	lea    0x4e8(%rsp),%rdx
  404eb9:	00 
  404eba:	48 8d 8c 24 ec 04 00 	lea    0x4ec(%rsp),%rcx
  404ec1:	00 
  404ec2:	4c 8d 84 24 88 04 00 	lea    0x488(%rsp),%r8
  404ec9:	00 
  404eca:	31 c0                	xor    %eax,%eax
  404ecc:	e8 1f c9 ff ff       	callq  4017f0 <fscanf@plt>
  404ed1:	8b 84 24 e8 04 00 00 	mov    0x4e8(%rsp),%eax
  404ed8:	89 84 24 f0 04 00 00 	mov    %eax,0x4f0(%rsp)
  404edf:	8b 94 24 ec 04 00 00 	mov    0x4ec(%rsp),%edx
  404ee6:	be 40 00 00 00       	mov    $0x40,%esi
  404eeb:	48 8d bc 24 f8 04 00 	lea    0x4f8(%rsp),%rdi
  404ef2:	00 
  404ef3:	0f af d0             	imul   %eax,%edx
  404ef6:	48 63 d2             	movslq %edx,%rdx
  404ef9:	48 c1 e2 03          	shl    $0x3,%rdx
  404efd:	e8 be c6 ff ff       	callq  4015c0 <posix_memalign@plt>
  404f02:	8b 84 24 ec 04 00 00 	mov    0x4ec(%rsp),%eax
  404f09:	45 31 f6             	xor    %r14d,%r14d
  404f0c:	85 c0                	test   %eax,%eax
  404f0e:	0f 8e 9e 01 00 00    	jle    4050b2 <_Z16test_unrolled_40v+0x542>
  404f14:	8b 8c 24 e8 04 00 00 	mov    0x4e8(%rsp),%ecx
  404f1b:	4c 89 3c 24          	mov    %r15,(%rsp)
  404f1f:	bb 08 00 00 00       	mov    $0x8,%ebx
  404f24:	62 f1 ed 48 ef d2    	vpxorq %zmm2,%zmm2,%zmm2
  404f2a:	41 89 c7             	mov    %eax,%r15d
  404f2d:	48 8b b4 24 f8 04 00 	mov    0x4f8(%rsp),%rsi
  404f34:	00 
  404f35:	c5 f9 6e cb          	vmovd  %ebx,%xmm1
  404f39:	31 db                	xor    %ebx,%ebx
  404f3b:	4c 63 d1             	movslq %ecx,%r10
  404f3e:	41 89 c8             	mov    %ecx,%r8d
  404f41:	4c 63 ac 24 f0 04 00 	movslq 0x4f0(%rsp),%r13
  404f48:	00 
  404f49:	41 83 e0 f8          	and    $0xfffffff8,%r8d
  404f4d:	4e 8d 1c d5 00 00 00 	lea    0x0(,%r10,8),%r11
  404f54:	00 
  404f55:	4c 89 9c 24 38 04 00 	mov    %r11,0x438(%rsp)
  404f5c:	00 
  404f5d:	c5 fe 6f 05 9b f4 00 	vmovdqu 0xf49b(%rip),%ymm0        # 414400 <_IO_stdin_used+0xc0>
  404f64:	00 
  404f65:	49 89 f4             	mov    %rsi,%r12
  404f68:	c4 e2 7d 58 c9       	vpbroadcastd %xmm1,%ymm1
  404f6d:	4d 63 c8             	movslq %r8d,%r9
  404f70:	85 c9                	test   %ecx,%ecx
  404f72:	0f 8e 22 01 00 00    	jle    40509a <_Z16test_unrolled_40v+0x52a>
  404f78:	83 f9 0c             	cmp    $0xc,%ecx
  404f7b:	0f 8e 9e 00 00 00    	jle    40501f <_Z16test_unrolled_40v+0x4af>
  404f81:	c5 fe 7f 8c 24 00 04 	vmovdqu %ymm1,0x400(%rsp)
  404f88:	00 00 
  404f8a:	4c 89 94 24 f0 03 00 	mov    %r10,0x3f0(%rsp)
  404f91:	00 
  404f92:	4c 89 8c 24 f8 03 00 	mov    %r9,0x3f8(%rsp)
  404f99:	00 
  404f9a:	44 89 84 24 20 04 00 	mov    %r8d,0x420(%rsp)
  404fa1:	00 
  404fa2:	48 89 b4 24 28 04 00 	mov    %rsi,0x428(%rsp)
  404fa9:	00 
  404faa:	89 8c 24 30 04 00 00 	mov    %ecx,0x430(%rsp)
  404fb1:	4c 89 e7             	mov    %r12,%rdi
  404fb4:	31 f6                	xor    %esi,%esi
  404fb6:	48 8b 94 24 38 04 00 	mov    0x438(%rsp),%rdx
  404fbd:	00 
  404fbe:	e8 bd c2 00 00       	callq  411280 <__intel_mic_avx512f_memset>
  404fc3:	41 83 c6 01          	add    $0x1,%r14d
  404fc7:	4c 01 eb             	add    %r13,%rbx
  404fca:	4f 8d 24 ec          	lea    (%r12,%r13,8),%r12
  404fce:	45 39 fe             	cmp    %r15d,%r14d
  404fd1:	0f 83 d7 00 00 00    	jae    4050ae <_Z16test_unrolled_40v+0x53e>
  404fd7:	83 bc 24 30 04 00 00 	cmpl   $0xc,0x430(%rsp)
  404fde:	0c 
  404fdf:	7f d0                	jg     404fb1 <_Z16test_unrolled_40v+0x441>
  404fe1:	c5 fe 6f 05 17 f4 00 	vmovdqu 0xf417(%rip),%ymm0        # 414400 <_IO_stdin_used+0xc0>
  404fe8:	00 
  404fe9:	c5 fe 6f 8c 24 00 04 	vmovdqu 0x400(%rsp),%ymm1
  404ff0:	00 00 
  404ff2:	62 f1 ed 48 ef d2    	vpxorq %zmm2,%zmm2,%zmm2
  404ff8:	4c 8b 94 24 f0 03 00 	mov    0x3f0(%rsp),%r10
  404fff:	00 
  405000:	4c 8b 8c 24 f8 03 00 	mov    0x3f8(%rsp),%r9
  405007:	00 
  405008:	44 8b 84 24 20 04 00 	mov    0x420(%rsp),%r8d
  40500f:	00 
  405010:	48 8b b4 24 28 04 00 	mov    0x428(%rsp),%rsi
  405017:	00 
  405018:	8b 8c 24 30 04 00 00 	mov    0x430(%rsp),%ecx
  40501f:	83 f9 08             	cmp    $0x8,%ecx
  405022:	0f 8c 08 21 00 00    	jl     407130 <LOOP_TOP_1_3+0xdb1>
  405028:	44 89 c0             	mov    %r8d,%eax
  40502b:	45 31 db             	xor    %r11d,%r11d
  40502e:	48 8d 14 de          	lea    (%rsi,%rbx,8),%rdx
  405032:	62 b1 fd 48 11 14 da 	vmovupd %zmm2,(%rdx,%r11,8)
  405039:	49 83 c3 08          	add    $0x8,%r11
  40503d:	4d 39 cb             	cmp    %r9,%r11
  405040:	72 f0                	jb     405032 <_Z16test_unrolled_40v+0x4c2>
  405042:	8d 50 01             	lea    0x1(%rax),%edx
  405045:	39 ca                	cmp    %ecx,%edx
  405047:	77 51                	ja     40509a <_Z16test_unrolled_40v+0x52a>
  405049:	41 89 cb             	mov    %ecx,%r11d
  40504c:	ba ff 00 00 00       	mov    $0xff,%edx
  405051:	c5 fd 6f e0          	vmovdqa %ymm0,%ymm4
  405055:	41 29 c3             	sub    %eax,%r11d
  405058:	48 63 c0             	movslq %eax,%rax
  40505b:	c4 c1 79 6e db       	vmovd  %r11d,%xmm3
  405060:	4c 8d 1c 03          	lea    (%rbx,%rax,1),%r11
  405064:	48 f7 d8             	neg    %rax
  405067:	c5 f8 92 ca          	kmovw  %edx,%k1
  40506b:	c4 e2 7d 58 db       	vpbroadcastd %xmm3,%ymm3
  405070:	31 d2                	xor    %edx,%edx
  405072:	4a 8d 3c de          	lea    (%rsi,%r11,8),%rdi
  405076:	4c 01 d0             	add    %r10,%rax
  405079:	45 31 db             	xor    %r11d,%r11d
  40507c:	48 83 c2 08          	add    $0x8,%rdx
  405080:	62 f1 65 49 66 d4    	vpcmpgtd %zmm4,%zmm3,%k2{%k1}
  405086:	62 d1 fd 4a 11 14 3b 	vmovupd %zmm2,(%r11,%rdi,1){%k2}
  40508d:	49 83 c3 40          	add    $0x40,%r11
  405091:	c5 dd fe e1          	vpaddd %ymm1,%ymm4,%ymm4
  405095:	48 39 c2             	cmp    %rax,%rdx
  405098:	72 e2                	jb     40507c <_Z16test_unrolled_40v+0x50c>
  40509a:	41 83 c6 01          	add    $0x1,%r14d
  40509e:	4c 01 eb             	add    %r13,%rbx
  4050a1:	4f 8d 24 ec          	lea    (%r12,%r13,8),%r12
  4050a5:	45 39 fe             	cmp    %r15d,%r14d
  4050a8:	0f 82 c2 fe ff ff    	jb     404f70 <_Z16test_unrolled_40v+0x400>
  4050ae:	4c 8b 3c 24          	mov    (%rsp),%r15
  4050b2:	31 db                	xor    %ebx,%ebx
  4050b4:	83 bc 24 88 04 00 00 	cmpl   $0x0,0x488(%rsp)
  4050bb:	00 
  4050bc:	7e 64                	jle    405122 <_Z16test_unrolled_40v+0x5b2>
  4050be:	4c 89 ff             	mov    %r15,%rdi
  4050c1:	be 9c 44 41 00       	mov    $0x41449c,%esi
  4050c6:	48 8d 94 24 8c 04 00 	lea    0x48c(%rsp),%rdx
  4050cd:	00 
  4050ce:	48 8d 8c 24 90 04 00 	lea    0x490(%rsp),%rcx
  4050d5:	00 
  4050d6:	4c 8d 84 24 78 04 00 	lea    0x478(%rsp),%r8
  4050dd:	00 
  4050de:	31 c0                	xor    %eax,%eax
  4050e0:	e8 0b c7 ff ff       	callq  4017f0 <fscanf@plt>
  4050e5:	8b 84 24 90 04 00 00 	mov    0x490(%rsp),%eax
  4050ec:	48 8b 8c 24 78 04 00 	mov    0x478(%rsp),%rcx
  4050f3:	00 
  4050f4:	83 c3 01             	add    $0x1,%ebx
  4050f7:	83 c0 ff             	add    $0xffffffff,%eax
  4050fa:	48 8b b4 24 f8 04 00 	mov    0x4f8(%rsp),%rsi
  405101:	00 
  405102:	0f af 84 24 f0 04 00 	imul   0x4f0(%rsp),%eax
  405109:	00 
  40510a:	03 84 24 8c 04 00 00 	add    0x48c(%rsp),%eax
  405111:	48 63 c0             	movslq %eax,%rax
  405114:	48 89 4c c6 f8       	mov    %rcx,-0x8(%rsi,%rax,8)
  405119:	3b 9c 24 88 04 00 00 	cmp    0x488(%rsp),%ebx
  405120:	7c 9c                	jl     4050be <_Z16test_unrolled_40v+0x54e>
  405122:	4c 89 ff             	mov    %r15,%rdi
  405125:	e8 06 c5 ff ff       	callq  401630 <fclose@plt>
  40512a:	8b 8c 24 e8 04 00 00 	mov    0x4e8(%rsp),%ecx
  405131:	b8 56 55 55 55       	mov    $0x55555556,%eax
  405136:	8b 9c 24 ec 04 00 00 	mov    0x4ec(%rsp),%ebx
  40513d:	bf 30 00 00 00       	mov    $0x30,%edi
  405142:	f7 e9                	imul   %ecx
  405144:	c1 f9 1f             	sar    $0x1f,%ecx
  405147:	b8 56 55 55 55       	mov    $0x55555556,%eax
  40514c:	29 ca                	sub    %ecx,%edx
  40514e:	89 94 24 f8 03 00 00 	mov    %edx,0x3f8(%rsp)
  405155:	f7 eb                	imul   %ebx
  405157:	c1 fb 1f             	sar    $0x1f,%ebx
  40515a:	29 da                	sub    %ebx,%edx
  40515c:	89 14 24             	mov    %edx,(%rsp)
  40515f:	e8 dc c4 ff ff       	callq  401640 <_Znwm@plt>
  405164:	49 89 c4             	mov    %rax,%r12
  405167:	48 63 84 24 e8 04 00 	movslq 0x4e8(%rsp),%rax
  40516e:	00 
  40516f:	49 c7 04 24 f8 71 61 	movq   $0x6171f8,(%r12)
  405176:	00 
  405177:	48 63 94 24 ec 04 00 	movslq 0x4ec(%rsp),%rdx
  40517e:	00 
  40517f:	41 89 44 24 08       	mov    %eax,0x8(%r12)
  405184:	48 89 c3             	mov    %rax,%rbx
  405187:	41 89 54 24 0c       	mov    %edx,0xc(%r12)
  40518c:	48 0f af da          	imul   %rdx,%rbx
  405190:	41 c7 44 24 10 00 00 	movl   $0x0,0x10(%r12)
  405197:	00 00 
  405199:	48 8d 3c dd 00 00 00 	lea    0x0(,%rbx,8),%rdi
  4051a0:	00 
  4051a1:	41 89 5c 24 14       	mov    %ebx,0x14(%r12)
  4051a6:	e8 95 c3 ff ff       	callq  401540 <_Znam@plt>
  4051ab:	48 c1 e3 02          	shl    $0x2,%rbx
  4051af:	49 89 44 24 18       	mov    %rax,0x18(%r12)
  4051b4:	48 89 df             	mov    %rbx,%rdi
  4051b7:	e8 84 c3 ff ff       	callq  401540 <_Znam@plt>
  4051bc:	48 89 df             	mov    %rbx,%rdi
  4051bf:	49 89 44 24 20       	mov    %rax,0x20(%r12)
  4051c4:	e8 77 c3 ff ff       	callq  401540 <_Znam@plt>
  4051c9:	49 89 44 24 28       	mov    %rax,0x28(%r12)
  4051ce:	83 3c 24 00          	cmpl   $0x0,(%rsp)
  4051d2:	4c 89 a4 24 d8 04 00 	mov    %r12,0x4d8(%rsp)
  4051d9:	00 
  4051da:	c7 84 24 f0 03 00 00 	movl   $0x0,0x3f0(%rsp)
  4051e1:	00 00 00 00 
  4051e5:	0f 8e bf 00 00 00    	jle    4052aa <_Z16test_unrolled_40v+0x73a>
  4051eb:	45 31 ff             	xor    %r15d,%r15d
  4051ee:	44 89 bc 24 00 04 00 	mov    %r15d,0x400(%rsp)
  4051f5:	00 
  4051f6:	83 bc 24 f8 03 00 00 	cmpl   $0x0,0x3f8(%rsp)
  4051fd:	00 
  4051fe:	0f 8e 8c 00 00 00    	jle    405290 <_Z16test_unrolled_40v+0x720>
  405204:	8b 84 24 f0 03 00 00 	mov    0x3f0(%rsp),%eax
  40520b:	8d 14 40             	lea    (%rax,%rax,2),%edx
  40520e:	89 94 24 08 04 00 00 	mov    %edx,0x408(%rsp)
  405215:	45 31 f6             	xor    %r14d,%r14d
  405218:	8b 84 24 08 04 00 00 	mov    0x408(%rsp),%eax
  40521f:	45 31 ed             	xor    %r13d,%r13d
  405222:	42 8d 1c 30          	lea    (%rax,%r14,1),%ebx
  405226:	47 8d 24 2f          	lea    (%r15,%r13,1),%r12d
  40522a:	48 8b 84 24 e0 04 00 	mov    0x4e0(%rsp),%rax
  405231:	00 
  405232:	89 da                	mov    %ebx,%edx
  405234:	48 8d bc 24 e0 04 00 	lea    0x4e0(%rsp),%rdi
  40523b:	00 
  40523c:	44 89 e6             	mov    %r12d,%esi
  40523f:	ff 10                	callq  *(%rax)
  405241:	c5 f9 54 0d d7 f1 00 	vandpd 0xf1d7(%rip),%xmm0,%xmm1        # 414420 <_IO_stdin_used+0xe0>
  405248:	00 
  405249:	62 f1 f7 08 c2 05 f4 	vcmpgtsd 0xf1f4(%rip),%xmm1,%k0        # 414448 <_IO_stdin_used+0x108>
  405250:	f1 00 00 0e 
  405254:	c5 f8 98 c0          	kortestw %k0,%k0
  405258:	0f 85 93 1e 00 00    	jne    4070f1 <LOOP_TOP_1_3+0xd72>
  40525e:	41 83 c5 01          	add    $0x1,%r13d
  405262:	41 83 fd 03          	cmp    $0x3,%r13d
  405266:	7c be                	jl     405226 <_Z16test_unrolled_40v+0x6b6>
  405268:	41 83 c6 01          	add    $0x1,%r14d
  40526c:	41 83 fe 03          	cmp    $0x3,%r14d
  405270:	7c a6                	jl     405218 <_Z16test_unrolled_40v+0x6a8>
  405272:	8b 84 24 00 04 00 00 	mov    0x400(%rsp),%eax
  405279:	41 83 c7 03          	add    $0x3,%r15d
  40527d:	83 c0 01             	add    $0x1,%eax
  405280:	89 84 24 00 04 00 00 	mov    %eax,0x400(%rsp)
  405287:	3b 84 24 f8 03 00 00 	cmp    0x3f8(%rsp),%eax
  40528e:	7c 85                	jl     405215 <_Z16test_unrolled_40v+0x6a5>
  405290:	8b 84 24 f0 03 00 00 	mov    0x3f0(%rsp),%eax
  405297:	83 c0 01             	add    $0x1,%eax
  40529a:	89 84 24 f0 03 00 00 	mov    %eax,0x3f0(%rsp)
  4052a1:	3b 04 24             	cmp    (%rsp),%eax
  4052a4:	0f 8c 41 ff ff ff    	jl     4051eb <_Z16test_unrolled_40v+0x67b>
  4052aa:	b8 28 00 00 00       	mov    $0x28,%eax
  4052af:	48 c7 84 24 b8 04 00 	movq   $0x617240,0x4b8(%rsp)
  4052b6:	00 40 72 61 00 
  4052bb:	48 8d bc 24 d0 04 00 	lea    0x4d0(%rsp),%rdi
  4052c2:	00 
  4052c3:	89 84 24 c8 04 00 00 	mov    %eax,0x4c8(%rsp)
  4052ca:	be 40 00 00 00       	mov    $0x40,%esi
  4052cf:	89 84 24 c0 04 00 00 	mov    %eax,0x4c0(%rsp)
  4052d6:	ba c0 12 00 00       	mov    $0x12c0,%edx
  4052db:	c7 84 24 c4 04 00 00 	movl   $0xf,0x4c4(%rsp)
  4052e2:	0f 00 00 00 
  4052e6:	e8 d5 c2 ff ff       	callq  4015c0 <posix_memalign@plt>
  4052eb:	44 8b ac 24 c4 04 00 	mov    0x4c4(%rsp),%r13d
  4052f2:	00 
  4052f3:	45 31 ff             	xor    %r15d,%r15d
  4052f6:	45 85 ed             	test   %r13d,%r13d
  4052f9:	0f 8e 92 01 00 00    	jle    405491 <_Z16test_unrolled_40v+0x921>
  4052ff:	44 8b 94 24 c0 04 00 	mov    0x4c0(%rsp),%r10d
  405306:	00 
  405307:	4c 8b 8c 24 d0 04 00 	mov    0x4d0(%rsp),%r9
  40530e:	00 
  40530f:	b8 08 00 00 00       	mov    $0x8,%eax
  405314:	62 f1 ed 48 ef d2    	vpxorq %zmm2,%zmm2,%zmm2
  40531a:	31 db                	xor    %ebx,%ebx
  40531c:	c5 f9 6e c8          	vmovd  %eax,%xmm1
  405320:	49 63 ca             	movslq %r10d,%rcx
  405323:	45 89 d0             	mov    %r10d,%r8d
  405326:	4c 63 a4 24 c8 04 00 	movslq 0x4c8(%rsp),%r12
  40532d:	00 
  40532e:	c5 fe 6f 05 ca f0 00 	vmovdqu 0xf0ca(%rip),%ymm0        # 414400 <_IO_stdin_used+0xc0>
  405335:	00 
  405336:	41 83 e0 f8          	and    $0xfffffff8,%r8d
  40533a:	4d 89 ce             	mov    %r9,%r14
  40533d:	48 8d 04 cd 00 00 00 	lea    0x0(,%rcx,8),%rax
  405344:	00 
  405345:	48 89 84 24 30 04 00 	mov    %rax,0x430(%rsp)
  40534c:	00 
  40534d:	c4 e2 7d 58 c9       	vpbroadcastd %xmm1,%ymm1
  405352:	49 63 f0             	movslq %r8d,%rsi
  405355:	45 85 d2             	test   %r10d,%r10d
  405358:	0f 8e 1f 01 00 00    	jle    40547d <_Z16test_unrolled_40v+0x90d>
  40535e:	41 83 fa 0c          	cmp    $0xc,%r10d
  405362:	0f 8e 98 00 00 00    	jle    405400 <_Z16test_unrolled_40v+0x890>
  405368:	c5 fe 7f 8c 24 00 04 	vmovdqu %ymm1,0x400(%rsp)
  40536f:	00 00 
  405371:	48 89 0c 24          	mov    %rcx,(%rsp)
  405375:	48 89 b4 24 f0 03 00 	mov    %rsi,0x3f0(%rsp)
  40537c:	00 
  40537d:	44 89 84 24 f8 03 00 	mov    %r8d,0x3f8(%rsp)
  405384:	00 
  405385:	4c 89 8c 24 20 04 00 	mov    %r9,0x420(%rsp)
  40538c:	00 
  40538d:	44 89 94 24 28 04 00 	mov    %r10d,0x428(%rsp)
  405394:	00 
  405395:	4c 89 f7             	mov    %r14,%rdi
  405398:	31 f6                	xor    %esi,%esi
  40539a:	48 8b 94 24 30 04 00 	mov    0x430(%rsp),%rdx
  4053a1:	00 
  4053a2:	e8 d9 be 00 00       	callq  411280 <__intel_mic_avx512f_memset>
  4053a7:	41 83 c7 01          	add    $0x1,%r15d
  4053ab:	4c 01 e3             	add    %r12,%rbx
  4053ae:	4f 8d 34 e6          	lea    (%r14,%r12,8),%r14
  4053b2:	45 39 ef             	cmp    %r13d,%r15d
  4053b5:	0f 83 d6 00 00 00    	jae    405491 <_Z16test_unrolled_40v+0x921>
  4053bb:	83 bc 24 28 04 00 00 	cmpl   $0xc,0x428(%rsp)
  4053c2:	0c 
  4053c3:	7f d0                	jg     405395 <_Z16test_unrolled_40v+0x825>
  4053c5:	c5 fe 6f 05 33 f0 00 	vmovdqu 0xf033(%rip),%ymm0        # 414400 <_IO_stdin_used+0xc0>
  4053cc:	00 
  4053cd:	c5 fe 6f 8c 24 00 04 	vmovdqu 0x400(%rsp),%ymm1
  4053d4:	00 00 
  4053d6:	62 f1 ed 48 ef d2    	vpxorq %zmm2,%zmm2,%zmm2
  4053dc:	48 8b b4 24 f0 03 00 	mov    0x3f0(%rsp),%rsi
  4053e3:	00 
  4053e4:	44 8b 84 24 f8 03 00 	mov    0x3f8(%rsp),%r8d
  4053eb:	00 
  4053ec:	4c 8b 8c 24 20 04 00 	mov    0x420(%rsp),%r9
  4053f3:	00 
  4053f4:	44 8b 94 24 28 04 00 	mov    0x428(%rsp),%r10d
  4053fb:	00 
  4053fc:	48 8b 0c 24          	mov    (%rsp),%rcx
  405400:	41 83 fa 08          	cmp    $0x8,%r10d
  405404:	0f 8c e0 1c 00 00    	jl     4070ea <LOOP_TOP_1_3+0xd6b>
  40540a:	44 89 c0             	mov    %r8d,%eax
  40540d:	45 31 db             	xor    %r11d,%r11d
  405410:	49 8d 14 d9          	lea    (%r9,%rbx,8),%rdx
  405414:	62 b1 fd 48 11 14 da 	vmovupd %zmm2,(%rdx,%r11,8)
  40541b:	49 83 c3 08          	add    $0x8,%r11
  40541f:	49 39 f3             	cmp    %rsi,%r11
  405422:	72 f0                	jb     405414 <_Z16test_unrolled_40v+0x8a4>
  405424:	8d 50 01             	lea    0x1(%rax),%edx
  405427:	44 39 d2             	cmp    %r10d,%edx
  40542a:	77 51                	ja     40547d <_Z16test_unrolled_40v+0x90d>
  40542c:	45 89 d3             	mov    %r10d,%r11d
  40542f:	ba ff 00 00 00       	mov    $0xff,%edx
  405434:	c5 fd 6f e0          	vmovdqa %ymm0,%ymm4
  405438:	41 29 c3             	sub    %eax,%r11d
  40543b:	48 63 c0             	movslq %eax,%rax
  40543e:	c4 c1 79 6e db       	vmovd  %r11d,%xmm3
  405443:	4c 8d 1c 03          	lea    (%rbx,%rax,1),%r11
  405447:	48 f7 d8             	neg    %rax
  40544a:	c5 f8 92 ca          	kmovw  %edx,%k1
  40544e:	c4 e2 7d 58 db       	vpbroadcastd %xmm3,%ymm3
  405453:	31 d2                	xor    %edx,%edx
  405455:	4b 8d 3c d9          	lea    (%r9,%r11,8),%rdi
  405459:	48 01 c8             	add    %rcx,%rax
  40545c:	45 31 db             	xor    %r11d,%r11d
  40545f:	48 83 c2 08          	add    $0x8,%rdx
  405463:	62 f1 65 49 66 d4    	vpcmpgtd %zmm4,%zmm3,%k2{%k1}
  405469:	62 d1 fd 4a 11 14 3b 	vmovupd %zmm2,(%r11,%rdi,1){%k2}
  405470:	49 83 c3 40          	add    $0x40,%r11
  405474:	c5 dd fe e1          	vpaddd %ymm1,%ymm4,%ymm4
  405478:	48 39 c2             	cmp    %rax,%rdx
  40547b:	72 e2                	jb     40545f <_Z16test_unrolled_40v+0x8ef>
  40547d:	41 83 c7 01          	add    $0x1,%r15d
  405481:	4c 01 e3             	add    %r12,%rbx
  405484:	4f 8d 34 e6          	lea    (%r14,%r12,8),%r14
  405488:	45 39 ef             	cmp    %r13d,%r15d
  40548b:	0f 82 c4 fe ff ff    	jb     405355 <_Z16test_unrolled_40v+0x7e5>
  405491:	b8 28 00 00 00       	mov    $0x28,%eax
  405496:	48 c7 84 24 f0 03 00 	movq   $0x617240,0x3f0(%rsp)
  40549d:	00 40 72 61 00 
  4054a2:	48 8d bc 24 08 04 00 	lea    0x408(%rsp),%rdi
  4054a9:	00 
  4054aa:	89 84 24 00 04 00 00 	mov    %eax,0x400(%rsp)
  4054b1:	be 40 00 00 00       	mov    $0x40,%esi
  4054b6:	89 84 24 f8 03 00 00 	mov    %eax,0x3f8(%rsp)
  4054bd:	ba c0 12 00 00       	mov    $0x12c0,%edx
  4054c2:	c7 84 24 fc 03 00 00 	movl   $0xf,0x3fc(%rsp)
  4054c9:	0f 00 00 00 
  4054cd:	e8 ee c0 ff ff       	callq  4015c0 <posix_memalign@plt>
  4054d2:	44 8b ac 24 fc 03 00 	mov    0x3fc(%rsp),%r13d
  4054d9:	00 
  4054da:	45 31 ff             	xor    %r15d,%r15d
  4054dd:	45 85 ed             	test   %r13d,%r13d
  4054e0:	0f 8e 8e 01 00 00    	jle    405674 <_Z16test_unrolled_40v+0xb04>
  4054e6:	44 8b 8c 24 f8 03 00 	mov    0x3f8(%rsp),%r9d
  4054ed:	00 
  4054ee:	4c 8b 84 24 08 04 00 	mov    0x408(%rsp),%r8
  4054f5:	00 
  4054f6:	b8 08 00 00 00       	mov    $0x8,%eax
  4054fb:	62 f1 ed 48 ef d2    	vpxorq %zmm2,%zmm2,%zmm2
  405501:	31 db                	xor    %ebx,%ebx
  405503:	c5 f9 6e c8          	vmovd  %eax,%xmm1
  405507:	49 63 c9             	movslq %r9d,%rcx
  40550a:	44 89 ce             	mov    %r9d,%esi
  40550d:	4c 63 a4 24 00 04 00 	movslq 0x400(%rsp),%r12
  405514:	00 
  405515:	c5 fe 6f 05 e3 ee 00 	vmovdqu 0xeee3(%rip),%ymm0        # 414400 <_IO_stdin_used+0xc0>
  40551c:	00 
  40551d:	83 e6 f8             	and    $0xfffffff8,%esi
  405520:	4d 89 c6             	mov    %r8,%r14
  405523:	48 8d 04 cd 00 00 00 	lea    0x0(,%rcx,8),%rax
  40552a:	00 
  40552b:	48 89 84 24 80 04 00 	mov    %rax,0x480(%rsp)
  405532:	00 
  405533:	4c 63 d6             	movslq %esi,%r10
  405536:	c4 e2 7d 58 c9       	vpbroadcastd %xmm1,%ymm1
  40553b:	45 85 c9             	test   %r9d,%r9d
  40553e:	0f 8e 1c 01 00 00    	jle    405660 <_Z16test_unrolled_40v+0xaf0>
  405544:	41 83 f9 0c          	cmp    $0xc,%r9d
  405548:	0f 8e 96 00 00 00    	jle    4055e4 <_Z16test_unrolled_40v+0xa74>
  40554e:	c5 fe 7f 8c 24 20 04 	vmovdqu %ymm1,0x420(%rsp)
  405555:	00 00 
  405557:	48 89 0c 24          	mov    %rcx,(%rsp)
  40555b:	4c 89 94 24 10 04 00 	mov    %r10,0x410(%rsp)
  405562:	00 
  405563:	89 b4 24 18 04 00 00 	mov    %esi,0x418(%rsp)
  40556a:	4c 89 84 24 68 04 00 	mov    %r8,0x468(%rsp)
  405571:	00 
  405572:	44 89 8c 24 70 04 00 	mov    %r9d,0x470(%rsp)
  405579:	00 
  40557a:	4c 89 f7             	mov    %r14,%rdi
  40557d:	31 f6                	xor    %esi,%esi
  40557f:	48 8b 94 24 80 04 00 	mov    0x480(%rsp),%rdx
  405586:	00 
  405587:	e8 f4 bc 00 00       	callq  411280 <__intel_mic_avx512f_memset>
  40558c:	41 83 c7 01          	add    $0x1,%r15d
  405590:	4c 01 e3             	add    %r12,%rbx
  405593:	4f 8d 34 e6          	lea    (%r14,%r12,8),%r14
  405597:	45 39 ef             	cmp    %r13d,%r15d
  40559a:	0f 83 d4 00 00 00    	jae    405674 <_Z16test_unrolled_40v+0xb04>
  4055a0:	83 bc 24 70 04 00 00 	cmpl   $0xc,0x470(%rsp)
  4055a7:	0c 
  4055a8:	7f d0                	jg     40557a <_Z16test_unrolled_40v+0xa0a>
  4055aa:	c5 fe 6f 05 4e ee 00 	vmovdqu 0xee4e(%rip),%ymm0        # 414400 <_IO_stdin_used+0xc0>
  4055b1:	00 
  4055b2:	c5 fe 6f 8c 24 20 04 	vmovdqu 0x420(%rsp),%ymm1
  4055b9:	00 00 
  4055bb:	62 f1 ed 48 ef d2    	vpxorq %zmm2,%zmm2,%zmm2
  4055c1:	4c 8b 94 24 10 04 00 	mov    0x410(%rsp),%r10
  4055c8:	00 
  4055c9:	8b b4 24 18 04 00 00 	mov    0x418(%rsp),%esi
  4055d0:	48 8b 0c 24          	mov    (%rsp),%rcx
  4055d4:	4c 8b 84 24 68 04 00 	mov    0x468(%rsp),%r8
  4055db:	00 
  4055dc:	44 8b 8c 24 70 04 00 	mov    0x470(%rsp),%r9d
  4055e3:	00 
  4055e4:	41 83 f9 08          	cmp    $0x8,%r9d
  4055e8:	0f 8c f5 1a 00 00    	jl     4070e3 <LOOP_TOP_1_3+0xd64>
  4055ee:	89 f0                	mov    %esi,%eax
  4055f0:	45 31 db             	xor    %r11d,%r11d
  4055f3:	49 8d 14 d8          	lea    (%r8,%rbx,8),%rdx
  4055f7:	62 b1 fd 48 11 14 da 	vmovupd %zmm2,(%rdx,%r11,8)
  4055fe:	49 83 c3 08          	add    $0x8,%r11
  405602:	4d 39 d3             	cmp    %r10,%r11
  405605:	72 f0                	jb     4055f7 <_Z16test_unrolled_40v+0xa87>
  405607:	8d 50 01             	lea    0x1(%rax),%edx
  40560a:	44 39 ca             	cmp    %r9d,%edx
  40560d:	77 51                	ja     405660 <_Z16test_unrolled_40v+0xaf0>
  40560f:	45 89 cb             	mov    %r9d,%r11d
  405612:	ba ff 00 00 00       	mov    $0xff,%edx
  405617:	c5 fd 6f e0          	vmovdqa %ymm0,%ymm4
  40561b:	41 29 c3             	sub    %eax,%r11d
  40561e:	48 63 c0             	movslq %eax,%rax
  405621:	c4 c1 79 6e db       	vmovd  %r11d,%xmm3
  405626:	4c 8d 1c 03          	lea    (%rbx,%rax,1),%r11
  40562a:	48 f7 d8             	neg    %rax
  40562d:	c5 f8 92 ca          	kmovw  %edx,%k1
  405631:	c4 e2 7d 58 db       	vpbroadcastd %xmm3,%ymm3
  405636:	31 d2                	xor    %edx,%edx
  405638:	4b 8d 3c d8          	lea    (%r8,%r11,8),%rdi
  40563c:	48 01 c8             	add    %rcx,%rax
  40563f:	45 31 db             	xor    %r11d,%r11d
  405642:	48 83 c2 08          	add    $0x8,%rdx
  405646:	62 f1 65 49 66 d4    	vpcmpgtd %zmm4,%zmm3,%k2{%k1}
  40564c:	62 d1 fd 4a 11 14 3b 	vmovupd %zmm2,(%r11,%rdi,1){%k2}
  405653:	49 83 c3 40          	add    $0x40,%r11
  405657:	c5 dd fe e1          	vpaddd %ymm1,%ymm4,%ymm4
  40565b:	48 39 c2             	cmp    %rax,%rdx
  40565e:	72 e2                	jb     405642 <_Z16test_unrolled_40v+0xad2>
  405660:	41 83 c7 01          	add    $0x1,%r15d
  405664:	4c 01 e3             	add    %r12,%rbx
  405667:	4f 8d 34 e6          	lea    (%r14,%r12,8),%r14
  40566b:	45 39 ef             	cmp    %r13d,%r15d
  40566e:	0f 82 c7 fe ff ff    	jb     40553b <_Z16test_unrolled_40v+0x9cb>
  405674:	8b 84 24 c4 04 00 00 	mov    0x4c4(%rsp),%eax
  40567b:	89 04 24             	mov    %eax,(%rsp)
  40567e:	44 8b ac 24 c0 04 00 	mov    0x4c0(%rsp),%r13d
  405685:	00 
  405686:	45 31 ff             	xor    %r15d,%r15d
  405689:	44 8b b4 24 a4 04 00 	mov    0x4a4(%rsp),%r14d
  405690:	00 
  405691:	85 c0                	test   %eax,%eax
  405693:	0f 8e c6 00 00 00    	jle    40575f <_Z16test_unrolled_40v+0xbef>
  405699:	31 db                	xor    %ebx,%ebx
  40569b:	45 85 f6             	test   %r14d,%r14d
  40569e:	0f 8e ad 00 00 00    	jle    405751 <_Z16test_unrolled_40v+0xbe1>
  4056a4:	45 31 e4             	xor    %r12d,%r12d
  4056a7:	45 85 ed             	test   %r13d,%r13d
  4056aa:	0f 8e 95 00 00 00    	jle    405745 <_Z16test_unrolled_40v+0xbd5>
  4056b0:	48 8b 84 24 b8 04 00 	mov    0x4b8(%rsp),%rax
  4056b7:	00 
  4056b8:	48 8d bc 24 b8 04 00 	lea    0x4b8(%rsp),%rdi
  4056bf:	00 
  4056c0:	44 89 e6             	mov    %r12d,%esi
  4056c3:	44 89 fa             	mov    %r15d,%edx
  4056c6:	ff 10                	callq  *(%rax)
  4056c8:	c5 fb 11 84 24 18 04 	vmovsd %xmm0,0x418(%rsp)
  4056cf:	00 00 
  4056d1:	48 8b 84 24 98 04 00 	mov    0x498(%rsp),%rax
  4056d8:	00 
  4056d9:	48 8d bc 24 98 04 00 	lea    0x498(%rsp),%rdi
  4056e0:	00 
  4056e1:	44 89 e6             	mov    %r12d,%esi
  4056e4:	89 da                	mov    %ebx,%edx
  4056e6:	ff 10                	callq  *(%rax)
  4056e8:	c5 fb 11 84 24 10 04 	vmovsd %xmm0,0x410(%rsp)
  4056ef:	00 00 
  4056f1:	48 8b 84 24 e0 04 00 	mov    0x4e0(%rsp),%rax
  4056f8:	00 
  4056f9:	48 8d bc 24 e0 04 00 	lea    0x4e0(%rsp),%rdi
  405700:	00 
  405701:	89 de                	mov    %ebx,%esi
  405703:	44 89 fa             	mov    %r15d,%edx
  405706:	ff 10                	callq  *(%rax)
  405708:	c5 f9 28 c8          	vmovapd %xmm0,%xmm1
  40570c:	c5 fb 10 84 24 18 04 	vmovsd 0x418(%rsp),%xmm0
  405713:	00 00 
  405715:	48 8b 84 24 b8 04 00 	mov    0x4b8(%rsp),%rax
  40571c:	00 
  40571d:	44 89 e6             	mov    %r12d,%esi
  405720:	44 89 fa             	mov    %r15d,%edx
  405723:	48 8d bc 24 b8 04 00 	lea    0x4b8(%rsp),%rdi
  40572a:	00 
  40572b:	c4 e2 f1 b9 84 24 10 	vfmadd231sd 0x410(%rsp),%xmm1,%xmm0
  405732:	04 00 00 
  405735:	ff 50 08             	callq  *0x8(%rax)
  405738:	41 83 c4 01          	add    $0x1,%r12d
  40573c:	45 39 ec             	cmp    %r13d,%r12d
  40573f:	0f 8c 6b ff ff ff    	jl     4056b0 <_Z16test_unrolled_40v+0xb40>
  405745:	83 c3 01             	add    $0x1,%ebx
  405748:	44 39 f3             	cmp    %r14d,%ebx
  40574b:	0f 8c 53 ff ff ff    	jl     4056a4 <_Z16test_unrolled_40v+0xb34>
  405751:	41 83 c7 01          	add    $0x1,%r15d
  405755:	44 3b 3c 24          	cmp    (%rsp),%r15d
  405759:	0f 8c 3a ff ff ff    	jl     405699 <_Z16test_unrolled_40v+0xb29>
  40575f:	48 8b 94 24 d8 04 00 	mov    0x4d8(%rsp),%rdx
  405766:	00 
  405767:	48 8b 84 24 b0 04 00 	mov    0x4b0(%rsp),%rax
  40576e:	00 
  40576f:	48 89 04 24          	mov    %rax,(%rsp)
  405773:	48 8b 4a 18          	mov    0x18(%rdx),%rcx
  405777:	48 89 8c 24 10 04 00 	mov    %rcx,0x410(%rsp)
  40577e:	00 
  40577f:	48 8b 9c 24 08 04 00 	mov    0x408(%rsp),%rbx
  405786:	00 
  405787:	48 89 9c 24 18 04 00 	mov    %rbx,0x418(%rsp)
  40578e:	00 
  40578f:	48 8d b4 24 f0 03 00 	lea    0x3f0(%rsp),%rsi
  405796:	00 
  405797:	48 8b 3c 24          	mov    (%rsp),%rdi
  40579b:	48 8b b4 24 10 04 00 	mov    0x410(%rsp),%rsi
  4057a2:	00 
  4057a3:	48 8b 94 24 18 04 00 	mov    0x418(%rsp),%rdx
  4057aa:	00 
  4057ab:	49 c7 c4 00 00 00 00 	mov    $0x0,%r12

00000000004057b2 <LOOP_TOP_1_2>:
  4057b2:	62 e1 fd 48 28 0a    	vmovapd (%rdx),%zmm17
  4057b8:	62 e1 fd 48 28 52 01 	vmovapd 0x40(%rdx),%zmm18
  4057bf:	62 e1 fd 48 28 5a 02 	vmovapd 0x80(%rdx),%zmm19
  4057c6:	62 e1 fd 48 28 62 03 	vmovapd 0xc0(%rdx),%zmm20
  4057cd:	62 e1 fd 48 28 6a 04 	vmovapd 0x100(%rdx),%zmm21
  4057d4:	62 e1 fd 48 28 72 05 	vmovapd 0x140(%rdx),%zmm22
  4057db:	62 e1 fd 48 28 7a 06 	vmovapd 0x180(%rdx),%zmm23
  4057e2:	62 61 fd 48 28 42 07 	vmovapd 0x1c0(%rdx),%zmm24
  4057e9:	62 61 fd 48 28 4a 08 	vmovapd 0x200(%rdx),%zmm25
  4057f0:	62 61 fd 48 28 52 09 	vmovapd 0x240(%rdx),%zmm26
  4057f7:	62 61 fd 48 28 5a 0a 	vmovapd 0x280(%rdx),%zmm27
  4057fe:	62 61 fd 48 28 62 0b 	vmovapd 0x2c0(%rdx),%zmm28
  405805:	62 61 fd 48 28 6a 0c 	vmovapd 0x300(%rdx),%zmm29
  40580c:	62 61 fd 48 28 72 0d 	vmovapd 0x340(%rdx),%zmm30
  405813:	62 61 fd 48 28 7a 0e 	vmovapd 0x380(%rdx),%zmm31
  40581a:	62 f1 fd 48 28 47 1e 	vmovapd 0x780(%rdi),%zmm0
  405821:	62 f1 fd 48 28 4f 1f 	vmovapd 0x7c0(%rdi),%zmm1
  405828:	62 f1 fd 48 28 57 20 	vmovapd 0x800(%rdi),%zmm2
  40582f:	62 f1 fd 48 28 5f 21 	vmovapd 0x840(%rdi),%zmm3
  405836:	62 f1 fd 48 28 67 22 	vmovapd 0x880(%rdi),%zmm4
  40583d:	62 f1 fd 48 28 6f 23 	vmovapd 0x8c0(%rdi),%zmm5
  405844:	62 f1 fd 48 28 77 24 	vmovapd 0x900(%rdi),%zmm6
  40584b:	62 f1 fd 48 28 7f 25 	vmovapd 0x940(%rdi),%zmm7
  405852:	62 71 fd 48 28 47 26 	vmovapd 0x980(%rdi),%zmm8
  405859:	62 71 fd 48 28 4f 27 	vmovapd 0x9c0(%rdi),%zmm9
  405860:	62 71 fd 48 28 57 28 	vmovapd 0xa00(%rdi),%zmm10
  405867:	62 71 fd 48 28 5f 29 	vmovapd 0xa40(%rdi),%zmm11
  40586e:	62 71 fd 48 28 67 2a 	vmovapd 0xa80(%rdi),%zmm12
  405875:	62 71 fd 48 28 6f 2b 	vmovapd 0xac0(%rdi),%zmm13
  40587c:	62 71 fd 48 28 77 2c 	vmovapd 0xb00(%rdi),%zmm14
  405883:	62 e2 fd 58 b8 0e    	vfmadd231pd (%rsi){1to8},%zmm0,%zmm17
  405889:	62 e2 fd 58 b8 76 03 	vfmadd231pd 0x18(%rsi){1to8},%zmm0,%zmm22
  405890:	62 62 fd 58 b8 5e 06 	vfmadd231pd 0x30(%rsi){1to8},%zmm0,%zmm27
  405897:	62 e2 d5 58 b8 4e 01 	vfmadd231pd 0x8(%rsi){1to8},%zmm5,%zmm17
  40589e:	62 e2 d5 58 b8 76 04 	vfmadd231pd 0x20(%rsi){1to8},%zmm5,%zmm22
  4058a5:	62 62 d5 58 b8 5e 07 	vfmadd231pd 0x38(%rsi){1to8},%zmm5,%zmm27
  4058ac:	62 e2 ad 58 b8 4e 02 	vfmadd231pd 0x10(%rsi){1to8},%zmm10,%zmm17
  4058b3:	62 e2 ad 58 b8 76 05 	vfmadd231pd 0x28(%rsi){1to8},%zmm10,%zmm22
  4058ba:	62 62 ad 58 b8 5e 08 	vfmadd231pd 0x40(%rsi){1to8},%zmm10,%zmm27
  4058c1:	62 e2 f5 58 b8 16    	vfmadd231pd (%rsi){1to8},%zmm1,%zmm18
  4058c7:	62 e2 f5 58 b8 7e 03 	vfmadd231pd 0x18(%rsi){1to8},%zmm1,%zmm23
  4058ce:	62 62 f5 58 b8 66 06 	vfmadd231pd 0x30(%rsi){1to8},%zmm1,%zmm28
  4058d5:	62 e2 cd 58 b8 56 01 	vfmadd231pd 0x8(%rsi){1to8},%zmm6,%zmm18
  4058dc:	62 e2 cd 58 b8 7e 04 	vfmadd231pd 0x20(%rsi){1to8},%zmm6,%zmm23
  4058e3:	62 62 cd 58 b8 66 07 	vfmadd231pd 0x38(%rsi){1to8},%zmm6,%zmm28
  4058ea:	62 e2 a5 58 b8 56 02 	vfmadd231pd 0x10(%rsi){1to8},%zmm11,%zmm18
  4058f1:	62 e2 a5 58 b8 7e 05 	vfmadd231pd 0x28(%rsi){1to8},%zmm11,%zmm23
  4058f8:	62 62 a5 58 b8 66 08 	vfmadd231pd 0x40(%rsi){1to8},%zmm11,%zmm28
  4058ff:	62 e2 ed 58 b8 1e    	vfmadd231pd (%rsi){1to8},%zmm2,%zmm19
  405905:	62 62 ed 58 b8 46 03 	vfmadd231pd 0x18(%rsi){1to8},%zmm2,%zmm24
  40590c:	62 62 ed 58 b8 6e 06 	vfmadd231pd 0x30(%rsi){1to8},%zmm2,%zmm29
  405913:	62 e2 c5 58 b8 5e 01 	vfmadd231pd 0x8(%rsi){1to8},%zmm7,%zmm19
  40591a:	62 62 c5 58 b8 46 04 	vfmadd231pd 0x20(%rsi){1to8},%zmm7,%zmm24
  405921:	62 62 c5 58 b8 6e 07 	vfmadd231pd 0x38(%rsi){1to8},%zmm7,%zmm29
  405928:	62 e2 9d 58 b8 5e 02 	vfmadd231pd 0x10(%rsi){1to8},%zmm12,%zmm19
  40592f:	62 62 9d 58 b8 46 05 	vfmadd231pd 0x28(%rsi){1to8},%zmm12,%zmm24
  405936:	62 62 9d 58 b8 6e 08 	vfmadd231pd 0x40(%rsi){1to8},%zmm12,%zmm29
  40593d:	62 e2 e5 58 b8 26    	vfmadd231pd (%rsi){1to8},%zmm3,%zmm20
  405943:	62 62 e5 58 b8 4e 03 	vfmadd231pd 0x18(%rsi){1to8},%zmm3,%zmm25
  40594a:	62 62 e5 58 b8 76 06 	vfmadd231pd 0x30(%rsi){1to8},%zmm3,%zmm30
  405951:	62 e2 bd 58 b8 66 01 	vfmadd231pd 0x8(%rsi){1to8},%zmm8,%zmm20
  405958:	62 62 bd 58 b8 4e 04 	vfmadd231pd 0x20(%rsi){1to8},%zmm8,%zmm25
  40595f:	62 62 bd 58 b8 76 07 	vfmadd231pd 0x38(%rsi){1to8},%zmm8,%zmm30
  405966:	62 e2 95 58 b8 66 02 	vfmadd231pd 0x10(%rsi){1to8},%zmm13,%zmm20
  40596d:	62 62 95 58 b8 4e 05 	vfmadd231pd 0x28(%rsi){1to8},%zmm13,%zmm25
  405974:	62 62 95 58 b8 76 08 	vfmadd231pd 0x40(%rsi){1to8},%zmm13,%zmm30
  40597b:	62 e2 dd 58 b8 2e    	vfmadd231pd (%rsi){1to8},%zmm4,%zmm21
  405981:	62 62 dd 58 b8 56 03 	vfmadd231pd 0x18(%rsi){1to8},%zmm4,%zmm26
  405988:	62 62 dd 58 b8 7e 06 	vfmadd231pd 0x30(%rsi){1to8},%zmm4,%zmm31
  40598f:	62 e2 b5 58 b8 6e 01 	vfmadd231pd 0x8(%rsi){1to8},%zmm9,%zmm21
  405996:	62 62 b5 58 b8 56 04 	vfmadd231pd 0x20(%rsi){1to8},%zmm9,%zmm26
  40599d:	62 62 b5 58 b8 7e 07 	vfmadd231pd 0x38(%rsi){1to8},%zmm9,%zmm31
  4059a4:	62 e2 8d 58 b8 6e 02 	vfmadd231pd 0x10(%rsi){1to8},%zmm14,%zmm21
  4059ab:	62 62 8d 58 b8 56 05 	vfmadd231pd 0x28(%rsi){1to8},%zmm14,%zmm26
  4059b2:	62 62 8d 58 b8 7e 08 	vfmadd231pd 0x40(%rsi){1to8},%zmm14,%zmm31
  4059b9:	62 e1 fd 48 29 0a    	vmovapd %zmm17,(%rdx)
  4059bf:	62 e1 fd 48 29 52 01 	vmovapd %zmm18,0x40(%rdx)
  4059c6:	62 e1 fd 48 29 5a 02 	vmovapd %zmm19,0x80(%rdx)
  4059cd:	62 e1 fd 48 29 62 03 	vmovapd %zmm20,0xc0(%rdx)
  4059d4:	62 e1 fd 48 29 6a 04 	vmovapd %zmm21,0x100(%rdx)
  4059db:	62 e1 fd 48 29 72 05 	vmovapd %zmm22,0x140(%rdx)
  4059e2:	62 e1 fd 48 29 7a 06 	vmovapd %zmm23,0x180(%rdx)
  4059e9:	62 61 fd 48 29 42 07 	vmovapd %zmm24,0x1c0(%rdx)
  4059f0:	62 61 fd 48 29 4a 08 	vmovapd %zmm25,0x200(%rdx)
  4059f7:	62 61 fd 48 29 52 09 	vmovapd %zmm26,0x240(%rdx)
  4059fe:	62 61 fd 48 29 5a 0a 	vmovapd %zmm27,0x280(%rdx)
  405a05:	62 61 fd 48 29 62 0b 	vmovapd %zmm28,0x2c0(%rdx)
  405a0c:	62 61 fd 48 29 6a 0c 	vmovapd %zmm29,0x300(%rdx)
  405a13:	62 61 fd 48 29 72 0d 	vmovapd %zmm30,0x340(%rdx)
  405a1a:	62 61 fd 48 29 7a 0e 	vmovapd %zmm31,0x380(%rdx)
  405a21:	48 81 c2 c0 03 00 00 	add    $0x3c0,%rdx
  405a28:	62 e1 fd 48 28 0a    	vmovapd (%rdx),%zmm17
  405a2e:	62 e1 fd 48 28 52 01 	vmovapd 0x40(%rdx),%zmm18
  405a35:	62 e1 fd 48 28 5a 02 	vmovapd 0x80(%rdx),%zmm19
  405a3c:	62 e1 fd 48 28 62 03 	vmovapd 0xc0(%rdx),%zmm20
  405a43:	62 e1 fd 48 28 6a 04 	vmovapd 0x100(%rdx),%zmm21
  405a4a:	62 e1 fd 48 28 72 05 	vmovapd 0x140(%rdx),%zmm22
  405a51:	62 e1 fd 48 28 7a 06 	vmovapd 0x180(%rdx),%zmm23
  405a58:	62 61 fd 48 28 42 07 	vmovapd 0x1c0(%rdx),%zmm24
  405a5f:	62 61 fd 48 28 4a 08 	vmovapd 0x200(%rdx),%zmm25
  405a66:	62 61 fd 48 28 52 09 	vmovapd 0x240(%rdx),%zmm26
  405a6d:	62 61 fd 48 28 5a 0a 	vmovapd 0x280(%rdx),%zmm27
  405a74:	62 61 fd 48 28 62 0b 	vmovapd 0x2c0(%rdx),%zmm28
  405a7b:	62 61 fd 48 28 6a 0c 	vmovapd 0x300(%rdx),%zmm29
  405a82:	62 61 fd 48 28 72 0d 	vmovapd 0x340(%rdx),%zmm30
  405a89:	62 61 fd 48 28 7a 0e 	vmovapd 0x380(%rdx),%zmm31
  405a90:	62 f1 fd 48 28 47 1e 	vmovapd 0x780(%rdi),%zmm0
  405a97:	62 f1 fd 48 28 4f 1f 	vmovapd 0x7c0(%rdi),%zmm1
  405a9e:	62 f1 fd 48 28 57 20 	vmovapd 0x800(%rdi),%zmm2
  405aa5:	62 f1 fd 48 28 5f 21 	vmovapd 0x840(%rdi),%zmm3
  405aac:	62 f1 fd 48 28 67 22 	vmovapd 0x880(%rdi),%zmm4
  405ab3:	62 f1 fd 48 28 6f 23 	vmovapd 0x8c0(%rdi),%zmm5
  405aba:	62 f1 fd 48 28 77 24 	vmovapd 0x900(%rdi),%zmm6
  405ac1:	62 f1 fd 48 28 7f 25 	vmovapd 0x940(%rdi),%zmm7
  405ac8:	62 71 fd 48 28 47 26 	vmovapd 0x980(%rdi),%zmm8
  405acf:	62 71 fd 48 28 4f 27 	vmovapd 0x9c0(%rdi),%zmm9
  405ad6:	62 71 fd 48 28 57 28 	vmovapd 0xa00(%rdi),%zmm10
  405add:	62 71 fd 48 28 5f 29 	vmovapd 0xa40(%rdi),%zmm11
  405ae4:	62 71 fd 48 28 67 2a 	vmovapd 0xa80(%rdi),%zmm12
  405aeb:	62 71 fd 48 28 6f 2b 	vmovapd 0xac0(%rdi),%zmm13
  405af2:	62 71 fd 48 28 77 2c 	vmovapd 0xb00(%rdi),%zmm14
  405af9:	62 e2 fd 58 b8 4e 09 	vfmadd231pd 0x48(%rsi){1to8},%zmm0,%zmm17
  405b00:	62 62 fd 58 b8 5e 0d 	vfmadd231pd 0x68(%rsi){1to8},%zmm0,%zmm27
  405b07:	62 e2 d5 58 b8 4e 0a 	vfmadd231pd 0x50(%rsi){1to8},%zmm5,%zmm17
  405b0e:	62 e2 d5 58 b8 76 0b 	vfmadd231pd 0x58(%rsi){1to8},%zmm5,%zmm22
  405b15:	62 e2 ad 58 b8 76 0c 	vfmadd231pd 0x60(%rsi){1to8},%zmm10,%zmm22
  405b1c:	62 62 ad 58 b8 5e 0e 	vfmadd231pd 0x70(%rsi){1to8},%zmm10,%zmm27
  405b23:	62 e2 f5 58 b8 56 09 	vfmadd231pd 0x48(%rsi){1to8},%zmm1,%zmm18
  405b2a:	62 62 f5 58 b8 66 0d 	vfmadd231pd 0x68(%rsi){1to8},%zmm1,%zmm28
  405b31:	62 e2 cd 58 b8 56 0a 	vfmadd231pd 0x50(%rsi){1to8},%zmm6,%zmm18
  405b38:	62 e2 cd 58 b8 7e 0b 	vfmadd231pd 0x58(%rsi){1to8},%zmm6,%zmm23
  405b3f:	62 e2 a5 58 b8 7e 0c 	vfmadd231pd 0x60(%rsi){1to8},%zmm11,%zmm23
  405b46:	62 62 a5 58 b8 66 0e 	vfmadd231pd 0x70(%rsi){1to8},%zmm11,%zmm28
  405b4d:	62 e2 ed 58 b8 5e 09 	vfmadd231pd 0x48(%rsi){1to8},%zmm2,%zmm19
  405b54:	62 62 ed 58 b8 6e 0d 	vfmadd231pd 0x68(%rsi){1to8},%zmm2,%zmm29
  405b5b:	62 e2 c5 58 b8 5e 0a 	vfmadd231pd 0x50(%rsi){1to8},%zmm7,%zmm19
  405b62:	62 62 c5 58 b8 46 0b 	vfmadd231pd 0x58(%rsi){1to8},%zmm7,%zmm24
  405b69:	62 62 9d 58 b8 46 0c 	vfmadd231pd 0x60(%rsi){1to8},%zmm12,%zmm24
  405b70:	62 62 9d 58 b8 6e 0e 	vfmadd231pd 0x70(%rsi){1to8},%zmm12,%zmm29
  405b77:	62 e2 e5 58 b8 66 09 	vfmadd231pd 0x48(%rsi){1to8},%zmm3,%zmm20
  405b7e:	62 62 e5 58 b8 76 0d 	vfmadd231pd 0x68(%rsi){1to8},%zmm3,%zmm30
  405b85:	62 e2 bd 58 b8 66 0a 	vfmadd231pd 0x50(%rsi){1to8},%zmm8,%zmm20
  405b8c:	62 62 bd 58 b8 4e 0b 	vfmadd231pd 0x58(%rsi){1to8},%zmm8,%zmm25
  405b93:	62 62 95 58 b8 4e 0c 	vfmadd231pd 0x60(%rsi){1to8},%zmm13,%zmm25
  405b9a:	62 62 95 58 b8 76 0e 	vfmadd231pd 0x70(%rsi){1to8},%zmm13,%zmm30
  405ba1:	62 e2 dd 58 b8 6e 09 	vfmadd231pd 0x48(%rsi){1to8},%zmm4,%zmm21
  405ba8:	62 62 dd 58 b8 7e 0d 	vfmadd231pd 0x68(%rsi){1to8},%zmm4,%zmm31
  405baf:	62 e2 b5 58 b8 6e 0a 	vfmadd231pd 0x50(%rsi){1to8},%zmm9,%zmm21
  405bb6:	62 62 b5 58 b8 56 0b 	vfmadd231pd 0x58(%rsi){1to8},%zmm9,%zmm26
  405bbd:	62 62 8d 58 b8 56 0c 	vfmadd231pd 0x60(%rsi){1to8},%zmm14,%zmm26
  405bc4:	62 62 8d 58 b8 7e 0e 	vfmadd231pd 0x70(%rsi){1to8},%zmm14,%zmm31
  405bcb:	62 e1 fd 48 29 0a    	vmovapd %zmm17,(%rdx)
  405bd1:	62 e1 fd 48 29 52 01 	vmovapd %zmm18,0x40(%rdx)
  405bd8:	62 e1 fd 48 29 5a 02 	vmovapd %zmm19,0x80(%rdx)
  405bdf:	62 e1 fd 48 29 62 03 	vmovapd %zmm20,0xc0(%rdx)
  405be6:	62 e1 fd 48 29 6a 04 	vmovapd %zmm21,0x100(%rdx)
  405bed:	62 e1 fd 48 29 72 05 	vmovapd %zmm22,0x140(%rdx)
  405bf4:	62 e1 fd 48 29 7a 06 	vmovapd %zmm23,0x180(%rdx)
  405bfb:	62 61 fd 48 29 42 07 	vmovapd %zmm24,0x1c0(%rdx)
  405c02:	62 61 fd 48 29 4a 08 	vmovapd %zmm25,0x200(%rdx)
  405c09:	62 61 fd 48 29 52 09 	vmovapd %zmm26,0x240(%rdx)
  405c10:	62 61 fd 48 29 5a 0a 	vmovapd %zmm27,0x280(%rdx)
  405c17:	62 61 fd 48 29 62 0b 	vmovapd %zmm28,0x2c0(%rdx)
  405c1e:	62 61 fd 48 29 6a 0c 	vmovapd %zmm29,0x300(%rdx)
  405c25:	62 61 fd 48 29 72 0d 	vmovapd %zmm30,0x340(%rdx)
  405c2c:	62 61 fd 48 29 7a 0e 	vmovapd %zmm31,0x380(%rdx)
  405c33:	48 81 c2 c0 03 00 00 	add    $0x3c0,%rdx
  405c3a:	62 e1 fd 48 28 0a    	vmovapd (%rdx),%zmm17
  405c40:	62 e1 fd 48 28 52 01 	vmovapd 0x40(%rdx),%zmm18
  405c47:	62 e1 fd 48 28 5a 02 	vmovapd 0x80(%rdx),%zmm19
  405c4e:	62 e1 fd 48 28 62 03 	vmovapd 0xc0(%rdx),%zmm20
  405c55:	62 e1 fd 48 28 6a 04 	vmovapd 0x100(%rdx),%zmm21
  405c5c:	62 e1 fd 48 28 72 05 	vmovapd 0x140(%rdx),%zmm22
  405c63:	62 e1 fd 48 28 7a 06 	vmovapd 0x180(%rdx),%zmm23
  405c6a:	62 61 fd 48 28 42 07 	vmovapd 0x1c0(%rdx),%zmm24
  405c71:	62 61 fd 48 28 4a 08 	vmovapd 0x200(%rdx),%zmm25
  405c78:	62 61 fd 48 28 52 09 	vmovapd 0x240(%rdx),%zmm26
  405c7f:	62 61 fd 48 28 5a 0a 	vmovapd 0x280(%rdx),%zmm27
  405c86:	62 61 fd 48 28 62 0b 	vmovapd 0x2c0(%rdx),%zmm28
  405c8d:	62 61 fd 48 28 6a 0c 	vmovapd 0x300(%rdx),%zmm29
  405c94:	62 61 fd 48 28 72 0d 	vmovapd 0x340(%rdx),%zmm30
  405c9b:	62 61 fd 48 28 7a 0e 	vmovapd 0x380(%rdx),%zmm31
  405ca2:	62 f1 fd 48 28 07    	vmovapd (%rdi),%zmm0
  405ca8:	62 f1 fd 48 28 4f 01 	vmovapd 0x40(%rdi),%zmm1
  405caf:	62 f1 fd 48 28 57 02 	vmovapd 0x80(%rdi),%zmm2
  405cb6:	62 f1 fd 48 28 5f 03 	vmovapd 0xc0(%rdi),%zmm3
  405cbd:	62 f1 fd 48 28 67 04 	vmovapd 0x100(%rdi),%zmm4
  405cc4:	62 f1 fd 48 28 6f 05 	vmovapd 0x140(%rdi),%zmm5
  405ccb:	62 f1 fd 48 28 77 06 	vmovapd 0x180(%rdi),%zmm6
  405cd2:	62 f1 fd 48 28 7f 07 	vmovapd 0x1c0(%rdi),%zmm7
  405cd9:	62 71 fd 48 28 47 08 	vmovapd 0x200(%rdi),%zmm8
  405ce0:	62 71 fd 48 28 4f 09 	vmovapd 0x240(%rdi),%zmm9
  405ce7:	62 71 fd 48 28 57 0a 	vmovapd 0x280(%rdi),%zmm10
  405cee:	62 71 fd 48 28 5f 0b 	vmovapd 0x2c0(%rdi),%zmm11
  405cf5:	62 71 fd 48 28 67 0c 	vmovapd 0x300(%rdi),%zmm12
  405cfc:	62 71 fd 48 28 6f 0d 	vmovapd 0x340(%rdi),%zmm13
  405d03:	62 71 fd 48 28 77 0e 	vmovapd 0x380(%rdi),%zmm14
  405d0a:	62 e2 fd 58 b8 4e 0f 	vfmadd231pd 0x78(%rsi){1to8},%zmm0,%zmm17
  405d11:	62 e2 d5 58 b8 76 10 	vfmadd231pd 0x80(%rsi){1to8},%zmm5,%zmm22
  405d18:	62 62 ad 58 b8 5e 11 	vfmadd231pd 0x88(%rsi){1to8},%zmm10,%zmm27
  405d1f:	62 e2 f5 58 b8 56 0f 	vfmadd231pd 0x78(%rsi){1to8},%zmm1,%zmm18
  405d26:	62 e2 cd 58 b8 7e 10 	vfmadd231pd 0x80(%rsi){1to8},%zmm6,%zmm23
  405d2d:	62 62 a5 58 b8 66 11 	vfmadd231pd 0x88(%rsi){1to8},%zmm11,%zmm28
  405d34:	62 e2 ed 58 b8 5e 0f 	vfmadd231pd 0x78(%rsi){1to8},%zmm2,%zmm19
  405d3b:	62 62 c5 58 b8 46 10 	vfmadd231pd 0x80(%rsi){1to8},%zmm7,%zmm24
  405d42:	62 62 9d 58 b8 6e 11 	vfmadd231pd 0x88(%rsi){1to8},%zmm12,%zmm29
  405d49:	62 e2 e5 58 b8 66 0f 	vfmadd231pd 0x78(%rsi){1to8},%zmm3,%zmm20
  405d50:	62 62 bd 58 b8 4e 10 	vfmadd231pd 0x80(%rsi){1to8},%zmm8,%zmm25
  405d57:	62 62 95 58 b8 76 11 	vfmadd231pd 0x88(%rsi){1to8},%zmm13,%zmm30
  405d5e:	62 e2 dd 58 b8 6e 0f 	vfmadd231pd 0x78(%rsi){1to8},%zmm4,%zmm21
  405d65:	62 62 b5 58 b8 56 10 	vfmadd231pd 0x80(%rsi){1to8},%zmm9,%zmm26
  405d6c:	62 62 8d 58 b8 7e 11 	vfmadd231pd 0x88(%rsi){1to8},%zmm14,%zmm31
  405d73:	62 f1 fd 48 28 47 0f 	vmovapd 0x3c0(%rdi),%zmm0
  405d7a:	62 f1 fd 48 28 4f 10 	vmovapd 0x400(%rdi),%zmm1
  405d81:	62 f1 fd 48 28 57 11 	vmovapd 0x440(%rdi),%zmm2
  405d88:	62 f1 fd 48 28 5f 12 	vmovapd 0x480(%rdi),%zmm3
  405d8f:	62 f1 fd 48 28 67 13 	vmovapd 0x4c0(%rdi),%zmm4
  405d96:	62 f1 fd 48 28 6f 14 	vmovapd 0x500(%rdi),%zmm5
  405d9d:	62 f1 fd 48 28 77 15 	vmovapd 0x540(%rdi),%zmm6
  405da4:	62 f1 fd 48 28 7f 16 	vmovapd 0x580(%rdi),%zmm7
  405dab:	62 71 fd 48 28 47 17 	vmovapd 0x5c0(%rdi),%zmm8
  405db2:	62 71 fd 48 28 4f 18 	vmovapd 0x600(%rdi),%zmm9
  405db9:	62 71 fd 48 28 57 19 	vmovapd 0x640(%rdi),%zmm10
  405dc0:	62 71 fd 48 28 5f 1a 	vmovapd 0x680(%rdi),%zmm11
  405dc7:	62 71 fd 48 28 67 1b 	vmovapd 0x6c0(%rdi),%zmm12
  405dce:	62 71 fd 48 28 6f 1c 	vmovapd 0x700(%rdi),%zmm13
  405dd5:	62 71 fd 48 28 77 1d 	vmovapd 0x740(%rdi),%zmm14
  405ddc:	62 e2 fd 58 b8 4e 12 	vfmadd231pd 0x90(%rsi){1to8},%zmm0,%zmm17
  405de3:	62 e2 fd 58 b8 76 14 	vfmadd231pd 0xa0(%rsi){1to8},%zmm0,%zmm22
  405dea:	62 62 fd 58 b8 5e 16 	vfmadd231pd 0xb0(%rsi){1to8},%zmm0,%zmm27
  405df1:	62 e2 d5 58 b8 76 15 	vfmadd231pd 0xa8(%rsi){1to8},%zmm5,%zmm22
  405df8:	62 62 d5 58 b8 5e 17 	vfmadd231pd 0xb8(%rsi){1to8},%zmm5,%zmm27
  405dff:	62 e2 ad 58 b8 4e 13 	vfmadd231pd 0x98(%rsi){1to8},%zmm10,%zmm17
  405e06:	62 62 ad 58 b8 5e 18 	vfmadd231pd 0xc0(%rsi){1to8},%zmm10,%zmm27
  405e0d:	62 e2 f5 58 b8 56 12 	vfmadd231pd 0x90(%rsi){1to8},%zmm1,%zmm18
  405e14:	62 e2 f5 58 b8 7e 14 	vfmadd231pd 0xa0(%rsi){1to8},%zmm1,%zmm23
  405e1b:	62 62 f5 58 b8 66 16 	vfmadd231pd 0xb0(%rsi){1to8},%zmm1,%zmm28
  405e22:	62 e2 cd 58 b8 7e 15 	vfmadd231pd 0xa8(%rsi){1to8},%zmm6,%zmm23
  405e29:	62 62 cd 58 b8 66 17 	vfmadd231pd 0xb8(%rsi){1to8},%zmm6,%zmm28
  405e30:	62 e2 a5 58 b8 56 13 	vfmadd231pd 0x98(%rsi){1to8},%zmm11,%zmm18
  405e37:	62 62 a5 58 b8 66 18 	vfmadd231pd 0xc0(%rsi){1to8},%zmm11,%zmm28
  405e3e:	62 e2 ed 58 b8 5e 12 	vfmadd231pd 0x90(%rsi){1to8},%zmm2,%zmm19
  405e45:	62 62 ed 58 b8 46 14 	vfmadd231pd 0xa0(%rsi){1to8},%zmm2,%zmm24
  405e4c:	62 62 ed 58 b8 6e 16 	vfmadd231pd 0xb0(%rsi){1to8},%zmm2,%zmm29
  405e53:	62 62 c5 58 b8 46 15 	vfmadd231pd 0xa8(%rsi){1to8},%zmm7,%zmm24
  405e5a:	62 62 c5 58 b8 6e 17 	vfmadd231pd 0xb8(%rsi){1to8},%zmm7,%zmm29
  405e61:	62 e2 9d 58 b8 5e 13 	vfmadd231pd 0x98(%rsi){1to8},%zmm12,%zmm19
  405e68:	62 62 9d 58 b8 6e 18 	vfmadd231pd 0xc0(%rsi){1to8},%zmm12,%zmm29
  405e6f:	62 e2 e5 58 b8 66 12 	vfmadd231pd 0x90(%rsi){1to8},%zmm3,%zmm20
  405e76:	62 62 e5 58 b8 4e 14 	vfmadd231pd 0xa0(%rsi){1to8},%zmm3,%zmm25
  405e7d:	62 62 e5 58 b8 76 16 	vfmadd231pd 0xb0(%rsi){1to8},%zmm3,%zmm30
  405e84:	62 62 bd 58 b8 4e 15 	vfmadd231pd 0xa8(%rsi){1to8},%zmm8,%zmm25
  405e8b:	62 62 bd 58 b8 76 17 	vfmadd231pd 0xb8(%rsi){1to8},%zmm8,%zmm30
  405e92:	62 e2 95 58 b8 66 13 	vfmadd231pd 0x98(%rsi){1to8},%zmm13,%zmm20
  405e99:	62 62 95 58 b8 76 18 	vfmadd231pd 0xc0(%rsi){1to8},%zmm13,%zmm30
  405ea0:	62 e2 dd 58 b8 6e 12 	vfmadd231pd 0x90(%rsi){1to8},%zmm4,%zmm21
  405ea7:	62 62 dd 58 b8 56 14 	vfmadd231pd 0xa0(%rsi){1to8},%zmm4,%zmm26
  405eae:	62 62 dd 58 b8 7e 16 	vfmadd231pd 0xb0(%rsi){1to8},%zmm4,%zmm31
  405eb5:	62 62 b5 58 b8 56 15 	vfmadd231pd 0xa8(%rsi){1to8},%zmm9,%zmm26
  405ebc:	62 62 b5 58 b8 7e 17 	vfmadd231pd 0xb8(%rsi){1to8},%zmm9,%zmm31
  405ec3:	62 e2 8d 58 b8 6e 13 	vfmadd231pd 0x98(%rsi){1to8},%zmm14,%zmm21
  405eca:	62 62 8d 58 b8 7e 18 	vfmadd231pd 0xc0(%rsi){1to8},%zmm14,%zmm31
  405ed1:	62 e1 fd 48 29 0a    	vmovapd %zmm17,(%rdx)
  405ed7:	62 e1 fd 48 29 52 01 	vmovapd %zmm18,0x40(%rdx)
  405ede:	62 e1 fd 48 29 5a 02 	vmovapd %zmm19,0x80(%rdx)
  405ee5:	62 e1 fd 48 29 62 03 	vmovapd %zmm20,0xc0(%rdx)
  405eec:	62 e1 fd 48 29 6a 04 	vmovapd %zmm21,0x100(%rdx)
  405ef3:	62 e1 fd 48 29 72 05 	vmovapd %zmm22,0x140(%rdx)
  405efa:	62 e1 fd 48 29 7a 06 	vmovapd %zmm23,0x180(%rdx)
  405f01:	62 61 fd 48 29 42 07 	vmovapd %zmm24,0x1c0(%rdx)
  405f08:	62 61 fd 48 29 4a 08 	vmovapd %zmm25,0x200(%rdx)
  405f0f:	62 61 fd 48 29 52 09 	vmovapd %zmm26,0x240(%rdx)
  405f16:	62 61 fd 48 29 5a 0a 	vmovapd %zmm27,0x280(%rdx)
  405f1d:	62 61 fd 48 29 62 0b 	vmovapd %zmm28,0x2c0(%rdx)
  405f24:	62 61 fd 48 29 6a 0c 	vmovapd %zmm29,0x300(%rdx)
  405f2b:	62 61 fd 48 29 72 0d 	vmovapd %zmm30,0x340(%rdx)
  405f32:	62 61 fd 48 29 7a 0e 	vmovapd %zmm31,0x380(%rdx)
  405f39:	48 81 c2 c0 03 00 00 	add    $0x3c0,%rdx
  405f40:	62 e1 fd 48 28 0a    	vmovapd (%rdx),%zmm17
  405f46:	62 e1 fd 48 28 52 01 	vmovapd 0x40(%rdx),%zmm18
  405f4d:	62 e1 fd 48 28 5a 02 	vmovapd 0x80(%rdx),%zmm19
  405f54:	62 e1 fd 48 28 62 03 	vmovapd 0xc0(%rdx),%zmm20
  405f5b:	62 e1 fd 48 28 6a 04 	vmovapd 0x100(%rdx),%zmm21
  405f62:	62 e1 fd 48 28 72 05 	vmovapd 0x140(%rdx),%zmm22
  405f69:	62 e1 fd 48 28 7a 06 	vmovapd 0x180(%rdx),%zmm23
  405f70:	62 61 fd 48 28 42 07 	vmovapd 0x1c0(%rdx),%zmm24
  405f77:	62 61 fd 48 28 4a 08 	vmovapd 0x200(%rdx),%zmm25
  405f7e:	62 61 fd 48 28 52 09 	vmovapd 0x240(%rdx),%zmm26
  405f85:	62 61 fd 48 28 5a 0a 	vmovapd 0x280(%rdx),%zmm27
  405f8c:	62 61 fd 48 28 62 0b 	vmovapd 0x2c0(%rdx),%zmm28
  405f93:	62 61 fd 48 28 6a 0c 	vmovapd 0x300(%rdx),%zmm29
  405f9a:	62 61 fd 48 28 72 0d 	vmovapd 0x340(%rdx),%zmm30
  405fa1:	62 61 fd 48 28 7a 0e 	vmovapd 0x380(%rdx),%zmm31
  405fa8:	62 f1 fd 48 28 47 1e 	vmovapd 0x780(%rdi),%zmm0
  405faf:	62 f1 fd 48 28 4f 1f 	vmovapd 0x7c0(%rdi),%zmm1
  405fb6:	62 f1 fd 48 28 57 20 	vmovapd 0x800(%rdi),%zmm2
  405fbd:	62 f1 fd 48 28 5f 21 	vmovapd 0x840(%rdi),%zmm3
  405fc4:	62 f1 fd 48 28 67 22 	vmovapd 0x880(%rdi),%zmm4
  405fcb:	62 f1 fd 48 28 6f 23 	vmovapd 0x8c0(%rdi),%zmm5
  405fd2:	62 f1 fd 48 28 77 24 	vmovapd 0x900(%rdi),%zmm6
  405fd9:	62 f1 fd 48 28 7f 25 	vmovapd 0x940(%rdi),%zmm7
  405fe0:	62 71 fd 48 28 47 26 	vmovapd 0x980(%rdi),%zmm8
  405fe7:	62 71 fd 48 28 4f 27 	vmovapd 0x9c0(%rdi),%zmm9
  405fee:	62 71 fd 48 28 57 28 	vmovapd 0xa00(%rdi),%zmm10
  405ff5:	62 71 fd 48 28 5f 29 	vmovapd 0xa40(%rdi),%zmm11
  405ffc:	62 71 fd 48 28 67 2a 	vmovapd 0xa80(%rdi),%zmm12
  406003:	62 71 fd 48 28 6f 2b 	vmovapd 0xac0(%rdi),%zmm13
  40600a:	62 71 fd 48 28 77 2c 	vmovapd 0xb00(%rdi),%zmm14
  406011:	62 e2 fd 58 b8 4e 19 	vfmadd231pd 0xc8(%rsi){1to8},%zmm0,%zmm17
  406018:	62 e2 d5 58 b8 76 1a 	vfmadd231pd 0xd0(%rsi){1to8},%zmm5,%zmm22
  40601f:	62 62 ad 58 b8 5e 1b 	vfmadd231pd 0xd8(%rsi){1to8},%zmm10,%zmm27
  406026:	62 e2 f5 58 b8 56 19 	vfmadd231pd 0xc8(%rsi){1to8},%zmm1,%zmm18
  40602d:	62 e2 cd 58 b8 7e 1a 	vfmadd231pd 0xd0(%rsi){1to8},%zmm6,%zmm23
  406034:	62 62 a5 58 b8 66 1b 	vfmadd231pd 0xd8(%rsi){1to8},%zmm11,%zmm28
  40603b:	62 e2 ed 58 b8 5e 19 	vfmadd231pd 0xc8(%rsi){1to8},%zmm2,%zmm19
  406042:	62 62 c5 58 b8 46 1a 	vfmadd231pd 0xd0(%rsi){1to8},%zmm7,%zmm24
  406049:	62 62 9d 58 b8 6e 1b 	vfmadd231pd 0xd8(%rsi){1to8},%zmm12,%zmm29
  406050:	62 e2 e5 58 b8 66 19 	vfmadd231pd 0xc8(%rsi){1to8},%zmm3,%zmm20
  406057:	62 62 bd 58 b8 4e 1a 	vfmadd231pd 0xd0(%rsi){1to8},%zmm8,%zmm25
  40605e:	62 62 95 58 b8 76 1b 	vfmadd231pd 0xd8(%rsi){1to8},%zmm13,%zmm30
  406065:	62 e2 dd 58 b8 6e 19 	vfmadd231pd 0xc8(%rsi){1to8},%zmm4,%zmm21
  40606c:	62 62 b5 58 b8 56 1a 	vfmadd231pd 0xd0(%rsi){1to8},%zmm9,%zmm26
  406073:	62 62 8d 58 b8 7e 1b 	vfmadd231pd 0xd8(%rsi){1to8},%zmm14,%zmm31
  40607a:	62 e1 fd 48 29 0a    	vmovapd %zmm17,(%rdx)
  406080:	62 e1 fd 48 29 52 01 	vmovapd %zmm18,0x40(%rdx)
  406087:	62 e1 fd 48 29 5a 02 	vmovapd %zmm19,0x80(%rdx)
  40608e:	62 e1 fd 48 29 62 03 	vmovapd %zmm20,0xc0(%rdx)
  406095:	62 e1 fd 48 29 6a 04 	vmovapd %zmm21,0x100(%rdx)
  40609c:	62 e1 fd 48 29 72 05 	vmovapd %zmm22,0x140(%rdx)
  4060a3:	62 e1 fd 48 29 7a 06 	vmovapd %zmm23,0x180(%rdx)
  4060aa:	62 61 fd 48 29 42 07 	vmovapd %zmm24,0x1c0(%rdx)
  4060b1:	62 61 fd 48 29 4a 08 	vmovapd %zmm25,0x200(%rdx)
  4060b8:	62 61 fd 48 29 52 09 	vmovapd %zmm26,0x240(%rdx)
  4060bf:	62 61 fd 48 29 5a 0a 	vmovapd %zmm27,0x280(%rdx)
  4060c6:	62 61 fd 48 29 62 0b 	vmovapd %zmm28,0x2c0(%rdx)
  4060cd:	62 61 fd 48 29 6a 0c 	vmovapd %zmm29,0x300(%rdx)
  4060d4:	62 61 fd 48 29 72 0d 	vmovapd %zmm30,0x340(%rdx)
  4060db:	62 61 fd 48 29 7a 0e 	vmovapd %zmm31,0x380(%rdx)
  4060e2:	48 81 c2 c0 03 00 00 	add    $0x3c0,%rdx
  4060e9:	62 e1 fd 48 28 0a    	vmovapd (%rdx),%zmm17
  4060ef:	62 e1 fd 48 28 52 01 	vmovapd 0x40(%rdx),%zmm18
  4060f6:	62 e1 fd 48 28 5a 02 	vmovapd 0x80(%rdx),%zmm19
  4060fd:	62 e1 fd 48 28 62 03 	vmovapd 0xc0(%rdx),%zmm20
  406104:	62 e1 fd 48 28 6a 04 	vmovapd 0x100(%rdx),%zmm21
  40610b:	62 e1 fd 48 28 72 05 	vmovapd 0x140(%rdx),%zmm22
  406112:	62 e1 fd 48 28 7a 06 	vmovapd 0x180(%rdx),%zmm23
  406119:	62 61 fd 48 28 42 07 	vmovapd 0x1c0(%rdx),%zmm24
  406120:	62 61 fd 48 28 4a 08 	vmovapd 0x200(%rdx),%zmm25
  406127:	62 61 fd 48 28 52 09 	vmovapd 0x240(%rdx),%zmm26
  40612e:	62 61 fd 48 28 5a 0a 	vmovapd 0x280(%rdx),%zmm27
  406135:	62 61 fd 48 28 62 0b 	vmovapd 0x2c0(%rdx),%zmm28
  40613c:	62 61 fd 48 28 6a 0c 	vmovapd 0x300(%rdx),%zmm29
  406143:	62 61 fd 48 28 72 0d 	vmovapd 0x340(%rdx),%zmm30
  40614a:	62 61 fd 48 28 7a 0e 	vmovapd 0x380(%rdx),%zmm31
  406151:	62 f1 fd 48 28 47 1e 	vmovapd 0x780(%rdi),%zmm0
  406158:	62 f1 fd 48 28 4f 1f 	vmovapd 0x7c0(%rdi),%zmm1
  40615f:	62 f1 fd 48 28 57 20 	vmovapd 0x800(%rdi),%zmm2
  406166:	62 f1 fd 48 28 5f 21 	vmovapd 0x840(%rdi),%zmm3
  40616d:	62 f1 fd 48 28 67 22 	vmovapd 0x880(%rdi),%zmm4
  406174:	62 f1 fd 48 28 6f 23 	vmovapd 0x8c0(%rdi),%zmm5
  40617b:	62 f1 fd 48 28 77 24 	vmovapd 0x900(%rdi),%zmm6
  406182:	62 f1 fd 48 28 7f 25 	vmovapd 0x940(%rdi),%zmm7
  406189:	62 71 fd 48 28 47 26 	vmovapd 0x980(%rdi),%zmm8
  406190:	62 71 fd 48 28 4f 27 	vmovapd 0x9c0(%rdi),%zmm9
  406197:	62 71 fd 48 28 57 28 	vmovapd 0xa00(%rdi),%zmm10
  40619e:	62 71 fd 48 28 5f 29 	vmovapd 0xa40(%rdi),%zmm11
  4061a5:	62 71 fd 48 28 67 2a 	vmovapd 0xa80(%rdi),%zmm12
  4061ac:	62 71 fd 48 28 6f 2b 	vmovapd 0xac0(%rdi),%zmm13
  4061b3:	62 71 fd 48 28 77 2c 	vmovapd 0xb00(%rdi),%zmm14
  4061ba:	62 e2 fd 58 b8 4e 1c 	vfmadd231pd 0xe0(%rsi){1to8},%zmm0,%zmm17
  4061c1:	62 62 fd 58 b8 5e 20 	vfmadd231pd 0x100(%rsi){1to8},%zmm0,%zmm27
  4061c8:	62 e2 d5 58 b8 4e 1d 	vfmadd231pd 0xe8(%rsi){1to8},%zmm5,%zmm17
  4061cf:	62 e2 d5 58 b8 76 1e 	vfmadd231pd 0xf0(%rsi){1to8},%zmm5,%zmm22
  4061d6:	62 e2 ad 58 b8 76 1f 	vfmadd231pd 0xf8(%rsi){1to8},%zmm10,%zmm22
  4061dd:	62 62 ad 58 b8 5e 21 	vfmadd231pd 0x108(%rsi){1to8},%zmm10,%zmm27
  4061e4:	62 e2 f5 58 b8 56 1c 	vfmadd231pd 0xe0(%rsi){1to8},%zmm1,%zmm18
  4061eb:	62 62 f5 58 b8 66 20 	vfmadd231pd 0x100(%rsi){1to8},%zmm1,%zmm28
  4061f2:	62 e2 cd 58 b8 56 1d 	vfmadd231pd 0xe8(%rsi){1to8},%zmm6,%zmm18
  4061f9:	62 e2 cd 58 b8 7e 1e 	vfmadd231pd 0xf0(%rsi){1to8},%zmm6,%zmm23
  406200:	62 e2 a5 58 b8 7e 1f 	vfmadd231pd 0xf8(%rsi){1to8},%zmm11,%zmm23
  406207:	62 62 a5 58 b8 66 21 	vfmadd231pd 0x108(%rsi){1to8},%zmm11,%zmm28
  40620e:	62 e2 ed 58 b8 5e 1c 	vfmadd231pd 0xe0(%rsi){1to8},%zmm2,%zmm19
  406215:	62 62 ed 58 b8 6e 20 	vfmadd231pd 0x100(%rsi){1to8},%zmm2,%zmm29
  40621c:	62 e2 c5 58 b8 5e 1d 	vfmadd231pd 0xe8(%rsi){1to8},%zmm7,%zmm19
  406223:	62 62 c5 58 b8 46 1e 	vfmadd231pd 0xf0(%rsi){1to8},%zmm7,%zmm24
  40622a:	62 62 9d 58 b8 46 1f 	vfmadd231pd 0xf8(%rsi){1to8},%zmm12,%zmm24
  406231:	62 62 9d 58 b8 6e 21 	vfmadd231pd 0x108(%rsi){1to8},%zmm12,%zmm29
  406238:	62 e2 e5 58 b8 66 1c 	vfmadd231pd 0xe0(%rsi){1to8},%zmm3,%zmm20
  40623f:	62 62 e5 58 b8 76 20 	vfmadd231pd 0x100(%rsi){1to8},%zmm3,%zmm30
  406246:	62 e2 bd 58 b8 66 1d 	vfmadd231pd 0xe8(%rsi){1to8},%zmm8,%zmm20
  40624d:	62 62 bd 58 b8 4e 1e 	vfmadd231pd 0xf0(%rsi){1to8},%zmm8,%zmm25
  406254:	62 62 95 58 b8 4e 1f 	vfmadd231pd 0xf8(%rsi){1to8},%zmm13,%zmm25
  40625b:	62 62 95 58 b8 76 21 	vfmadd231pd 0x108(%rsi){1to8},%zmm13,%zmm30
  406262:	62 e2 dd 58 b8 6e 1c 	vfmadd231pd 0xe0(%rsi){1to8},%zmm4,%zmm21
  406269:	62 62 dd 58 b8 7e 20 	vfmadd231pd 0x100(%rsi){1to8},%zmm4,%zmm31
  406270:	62 e2 b5 58 b8 6e 1d 	vfmadd231pd 0xe8(%rsi){1to8},%zmm9,%zmm21
  406277:	62 62 b5 58 b8 56 1e 	vfmadd231pd 0xf0(%rsi){1to8},%zmm9,%zmm26
  40627e:	62 62 8d 58 b8 56 1f 	vfmadd231pd 0xf8(%rsi){1to8},%zmm14,%zmm26
  406285:	62 62 8d 58 b8 7e 21 	vfmadd231pd 0x108(%rsi){1to8},%zmm14,%zmm31
  40628c:	62 e1 fd 48 29 0a    	vmovapd %zmm17,(%rdx)
  406292:	62 e1 fd 48 29 52 01 	vmovapd %zmm18,0x40(%rdx)
  406299:	62 e1 fd 48 29 5a 02 	vmovapd %zmm19,0x80(%rdx)
  4062a0:	62 e1 fd 48 29 62 03 	vmovapd %zmm20,0xc0(%rdx)
  4062a7:	62 e1 fd 48 29 6a 04 	vmovapd %zmm21,0x100(%rdx)
  4062ae:	62 e1 fd 48 29 72 05 	vmovapd %zmm22,0x140(%rdx)
  4062b5:	62 e1 fd 48 29 7a 06 	vmovapd %zmm23,0x180(%rdx)
  4062bc:	62 61 fd 48 29 42 07 	vmovapd %zmm24,0x1c0(%rdx)
  4062c3:	62 61 fd 48 29 4a 08 	vmovapd %zmm25,0x200(%rdx)
  4062ca:	62 61 fd 48 29 52 09 	vmovapd %zmm26,0x240(%rdx)
  4062d1:	62 61 fd 48 29 5a 0a 	vmovapd %zmm27,0x280(%rdx)
  4062d8:	62 61 fd 48 29 62 0b 	vmovapd %zmm28,0x2c0(%rdx)
  4062df:	62 61 fd 48 29 6a 0c 	vmovapd %zmm29,0x300(%rdx)
  4062e6:	62 61 fd 48 29 72 0d 	vmovapd %zmm30,0x340(%rdx)
  4062ed:	62 61 fd 48 29 7a 0e 	vmovapd %zmm31,0x380(%rdx)
  4062f4:	48 81 c7 40 01 00 00 	add    $0x140,%rdi
  4062fb:	48 81 c2 40 f2 ff ff 	add    $0xfffffffffffff240,%rdx
  406302:	49 83 c4 01          	add    $0x1,%r12
  406306:	49 83 fc 01          	cmp    $0x1,%r12
  40630a:	0f 8c a2 f4 ff ff    	jl     4057b2 <LOOP_TOP_1_2>
  406310:	48 8d bc 24 b8 04 00 	lea    0x4b8(%rsp),%rdi
  406317:	00 
  406318:	e8 33 d1 ff ff       	callq  403450 <_Z13assert_equalsRK6MatrixS1_>
  40631d:	bf 01 00 00 00       	mov    $0x1,%edi
  406322:	48 8d b4 24 10 04 00 	lea    0x410(%rsp),%rsi
  406329:	00 
  40632a:	e8 c1 b3 ff ff       	callq  4016f0 <clock_gettime@plt>
  40632f:	48 8b 84 24 d8 04 00 	mov    0x4d8(%rsp),%rax
  406336:	00 
  406337:	48 8b 9c 24 b0 04 00 	mov    0x4b0(%rsp),%rbx
  40633e:	00 
  40633f:	31 f6                	xor    %esi,%esi
  406341:	48 8b 8c 24 08 04 00 	mov    0x408(%rsp),%rcx
  406348:	00 
  406349:	48 8b 40 18          	mov    0x18(%rax),%rax
  40634d:	83 c6 01             	add    $0x1,%esi
  406350:	48 89 1c 24          	mov    %rbx,(%rsp)
  406354:	48 89 84 24 20 04 00 	mov    %rax,0x420(%rsp)
  40635b:	00 
  40635c:	48 89 8c 24 28 04 00 	mov    %rcx,0x428(%rsp)
  406363:	00 
  406364:	48 8b 3c 24          	mov    (%rsp),%rdi
  406368:	48 8b b4 24 20 04 00 	mov    0x420(%rsp),%rsi
  40636f:	00 
  406370:	48 8b 94 24 28 04 00 	mov    0x428(%rsp),%rdx
  406377:	00 
  406378:	49 c7 c4 00 00 00 00 	mov    $0x0,%r12

000000000040637f <LOOP_TOP_1_3>:
  40637f:	62 e1 fd 48 28 0a    	vmovapd (%rdx),%zmm17
  406385:	62 e1 fd 48 28 52 01 	vmovapd 0x40(%rdx),%zmm18
  40638c:	62 e1 fd 48 28 5a 02 	vmovapd 0x80(%rdx),%zmm19
  406393:	62 e1 fd 48 28 62 03 	vmovapd 0xc0(%rdx),%zmm20
  40639a:	62 e1 fd 48 28 6a 04 	vmovapd 0x100(%rdx),%zmm21
  4063a1:	62 e1 fd 48 28 72 05 	vmovapd 0x140(%rdx),%zmm22
  4063a8:	62 e1 fd 48 28 7a 06 	vmovapd 0x180(%rdx),%zmm23
  4063af:	62 61 fd 48 28 42 07 	vmovapd 0x1c0(%rdx),%zmm24
  4063b6:	62 61 fd 48 28 4a 08 	vmovapd 0x200(%rdx),%zmm25
  4063bd:	62 61 fd 48 28 52 09 	vmovapd 0x240(%rdx),%zmm26
  4063c4:	62 61 fd 48 28 5a 0a 	vmovapd 0x280(%rdx),%zmm27
  4063cb:	62 61 fd 48 28 62 0b 	vmovapd 0x2c0(%rdx),%zmm28
  4063d2:	62 61 fd 48 28 6a 0c 	vmovapd 0x300(%rdx),%zmm29
  4063d9:	62 61 fd 48 28 72 0d 	vmovapd 0x340(%rdx),%zmm30
  4063e0:	62 61 fd 48 28 7a 0e 	vmovapd 0x380(%rdx),%zmm31
  4063e7:	62 f1 fd 48 28 47 1e 	vmovapd 0x780(%rdi),%zmm0
  4063ee:	62 f1 fd 48 28 4f 1f 	vmovapd 0x7c0(%rdi),%zmm1
  4063f5:	62 f1 fd 48 28 57 20 	vmovapd 0x800(%rdi),%zmm2
  4063fc:	62 f1 fd 48 28 5f 21 	vmovapd 0x840(%rdi),%zmm3
  406403:	62 f1 fd 48 28 67 22 	vmovapd 0x880(%rdi),%zmm4
  40640a:	62 f1 fd 48 28 6f 23 	vmovapd 0x8c0(%rdi),%zmm5
  406411:	62 f1 fd 48 28 77 24 	vmovapd 0x900(%rdi),%zmm6
  406418:	62 f1 fd 48 28 7f 25 	vmovapd 0x940(%rdi),%zmm7
  40641f:	62 71 fd 48 28 47 26 	vmovapd 0x980(%rdi),%zmm8
  406426:	62 71 fd 48 28 4f 27 	vmovapd 0x9c0(%rdi),%zmm9
  40642d:	62 71 fd 48 28 57 28 	vmovapd 0xa00(%rdi),%zmm10
  406434:	62 71 fd 48 28 5f 29 	vmovapd 0xa40(%rdi),%zmm11
  40643b:	62 71 fd 48 28 67 2a 	vmovapd 0xa80(%rdi),%zmm12
  406442:	62 71 fd 48 28 6f 2b 	vmovapd 0xac0(%rdi),%zmm13
  406449:	62 71 fd 48 28 77 2c 	vmovapd 0xb00(%rdi),%zmm14
  406450:	62 e2 fd 58 b8 0e    	vfmadd231pd (%rsi){1to8},%zmm0,%zmm17
  406456:	62 e2 fd 58 b8 76 03 	vfmadd231pd 0x18(%rsi){1to8},%zmm0,%zmm22
  40645d:	62 62 fd 58 b8 5e 06 	vfmadd231pd 0x30(%rsi){1to8},%zmm0,%zmm27
  406464:	62 e2 d5 58 b8 4e 01 	vfmadd231pd 0x8(%rsi){1to8},%zmm5,%zmm17
  40646b:	62 e2 d5 58 b8 76 04 	vfmadd231pd 0x20(%rsi){1to8},%zmm5,%zmm22
  406472:	62 62 d5 58 b8 5e 07 	vfmadd231pd 0x38(%rsi){1to8},%zmm5,%zmm27
  406479:	62 e2 ad 58 b8 4e 02 	vfmadd231pd 0x10(%rsi){1to8},%zmm10,%zmm17
  406480:	62 e2 ad 58 b8 76 05 	vfmadd231pd 0x28(%rsi){1to8},%zmm10,%zmm22
  406487:	62 62 ad 58 b8 5e 08 	vfmadd231pd 0x40(%rsi){1to8},%zmm10,%zmm27
  40648e:	62 e2 f5 58 b8 16    	vfmadd231pd (%rsi){1to8},%zmm1,%zmm18
  406494:	62 e2 f5 58 b8 7e 03 	vfmadd231pd 0x18(%rsi){1to8},%zmm1,%zmm23
  40649b:	62 62 f5 58 b8 66 06 	vfmadd231pd 0x30(%rsi){1to8},%zmm1,%zmm28
  4064a2:	62 e2 cd 58 b8 56 01 	vfmadd231pd 0x8(%rsi){1to8},%zmm6,%zmm18
  4064a9:	62 e2 cd 58 b8 7e 04 	vfmadd231pd 0x20(%rsi){1to8},%zmm6,%zmm23
  4064b0:	62 62 cd 58 b8 66 07 	vfmadd231pd 0x38(%rsi){1to8},%zmm6,%zmm28
  4064b7:	62 e2 a5 58 b8 56 02 	vfmadd231pd 0x10(%rsi){1to8},%zmm11,%zmm18
  4064be:	62 e2 a5 58 b8 7e 05 	vfmadd231pd 0x28(%rsi){1to8},%zmm11,%zmm23
  4064c5:	62 62 a5 58 b8 66 08 	vfmadd231pd 0x40(%rsi){1to8},%zmm11,%zmm28
  4064cc:	62 e2 ed 58 b8 1e    	vfmadd231pd (%rsi){1to8},%zmm2,%zmm19
  4064d2:	62 62 ed 58 b8 46 03 	vfmadd231pd 0x18(%rsi){1to8},%zmm2,%zmm24
  4064d9:	62 62 ed 58 b8 6e 06 	vfmadd231pd 0x30(%rsi){1to8},%zmm2,%zmm29
  4064e0:	62 e2 c5 58 b8 5e 01 	vfmadd231pd 0x8(%rsi){1to8},%zmm7,%zmm19
  4064e7:	62 62 c5 58 b8 46 04 	vfmadd231pd 0x20(%rsi){1to8},%zmm7,%zmm24
  4064ee:	62 62 c5 58 b8 6e 07 	vfmadd231pd 0x38(%rsi){1to8},%zmm7,%zmm29
  4064f5:	62 e2 9d 58 b8 5e 02 	vfmadd231pd 0x10(%rsi){1to8},%zmm12,%zmm19
  4064fc:	62 62 9d 58 b8 46 05 	vfmadd231pd 0x28(%rsi){1to8},%zmm12,%zmm24
  406503:	62 62 9d 58 b8 6e 08 	vfmadd231pd 0x40(%rsi){1to8},%zmm12,%zmm29
  40650a:	62 e2 e5 58 b8 26    	vfmadd231pd (%rsi){1to8},%zmm3,%zmm20
  406510:	62 62 e5 58 b8 4e 03 	vfmadd231pd 0x18(%rsi){1to8},%zmm3,%zmm25
  406517:	62 62 e5 58 b8 76 06 	vfmadd231pd 0x30(%rsi){1to8},%zmm3,%zmm30
  40651e:	62 e2 bd 58 b8 66 01 	vfmadd231pd 0x8(%rsi){1to8},%zmm8,%zmm20
  406525:	62 62 bd 58 b8 4e 04 	vfmadd231pd 0x20(%rsi){1to8},%zmm8,%zmm25
  40652c:	62 62 bd 58 b8 76 07 	vfmadd231pd 0x38(%rsi){1to8},%zmm8,%zmm30
  406533:	62 e2 95 58 b8 66 02 	vfmadd231pd 0x10(%rsi){1to8},%zmm13,%zmm20
  40653a:	62 62 95 58 b8 4e 05 	vfmadd231pd 0x28(%rsi){1to8},%zmm13,%zmm25
  406541:	62 62 95 58 b8 76 08 	vfmadd231pd 0x40(%rsi){1to8},%zmm13,%zmm30
  406548:	62 e2 dd 58 b8 2e    	vfmadd231pd (%rsi){1to8},%zmm4,%zmm21
  40654e:	62 62 dd 58 b8 56 03 	vfmadd231pd 0x18(%rsi){1to8},%zmm4,%zmm26
  406555:	62 62 dd 58 b8 7e 06 	vfmadd231pd 0x30(%rsi){1to8},%zmm4,%zmm31
  40655c:	62 e2 b5 58 b8 6e 01 	vfmadd231pd 0x8(%rsi){1to8},%zmm9,%zmm21
  406563:	62 62 b5 58 b8 56 04 	vfmadd231pd 0x20(%rsi){1to8},%zmm9,%zmm26
  40656a:	62 62 b5 58 b8 7e 07 	vfmadd231pd 0x38(%rsi){1to8},%zmm9,%zmm31
  406571:	62 e2 8d 58 b8 6e 02 	vfmadd231pd 0x10(%rsi){1to8},%zmm14,%zmm21
  406578:	62 62 8d 58 b8 56 05 	vfmadd231pd 0x28(%rsi){1to8},%zmm14,%zmm26
  40657f:	62 62 8d 58 b8 7e 08 	vfmadd231pd 0x40(%rsi){1to8},%zmm14,%zmm31
  406586:	62 e1 fd 48 29 0a    	vmovapd %zmm17,(%rdx)
  40658c:	62 e1 fd 48 29 52 01 	vmovapd %zmm18,0x40(%rdx)
  406593:	62 e1 fd 48 29 5a 02 	vmovapd %zmm19,0x80(%rdx)
  40659a:	62 e1 fd 48 29 62 03 	vmovapd %zmm20,0xc0(%rdx)
  4065a1:	62 e1 fd 48 29 6a 04 	vmovapd %zmm21,0x100(%rdx)
  4065a8:	62 e1 fd 48 29 72 05 	vmovapd %zmm22,0x140(%rdx)
  4065af:	62 e1 fd 48 29 7a 06 	vmovapd %zmm23,0x180(%rdx)
  4065b6:	62 61 fd 48 29 42 07 	vmovapd %zmm24,0x1c0(%rdx)
  4065bd:	62 61 fd 48 29 4a 08 	vmovapd %zmm25,0x200(%rdx)
  4065c4:	62 61 fd 48 29 52 09 	vmovapd %zmm26,0x240(%rdx)
  4065cb:	62 61 fd 48 29 5a 0a 	vmovapd %zmm27,0x280(%rdx)
  4065d2:	62 61 fd 48 29 62 0b 	vmovapd %zmm28,0x2c0(%rdx)
  4065d9:	62 61 fd 48 29 6a 0c 	vmovapd %zmm29,0x300(%rdx)
  4065e0:	62 61 fd 48 29 72 0d 	vmovapd %zmm30,0x340(%rdx)
  4065e7:	62 61 fd 48 29 7a 0e 	vmovapd %zmm31,0x380(%rdx)
  4065ee:	48 81 c2 c0 03 00 00 	add    $0x3c0,%rdx
  4065f5:	62 e1 fd 48 28 0a    	vmovapd (%rdx),%zmm17
  4065fb:	62 e1 fd 48 28 52 01 	vmovapd 0x40(%rdx),%zmm18
  406602:	62 e1 fd 48 28 5a 02 	vmovapd 0x80(%rdx),%zmm19
  406609:	62 e1 fd 48 28 62 03 	vmovapd 0xc0(%rdx),%zmm20
  406610:	62 e1 fd 48 28 6a 04 	vmovapd 0x100(%rdx),%zmm21
  406617:	62 e1 fd 48 28 72 05 	vmovapd 0x140(%rdx),%zmm22
  40661e:	62 e1 fd 48 28 7a 06 	vmovapd 0x180(%rdx),%zmm23
  406625:	62 61 fd 48 28 42 07 	vmovapd 0x1c0(%rdx),%zmm24
  40662c:	62 61 fd 48 28 4a 08 	vmovapd 0x200(%rdx),%zmm25
  406633:	62 61 fd 48 28 52 09 	vmovapd 0x240(%rdx),%zmm26
  40663a:	62 61 fd 48 28 5a 0a 	vmovapd 0x280(%rdx),%zmm27
  406641:	62 61 fd 48 28 62 0b 	vmovapd 0x2c0(%rdx),%zmm28
  406648:	62 61 fd 48 28 6a 0c 	vmovapd 0x300(%rdx),%zmm29
  40664f:	62 61 fd 48 28 72 0d 	vmovapd 0x340(%rdx),%zmm30
  406656:	62 61 fd 48 28 7a 0e 	vmovapd 0x380(%rdx),%zmm31
  40665d:	62 f1 fd 48 28 47 1e 	vmovapd 0x780(%rdi),%zmm0
  406664:	62 f1 fd 48 28 4f 1f 	vmovapd 0x7c0(%rdi),%zmm1
  40666b:	62 f1 fd 48 28 57 20 	vmovapd 0x800(%rdi),%zmm2
  406672:	62 f1 fd 48 28 5f 21 	vmovapd 0x840(%rdi),%zmm3
  406679:	62 f1 fd 48 28 67 22 	vmovapd 0x880(%rdi),%zmm4
  406680:	62 f1 fd 48 28 6f 23 	vmovapd 0x8c0(%rdi),%zmm5
  406687:	62 f1 fd 48 28 77 24 	vmovapd 0x900(%rdi),%zmm6
  40668e:	62 f1 fd 48 28 7f 25 	vmovapd 0x940(%rdi),%zmm7
  406695:	62 71 fd 48 28 47 26 	vmovapd 0x980(%rdi),%zmm8
  40669c:	62 71 fd 48 28 4f 27 	vmovapd 0x9c0(%rdi),%zmm9
  4066a3:	62 71 fd 48 28 57 28 	vmovapd 0xa00(%rdi),%zmm10
  4066aa:	62 71 fd 48 28 5f 29 	vmovapd 0xa40(%rdi),%zmm11
  4066b1:	62 71 fd 48 28 67 2a 	vmovapd 0xa80(%rdi),%zmm12
  4066b8:	62 71 fd 48 28 6f 2b 	vmovapd 0xac0(%rdi),%zmm13
  4066bf:	62 71 fd 48 28 77 2c 	vmovapd 0xb00(%rdi),%zmm14
  4066c6:	62 e2 fd 58 b8 4e 09 	vfmadd231pd 0x48(%rsi){1to8},%zmm0,%zmm17
  4066cd:	62 62 fd 58 b8 5e 0d 	vfmadd231pd 0x68(%rsi){1to8},%zmm0,%zmm27
  4066d4:	62 e2 d5 58 b8 4e 0a 	vfmadd231pd 0x50(%rsi){1to8},%zmm5,%zmm17
  4066db:	62 e2 d5 58 b8 76 0b 	vfmadd231pd 0x58(%rsi){1to8},%zmm5,%zmm22
  4066e2:	62 e2 ad 58 b8 76 0c 	vfmadd231pd 0x60(%rsi){1to8},%zmm10,%zmm22
  4066e9:	62 62 ad 58 b8 5e 0e 	vfmadd231pd 0x70(%rsi){1to8},%zmm10,%zmm27
  4066f0:	62 e2 f5 58 b8 56 09 	vfmadd231pd 0x48(%rsi){1to8},%zmm1,%zmm18
  4066f7:	62 62 f5 58 b8 66 0d 	vfmadd231pd 0x68(%rsi){1to8},%zmm1,%zmm28
  4066fe:	62 e2 cd 58 b8 56 0a 	vfmadd231pd 0x50(%rsi){1to8},%zmm6,%zmm18
  406705:	62 e2 cd 58 b8 7e 0b 	vfmadd231pd 0x58(%rsi){1to8},%zmm6,%zmm23
  40670c:	62 e2 a5 58 b8 7e 0c 	vfmadd231pd 0x60(%rsi){1to8},%zmm11,%zmm23
  406713:	62 62 a5 58 b8 66 0e 	vfmadd231pd 0x70(%rsi){1to8},%zmm11,%zmm28
  40671a:	62 e2 ed 58 b8 5e 09 	vfmadd231pd 0x48(%rsi){1to8},%zmm2,%zmm19
  406721:	62 62 ed 58 b8 6e 0d 	vfmadd231pd 0x68(%rsi){1to8},%zmm2,%zmm29
  406728:	62 e2 c5 58 b8 5e 0a 	vfmadd231pd 0x50(%rsi){1to8},%zmm7,%zmm19
  40672f:	62 62 c5 58 b8 46 0b 	vfmadd231pd 0x58(%rsi){1to8},%zmm7,%zmm24
  406736:	62 62 9d 58 b8 46 0c 	vfmadd231pd 0x60(%rsi){1to8},%zmm12,%zmm24
  40673d:	62 62 9d 58 b8 6e 0e 	vfmadd231pd 0x70(%rsi){1to8},%zmm12,%zmm29
  406744:	62 e2 e5 58 b8 66 09 	vfmadd231pd 0x48(%rsi){1to8},%zmm3,%zmm20
  40674b:	62 62 e5 58 b8 76 0d 	vfmadd231pd 0x68(%rsi){1to8},%zmm3,%zmm30
  406752:	62 e2 bd 58 b8 66 0a 	vfmadd231pd 0x50(%rsi){1to8},%zmm8,%zmm20
  406759:	62 62 bd 58 b8 4e 0b 	vfmadd231pd 0x58(%rsi){1to8},%zmm8,%zmm25
  406760:	62 62 95 58 b8 4e 0c 	vfmadd231pd 0x60(%rsi){1to8},%zmm13,%zmm25
  406767:	62 62 95 58 b8 76 0e 	vfmadd231pd 0x70(%rsi){1to8},%zmm13,%zmm30
  40676e:	62 e2 dd 58 b8 6e 09 	vfmadd231pd 0x48(%rsi){1to8},%zmm4,%zmm21
  406775:	62 62 dd 58 b8 7e 0d 	vfmadd231pd 0x68(%rsi){1to8},%zmm4,%zmm31
  40677c:	62 e2 b5 58 b8 6e 0a 	vfmadd231pd 0x50(%rsi){1to8},%zmm9,%zmm21
  406783:	62 62 b5 58 b8 56 0b 	vfmadd231pd 0x58(%rsi){1to8},%zmm9,%zmm26
  40678a:	62 62 8d 58 b8 56 0c 	vfmadd231pd 0x60(%rsi){1to8},%zmm14,%zmm26
  406791:	62 62 8d 58 b8 7e 0e 	vfmadd231pd 0x70(%rsi){1to8},%zmm14,%zmm31
  406798:	62 e1 fd 48 29 0a    	vmovapd %zmm17,(%rdx)
  40679e:	62 e1 fd 48 29 52 01 	vmovapd %zmm18,0x40(%rdx)
  4067a5:	62 e1 fd 48 29 5a 02 	vmovapd %zmm19,0x80(%rdx)
  4067ac:	62 e1 fd 48 29 62 03 	vmovapd %zmm20,0xc0(%rdx)
  4067b3:	62 e1 fd 48 29 6a 04 	vmovapd %zmm21,0x100(%rdx)
  4067ba:	62 e1 fd 48 29 72 05 	vmovapd %zmm22,0x140(%rdx)
  4067c1:	62 e1 fd 48 29 7a 06 	vmovapd %zmm23,0x180(%rdx)
  4067c8:	62 61 fd 48 29 42 07 	vmovapd %zmm24,0x1c0(%rdx)
  4067cf:	62 61 fd 48 29 4a 08 	vmovapd %zmm25,0x200(%rdx)
  4067d6:	62 61 fd 48 29 52 09 	vmovapd %zmm26,0x240(%rdx)
  4067dd:	62 61 fd 48 29 5a 0a 	vmovapd %zmm27,0x280(%rdx)
  4067e4:	62 61 fd 48 29 62 0b 	vmovapd %zmm28,0x2c0(%rdx)
  4067eb:	62 61 fd 48 29 6a 0c 	vmovapd %zmm29,0x300(%rdx)
  4067f2:	62 61 fd 48 29 72 0d 	vmovapd %zmm30,0x340(%rdx)
  4067f9:	62 61 fd 48 29 7a 0e 	vmovapd %zmm31,0x380(%rdx)
  406800:	48 81 c2 c0 03 00 00 	add    $0x3c0,%rdx
  406807:	62 e1 fd 48 28 0a    	vmovapd (%rdx),%zmm17
  40680d:	62 e1 fd 48 28 52 01 	vmovapd 0x40(%rdx),%zmm18
  406814:	62 e1 fd 48 28 5a 02 	vmovapd 0x80(%rdx),%zmm19
  40681b:	62 e1 fd 48 28 62 03 	vmovapd 0xc0(%rdx),%zmm20
  406822:	62 e1 fd 48 28 6a 04 	vmovapd 0x100(%rdx),%zmm21
  406829:	62 e1 fd 48 28 72 05 	vmovapd 0x140(%rdx),%zmm22
  406830:	62 e1 fd 48 28 7a 06 	vmovapd 0x180(%rdx),%zmm23
  406837:	62 61 fd 48 28 42 07 	vmovapd 0x1c0(%rdx),%zmm24
  40683e:	62 61 fd 48 28 4a 08 	vmovapd 0x200(%rdx),%zmm25
  406845:	62 61 fd 48 28 52 09 	vmovapd 0x240(%rdx),%zmm26
  40684c:	62 61 fd 48 28 5a 0a 	vmovapd 0x280(%rdx),%zmm27
  406853:	62 61 fd 48 28 62 0b 	vmovapd 0x2c0(%rdx),%zmm28
  40685a:	62 61 fd 48 28 6a 0c 	vmovapd 0x300(%rdx),%zmm29
  406861:	62 61 fd 48 28 72 0d 	vmovapd 0x340(%rdx),%zmm30
  406868:	62 61 fd 48 28 7a 0e 	vmovapd 0x380(%rdx),%zmm31
  40686f:	62 f1 fd 48 28 07    	vmovapd (%rdi),%zmm0
  406875:	62 f1 fd 48 28 4f 01 	vmovapd 0x40(%rdi),%zmm1
  40687c:	62 f1 fd 48 28 57 02 	vmovapd 0x80(%rdi),%zmm2
  406883:	62 f1 fd 48 28 5f 03 	vmovapd 0xc0(%rdi),%zmm3
  40688a:	62 f1 fd 48 28 67 04 	vmovapd 0x100(%rdi),%zmm4
  406891:	62 f1 fd 48 28 6f 05 	vmovapd 0x140(%rdi),%zmm5
  406898:	62 f1 fd 48 28 77 06 	vmovapd 0x180(%rdi),%zmm6
  40689f:	62 f1 fd 48 28 7f 07 	vmovapd 0x1c0(%rdi),%zmm7
  4068a6:	62 71 fd 48 28 47 08 	vmovapd 0x200(%rdi),%zmm8
  4068ad:	62 71 fd 48 28 4f 09 	vmovapd 0x240(%rdi),%zmm9
  4068b4:	62 71 fd 48 28 57 0a 	vmovapd 0x280(%rdi),%zmm10
  4068bb:	62 71 fd 48 28 5f 0b 	vmovapd 0x2c0(%rdi),%zmm11
  4068c2:	62 71 fd 48 28 67 0c 	vmovapd 0x300(%rdi),%zmm12
  4068c9:	62 71 fd 48 28 6f 0d 	vmovapd 0x340(%rdi),%zmm13
  4068d0:	62 71 fd 48 28 77 0e 	vmovapd 0x380(%rdi),%zmm14
  4068d7:	62 e2 fd 58 b8 4e 0f 	vfmadd231pd 0x78(%rsi){1to8},%zmm0,%zmm17
  4068de:	62 e2 d5 58 b8 76 10 	vfmadd231pd 0x80(%rsi){1to8},%zmm5,%zmm22
  4068e5:	62 62 ad 58 b8 5e 11 	vfmadd231pd 0x88(%rsi){1to8},%zmm10,%zmm27
  4068ec:	62 e2 f5 58 b8 56 0f 	vfmadd231pd 0x78(%rsi){1to8},%zmm1,%zmm18
  4068f3:	62 e2 cd 58 b8 7e 10 	vfmadd231pd 0x80(%rsi){1to8},%zmm6,%zmm23
  4068fa:	62 62 a5 58 b8 66 11 	vfmadd231pd 0x88(%rsi){1to8},%zmm11,%zmm28
  406901:	62 e2 ed 58 b8 5e 0f 	vfmadd231pd 0x78(%rsi){1to8},%zmm2,%zmm19
  406908:	62 62 c5 58 b8 46 10 	vfmadd231pd 0x80(%rsi){1to8},%zmm7,%zmm24
  40690f:	62 62 9d 58 b8 6e 11 	vfmadd231pd 0x88(%rsi){1to8},%zmm12,%zmm29
  406916:	62 e2 e5 58 b8 66 0f 	vfmadd231pd 0x78(%rsi){1to8},%zmm3,%zmm20
  40691d:	62 62 bd 58 b8 4e 10 	vfmadd231pd 0x80(%rsi){1to8},%zmm8,%zmm25
  406924:	62 62 95 58 b8 76 11 	vfmadd231pd 0x88(%rsi){1to8},%zmm13,%zmm30
  40692b:	62 e2 dd 58 b8 6e 0f 	vfmadd231pd 0x78(%rsi){1to8},%zmm4,%zmm21
  406932:	62 62 b5 58 b8 56 10 	vfmadd231pd 0x80(%rsi){1to8},%zmm9,%zmm26
  406939:	62 62 8d 58 b8 7e 11 	vfmadd231pd 0x88(%rsi){1to8},%zmm14,%zmm31
  406940:	62 f1 fd 48 28 47 0f 	vmovapd 0x3c0(%rdi),%zmm0
  406947:	62 f1 fd 48 28 4f 10 	vmovapd 0x400(%rdi),%zmm1
  40694e:	62 f1 fd 48 28 57 11 	vmovapd 0x440(%rdi),%zmm2
  406955:	62 f1 fd 48 28 5f 12 	vmovapd 0x480(%rdi),%zmm3
  40695c:	62 f1 fd 48 28 67 13 	vmovapd 0x4c0(%rdi),%zmm4
  406963:	62 f1 fd 48 28 6f 14 	vmovapd 0x500(%rdi),%zmm5
  40696a:	62 f1 fd 48 28 77 15 	vmovapd 0x540(%rdi),%zmm6
  406971:	62 f1 fd 48 28 7f 16 	vmovapd 0x580(%rdi),%zmm7
  406978:	62 71 fd 48 28 47 17 	vmovapd 0x5c0(%rdi),%zmm8
  40697f:	62 71 fd 48 28 4f 18 	vmovapd 0x600(%rdi),%zmm9
  406986:	62 71 fd 48 28 57 19 	vmovapd 0x640(%rdi),%zmm10
  40698d:	62 71 fd 48 28 5f 1a 	vmovapd 0x680(%rdi),%zmm11
  406994:	62 71 fd 48 28 67 1b 	vmovapd 0x6c0(%rdi),%zmm12
  40699b:	62 71 fd 48 28 6f 1c 	vmovapd 0x700(%rdi),%zmm13
  4069a2:	62 71 fd 48 28 77 1d 	vmovapd 0x740(%rdi),%zmm14
  4069a9:	62 e2 fd 58 b8 4e 12 	vfmadd231pd 0x90(%rsi){1to8},%zmm0,%zmm17
  4069b0:	62 e2 fd 58 b8 76 14 	vfmadd231pd 0xa0(%rsi){1to8},%zmm0,%zmm22
  4069b7:	62 62 fd 58 b8 5e 16 	vfmadd231pd 0xb0(%rsi){1to8},%zmm0,%zmm27
  4069be:	62 e2 d5 58 b8 76 15 	vfmadd231pd 0xa8(%rsi){1to8},%zmm5,%zmm22
  4069c5:	62 62 d5 58 b8 5e 17 	vfmadd231pd 0xb8(%rsi){1to8},%zmm5,%zmm27
  4069cc:	62 e2 ad 58 b8 4e 13 	vfmadd231pd 0x98(%rsi){1to8},%zmm10,%zmm17
  4069d3:	62 62 ad 58 b8 5e 18 	vfmadd231pd 0xc0(%rsi){1to8},%zmm10,%zmm27
  4069da:	62 e2 f5 58 b8 56 12 	vfmadd231pd 0x90(%rsi){1to8},%zmm1,%zmm18
  4069e1:	62 e2 f5 58 b8 7e 14 	vfmadd231pd 0xa0(%rsi){1to8},%zmm1,%zmm23
  4069e8:	62 62 f5 58 b8 66 16 	vfmadd231pd 0xb0(%rsi){1to8},%zmm1,%zmm28
  4069ef:	62 e2 cd 58 b8 7e 15 	vfmadd231pd 0xa8(%rsi){1to8},%zmm6,%zmm23
  4069f6:	62 62 cd 58 b8 66 17 	vfmadd231pd 0xb8(%rsi){1to8},%zmm6,%zmm28
  4069fd:	62 e2 a5 58 b8 56 13 	vfmadd231pd 0x98(%rsi){1to8},%zmm11,%zmm18
  406a04:	62 62 a5 58 b8 66 18 	vfmadd231pd 0xc0(%rsi){1to8},%zmm11,%zmm28
  406a0b:	62 e2 ed 58 b8 5e 12 	vfmadd231pd 0x90(%rsi){1to8},%zmm2,%zmm19
  406a12:	62 62 ed 58 b8 46 14 	vfmadd231pd 0xa0(%rsi){1to8},%zmm2,%zmm24
  406a19:	62 62 ed 58 b8 6e 16 	vfmadd231pd 0xb0(%rsi){1to8},%zmm2,%zmm29
  406a20:	62 62 c5 58 b8 46 15 	vfmadd231pd 0xa8(%rsi){1to8},%zmm7,%zmm24
  406a27:	62 62 c5 58 b8 6e 17 	vfmadd231pd 0xb8(%rsi){1to8},%zmm7,%zmm29
  406a2e:	62 e2 9d 58 b8 5e 13 	vfmadd231pd 0x98(%rsi){1to8},%zmm12,%zmm19
  406a35:	62 62 9d 58 b8 6e 18 	vfmadd231pd 0xc0(%rsi){1to8},%zmm12,%zmm29
  406a3c:	62 e2 e5 58 b8 66 12 	vfmadd231pd 0x90(%rsi){1to8},%zmm3,%zmm20
  406a43:	62 62 e5 58 b8 4e 14 	vfmadd231pd 0xa0(%rsi){1to8},%zmm3,%zmm25
  406a4a:	62 62 e5 58 b8 76 16 	vfmadd231pd 0xb0(%rsi){1to8},%zmm3,%zmm30
  406a51:	62 62 bd 58 b8 4e 15 	vfmadd231pd 0xa8(%rsi){1to8},%zmm8,%zmm25
  406a58:	62 62 bd 58 b8 76 17 	vfmadd231pd 0xb8(%rsi){1to8},%zmm8,%zmm30
  406a5f:	62 e2 95 58 b8 66 13 	vfmadd231pd 0x98(%rsi){1to8},%zmm13,%zmm20
  406a66:	62 62 95 58 b8 76 18 	vfmadd231pd 0xc0(%rsi){1to8},%zmm13,%zmm30
  406a6d:	62 e2 dd 58 b8 6e 12 	vfmadd231pd 0x90(%rsi){1to8},%zmm4,%zmm21
  406a74:	62 62 dd 58 b8 56 14 	vfmadd231pd 0xa0(%rsi){1to8},%zmm4,%zmm26
  406a7b:	62 62 dd 58 b8 7e 16 	vfmadd231pd 0xb0(%rsi){1to8},%zmm4,%zmm31
  406a82:	62 62 b5 58 b8 56 15 	vfmadd231pd 0xa8(%rsi){1to8},%zmm9,%zmm26
  406a89:	62 62 b5 58 b8 7e 17 	vfmadd231pd 0xb8(%rsi){1to8},%zmm9,%zmm31
  406a90:	62 e2 8d 58 b8 6e 13 	vfmadd231pd 0x98(%rsi){1to8},%zmm14,%zmm21
  406a97:	62 62 8d 58 b8 7e 18 	vfmadd231pd 0xc0(%rsi){1to8},%zmm14,%zmm31
  406a9e:	62 e1 fd 48 29 0a    	vmovapd %zmm17,(%rdx)
  406aa4:	62 e1 fd 48 29 52 01 	vmovapd %zmm18,0x40(%rdx)
  406aab:	62 e1 fd 48 29 5a 02 	vmovapd %zmm19,0x80(%rdx)
  406ab2:	62 e1 fd 48 29 62 03 	vmovapd %zmm20,0xc0(%rdx)
  406ab9:	62 e1 fd 48 29 6a 04 	vmovapd %zmm21,0x100(%rdx)
  406ac0:	62 e1 fd 48 29 72 05 	vmovapd %zmm22,0x140(%rdx)
  406ac7:	62 e1 fd 48 29 7a 06 	vmovapd %zmm23,0x180(%rdx)
  406ace:	62 61 fd 48 29 42 07 	vmovapd %zmm24,0x1c0(%rdx)
  406ad5:	62 61 fd 48 29 4a 08 	vmovapd %zmm25,0x200(%rdx)
  406adc:	62 61 fd 48 29 52 09 	vmovapd %zmm26,0x240(%rdx)
  406ae3:	62 61 fd 48 29 5a 0a 	vmovapd %zmm27,0x280(%rdx)
  406aea:	62 61 fd 48 29 62 0b 	vmovapd %zmm28,0x2c0(%rdx)
  406af1:	62 61 fd 48 29 6a 0c 	vmovapd %zmm29,0x300(%rdx)
  406af8:	62 61 fd 48 29 72 0d 	vmovapd %zmm30,0x340(%rdx)
