
build/exp_seissol_star:     file format elf64-x86-64


Disassembly of section .init:

0000000000401500 <_init>:
  401500:	48 83 ec 08          	sub    $0x8,%rsp
  401504:	48 8b 05 ed 8a 22 00 	mov    0x228aed(%rip),%rax        # 629ff8 <_DYNAMIC+0x238>
  40150b:	48 85 c0             	test   %rax,%rax
  40150e:	74 05                	je     401515 <_init+0x15>
  401510:	e8 fb 02 00 00       	callq  401810 <_ZNSt8ios_base4InitD1Ev@plt+0x10>
  401515:	48 83 c4 08          	add    $0x8,%rsp
  401519:	c3                   	retq   

Disassembly of section .plt:

0000000000401520 <__printf_chk@plt-0x10>:
  401520:	ff 35 e2 8a 22 00    	pushq  0x228ae2(%rip)        # 62a008 <_GLOBAL_OFFSET_TABLE_+0x8>
  401526:	ff 25 e4 8a 22 00    	jmpq   *0x228ae4(%rip)        # 62a010 <_GLOBAL_OFFSET_TABLE_+0x10>
  40152c:	0f 1f 40 00          	nopl   0x0(%rax)

0000000000401530 <__printf_chk@plt>:
  401530:	ff 25 e2 8a 22 00    	jmpq   *0x228ae2(%rip)        # 62a018 <_GLOBAL_OFFSET_TABLE_+0x18>
  401536:	68 00 00 00 00       	pushq  $0x0
  40153b:	e9 e0 ff ff ff       	jmpq   401520 <_init+0x20>

0000000000401540 <_Znam@plt>:
  401540:	ff 25 da 8a 22 00    	jmpq   *0x228ada(%rip)        # 62a020 <_GLOBAL_OFFSET_TABLE_+0x20>
  401546:	68 01 00 00 00       	pushq  $0x1
  40154b:	e9 d0 ff ff ff       	jmpq   401520 <_init+0x20>

0000000000401550 <rand@plt>:
  401550:	ff 25 d2 8a 22 00    	jmpq   *0x228ad2(%rip)        # 62a028 <_GLOBAL_OFFSET_TABLE_+0x28>
  401556:	68 02 00 00 00       	pushq  $0x2
  40155b:	e9 c0 ff ff ff       	jmpq   401520 <_init+0x20>

0000000000401560 <_ZNSolsEPFRSt8ios_baseS0_E@plt>:
  401560:	ff 25 ca 8a 22 00    	jmpq   *0x228aca(%rip)        # 62a030 <_GLOBAL_OFFSET_TABLE_+0x30>
  401566:	68 03 00 00 00       	pushq  $0x3
  40156b:	e9 b0 ff ff ff       	jmpq   401520 <_init+0x20>

0000000000401570 <strchr@plt>:
  401570:	ff 25 c2 8a 22 00    	jmpq   *0x228ac2(%rip)        # 62a038 <_GLOBAL_OFFSET_TABLE_+0x38>
  401576:	68 04 00 00 00       	pushq  $0x4
  40157b:	e9 a0 ff ff ff       	jmpq   401520 <_init+0x20>

0000000000401580 <strlen@plt>:
  401580:	ff 25 ba 8a 22 00    	jmpq   *0x228aba(%rip)        # 62a040 <_GLOBAL_OFFSET_TABLE_+0x40>
  401586:	68 05 00 00 00       	pushq  $0x5
  40158b:	e9 90 ff ff ff       	jmpq   401520 <_init+0x20>

0000000000401590 <__strncat_chk@plt>:
  401590:	ff 25 b2 8a 22 00    	jmpq   *0x228ab2(%rip)        # 62a048 <_GLOBAL_OFFSET_TABLE_+0x48>
  401596:	68 06 00 00 00       	pushq  $0x6
  40159b:	e9 80 ff ff ff       	jmpq   401520 <_init+0x20>

00000000004015a0 <_ZSt4endlIcSt11char_traitsIcEERSt13basic_ostreamIT_T0_ES6_@plt>:
  4015a0:	ff 25 aa 8a 22 00    	jmpq   *0x228aaa(%rip)        # 62a050 <_GLOBAL_OFFSET_TABLE_+0x50>
  4015a6:	68 07 00 00 00       	pushq  $0x7
  4015ab:	e9 70 ff ff ff       	jmpq   401520 <_init+0x20>

00000000004015b0 <__cxa_allocate_exception@plt>:
  4015b0:	ff 25 a2 8a 22 00    	jmpq   *0x228aa2(%rip)        # 62a058 <_GLOBAL_OFFSET_TABLE_+0x58>
  4015b6:	68 08 00 00 00       	pushq  $0x8
  4015bb:	e9 60 ff ff ff       	jmpq   401520 <_init+0x20>

00000000004015c0 <posix_memalign@plt>:
  4015c0:	ff 25 9a 8a 22 00    	jmpq   *0x228a9a(%rip)        # 62a060 <_GLOBAL_OFFSET_TABLE_+0x60>
  4015c6:	68 09 00 00 00       	pushq  $0x9
  4015cb:	e9 50 ff ff ff       	jmpq   401520 <_init+0x20>

00000000004015d0 <catopen@plt>:
  4015d0:	ff 25 92 8a 22 00    	jmpq   *0x228a92(%rip)        # 62a068 <_GLOBAL_OFFSET_TABLE_+0x68>
  4015d6:	68 0a 00 00 00       	pushq  $0xa
  4015db:	e9 40 ff ff ff       	jmpq   401520 <_init+0x20>

00000000004015e0 <strncpy@plt>:
  4015e0:	ff 25 8a 8a 22 00    	jmpq   *0x228a8a(%rip)        # 62a070 <_GLOBAL_OFFSET_TABLE_+0x70>
  4015e6:	68 0b 00 00 00       	pushq  $0xb
  4015eb:	e9 30 ff ff ff       	jmpq   401520 <_init+0x20>

00000000004015f0 <_ZNSs4_Rep10_M_destroyERKSaIcE@plt>:
  4015f0:	ff 25 82 8a 22 00    	jmpq   *0x228a82(%rip)        # 62a078 <_GLOBAL_OFFSET_TABLE_+0x78>
  4015f6:	68 0c 00 00 00       	pushq  $0xc
  4015fb:	e9 20 ff ff ff       	jmpq   401520 <_init+0x20>

0000000000401600 <__cxa_atexit@plt>:
  401600:	ff 25 7a 8a 22 00    	jmpq   *0x228a7a(%rip)        # 62a080 <_GLOBAL_OFFSET_TABLE_+0x80>
  401606:	68 0d 00 00 00       	pushq  $0xd
  40160b:	e9 10 ff ff ff       	jmpq   401520 <_init+0x20>

0000000000401610 <_ZdlPv@plt>:
  401610:	ff 25 72 8a 22 00    	jmpq   *0x228a72(%rip)        # 62a088 <_GLOBAL_OFFSET_TABLE_+0x88>
  401616:	68 0e 00 00 00       	pushq  $0xe
  40161b:	e9 00 ff ff ff       	jmpq   401520 <_init+0x20>

0000000000401620 <_ZStlsISt11char_traitsIcEERSt13basic_ostreamIcT_ES5_PKc@plt>:
  401620:	ff 25 6a 8a 22 00    	jmpq   *0x228a6a(%rip)        # 62a090 <_GLOBAL_OFFSET_TABLE_+0x90>
  401626:	68 0f 00 00 00       	pushq  $0xf
  40162b:	e9 f0 fe ff ff       	jmpq   401520 <_init+0x20>

0000000000401630 <fclose@plt>:
  401630:	ff 25 62 8a 22 00    	jmpq   *0x228a62(%rip)        # 62a098 <_GLOBAL_OFFSET_TABLE_+0x98>
  401636:	68 10 00 00 00       	pushq  $0x10
  40163b:	e9 e0 fe ff ff       	jmpq   401520 <_init+0x20>

0000000000401640 <_Znwm@plt>:
  401640:	ff 25 5a 8a 22 00    	jmpq   *0x228a5a(%rip)        # 62a0a0 <_GLOBAL_OFFSET_TABLE_+0xa0>
  401646:	68 11 00 00 00       	pushq  $0x11
  40164b:	e9 d0 fe ff ff       	jmpq   401520 <_init+0x20>

0000000000401650 <_ZNSolsEPFRSoS_E@plt>:
  401650:	ff 25 52 8a 22 00    	jmpq   *0x228a52(%rip)        # 62a0a8 <_GLOBAL_OFFSET_TABLE_+0xa8>
  401656:	68 12 00 00 00       	pushq  $0x12
  40165b:	e9 c0 fe ff ff       	jmpq   401520 <_init+0x20>

0000000000401660 <catgets@plt>:
  401660:	ff 25 4a 8a 22 00    	jmpq   *0x228a4a(%rip)        # 62a0b0 <_GLOBAL_OFFSET_TABLE_+0xb0>
  401666:	68 13 00 00 00       	pushq  $0x13
  40166b:	e9 b0 fe ff ff       	jmpq   401520 <_init+0x20>

0000000000401670 <__stack_chk_fail@plt>:
  401670:	ff 25 42 8a 22 00    	jmpq   *0x228a42(%rip)        # 62a0b8 <_GLOBAL_OFFSET_TABLE_+0xb8>
  401676:	68 14 00 00 00       	pushq  $0x14
  40167b:	e9 a0 fe ff ff       	jmpq   401520 <_init+0x20>

0000000000401680 <_ZNSsC1EPKcRKSaIcE@plt>:
  401680:	ff 25 3a 8a 22 00    	jmpq   *0x228a3a(%rip)        # 62a0c0 <_GLOBAL_OFFSET_TABLE_+0xc0>
  401686:	68 15 00 00 00       	pushq  $0x15
  40168b:	e9 90 fe ff ff       	jmpq   401520 <_init+0x20>

0000000000401690 <_ZStlsIcSt11char_traitsIcEERSt13basic_ostreamIT_T0_ES6_St5_Setw@plt>:
  401690:	ff 25 32 8a 22 00    	jmpq   *0x228a32(%rip)        # 62a0c8 <_GLOBAL_OFFSET_TABLE_+0xc8>
  401696:	68 16 00 00 00       	pushq  $0x16
  40169b:	e9 80 fe ff ff       	jmpq   401520 <_init+0x20>

00000000004016a0 <fopen@plt>:
  4016a0:	ff 25 2a 8a 22 00    	jmpq   *0x228a2a(%rip)        # 62a0d0 <_GLOBAL_OFFSET_TABLE_+0xd0>
  4016a6:	68 17 00 00 00       	pushq  $0x17
  4016ab:	e9 70 fe ff ff       	jmpq   401520 <_init+0x20>

00000000004016b0 <free@plt>:
  4016b0:	ff 25 22 8a 22 00    	jmpq   *0x228a22(%rip)        # 62a0d8 <_GLOBAL_OFFSET_TABLE_+0xd8>
  4016b6:	68 18 00 00 00       	pushq  $0x18
  4016bb:	e9 60 fe ff ff       	jmpq   401520 <_init+0x20>

00000000004016c0 <exit@plt>:
  4016c0:	ff 25 1a 8a 22 00    	jmpq   *0x228a1a(%rip)        # 62a0e0 <_GLOBAL_OFFSET_TABLE_+0xe0>
  4016c6:	68 19 00 00 00       	pushq  $0x19
  4016cb:	e9 50 fe ff ff       	jmpq   401520 <_init+0x20>

00000000004016d0 <getenv@plt>:
  4016d0:	ff 25 12 8a 22 00    	jmpq   *0x228a12(%rip)        # 62a0e8 <_GLOBAL_OFFSET_TABLE_+0xe8>
  4016d6:	68 1a 00 00 00       	pushq  $0x1a
  4016db:	e9 40 fe ff ff       	jmpq   401520 <_init+0x20>

00000000004016e0 <_ZdaPv@plt>:
  4016e0:	ff 25 0a 8a 22 00    	jmpq   *0x228a0a(%rip)        # 62a0f0 <_GLOBAL_OFFSET_TABLE_+0xf0>
  4016e6:	68 1b 00 00 00       	pushq  $0x1b
  4016eb:	e9 30 fe ff ff       	jmpq   401520 <_init+0x20>

00000000004016f0 <clock_gettime@plt>:
  4016f0:	ff 25 02 8a 22 00    	jmpq   *0x228a02(%rip)        # 62a0f8 <_GLOBAL_OFFSET_TABLE_+0xf8>
  4016f6:	68 1c 00 00 00       	pushq  $0x1c
  4016fb:	e9 20 fe ff ff       	jmpq   401520 <_init+0x20>

0000000000401700 <__vsprintf_chk@plt>:
  401700:	ff 25 fa 89 22 00    	jmpq   *0x2289fa(%rip)        # 62a100 <_GLOBAL_OFFSET_TABLE_+0x100>
  401706:	68 1d 00 00 00       	pushq  $0x1d
  40170b:	e9 10 fe ff ff       	jmpq   401520 <_init+0x20>

0000000000401710 <setenv@plt>:
  401710:	ff 25 f2 89 22 00    	jmpq   *0x2289f2(%rip)        # 62a108 <_GLOBAL_OFFSET_TABLE_+0x108>
  401716:	68 1e 00 00 00       	pushq  $0x1e
  40171b:	e9 00 fe ff ff       	jmpq   401520 <_init+0x20>

0000000000401720 <_ZNSt8ios_base4InitC1Ev@plt>:
  401720:	ff 25 ea 89 22 00    	jmpq   *0x2289ea(%rip)        # 62a110 <_GLOBAL_OFFSET_TABLE_+0x110>
  401726:	68 1f 00 00 00       	pushq  $0x1f
  40172b:	e9 f0 fd ff ff       	jmpq   401520 <_init+0x20>

0000000000401730 <fgets@plt>:
  401730:	ff 25 e2 89 22 00    	jmpq   *0x2289e2(%rip)        # 62a118 <_GLOBAL_OFFSET_TABLE_+0x118>
  401736:	68 20 00 00 00       	pushq  $0x20
  40173b:	e9 e0 fd ff ff       	jmpq   401520 <_init+0x20>

0000000000401740 <_ZStlsIcSt11char_traitsIcEERSt13basic_ostreamIT_T0_ES6_St13_Setprecision@plt>:
  401740:	ff 25 da 89 22 00    	jmpq   *0x2289da(%rip)        # 62a120 <_GLOBAL_OFFSET_TABLE_+0x120>
  401746:	68 21 00 00 00       	pushq  $0x21
  40174b:	e9 d0 fd ff ff       	jmpq   401520 <_init+0x20>

0000000000401750 <__fprintf_chk@plt>:
  401750:	ff 25 d2 89 22 00    	jmpq   *0x2289d2(%rip)        # 62a128 <_GLOBAL_OFFSET_TABLE_+0x128>
  401756:	68 22 00 00 00       	pushq  $0x22
  40175b:	e9 c0 fd ff ff       	jmpq   401520 <_init+0x20>

0000000000401760 <__gxx_personality_v0@plt>:
  401760:	ff 25 ca 89 22 00    	jmpq   *0x2289ca(%rip)        # 62a130 <_GLOBAL_OFFSET_TABLE_+0x130>
  401766:	68 23 00 00 00       	pushq  $0x23
  40176b:	e9 b0 fd ff ff       	jmpq   401520 <_init+0x20>

0000000000401770 <_ZNSt16invalid_argumentD1Ev@plt>:
  401770:	ff 25 c2 89 22 00    	jmpq   *0x2289c2(%rip)        # 62a138 <_GLOBAL_OFFSET_TABLE_+0x138>
  401776:	68 24 00 00 00       	pushq  $0x24
  40177b:	e9 a0 fd ff ff       	jmpq   401520 <_init+0x20>

0000000000401780 <__pthread_key_create@plt>:
  401780:	ff 25 ba 89 22 00    	jmpq   *0x2289ba(%rip)        # 62a140 <_GLOBAL_OFFSET_TABLE_+0x140>
  401786:	68 25 00 00 00       	pushq  $0x25
  40178b:	e9 90 fd ff ff       	jmpq   401520 <_init+0x20>

0000000000401790 <__cxa_throw@plt>:
  401790:	ff 25 b2 89 22 00    	jmpq   *0x2289b2(%rip)        # 62a148 <_GLOBAL_OFFSET_TABLE_+0x148>
  401796:	68 26 00 00 00       	pushq  $0x26
  40179b:	e9 80 fd ff ff       	jmpq   401520 <_init+0x20>

00000000004017a0 <_ZNSolsEi@plt>:
  4017a0:	ff 25 aa 89 22 00    	jmpq   *0x2289aa(%rip)        # 62a150 <_GLOBAL_OFFSET_TABLE_+0x150>
  4017a6:	68 27 00 00 00       	pushq  $0x27
  4017ab:	e9 70 fd ff ff       	jmpq   401520 <_init+0x20>

00000000004017b0 <_Unwind_Resume@plt>:
  4017b0:	ff 25 a2 89 22 00    	jmpq   *0x2289a2(%rip)        # 62a158 <_GLOBAL_OFFSET_TABLE_+0x158>
  4017b6:	68 28 00 00 00       	pushq  $0x28
  4017bb:	e9 60 fd ff ff       	jmpq   401520 <_init+0x20>

00000000004017c0 <_ZNSt16invalid_argumentC1ERKSs@plt>:
  4017c0:	ff 25 9a 89 22 00    	jmpq   *0x22899a(%rip)        # 62a160 <_GLOBAL_OFFSET_TABLE_+0x160>
  4017c6:	68 29 00 00 00       	pushq  $0x29
  4017cb:	e9 50 fd ff ff       	jmpq   401520 <_init+0x20>

00000000004017d0 <__libc_start_main@plt>:
  4017d0:	ff 25 92 89 22 00    	jmpq   *0x228992(%rip)        # 62a168 <_GLOBAL_OFFSET_TABLE_+0x168>
  4017d6:	68 2a 00 00 00       	pushq  $0x2a
  4017db:	e9 40 fd ff ff       	jmpq   401520 <_init+0x20>

00000000004017e0 <_ZNSolsEd@plt>:
  4017e0:	ff 25 8a 89 22 00    	jmpq   *0x22898a(%rip)        # 62a170 <_GLOBAL_OFFSET_TABLE_+0x170>
  4017e6:	68 2b 00 00 00       	pushq  $0x2b
  4017eb:	e9 30 fd ff ff       	jmpq   401520 <_init+0x20>

00000000004017f0 <fscanf@plt>:
  4017f0:	ff 25 82 89 22 00    	jmpq   *0x228982(%rip)        # 62a178 <_GLOBAL_OFFSET_TABLE_+0x178>
  4017f6:	68 2c 00 00 00       	pushq  $0x2c
  4017fb:	e9 20 fd ff ff       	jmpq   401520 <_init+0x20>

0000000000401800 <_ZNSt8ios_base4InitD1Ev@plt>:
  401800:	ff 25 7a 89 22 00    	jmpq   *0x22897a(%rip)        # 62a180 <_GLOBAL_OFFSET_TABLE_+0x180>
  401806:	68 2d 00 00 00       	pushq  $0x2d
  40180b:	e9 10 fd ff ff       	jmpq   401520 <_init+0x20>

Disassembly of section .plt.got:

0000000000401810 <.plt.got>:
  401810:	ff 25 e2 87 22 00    	jmpq   *0x2287e2(%rip)        # 629ff8 <_DYNAMIC+0x238>
  401816:	66 90                	xchg   %ax,%ax

Disassembly of section .text:

0000000000401840 <_start>:
  401840:	31 ed                	xor    %ebp,%ebp
  401842:	49 89 d1             	mov    %rdx,%r9
  401845:	5e                   	pop    %rsi
  401846:	48 89 e2             	mov    %rsp,%rdx
  401849:	48 83 e4 f0          	and    $0xfffffffffffffff0,%rsp
  40184d:	50                   	push   %rax
  40184e:	54                   	push   %rsp
  40184f:	49 c7 c0 90 5d 42 00 	mov    $0x425d90,%r8
  401856:	48 c7 c1 20 5d 42 00 	mov    $0x425d20,%rcx
  40185d:	48 c7 c7 30 19 40 00 	mov    $0x401930,%rdi
  401864:	e8 67 ff ff ff       	callq  4017d0 <__libc_start_main@plt>
  401869:	f4                   	hlt    
  40186a:	66 0f 1f 44 00 00    	nopw   0x0(%rax,%rax,1)

0000000000401870 <deregister_tm_clones>:
  401870:	b8 a7 aa 62 00       	mov    $0x62aaa7,%eax
  401875:	55                   	push   %rbp
  401876:	48 2d a0 aa 62 00    	sub    $0x62aaa0,%rax
  40187c:	48 83 f8 0e          	cmp    $0xe,%rax
  401880:	48 89 e5             	mov    %rsp,%rbp
  401883:	77 02                	ja     401887 <deregister_tm_clones+0x17>
  401885:	5d                   	pop    %rbp
  401886:	c3                   	retq   
  401887:	b8 00 00 00 00       	mov    $0x0,%eax
  40188c:	48 85 c0             	test   %rax,%rax
  40188f:	74 f4                	je     401885 <deregister_tm_clones+0x15>
  401891:	5d                   	pop    %rbp
  401892:	bf a0 aa 62 00       	mov    $0x62aaa0,%edi
  401897:	ff e0                	jmpq   *%rax
  401899:	0f 1f 80 00 00 00 00 	nopl   0x0(%rax)

00000000004018a0 <register_tm_clones>:
  4018a0:	b8 a0 aa 62 00       	mov    $0x62aaa0,%eax
  4018a5:	55                   	push   %rbp
  4018a6:	48 2d a0 aa 62 00    	sub    $0x62aaa0,%rax
  4018ac:	48 c1 f8 03          	sar    $0x3,%rax
  4018b0:	48 89 e5             	mov    %rsp,%rbp
  4018b3:	48 89 c2             	mov    %rax,%rdx
  4018b6:	48 c1 ea 3f          	shr    $0x3f,%rdx
  4018ba:	48 01 d0             	add    %rdx,%rax
  4018bd:	48 d1 f8             	sar    %rax
  4018c0:	75 02                	jne    4018c4 <register_tm_clones+0x24>
  4018c2:	5d                   	pop    %rbp
  4018c3:	c3                   	retq   
  4018c4:	ba 00 00 00 00       	mov    $0x0,%edx
  4018c9:	48 85 d2             	test   %rdx,%rdx
  4018cc:	74 f4                	je     4018c2 <register_tm_clones+0x22>
  4018ce:	5d                   	pop    %rbp
  4018cf:	48 89 c6             	mov    %rax,%rsi
  4018d2:	bf a0 aa 62 00       	mov    $0x62aaa0,%edi
  4018d7:	ff e2                	jmpq   *%rdx
  4018d9:	0f 1f 80 00 00 00 00 	nopl   0x0(%rax)

00000000004018e0 <__do_global_dtors_aux>:
  4018e0:	80 3d 01 93 22 00 00 	cmpb   $0x0,0x229301(%rip)        # 62abe8 <completed.6338>
  4018e7:	75 11                	jne    4018fa <__do_global_dtors_aux+0x1a>
  4018e9:	55                   	push   %rbp
  4018ea:	48 89 e5             	mov    %rsp,%rbp
  4018ed:	e8 7e ff ff ff       	callq  401870 <deregister_tm_clones>
  4018f2:	5d                   	pop    %rbp
  4018f3:	c6 05 ee 92 22 00 01 	movb   $0x1,0x2292ee(%rip)        # 62abe8 <completed.6338>
  4018fa:	f3 c3                	repz retq 
  4018fc:	0f 1f 40 00          	nopl   0x0(%rax)

0000000000401900 <frame_dummy>:
  401900:	48 83 3d 30 7f 22 00 	cmpq   $0x0,0x227f30(%rip)        # 629838 <__JCR_END__>
  401907:	00 
  401908:	74 1e                	je     401928 <frame_dummy+0x28>
  40190a:	b8 00 00 00 00       	mov    $0x0,%eax
  40190f:	48 85 c0             	test   %rax,%rax
  401912:	74 14                	je     401928 <frame_dummy+0x28>
  401914:	55                   	push   %rbp
  401915:	bf 38 98 62 00       	mov    $0x629838,%edi
  40191a:	48 89 e5             	mov    %rsp,%rbp
  40191d:	ff d0                	callq  *%rax
  40191f:	5d                   	pop    %rbp
  401920:	e9 7b ff ff ff       	jmpq   4018a0 <register_tm_clones>
  401925:	0f 1f 00             	nopl   (%rax)
  401928:	e9 73 ff ff ff       	jmpq   4018a0 <register_tm_clones>
  40192d:	0f 1f 00             	nopl   (%rax)

0000000000401930 <main>:
  401930:	55                   	push   %rbp
  401931:	48 89 e5             	mov    %rsp,%rbp
  401934:	48 83 e4 80          	and    $0xffffffffffffff80,%rsp
  401938:	48 81 ec 80 0e 00 00 	sub    $0xe80,%rsp
  40193f:	48 89 9c 24 30 0c 00 	mov    %rbx,0xc30(%rsp)
  401946:	00 
  401947:	48 be fe 9f 9d 38 07 	movabs $0x7389d9ffe,%rsi
  40194e:	00 00 00 
  401951:	4c 89 bc 24 28 0c 00 	mov    %r15,0xc28(%rsp)
  401958:	00 
  401959:	bf 03 00 00 00       	mov    $0x3,%edi
  40195e:	4c 89 b4 24 20 0c 00 	mov    %r14,0xc20(%rsp)
  401965:	00 
  401966:	4c 89 ac 24 38 0c 00 	mov    %r13,0xc38(%rsp)
  40196d:	00 
  40196e:	4c 89 a4 24 40 0c 00 	mov    %r12,0xc40(%rsp)
  401975:	00 
  401976:	e8 e5 0f 02 00       	callq  422960 <__intel_new_feature_proc_init>
  40197b:	c5 f8 ae 1c 24       	vstmxcsr (%rsp)
  401980:	b8 28 00 00 00       	mov    $0x28,%eax
  401985:	48 c7 84 24 28 0d 00 	movq   $0x62a240,0xd28(%rsp)
  40198c:	00 40 a2 62 00 
  401991:	be 40 00 00 00       	mov    $0x40,%esi
  401996:	81 0c 24 40 80 00 00 	orl    $0x8040,(%rsp)
  40199d:	48 8d bc 24 40 0d 00 	lea    0xd40(%rsp),%rdi
  4019a4:	00 
  4019a5:	89 84 24 38 0d 00 00 	mov    %eax,0xd38(%rsp)
  4019ac:	ba 40 0b 00 00       	mov    $0xb40,%edx
  4019b1:	89 84 24 30 0d 00 00 	mov    %eax,0xd30(%rsp)
  4019b8:	c5 f8 ae 14 24       	vldmxcsr (%rsp)
  4019bd:	c7 84 24 34 0d 00 00 	movl   $0x9,0xd34(%rsp)
  4019c4:	09 00 00 00 
  4019c8:	e8 f3 fb ff ff       	callq  4015c0 <posix_memalign@plt>
  4019cd:	8b 84 24 34 0d 00 00 	mov    0xd34(%rsp),%eax
  4019d4:	45 31 e4             	xor    %r12d,%r12d
  4019d7:	85 c0                	test   %eax,%eax
  4019d9:	0f 8e 6e 02 00 00    	jle    401c4d <main+0x31d>
  4019df:	44 8b 84 24 30 0d 00 	mov    0xd30(%rsp),%r8d
  4019e6:	00 
  4019e7:	44 8b 8c 24 38 0d 00 	mov    0xd38(%rsp),%r9d
  4019ee:	00 
  4019ef:	ba 08 00 00 00       	mov    $0x8,%edx
  4019f4:	62 f1 ed 48 ef d2    	vpxorq %zmm2,%zmm2,%zmm2
  4019fa:	45 31 ff             	xor    %r15d,%r15d
  4019fd:	c5 f9 6e ca          	vmovd  %edx,%xmm1
  401a01:	31 db                	xor    %ebx,%ebx
  401a03:	44 89 c6             	mov    %r8d,%esi
  401a06:	49 63 f8             	movslq %r8d,%rdi
  401a09:	4c 8b b4 24 40 0d 00 	mov    0xd40(%rsp),%r14
  401a10:	00 
  401a11:	c5 fe 6f 05 67 44 02 	vmovdqu 0x24467(%rip),%ymm0        # 425e80 <_IO_stdin_used+0xc0>
  401a18:	00 
  401a19:	83 e6 f8             	and    $0xfffffff8,%esi
  401a1c:	4d 63 e9             	movslq %r9d,%r13
  401a1f:	48 63 ce             	movslq %esi,%rcx
  401a22:	48 89 4c 24 48       	mov    %rcx,0x48(%rsp)
  401a27:	48 8d 14 fd 00 00 00 	lea    0x0(,%rdi,8),%rdx
  401a2e:	00 
  401a2f:	48 89 54 24 40       	mov    %rdx,0x40(%rsp)
  401a34:	c4 e2 7d 58 c9       	vpbroadcastd %xmm1,%ymm1
  401a39:	45 85 c0             	test   %r8d,%r8d
  401a3c:	0f 8e fe 00 00 00    	jle    401b40 <main+0x210>
  401a42:	41 83 f8 0c          	cmp    $0xc,%r8d
  401a46:	7e 77                	jle    401abf <main+0x18f>
  401a48:	c5 fe 7f 0c 24       	vmovdqu %ymm1,(%rsp)
  401a4d:	48 89 7c 24 20       	mov    %rdi,0x20(%rsp)
  401a52:	89 74 24 28          	mov    %esi,0x28(%rsp)
  401a56:	44 89 44 24 30       	mov    %r8d,0x30(%rsp)
  401a5b:	44 89 4c 24 50       	mov    %r9d,0x50(%rsp)
  401a60:	89 44 24 38          	mov    %eax,0x38(%rsp)
  401a64:	4d 63 ff             	movslq %r15d,%r15
  401a67:	31 f6                	xor    %esi,%esi
  401a69:	48 8b 54 24 40       	mov    0x40(%rsp),%rdx
  401a6e:	4b 8d 3c fe          	lea    (%r14,%r15,8),%rdi
  401a72:	e8 89 12 02 00       	callq  422d00 <__intel_mic_avx512f_memset>
  401a77:	41 83 c4 01          	add    $0x1,%r12d
  401a7b:	4c 01 eb             	add    %r13,%rbx
  401a7e:	44 03 7c 24 50       	add    0x50(%rsp),%r15d
  401a83:	44 3b 64 24 38       	cmp    0x38(%rsp),%r12d
  401a88:	0f 83 c5 24 00 00    	jae    403f53 <main+0x2623>
  401a8e:	83 7c 24 30 0c       	cmpl   $0xc,0x30(%rsp)
  401a93:	7f cf                	jg     401a64 <main+0x134>
  401a95:	c5 fe 6f 05 e3 43 02 	vmovdqu 0x243e3(%rip),%ymm0        # 425e80 <_IO_stdin_used+0xc0>
  401a9c:	00 
  401a9d:	c5 fe 6f 0c 24       	vmovdqu (%rsp),%ymm1
  401aa2:	62 f1 ed 48 ef d2    	vpxorq %zmm2,%zmm2,%zmm2
  401aa8:	48 8b 7c 24 20       	mov    0x20(%rsp),%rdi
  401aad:	8b 74 24 28          	mov    0x28(%rsp),%esi
  401ab1:	44 8b 44 24 30       	mov    0x30(%rsp),%r8d
  401ab6:	44 8b 4c 24 50       	mov    0x50(%rsp),%r9d
  401abb:	8b 44 24 38          	mov    0x38(%rsp),%eax
  401abf:	41 83 f8 08          	cmp    $0x8,%r8d
  401ac3:	0f 8c 83 24 00 00    	jl     403f4c <main+0x261c>
  401ac9:	89 f2                	mov    %esi,%edx
  401acb:	45 31 d2             	xor    %r10d,%r10d
  401ace:	49 8d 0c de          	lea    (%r14,%rbx,8),%rcx
  401ad2:	4c 8b 5c 24 48       	mov    0x48(%rsp),%r11
  401ad7:	62 b1 fd 48 11 14 d1 	vmovupd %zmm2,(%rcx,%r10,8)
  401ade:	49 83 c2 08          	add    $0x8,%r10
  401ae2:	4d 39 da             	cmp    %r11,%r10
  401ae5:	72 f0                	jb     401ad7 <main+0x1a7>
  401ae7:	8d 4a 01             	lea    0x1(%rdx),%ecx
  401aea:	44 39 c1             	cmp    %r8d,%ecx
  401aed:	77 51                	ja     401b40 <main+0x210>
  401aef:	45 89 c2             	mov    %r8d,%r10d
  401af2:	b9 ff 00 00 00       	mov    $0xff,%ecx
  401af7:	c5 fd 6f e0          	vmovdqa %ymm0,%ymm4
  401afb:	41 29 d2             	sub    %edx,%r10d
  401afe:	48 63 d2             	movslq %edx,%rdx
  401b01:	c4 c1 79 6e da       	vmovd  %r10d,%xmm3
  401b06:	4c 8d 1c 13          	lea    (%rbx,%rdx,1),%r11
  401b0a:	48 f7 da             	neg    %rdx
  401b0d:	c5 f8 92 c9          	kmovw  %ecx,%k1
  401b11:	c4 e2 7d 58 db       	vpbroadcastd %xmm3,%ymm3
  401b16:	31 c9                	xor    %ecx,%ecx
  401b18:	4f 8d 1c de          	lea    (%r14,%r11,8),%r11
  401b1c:	48 01 fa             	add    %rdi,%rdx
  401b1f:	45 31 d2             	xor    %r10d,%r10d
  401b22:	48 83 c1 08          	add    $0x8,%rcx
  401b26:	62 f1 65 49 66 d4    	vpcmpgtd %zmm4,%zmm3,%k2{%k1}
  401b2c:	62 91 fd 4a 11 14 1a 	vmovupd %zmm2,(%r10,%r11,1){%k2}
  401b33:	49 83 c2 40          	add    $0x40,%r10
  401b37:	c5 dd fe e1          	vpaddd %ymm1,%ymm4,%ymm4
  401b3b:	48 39 d1             	cmp    %rdx,%rcx
  401b3e:	72 e2                	jb     401b22 <main+0x1f2>
  401b40:	41 83 c4 01          	add    $0x1,%r12d
  401b44:	4c 01 eb             	add    %r13,%rbx
  401b47:	45 01 cf             	add    %r9d,%r15d
  401b4a:	41 39 c4             	cmp    %eax,%r12d
  401b4d:	0f 82 e6 fe ff ff    	jb     401a39 <main+0x109>
  401b53:	31 c9                	xor    %ecx,%ecx
  401b55:	8b 94 24 38 0d 00 00 	mov    0xd38(%rsp),%edx
  401b5c:	4c 63 b4 24 30 0d 00 	movslq 0xd30(%rsp),%r14
  401b63:	00 
  401b64:	31 db                	xor    %ebx,%ebx
  401b66:	4c 8b bc 24 40 0d 00 	mov    0xd40(%rsp),%r15
  401b6d:	00 
  401b6e:	c5 fb 10 05 3a 43 02 	vmovsd 0x2433a(%rip),%xmm0        # 425eb0 <_IO_stdin_used+0xf0>
  401b75:	00 
  401b76:	45 31 e4             	xor    %r12d,%r12d
  401b79:	4d 85 f6             	test   %r14,%r14
  401b7c:	0f 8e be 00 00 00    	jle    401c40 <main+0x310>
  401b82:	62 f3 fd 08 27 e0 00 	vgetmantsd $0x0,%xmm0,%xmm0,%xmm4
  401b89:	89 54 24 08          	mov    %edx,0x8(%rsp)
  401b8d:	c5 fb 10 0d 33 43 02 	vmovsd 0x24333(%rip),%xmm1        # 425ec8 <_IO_stdin_used+0x108>
  401b94:	00 
  401b95:	89 0c 24             	mov    %ecx,(%rsp)
  401b98:	62 f2 fd 08 43 d8    	vgetexpsd %xmm0,%xmm0,%xmm3
  401b9e:	89 44 24 38          	mov    %eax,0x38(%rsp)
  401ba2:	48 63 db             	movslq %ebx,%rbx
  401ba5:	c5 fb 11 64 24 28    	vmovsd %xmm4,0x28(%rsp)
  401bab:	62 f2 dd 08 cb d4    	vrcp28sd %xmm4,%xmm4,%xmm2
  401bb1:	c5 fb 11 5c 24 10    	vmovsd %xmm3,0x10(%rsp)
  401bb7:	4d 8d 2c df          	lea    (%r15,%rbx,8),%r13
  401bbb:	c5 fb 11 54 24 18    	vmovsd %xmm2,0x18(%rsp)
  401bc1:	62 f2 ed 18 bd cc    	vfnmadd231sd {rn-sae},%xmm4,%xmm2,%xmm1
  401bc7:	62 f2 ed 18 99 ca    	vfmadd132sd {rn-sae},%xmm2,%xmm2,%xmm1
  401bcd:	c5 fb 11 4c 24 20    	vmovsd %xmm1,0x20(%rsp)
  401bd3:	e8 78 f9 ff ff       	callq  401550 <rand@plt>
  401bd8:	c5 f9 57 c0          	vxorpd %xmm0,%xmm0,%xmm0
  401bdc:	c5 fb 2a c0          	vcvtsi2sd %eax,%xmm0,%xmm0
  401be0:	c5 fb 10 54 24 18    	vmovsd 0x18(%rsp),%xmm2
  401be6:	c5 fb 10 5c 24 28    	vmovsd 0x28(%rsp),%xmm3
  401bec:	62 f3 fd 08 27 e0 00 	vgetmantsd $0x0,%xmm0,%xmm0,%xmm4
  401bf3:	62 f2 fd 08 43 c8    	vgetexpsd %xmm0,%xmm0,%xmm1
  401bf9:	c5 fb 10 6c 24 20    	vmovsd 0x20(%rsp),%xmm5
  401bff:	62 f1 ef 18 59 f4    	vmulsd {rn-sae},%xmm4,%xmm2,%xmm6
  401c05:	c5 f3 5c 7c 24 10    	vsubsd 0x10(%rsp),%xmm1,%xmm7
  401c0b:	62 f2 cd 18 bd e3    	vfnmadd231sd {rn-sae},%xmm3,%xmm6,%xmm4
  401c11:	62 f2 dd 18 b9 f5    	vfmadd231sd {rn-sae},%xmm5,%xmm4,%xmm6
  401c17:	62 72 cd 08 2d c7    	vscalefsd %xmm7,%xmm6,%xmm8
  401c1d:	c4 01 7b 11 44 e5 00 	vmovsd %xmm8,0x0(%r13,%r12,8)
  401c24:	49 83 c4 01          	add    $0x1,%r12
  401c28:	4d 39 f4             	cmp    %r14,%r12
  401c2b:	72 a6                	jb     401bd3 <main+0x2a3>
  401c2d:	c5 fb 10 05 7b 42 02 	vmovsd 0x2427b(%rip),%xmm0        # 425eb0 <_IO_stdin_used+0xf0>
  401c34:	00 
  401c35:	8b 54 24 08          	mov    0x8(%rsp),%edx
  401c39:	8b 0c 24             	mov    (%rsp),%ecx
  401c3c:	8b 44 24 38          	mov    0x38(%rsp),%eax
  401c40:	83 c1 01             	add    $0x1,%ecx
  401c43:	01 d3                	add    %edx,%ebx
  401c45:	39 c1                	cmp    %eax,%ecx
  401c47:	0f 82 29 ff ff ff    	jb     401b76 <main+0x246>
  401c4d:	bf d8 5e 42 00       	mov    $0x425ed8,%edi
  401c52:	48 c7 84 24 48 0d 00 	movq   $0x62a240,0xd48(%rsp)
  401c59:	00 40 a2 62 00 
  401c5e:	be 14 5f 42 00       	mov    $0x425f14,%esi
  401c63:	e8 38 fa ff ff       	callq  4016a0 <fopen@plt>
  401c68:	49 89 c7             	mov    %rax,%r15
  401c6b:	48 8d 7c 24 08       	lea    0x8(%rsp),%rdi
  401c70:	be e8 03 00 00       	mov    $0x3e8,%esi
  401c75:	4c 89 fa             	mov    %r15,%rdx
  401c78:	e8 b3 fa ff ff       	callq  401730 <fgets@plt>
  401c7d:	48 8d 7c 24 08       	lea    0x8(%rsp),%rdi
  401c82:	be e8 03 00 00       	mov    $0x3e8,%esi
  401c87:	4c 89 fa             	mov    %r15,%rdx
  401c8a:	e8 a1 fa ff ff       	callq  401730 <fgets@plt>
  401c8f:	4c 89 ff             	mov    %r15,%rdi
  401c92:	be 18 5f 42 00       	mov    $0x425f18,%esi
  401c97:	48 8d 94 24 50 0d 00 	lea    0xd50(%rsp),%rdx
  401c9e:	00 
  401c9f:	48 8d 8c 24 54 0d 00 	lea    0xd54(%rsp),%rcx
  401ca6:	00 
  401ca7:	4c 8d 84 24 a0 0c 00 	lea    0xca0(%rsp),%r8
  401cae:	00 
  401caf:	31 c0                	xor    %eax,%eax
  401cb1:	e8 3a fb ff ff       	callq  4017f0 <fscanf@plt>
  401cb6:	8b 84 24 50 0d 00 00 	mov    0xd50(%rsp),%eax
  401cbd:	89 84 24 58 0d 00 00 	mov    %eax,0xd58(%rsp)
  401cc4:	8b 94 24 54 0d 00 00 	mov    0xd54(%rsp),%edx
  401ccb:	be 40 00 00 00       	mov    $0x40,%esi
  401cd0:	48 8d bc 24 60 0d 00 	lea    0xd60(%rsp),%rdi
  401cd7:	00 
  401cd8:	0f af d0             	imul   %eax,%edx
  401cdb:	48 63 d2             	movslq %edx,%rdx
  401cde:	48 c1 e2 03          	shl    $0x3,%rdx
  401ce2:	e8 d9 f8 ff ff       	callq  4015c0 <posix_memalign@plt>
  401ce7:	8b 84 24 54 0d 00 00 	mov    0xd54(%rsp),%eax
  401cee:	45 31 f6             	xor    %r14d,%r14d
  401cf1:	85 c0                	test   %eax,%eax
  401cf3:	0f 8e 9e 01 00 00    	jle    401e97 <main+0x567>
  401cf9:	8b 8c 24 50 0d 00 00 	mov    0xd50(%rsp),%ecx
  401d00:	4c 89 3c 24          	mov    %r15,(%rsp)
  401d04:	bb 08 00 00 00       	mov    $0x8,%ebx
  401d09:	62 f1 ed 48 ef d2    	vpxorq %zmm2,%zmm2,%zmm2
  401d0f:	41 89 c7             	mov    %eax,%r15d
  401d12:	48 8b b4 24 60 0d 00 	mov    0xd60(%rsp),%rsi
  401d19:	00 
  401d1a:	c5 f9 6e cb          	vmovd  %ebx,%xmm1
  401d1e:	31 db                	xor    %ebx,%ebx
  401d20:	4c 63 d1             	movslq %ecx,%r10
  401d23:	41 89 c8             	mov    %ecx,%r8d
  401d26:	4c 63 ac 24 58 0d 00 	movslq 0xd58(%rsp),%r13
  401d2d:	00 
  401d2e:	41 83 e0 f8          	and    $0xfffffff8,%r8d
  401d32:	4e 8d 1c d5 00 00 00 	lea    0x0(,%r10,8),%r11
  401d39:	00 
  401d3a:	4c 89 9c 24 38 04 00 	mov    %r11,0x438(%rsp)
  401d41:	00 
  401d42:	c5 fe 6f 05 36 41 02 	vmovdqu 0x24136(%rip),%ymm0        # 425e80 <_IO_stdin_used+0xc0>
  401d49:	00 
  401d4a:	49 89 f4             	mov    %rsi,%r12
  401d4d:	c4 e2 7d 58 c9       	vpbroadcastd %xmm1,%ymm1
  401d52:	4d 63 c8             	movslq %r8d,%r9
  401d55:	85 c9                	test   %ecx,%ecx
  401d57:	0f 8e 22 01 00 00    	jle    401e7f <main+0x54f>
  401d5d:	83 f9 0c             	cmp    $0xc,%ecx
  401d60:	0f 8e 9e 00 00 00    	jle    401e04 <main+0x4d4>
  401d66:	c5 fe 7f 8c 24 00 04 	vmovdqu %ymm1,0x400(%rsp)
  401d6d:	00 00 
  401d6f:	4c 89 94 24 f0 03 00 	mov    %r10,0x3f0(%rsp)
  401d76:	00 
  401d77:	4c 89 8c 24 f8 03 00 	mov    %r9,0x3f8(%rsp)
  401d7e:	00 
  401d7f:	44 89 84 24 20 04 00 	mov    %r8d,0x420(%rsp)
  401d86:	00 
  401d87:	48 89 b4 24 28 04 00 	mov    %rsi,0x428(%rsp)
  401d8e:	00 
  401d8f:	89 8c 24 30 04 00 00 	mov    %ecx,0x430(%rsp)
  401d96:	4c 89 e7             	mov    %r12,%rdi
  401d99:	31 f6                	xor    %esi,%esi
  401d9b:	48 8b 94 24 38 04 00 	mov    0x438(%rsp),%rdx
  401da2:	00 
  401da3:	e8 58 0f 02 00       	callq  422d00 <__intel_mic_avx512f_memset>
  401da8:	41 83 c6 01          	add    $0x1,%r14d
  401dac:	4c 01 eb             	add    %r13,%rbx
  401daf:	4f 8d 24 ec          	lea    (%r12,%r13,8),%r12
  401db3:	45 39 fe             	cmp    %r15d,%r14d
  401db6:	0f 83 d7 00 00 00    	jae    401e93 <main+0x563>
  401dbc:	83 bc 24 30 04 00 00 	cmpl   $0xc,0x430(%rsp)
  401dc3:	0c 
  401dc4:	7f d0                	jg     401d96 <main+0x466>
  401dc6:	c5 fe 6f 05 b2 40 02 	vmovdqu 0x240b2(%rip),%ymm0        # 425e80 <_IO_stdin_used+0xc0>
  401dcd:	00 
  401dce:	c5 fe 6f 8c 24 00 04 	vmovdqu 0x400(%rsp),%ymm1
  401dd5:	00 00 
  401dd7:	62 f1 ed 48 ef d2    	vpxorq %zmm2,%zmm2,%zmm2
  401ddd:	4c 8b 94 24 f0 03 00 	mov    0x3f0(%rsp),%r10
  401de4:	00 
  401de5:	4c 8b 8c 24 f8 03 00 	mov    0x3f8(%rsp),%r9
  401dec:	00 
  401ded:	44 8b 84 24 20 04 00 	mov    0x420(%rsp),%r8d
  401df4:	00 
  401df5:	48 8b b4 24 28 04 00 	mov    0x428(%rsp),%rsi
  401dfc:	00 
  401dfd:	8b 8c 24 30 04 00 00 	mov    0x430(%rsp),%ecx
  401e04:	83 f9 08             	cmp    $0x8,%ecx
  401e07:	0f 8c 38 21 00 00    	jl     403f45 <main+0x2615>
  401e0d:	44 89 c0             	mov    %r8d,%eax
  401e10:	45 31 db             	xor    %r11d,%r11d
  401e13:	48 8d 14 de          	lea    (%rsi,%rbx,8),%rdx
  401e17:	62 b1 fd 48 11 14 da 	vmovupd %zmm2,(%rdx,%r11,8)
  401e1e:	49 83 c3 08          	add    $0x8,%r11
  401e22:	4d 39 cb             	cmp    %r9,%r11
  401e25:	72 f0                	jb     401e17 <main+0x4e7>
  401e27:	8d 50 01             	lea    0x1(%rax),%edx
  401e2a:	39 ca                	cmp    %ecx,%edx
  401e2c:	77 51                	ja     401e7f <main+0x54f>
  401e2e:	41 89 cb             	mov    %ecx,%r11d
  401e31:	ba ff 00 00 00       	mov    $0xff,%edx
  401e36:	c5 fd 6f e0          	vmovdqa %ymm0,%ymm4
  401e3a:	41 29 c3             	sub    %eax,%r11d
  401e3d:	48 63 c0             	movslq %eax,%rax
  401e40:	c4 c1 79 6e db       	vmovd  %r11d,%xmm3
  401e45:	4c 8d 1c 03          	lea    (%rbx,%rax,1),%r11
  401e49:	48 f7 d8             	neg    %rax
  401e4c:	c5 f8 92 ca          	kmovw  %edx,%k1
  401e50:	c4 e2 7d 58 db       	vpbroadcastd %xmm3,%ymm3
  401e55:	31 d2                	xor    %edx,%edx
  401e57:	4a 8d 3c de          	lea    (%rsi,%r11,8),%rdi
  401e5b:	4c 01 d0             	add    %r10,%rax
  401e5e:	45 31 db             	xor    %r11d,%r11d
  401e61:	48 83 c2 08          	add    $0x8,%rdx
  401e65:	62 f1 65 49 66 d4    	vpcmpgtd %zmm4,%zmm3,%k2{%k1}
  401e6b:	62 d1 fd 4a 11 14 3b 	vmovupd %zmm2,(%r11,%rdi,1){%k2}
  401e72:	49 83 c3 40          	add    $0x40,%r11
  401e76:	c5 dd fe e1          	vpaddd %ymm1,%ymm4,%ymm4
  401e7a:	48 39 c2             	cmp    %rax,%rdx
  401e7d:	72 e2                	jb     401e61 <main+0x531>
  401e7f:	41 83 c6 01          	add    $0x1,%r14d
  401e83:	4c 01 eb             	add    %r13,%rbx
  401e86:	4f 8d 24 ec          	lea    (%r12,%r13,8),%r12
  401e8a:	45 39 fe             	cmp    %r15d,%r14d
  401e8d:	0f 82 c2 fe ff ff    	jb     401d55 <main+0x425>
  401e93:	4c 8b 3c 24          	mov    (%rsp),%r15
  401e97:	31 db                	xor    %ebx,%ebx
  401e99:	83 bc 24 a0 0c 00 00 	cmpl   $0x0,0xca0(%rsp)
  401ea0:	00 
  401ea1:	7e 64                	jle    401f07 <main+0x5d7>
  401ea3:	4c 89 ff             	mov    %r15,%rdi
  401ea6:	be 24 5f 42 00       	mov    $0x425f24,%esi
  401eab:	48 8d 94 24 a4 0c 00 	lea    0xca4(%rsp),%rdx
  401eb2:	00 
  401eb3:	48 8d 8c 24 a8 0c 00 	lea    0xca8(%rsp),%rcx
  401eba:	00 
  401ebb:	4c 8d 84 24 88 0c 00 	lea    0xc88(%rsp),%r8
  401ec2:	00 
  401ec3:	31 c0                	xor    %eax,%eax
  401ec5:	e8 26 f9 ff ff       	callq  4017f0 <fscanf@plt>
  401eca:	8b 84 24 a8 0c 00 00 	mov    0xca8(%rsp),%eax
  401ed1:	48 8b 8c 24 88 0c 00 	mov    0xc88(%rsp),%rcx
  401ed8:	00 
  401ed9:	83 c3 01             	add    $0x1,%ebx
  401edc:	83 c0 ff             	add    $0xffffffff,%eax
  401edf:	48 8b b4 24 60 0d 00 	mov    0xd60(%rsp),%rsi
  401ee6:	00 
  401ee7:	0f af 84 24 58 0d 00 	imul   0xd58(%rsp),%eax
  401eee:	00 
  401eef:	03 84 24 a4 0c 00 00 	add    0xca4(%rsp),%eax
  401ef6:	48 63 c0             	movslq %eax,%rax
  401ef9:	48 89 4c c6 f8       	mov    %rcx,-0x8(%rsi,%rax,8)
  401efe:	3b 9c 24 a0 0c 00 00 	cmp    0xca0(%rsp),%ebx
  401f05:	7c 9c                	jl     401ea3 <main+0x573>
  401f07:	4c 89 ff             	mov    %r15,%rdi
  401f0a:	e8 21 f7 ff ff       	callq  401630 <fclose@plt>
  401f0f:	b8 28 00 00 00       	mov    $0x28,%eax
  401f14:	48 c7 84 24 c8 0c 00 	movq   $0x62a240,0xcc8(%rsp)
  401f1b:	00 40 a2 62 00 
  401f20:	48 8d bc 24 e0 0c 00 	lea    0xce0(%rsp),%rdi
  401f27:	00 
  401f28:	89 84 24 d8 0c 00 00 	mov    %eax,0xcd8(%rsp)
  401f2f:	be 40 00 00 00       	mov    $0x40,%esi
  401f34:	89 84 24 d0 0c 00 00 	mov    %eax,0xcd0(%rsp)
  401f3b:	ba c0 12 00 00       	mov    $0x12c0,%edx
  401f40:	c7 84 24 d4 0c 00 00 	movl   $0xf,0xcd4(%rsp)
  401f47:	0f 00 00 00 
  401f4b:	e8 70 f6 ff ff       	callq  4015c0 <posix_memalign@plt>
  401f50:	44 8b ac 24 d4 0c 00 	mov    0xcd4(%rsp),%r13d
  401f57:	00 
  401f58:	45 31 ff             	xor    %r15d,%r15d
  401f5b:	45 85 ed             	test   %r13d,%r13d
  401f5e:	0f 8e 92 01 00 00    	jle    4020f6 <main+0x7c6>
  401f64:	44 8b 94 24 d0 0c 00 	mov    0xcd0(%rsp),%r10d
  401f6b:	00 
  401f6c:	4c 8b 8c 24 e0 0c 00 	mov    0xce0(%rsp),%r9
  401f73:	00 
  401f74:	b8 08 00 00 00       	mov    $0x8,%eax
  401f79:	62 f1 ed 48 ef d2    	vpxorq %zmm2,%zmm2,%zmm2
  401f7f:	31 db                	xor    %ebx,%ebx
  401f81:	c5 f9 6e c8          	vmovd  %eax,%xmm1
  401f85:	49 63 ca             	movslq %r10d,%rcx
  401f88:	45 89 d0             	mov    %r10d,%r8d
  401f8b:	4c 63 a4 24 d8 0c 00 	movslq 0xcd8(%rsp),%r12
  401f92:	00 
  401f93:	c5 fe 6f 05 e5 3e 02 	vmovdqu 0x23ee5(%rip),%ymm0        # 425e80 <_IO_stdin_used+0xc0>
  401f9a:	00 
  401f9b:	41 83 e0 f8          	and    $0xfffffff8,%r8d
  401f9f:	4d 89 ce             	mov    %r9,%r14
  401fa2:	48 8d 04 cd 00 00 00 	lea    0x0(,%rcx,8),%rax
  401fa9:	00 
  401faa:	48 89 84 24 30 04 00 	mov    %rax,0x430(%rsp)
  401fb1:	00 
  401fb2:	c4 e2 7d 58 c9       	vpbroadcastd %xmm1,%ymm1
  401fb7:	49 63 f0             	movslq %r8d,%rsi
  401fba:	45 85 d2             	test   %r10d,%r10d
  401fbd:	0f 8e 1f 01 00 00    	jle    4020e2 <main+0x7b2>
  401fc3:	41 83 fa 0c          	cmp    $0xc,%r10d
  401fc7:	0f 8e 98 00 00 00    	jle    402065 <main+0x735>
  401fcd:	c5 fe 7f 8c 24 00 04 	vmovdqu %ymm1,0x400(%rsp)
  401fd4:	00 00 
  401fd6:	48 89 0c 24          	mov    %rcx,(%rsp)
  401fda:	48 89 b4 24 f0 03 00 	mov    %rsi,0x3f0(%rsp)
  401fe1:	00 
  401fe2:	44 89 84 24 f8 03 00 	mov    %r8d,0x3f8(%rsp)
  401fe9:	00 
  401fea:	4c 89 8c 24 20 04 00 	mov    %r9,0x420(%rsp)
  401ff1:	00 
  401ff2:	44 89 94 24 28 04 00 	mov    %r10d,0x428(%rsp)
  401ff9:	00 
  401ffa:	4c 89 f7             	mov    %r14,%rdi
  401ffd:	31 f6                	xor    %esi,%esi
  401fff:	48 8b 94 24 30 04 00 	mov    0x430(%rsp),%rdx
  402006:	00 
  402007:	e8 f4 0c 02 00       	callq  422d00 <__intel_mic_avx512f_memset>
  40200c:	41 83 c7 01          	add    $0x1,%r15d
  402010:	4c 01 e3             	add    %r12,%rbx
  402013:	4f 8d 34 e6          	lea    (%r14,%r12,8),%r14
  402017:	45 39 ef             	cmp    %r13d,%r15d
  40201a:	0f 83 d6 00 00 00    	jae    4020f6 <main+0x7c6>
  402020:	83 bc 24 28 04 00 00 	cmpl   $0xc,0x428(%rsp)
  402027:	0c 
  402028:	7f d0                	jg     401ffa <main+0x6ca>
  40202a:	c5 fe 6f 05 4e 3e 02 	vmovdqu 0x23e4e(%rip),%ymm0        # 425e80 <_IO_stdin_used+0xc0>
  402031:	00 
  402032:	c5 fe 6f 8c 24 00 04 	vmovdqu 0x400(%rsp),%ymm1
  402039:	00 00 
  40203b:	62 f1 ed 48 ef d2    	vpxorq %zmm2,%zmm2,%zmm2
  402041:	48 8b b4 24 f0 03 00 	mov    0x3f0(%rsp),%rsi
  402048:	00 
  402049:	44 8b 84 24 f8 03 00 	mov    0x3f8(%rsp),%r8d
  402050:	00 
  402051:	4c 8b 8c 24 20 04 00 	mov    0x420(%rsp),%r9
  402058:	00 
  402059:	44 8b 94 24 28 04 00 	mov    0x428(%rsp),%r10d
  402060:	00 
  402061:	48 8b 0c 24          	mov    (%rsp),%rcx
  402065:	41 83 fa 08          	cmp    $0x8,%r10d
  402069:	0f 8c cf 1e 00 00    	jl     403f3e <main+0x260e>
  40206f:	44 89 c0             	mov    %r8d,%eax
  402072:	45 31 db             	xor    %r11d,%r11d
  402075:	49 8d 14 d9          	lea    (%r9,%rbx,8),%rdx
  402079:	62 b1 fd 48 11 14 da 	vmovupd %zmm2,(%rdx,%r11,8)
  402080:	49 83 c3 08          	add    $0x8,%r11
  402084:	49 39 f3             	cmp    %rsi,%r11
  402087:	72 f0                	jb     402079 <main+0x749>
  402089:	8d 50 01             	lea    0x1(%rax),%edx
  40208c:	44 39 d2             	cmp    %r10d,%edx
  40208f:	77 51                	ja     4020e2 <main+0x7b2>
  402091:	45 89 d3             	mov    %r10d,%r11d
  402094:	ba ff 00 00 00       	mov    $0xff,%edx
  402099:	c5 fd 6f e0          	vmovdqa %ymm0,%ymm4
  40209d:	41 29 c3             	sub    %eax,%r11d
  4020a0:	48 63 c0             	movslq %eax,%rax
  4020a3:	c4 c1 79 6e db       	vmovd  %r11d,%xmm3
  4020a8:	4c 8d 1c 03          	lea    (%rbx,%rax,1),%r11
  4020ac:	48 f7 d8             	neg    %rax
  4020af:	c5 f8 92 ca          	kmovw  %edx,%k1
  4020b3:	c4 e2 7d 58 db       	vpbroadcastd %xmm3,%ymm3
  4020b8:	31 d2                	xor    %edx,%edx
  4020ba:	4b 8d 3c d9          	lea    (%r9,%r11,8),%rdi
  4020be:	48 01 c8             	add    %rcx,%rax
  4020c1:	45 31 db             	xor    %r11d,%r11d
  4020c4:	48 83 c2 08          	add    $0x8,%rdx
  4020c8:	62 f1 65 49 66 d4    	vpcmpgtd %zmm4,%zmm3,%k2{%k1}
  4020ce:	62 d1 fd 4a 11 14 3b 	vmovupd %zmm2,(%r11,%rdi,1){%k2}
  4020d5:	49 83 c3 40          	add    $0x40,%r11
  4020d9:	c5 dd fe e1          	vpaddd %ymm1,%ymm4,%ymm4
  4020dd:	48 39 c2             	cmp    %rax,%rdx
  4020e0:	72 e2                	jb     4020c4 <main+0x794>
  4020e2:	41 83 c7 01          	add    $0x1,%r15d
  4020e6:	4c 01 e3             	add    %r12,%rbx
  4020e9:	4f 8d 34 e6          	lea    (%r14,%r12,8),%r14
  4020ed:	45 39 ef             	cmp    %r13d,%r15d
  4020f0:	0f 82 c4 fe ff ff    	jb     401fba <main+0x68a>
  4020f6:	b8 28 00 00 00       	mov    $0x28,%eax
  4020fb:	48 c7 84 24 68 0d 00 	movq   $0x62a240,0xd68(%rsp)
  402102:	00 40 a2 62 00 
  402107:	48 8d bc 24 80 0d 00 	lea    0xd80(%rsp),%rdi
  40210e:	00 
  40210f:	89 84 24 78 0d 00 00 	mov    %eax,0xd78(%rsp)
  402116:	be 40 00 00 00       	mov    $0x40,%esi
  40211b:	89 84 24 70 0d 00 00 	mov    %eax,0xd70(%rsp)
  402122:	ba c0 12 00 00       	mov    $0x12c0,%edx
  402127:	c7 84 24 74 0d 00 00 	movl   $0xf,0xd74(%rsp)
  40212e:	0f 00 00 00 
  402132:	e8 89 f4 ff ff       	callq  4015c0 <posix_memalign@plt>
  402137:	44 8b ac 24 74 0d 00 	mov    0xd74(%rsp),%r13d
  40213e:	00 
  40213f:	45 31 ff             	xor    %r15d,%r15d
  402142:	45 85 ed             	test   %r13d,%r13d
  402145:	0f 8e 92 01 00 00    	jle    4022dd <main+0x9ad>
  40214b:	44 8b 94 24 70 0d 00 	mov    0xd70(%rsp),%r10d
  402152:	00 
  402153:	4c 8b 8c 24 80 0d 00 	mov    0xd80(%rsp),%r9
  40215a:	00 
  40215b:	b8 08 00 00 00       	mov    $0x8,%eax
  402160:	62 f1 ed 48 ef d2    	vpxorq %zmm2,%zmm2,%zmm2
  402166:	31 db                	xor    %ebx,%ebx
  402168:	c5 f9 6e c8          	vmovd  %eax,%xmm1
  40216c:	49 63 ca             	movslq %r10d,%rcx
  40216f:	45 89 d0             	mov    %r10d,%r8d
  402172:	4c 63 a4 24 78 0d 00 	movslq 0xd78(%rsp),%r12
  402179:	00 
  40217a:	c5 fe 6f 05 fe 3c 02 	vmovdqu 0x23cfe(%rip),%ymm0        # 425e80 <_IO_stdin_used+0xc0>
  402181:	00 
  402182:	41 83 e0 f8          	and    $0xfffffff8,%r8d
  402186:	4d 89 ce             	mov    %r9,%r14
  402189:	48 8d 04 cd 00 00 00 	lea    0x0(,%rcx,8),%rax
  402190:	00 
  402191:	48 89 84 24 30 04 00 	mov    %rax,0x430(%rsp)
  402198:	00 
  402199:	c4 e2 7d 58 c9       	vpbroadcastd %xmm1,%ymm1
  40219e:	49 63 f0             	movslq %r8d,%rsi
  4021a1:	45 85 d2             	test   %r10d,%r10d
  4021a4:	0f 8e 1f 01 00 00    	jle    4022c9 <main+0x999>
  4021aa:	41 83 fa 0c          	cmp    $0xc,%r10d
  4021ae:	0f 8e 98 00 00 00    	jle    40224c <main+0x91c>
  4021b4:	c5 fe 7f 8c 24 00 04 	vmovdqu %ymm1,0x400(%rsp)
  4021bb:	00 00 
  4021bd:	48 89 0c 24          	mov    %rcx,(%rsp)
  4021c1:	48 89 b4 24 f0 03 00 	mov    %rsi,0x3f0(%rsp)
  4021c8:	00 
  4021c9:	44 89 84 24 f8 03 00 	mov    %r8d,0x3f8(%rsp)
  4021d0:	00 
  4021d1:	4c 89 8c 24 20 04 00 	mov    %r9,0x420(%rsp)
  4021d8:	00 
  4021d9:	44 89 94 24 28 04 00 	mov    %r10d,0x428(%rsp)
  4021e0:	00 
  4021e1:	4c 89 f7             	mov    %r14,%rdi
  4021e4:	31 f6                	xor    %esi,%esi
  4021e6:	48 8b 94 24 30 04 00 	mov    0x430(%rsp),%rdx
  4021ed:	00 
  4021ee:	e8 0d 0b 02 00       	callq  422d00 <__intel_mic_avx512f_memset>
  4021f3:	41 83 c7 01          	add    $0x1,%r15d
  4021f7:	4c 01 e3             	add    %r12,%rbx
  4021fa:	4f 8d 34 e6          	lea    (%r14,%r12,8),%r14
  4021fe:	45 39 ef             	cmp    %r13d,%r15d
  402201:	0f 83 d6 00 00 00    	jae    4022dd <main+0x9ad>
  402207:	83 bc 24 28 04 00 00 	cmpl   $0xc,0x428(%rsp)
  40220e:	0c 
  40220f:	7f d0                	jg     4021e1 <main+0x8b1>
  402211:	c5 fe 6f 05 67 3c 02 	vmovdqu 0x23c67(%rip),%ymm0        # 425e80 <_IO_stdin_used+0xc0>
  402218:	00 
  402219:	c5 fe 6f 8c 24 00 04 	vmovdqu 0x400(%rsp),%ymm1
  402220:	00 00 
  402222:	62 f1 ed 48 ef d2    	vpxorq %zmm2,%zmm2,%zmm2
  402228:	48 8b b4 24 f0 03 00 	mov    0x3f0(%rsp),%rsi
  40222f:	00 
  402230:	44 8b 84 24 f8 03 00 	mov    0x3f8(%rsp),%r8d
  402237:	00 
  402238:	4c 8b 8c 24 20 04 00 	mov    0x420(%rsp),%r9
  40223f:	00 
  402240:	44 8b 94 24 28 04 00 	mov    0x428(%rsp),%r10d
  402247:	00 
  402248:	48 8b 0c 24          	mov    (%rsp),%rcx
  40224c:	41 83 fa 08          	cmp    $0x8,%r10d
  402250:	0f 8c e1 1c 00 00    	jl     403f37 <main+0x2607>
  402256:	44 89 c0             	mov    %r8d,%eax
  402259:	45 31 db             	xor    %r11d,%r11d
  40225c:	49 8d 14 d9          	lea    (%r9,%rbx,8),%rdx
  402260:	62 b1 fd 48 11 14 da 	vmovupd %zmm2,(%rdx,%r11,8)
  402267:	49 83 c3 08          	add    $0x8,%r11
  40226b:	49 39 f3             	cmp    %rsi,%r11
  40226e:	72 f0                	jb     402260 <main+0x930>
  402270:	8d 50 01             	lea    0x1(%rax),%edx
  402273:	44 39 d2             	cmp    %r10d,%edx
  402276:	77 51                	ja     4022c9 <main+0x999>
  402278:	45 89 d3             	mov    %r10d,%r11d
  40227b:	ba ff 00 00 00       	mov    $0xff,%edx
  402280:	c5 fd 6f e0          	vmovdqa %ymm0,%ymm4
  402284:	41 29 c3             	sub    %eax,%r11d
  402287:	48 63 c0             	movslq %eax,%rax
  40228a:	c4 c1 79 6e db       	vmovd  %r11d,%xmm3
  40228f:	4c 8d 1c 03          	lea    (%rbx,%rax,1),%r11
  402293:	48 f7 d8             	neg    %rax
  402296:	c5 f8 92 ca          	kmovw  %edx,%k1
  40229a:	c4 e2 7d 58 db       	vpbroadcastd %xmm3,%ymm3
  40229f:	31 d2                	xor    %edx,%edx
  4022a1:	4b 8d 3c d9          	lea    (%r9,%r11,8),%rdi
  4022a5:	48 01 c8             	add    %rcx,%rax
  4022a8:	45 31 db             	xor    %r11d,%r11d
  4022ab:	48 83 c2 08          	add    $0x8,%rdx
  4022af:	62 f1 65 49 66 d4    	vpcmpgtd %zmm4,%zmm3,%k2{%k1}
  4022b5:	62 d1 fd 4a 11 14 3b 	vmovupd %zmm2,(%r11,%rdi,1){%k2}
  4022bc:	49 83 c3 40          	add    $0x40,%r11
  4022c0:	c5 dd fe e1          	vpaddd %ymm1,%ymm4,%ymm4
  4022c4:	48 39 c2             	cmp    %rax,%rdx
  4022c7:	72 e2                	jb     4022ab <main+0x97b>
  4022c9:	41 83 c7 01          	add    $0x1,%r15d
  4022cd:	4c 01 e3             	add    %r12,%rbx
  4022d0:	4f 8d 34 e6          	lea    (%r14,%r12,8),%r14
  4022d4:	45 39 ef             	cmp    %r13d,%r15d
  4022d7:	0f 82 c4 fe ff ff    	jb     4021a1 <main+0x871>
  4022dd:	8b 84 24 d4 0c 00 00 	mov    0xcd4(%rsp),%eax
  4022e4:	89 04 24             	mov    %eax,(%rsp)
  4022e7:	44 8b ac 24 d0 0c 00 	mov    0xcd0(%rsp),%r13d
  4022ee:	00 
  4022ef:	45 31 ff             	xor    %r15d,%r15d
  4022f2:	44 8b b4 24 34 0d 00 	mov    0xd34(%rsp),%r14d
  4022f9:	00 
  4022fa:	85 c0                	test   %eax,%eax
  4022fc:	0f 8e c6 00 00 00    	jle    4023c8 <main+0xa98>
  402302:	31 db                	xor    %ebx,%ebx
  402304:	45 85 f6             	test   %r14d,%r14d
  402307:	0f 8e ad 00 00 00    	jle    4023ba <main+0xa8a>
  40230d:	45 31 e4             	xor    %r12d,%r12d
  402310:	45 85 ed             	test   %r13d,%r13d
  402313:	0f 8e 95 00 00 00    	jle    4023ae <main+0xa7e>
  402319:	48 8b 84 24 c8 0c 00 	mov    0xcc8(%rsp),%rax
  402320:	00 
  402321:	48 8d bc 24 c8 0c 00 	lea    0xcc8(%rsp),%rdi
  402328:	00 
  402329:	44 89 e6             	mov    %r12d,%esi
  40232c:	44 89 fa             	mov    %r15d,%edx
  40232f:	ff 10                	callq  *(%rax)
  402331:	c5 fb 11 84 24 f8 03 	vmovsd %xmm0,0x3f8(%rsp)
  402338:	00 00 
  40233a:	48 8b 84 24 28 0d 00 	mov    0xd28(%rsp),%rax
  402341:	00 
  402342:	48 8d bc 24 28 0d 00 	lea    0xd28(%rsp),%rdi
  402349:	00 
  40234a:	44 89 e6             	mov    %r12d,%esi
  40234d:	89 da                	mov    %ebx,%edx
  40234f:	ff 10                	callq  *(%rax)
  402351:	c5 fb 11 84 24 f0 03 	vmovsd %xmm0,0x3f0(%rsp)
  402358:	00 00 
  40235a:	48 8b 84 24 48 0d 00 	mov    0xd48(%rsp),%rax
  402361:	00 
  402362:	48 8d bc 24 48 0d 00 	lea    0xd48(%rsp),%rdi
  402369:	00 
  40236a:	89 de                	mov    %ebx,%esi
  40236c:	44 89 fa             	mov    %r15d,%edx
  40236f:	ff 10                	callq  *(%rax)
  402371:	c5 f9 28 c8          	vmovapd %xmm0,%xmm1
  402375:	c5 fb 10 84 24 f8 03 	vmovsd 0x3f8(%rsp),%xmm0
  40237c:	00 00 
  40237e:	48 8b 84 24 c8 0c 00 	mov    0xcc8(%rsp),%rax
  402385:	00 
  402386:	44 89 e6             	mov    %r12d,%esi
  402389:	44 89 fa             	mov    %r15d,%edx
  40238c:	48 8d bc 24 c8 0c 00 	lea    0xcc8(%rsp),%rdi
  402393:	00 
  402394:	c4 e2 f1 b9 84 24 f0 	vfmadd231sd 0x3f0(%rsp),%xmm1,%xmm0
  40239b:	03 00 00 
  40239e:	ff 50 08             	callq  *0x8(%rax)
  4023a1:	41 83 c4 01          	add    $0x1,%r12d
  4023a5:	45 39 ec             	cmp    %r13d,%r12d
  4023a8:	0f 8c 6b ff ff ff    	jl     402319 <main+0x9e9>
  4023ae:	83 c3 01             	add    $0x1,%ebx
  4023b1:	44 39 f3             	cmp    %r14d,%ebx
  4023b4:	0f 8c 53 ff ff ff    	jl     40230d <main+0x9dd>
  4023ba:	41 83 c7 01          	add    $0x1,%r15d
  4023be:	44 3b 3c 24          	cmp    (%rsp),%r15d
  4023c2:	0f 8c 3a ff ff ff    	jl     402302 <main+0x9d2>
  4023c8:	48 8b bc 24 40 0d 00 	mov    0xd40(%rsp),%rdi
  4023cf:	00 
  4023d0:	48 8b b4 24 60 0d 00 	mov    0xd60(%rsp),%rsi
  4023d7:	00 
  4023d8:	48 8b 94 24 80 0d 00 	mov    0xd80(%rsp),%rdx
  4023df:	00 
  4023e0:	e8 8b 31 01 00       	callq  415570 <_Z28exp_seissol_star9x15_libxsmmPKdS0_Pd>
  4023e5:	48 8d bc 24 c8 0c 00 	lea    0xcc8(%rsp),%rdi
  4023ec:	00 
  4023ed:	48 8d b4 24 68 0d 00 	lea    0xd68(%rsp),%rsi
  4023f4:	00 
  4023f5:	e8 e6 b4 00 00       	callq  40d8e0 <_Z13assert_equalsRK6MatrixS1_>
  4023fa:	bf 01 00 00 00       	mov    $0x1,%edi
  4023ff:	48 8d b4 24 c0 0b 00 	lea    0xbc0(%rsp),%rsi
  402406:	00 
  402407:	e8 e4 f2 ff ff       	callq  4016f0 <clock_gettime@plt>
  40240c:	31 db                	xor    %ebx,%ebx
  40240e:	48 8b bc 24 40 0d 00 	mov    0xd40(%rsp),%rdi
  402415:	00 
  402416:	48 8b b4 24 60 0d 00 	mov    0xd60(%rsp),%rsi
  40241d:	00 
  40241e:	48 8b 94 24 80 0d 00 	mov    0xd80(%rsp),%rdx
  402425:	00 
  402426:	e8 45 31 01 00       	callq  415570 <_Z28exp_seissol_star9x15_libxsmmPKdS0_Pd>
  40242b:	83 c3 01             	add    $0x1,%ebx
  40242e:	81 fb b8 0b 00 00    	cmp    $0xbb8,%ebx
  402434:	7c d8                	jl     40240e <main+0xade>
  402436:	bf 01 00 00 00       	mov    $0x1,%edi
  40243b:	48 8d b4 24 d0 0b 00 	lea    0xbd0(%rsp),%rsi
  402442:	00 
  402443:	e8 a8 f2 ff ff       	callq  4016f0 <clock_gettime@plt>
  402448:	bf c0 aa 62 00       	mov    $0x62aac0,%edi
  40244d:	be 30 5f 42 00       	mov    $0x425f30,%esi
  402452:	e8 c9 f1 ff ff       	callq  401620 <_ZStlsISt11char_traitsIcEERSt13basic_ostreamIcT_ES5_PKc@plt>
  402457:	48 89 c7             	mov    %rax,%rdi
  40245a:	48 8b 84 24 d0 0b 00 	mov    0xbd0(%rsp),%rax
  402461:	00 
  402462:	62 e3 d5 00 27 2d 53 	vgetmantsd $0x0,0x23a53(%rip),%xmm21,%xmm21        # 425ec0 <_IO_stdin_used+0x100>
  402469:	3a 02 00 00 
  40246d:	62 e1 ff 08 11 ac 24 	vmovsd %xmm21,0xc48(%rsp)
  402474:	48 0c 00 00 
  402478:	48 2b 84 24 c0 0b 00 	sub    0xbc0(%rsp),%rax
  40247f:	00 
  402480:	62 a2 d5 00 cb e5    	vrcp28sd %xmm21,%xmm21,%xmm20
  402486:	62 e1 ff 08 11 a4 24 	vmovsd %xmm20,0xc50(%rsp)
  40248d:	50 0c 00 00 
  402491:	48 69 d0 00 ca 9a 3b 	imul   $0x3b9aca00,%rax,%rdx
  402498:	62 e1 ff 08 10 3d 26 	vmovsd 0x23a26(%rip),%xmm23        # 425ec8 <_IO_stdin_used+0x108>
  40249f:	3a 02 00 
  4024a2:	48 03 94 24 d8 0b 00 	add    0xbd8(%rsp),%rdx
  4024a9:	00 
  4024aa:	62 a2 dd 10 bd fd    	vfnmadd231sd {rn-sae},%xmm21,%xmm20,%xmm23
  4024b0:	62 e2 e5 00 43 1d 06 	vgetexpsd 0x23a06(%rip),%xmm19,%xmm19        # 425ec0 <_IO_stdin_used+0x100>
  4024b7:	3a 02 00 
  4024ba:	48 2b 94 24 c8 0b 00 	sub    0xbc8(%rsp),%rdx
  4024c1:	00 
  4024c2:	62 e1 ff 00 2a c2    	vcvtsi2sd %rdx,%xmm16,%xmm16
  4024c8:	62 e1 ff 00 59 0d e6 	vmulsd 0x239e6(%rip),%xmm16,%xmm17        # 425eb8 <_IO_stdin_used+0xf8>
  4024cf:	39 02 00 
  4024d2:	62 a2 dd 10 99 fc    	vfmadd132sd {rn-sae},%xmm20,%xmm20,%xmm23
  4024d8:	62 e1 ff 08 11 bc 24 	vmovsd %xmm23,0xc58(%rsp)
  4024df:	58 0c 00 00 
  4024e3:	62 a3 f5 00 27 f1 00 	vgetmantsd $0x0,%xmm17,%xmm17,%xmm22
  4024ea:	62 a2 f5 00 43 d1    	vgetexpsd %xmm17,%xmm17,%xmm18
  4024f0:	62 21 df 10 59 c6    	vmulsd {rn-sae},%xmm22,%xmm20,%xmm24
  4024f6:	62 21 ef 00 5c cb    	vsubsd %xmm19,%xmm18,%xmm25
  4024fc:	62 a2 bd 10 bd f5    	vfnmadd231sd {rn-sae},%xmm21,%xmm24,%xmm22
  402502:	62 22 cd 10 b9 c7    	vfmadd231sd {rn-sae},%xmm23,%xmm22,%xmm24
  402508:	62 92 bd 00 2d c1    	vscalefsd %xmm25,%xmm24,%xmm0
  40250e:	e8 cd f2 ff ff       	callq  4017e0 <_ZNSolsEd@plt>
  402513:	48 89 c7             	mov    %rax,%rdi
  402516:	be a0 15 40 00       	mov    $0x4015a0,%esi
  40251b:	e8 30 f1 ff ff       	callq  401650 <_ZNSolsEPFRSoS_E@plt>
  402520:	48 8b bc 24 80 0d 00 	mov    0xd80(%rsp),%rdi
  402527:	00 
  402528:	48 c7 84 24 68 0d 00 	movq   $0x62a240,0xd68(%rsp)
  40252f:	00 40 a2 62 00 
  402534:	e8 77 f1 ff ff       	callq  4016b0 <free@plt>
  402539:	48 8b bc 24 e0 0c 00 	mov    0xce0(%rsp),%rdi
  402540:	00 
  402541:	48 c7 84 24 c8 0c 00 	movq   $0x62a240,0xcc8(%rsp)
  402548:	00 40 a2 62 00 
  40254d:	e8 5e f1 ff ff       	callq  4016b0 <free@plt>
  402552:	48 8b bc 24 60 0d 00 	mov    0xd60(%rsp),%rdi
  402559:	00 
  40255a:	48 c7 84 24 48 0d 00 	movq   $0x62a240,0xd48(%rsp)
  402561:	00 40 a2 62 00 
  402566:	e8 45 f1 ff ff       	callq  4016b0 <free@plt>
  40256b:	48 8b bc 24 40 0d 00 	mov    0xd40(%rsp),%rdi
  402572:	00 
  402573:	48 c7 84 24 28 0d 00 	movq   $0x62a240,0xd28(%rsp)
  40257a:	00 40 a2 62 00 
  40257f:	e8 2c f1 ff ff       	callq  4016b0 <free@plt>
  402584:	e8 d7 19 00 00       	callq  403f60 <_Z36test_exp_seissol_star9x15_breuer_oldv>
  402589:	e8 f2 51 00 00       	callq  407780 <_Z38test_exp_seissol_star9x15_breuer_fixedv>
  40258e:	b8 28 00 00 00       	mov    $0x28,%eax
  402593:	48 c7 84 24 88 0d 00 	movq   $0x62a240,0xd88(%rsp)
  40259a:	00 40 a2 62 00 
  40259f:	48 8d bc 24 a0 0d 00 	lea    0xda0(%rsp),%rdi
  4025a6:	00 
  4025a7:	89 84 24 98 0d 00 00 	mov    %eax,0xd98(%rsp)
  4025ae:	be 40 00 00 00       	mov    $0x40,%esi
  4025b3:	89 84 24 90 0d 00 00 	mov    %eax,0xd90(%rsp)
  4025ba:	ba 40 0b 00 00       	mov    $0xb40,%edx
  4025bf:	c7 84 24 94 0d 00 00 	movl   $0x9,0xd94(%rsp)
  4025c6:	09 00 00 00 
  4025ca:	e8 f1 ef ff ff       	callq  4015c0 <posix_memalign@plt>
  4025cf:	8b 84 24 94 0d 00 00 	mov    0xd94(%rsp),%eax
  4025d6:	45 31 e4             	xor    %r12d,%r12d
  4025d9:	85 c0                	test   %eax,%eax
  4025db:	0f 8e c9 02 00 00    	jle    4028aa <main+0xf7a>
  4025e1:	44 8b 84 24 90 0d 00 	mov    0xd90(%rsp),%r8d
  4025e8:	00 
  4025e9:	44 8b 8c 24 98 0d 00 	mov    0xd98(%rsp),%r9d
  4025f0:	00 
  4025f1:	ba 08 00 00 00       	mov    $0x8,%edx
  4025f6:	62 f1 ed 48 ef d2    	vpxorq %zmm2,%zmm2,%zmm2
  4025fc:	45 31 ff             	xor    %r15d,%r15d
  4025ff:	c5 f9 6e ca          	vmovd  %edx,%xmm1
  402603:	31 db                	xor    %ebx,%ebx
  402605:	44 89 c6             	mov    %r8d,%esi
  402608:	49 63 f8             	movslq %r8d,%rdi
  40260b:	4c 8b b4 24 a0 0d 00 	mov    0xda0(%rsp),%r14
  402612:	00 
  402613:	c5 fe 6f 05 65 38 02 	vmovdqu 0x23865(%rip),%ymm0        # 425e80 <_IO_stdin_used+0xc0>
  40261a:	00 
  40261b:	83 e6 f8             	and    $0xfffffff8,%esi
  40261e:	4d 63 e9             	movslq %r9d,%r13
  402621:	48 63 ce             	movslq %esi,%rcx
  402624:	48 89 8c 24 30 04 00 	mov    %rcx,0x430(%rsp)
  40262b:	00 
  40262c:	48 8d 14 fd 00 00 00 	lea    0x0(,%rdi,8),%rdx
  402633:	00 
  402634:	48 89 94 24 28 04 00 	mov    %rdx,0x428(%rsp)
  40263b:	00 
  40263c:	c4 e2 7d 58 c9       	vpbroadcastd %xmm1,%ymm1
  402641:	45 85 c0             	test   %r8d,%r8d
  402644:	0f 8e 2f 01 00 00    	jle    402779 <main+0xe49>
  40264a:	41 83 f8 0c          	cmp    $0xc,%r8d
  40264e:	0f 8e a1 00 00 00    	jle    4026f5 <main+0xdc5>
  402654:	c5 fe 7f 8c 24 00 04 	vmovdqu %ymm1,0x400(%rsp)
  40265b:	00 00 
  40265d:	48 89 3c 24          	mov    %rdi,(%rsp)
  402661:	89 b4 24 f0 03 00 00 	mov    %esi,0x3f0(%rsp)
  402668:	44 89 84 24 f8 03 00 	mov    %r8d,0x3f8(%rsp)
  40266f:	00 
  402670:	44 89 8c 24 38 04 00 	mov    %r9d,0x438(%rsp)
  402677:	00 
  402678:	89 84 24 20 04 00 00 	mov    %eax,0x420(%rsp)
  40267f:	4d 63 ff             	movslq %r15d,%r15
  402682:	31 f6                	xor    %esi,%esi
  402684:	48 8b 94 24 28 04 00 	mov    0x428(%rsp),%rdx
  40268b:	00 
  40268c:	4b 8d 3c fe          	lea    (%r14,%r15,8),%rdi
  402690:	e8 6b 06 02 00       	callq  422d00 <__intel_mic_avx512f_memset>
  402695:	41 83 c4 01          	add    $0x1,%r12d
  402699:	4c 01 eb             	add    %r13,%rbx
  40269c:	44 03 bc 24 38 04 00 	add    0x438(%rsp),%r15d
  4026a3:	00 
  4026a4:	44 3b a4 24 20 04 00 	cmp    0x420(%rsp),%r12d
  4026ab:	00 
  4026ac:	0f 83 3c 18 00 00    	jae    403eee <main+0x25be>
  4026b2:	83 bc 24 f8 03 00 00 	cmpl   $0xc,0x3f8(%rsp)
  4026b9:	0c 
  4026ba:	7f c3                	jg     40267f <main+0xd4f>
  4026bc:	c5 fe 6f 05 bc 37 02 	vmovdqu 0x237bc(%rip),%ymm0        # 425e80 <_IO_stdin_used+0xc0>
  4026c3:	00 
  4026c4:	c5 fe 6f 8c 24 00 04 	vmovdqu 0x400(%rsp),%ymm1
  4026cb:	00 00 
  4026cd:	62 f1 ed 48 ef d2    	vpxorq %zmm2,%zmm2,%zmm2
  4026d3:	8b b4 24 f0 03 00 00 	mov    0x3f0(%rsp),%esi
  4026da:	44 8b 84 24 f8 03 00 	mov    0x3f8(%rsp),%r8d
  4026e1:	00 
  4026e2:	44 8b 8c 24 38 04 00 	mov    0x438(%rsp),%r9d
  4026e9:	00 
  4026ea:	8b 84 24 20 04 00 00 	mov    0x420(%rsp),%eax
  4026f1:	48 8b 3c 24          	mov    (%rsp),%rdi
  4026f5:	41 83 f8 08          	cmp    $0x8,%r8d
  4026f9:	0f 8c e8 17 00 00    	jl     403ee7 <main+0x25b7>
  4026ff:	89 f2                	mov    %esi,%edx
  402701:	45 31 d2             	xor    %r10d,%r10d
  402704:	49 8d 0c de          	lea    (%r14,%rbx,8),%rcx
  402708:	4c 8b 9c 24 30 04 00 	mov    0x430(%rsp),%r11
  40270f:	00 
  402710:	62 b1 fd 48 11 14 d1 	vmovupd %zmm2,(%rcx,%r10,8)
  402717:	49 83 c2 08          	add    $0x8,%r10
  40271b:	4d 39 da             	cmp    %r11,%r10
  40271e:	72 f0                	jb     402710 <main+0xde0>
  402720:	8d 4a 01             	lea    0x1(%rdx),%ecx
  402723:	44 39 c1             	cmp    %r8d,%ecx
  402726:	77 51                	ja     402779 <main+0xe49>
  402728:	45 89 c2             	mov    %r8d,%r10d
  40272b:	b9 ff 00 00 00       	mov    $0xff,%ecx
  402730:	c5 fd 6f e0          	vmovdqa %ymm0,%ymm4
  402734:	41 29 d2             	sub    %edx,%r10d
  402737:	48 63 d2             	movslq %edx,%rdx
  40273a:	c4 c1 79 6e da       	vmovd  %r10d,%xmm3
  40273f:	4c 8d 1c 13          	lea    (%rbx,%rdx,1),%r11
  402743:	48 f7 da             	neg    %rdx
  402746:	c5 f8 92 c9          	kmovw  %ecx,%k1
  40274a:	c4 e2 7d 58 db       	vpbroadcastd %xmm3,%ymm3
  40274f:	31 c9                	xor    %ecx,%ecx
  402751:	4f 8d 1c de          	lea    (%r14,%r11,8),%r11
  402755:	48 01 fa             	add    %rdi,%rdx
  402758:	45 31 d2             	xor    %r10d,%r10d
  40275b:	48 83 c1 08          	add    $0x8,%rcx
  40275f:	62 f1 65 49 66 d4    	vpcmpgtd %zmm4,%zmm3,%k2{%k1}
  402765:	62 91 fd 4a 11 14 1a 	vmovupd %zmm2,(%r10,%r11,1){%k2}
  40276c:	49 83 c2 40          	add    $0x40,%r10
  402770:	c5 dd fe e1          	vpaddd %ymm1,%ymm4,%ymm4
  402774:	48 39 d1             	cmp    %rdx,%rcx
  402777:	72 e2                	jb     40275b <main+0xe2b>
  402779:	41 83 c4 01          	add    $0x1,%r12d
  40277d:	4c 01 eb             	add    %r13,%rbx
  402780:	45 01 cf             	add    %r9d,%r15d
  402783:	41 39 c4             	cmp    %eax,%r12d
  402786:	0f 82 b5 fe ff ff    	jb     402641 <main+0xd11>
  40278c:	c5 fb 10 05 1c 37 02 	vmovsd 0x2371c(%rip),%xmm0        # 425eb0 <_IO_stdin_used+0xf0>
  402793:	00 
  402794:	31 c9                	xor    %ecx,%ecx
  402796:	8b 94 24 98 0d 00 00 	mov    0xd98(%rsp),%edx
  40279d:	31 db                	xor    %ebx,%ebx
  40279f:	4c 63 b4 24 90 0d 00 	movslq 0xd90(%rsp),%r14
  4027a6:	00 
  4027a7:	4c 8b bc 24 a0 0d 00 	mov    0xda0(%rsp),%r15
  4027ae:	00 
  4027af:	45 31 e4             	xor    %r12d,%r12d
  4027b2:	4d 85 f6             	test   %r14,%r14
  4027b5:	0f 8e e2 00 00 00    	jle    40289d <main+0xf6d>
  4027bb:	62 f3 fd 08 27 e0 00 	vgetmantsd $0x0,%xmm0,%xmm0,%xmm4
  4027c2:	89 94 24 f0 03 00 00 	mov    %edx,0x3f0(%rsp)
  4027c9:	c5 fb 10 0d f7 36 02 	vmovsd 0x236f7(%rip),%xmm1        # 425ec8 <_IO_stdin_used+0x108>
  4027d0:	00 
  4027d1:	89 0c 24             	mov    %ecx,(%rsp)
  4027d4:	62 f2 fd 08 43 d8    	vgetexpsd %xmm0,%xmm0,%xmm3
  4027da:	89 84 24 20 04 00 00 	mov    %eax,0x420(%rsp)
  4027e1:	48 63 db             	movslq %ebx,%rbx
  4027e4:	c5 fb 11 a4 24 10 04 	vmovsd %xmm4,0x410(%rsp)
  4027eb:	00 00 
  4027ed:	62 f2 dd 08 cb d4    	vrcp28sd %xmm4,%xmm4,%xmm2
  4027f3:	c5 fb 11 9c 24 f8 03 	vmovsd %xmm3,0x3f8(%rsp)
  4027fa:	00 00 
  4027fc:	4d 8d 2c df          	lea    (%r15,%rbx,8),%r13
  402800:	c5 fb 11 94 24 08 04 	vmovsd %xmm2,0x408(%rsp)
  402807:	00 00 
  402809:	62 f2 ed 18 bd cc    	vfnmadd231sd {rn-sae},%xmm4,%xmm2,%xmm1
  40280f:	62 f2 ed 18 99 ca    	vfmadd132sd {rn-sae},%xmm2,%xmm2,%xmm1
  402815:	c5 fb 11 8c 24 00 04 	vmovsd %xmm1,0x400(%rsp)
  40281c:	00 00 
  40281e:	e8 2d ed ff ff       	callq  401550 <rand@plt>
  402823:	c5 f9 57 c0          	vxorpd %xmm0,%xmm0,%xmm0
  402827:	c5 fb 2a c0          	vcvtsi2sd %eax,%xmm0,%xmm0
  40282b:	c5 fb 10 94 24 08 04 	vmovsd 0x408(%rsp),%xmm2
  402832:	00 00 
  402834:	c5 fb 10 9c 24 10 04 	vmovsd 0x410(%rsp),%xmm3
  40283b:	00 00 
  40283d:	62 f3 fd 08 27 e0 00 	vgetmantsd $0x0,%xmm0,%xmm0,%xmm4
  402844:	62 f2 fd 08 43 c8    	vgetexpsd %xmm0,%xmm0,%xmm1
  40284a:	c5 fb 10 ac 24 00 04 	vmovsd 0x400(%rsp),%xmm5
  402851:	00 00 
  402853:	62 f1 ef 18 59 f4    	vmulsd {rn-sae},%xmm4,%xmm2,%xmm6
  402859:	c5 f3 5c bc 24 f8 03 	vsubsd 0x3f8(%rsp),%xmm1,%xmm7
  402860:	00 00 
  402862:	62 f2 cd 18 bd e3    	vfnmadd231sd {rn-sae},%xmm3,%xmm6,%xmm4
  402868:	62 f2 dd 18 b9 f5    	vfmadd231sd {rn-sae},%xmm5,%xmm4,%xmm6
  40286e:	62 72 cd 08 2d c7    	vscalefsd %xmm7,%xmm6,%xmm8
  402874:	c4 01 7b 11 44 e5 00 	vmovsd %xmm8,0x0(%r13,%r12,8)
  40287b:	49 83 c4 01          	add    $0x1,%r12
  40287f:	4d 39 f4             	cmp    %r14,%r12
  402882:	72 9a                	jb     40281e <main+0xeee>
  402884:	c5 fb 10 05 24 36 02 	vmovsd 0x23624(%rip),%xmm0        # 425eb0 <_IO_stdin_used+0xf0>
  40288b:	00 
  40288c:	8b 94 24 f0 03 00 00 	mov    0x3f0(%rsp),%edx
  402893:	8b 84 24 20 04 00 00 	mov    0x420(%rsp),%eax
  40289a:	8b 0c 24             	mov    (%rsp),%ecx
  40289d:	83 c1 01             	add    $0x1,%ecx
  4028a0:	01 d3                	add    %edx,%ebx
  4028a2:	39 c1                	cmp    %eax,%ecx
  4028a4:	0f 82 05 ff ff ff    	jb     4027af <main+0xe7f>
  4028aa:	bf 50 5f 42 00       	mov    $0x425f50,%edi
  4028af:	48 c7 84 24 a8 0d 00 	movq   $0x62a240,0xda8(%rsp)
  4028b6:	00 40 a2 62 00 
  4028bb:	be 14 5f 42 00       	mov    $0x425f14,%esi
  4028c0:	e8 db ed ff ff       	callq  4016a0 <fopen@plt>
  4028c5:	49 89 c7             	mov    %rax,%r15
  4028c8:	48 8d bc 24 f0 03 00 	lea    0x3f0(%rsp),%rdi
  4028cf:	00 
  4028d0:	be e8 03 00 00       	mov    $0x3e8,%esi
  4028d5:	4c 89 fa             	mov    %r15,%rdx
  4028d8:	e8 53 ee ff ff       	callq  401730 <fgets@plt>
  4028dd:	48 8d bc 24 f0 03 00 	lea    0x3f0(%rsp),%rdi
  4028e4:	00 
  4028e5:	be e8 03 00 00       	mov    $0x3e8,%esi
  4028ea:	4c 89 fa             	mov    %r15,%rdx
  4028ed:	e8 3e ee ff ff       	callq  401730 <fgets@plt>
  4028f2:	4c 89 ff             	mov    %r15,%rdi
  4028f5:	be 18 5f 42 00       	mov    $0x425f18,%esi
  4028fa:	48 8d 94 24 b0 0d 00 	lea    0xdb0(%rsp),%rdx
  402901:	00 
  402902:	48 8d 8c 24 b4 0d 00 	lea    0xdb4(%rsp),%rcx
  402909:	00 
  40290a:	4c 8d 84 24 ac 0c 00 	lea    0xcac(%rsp),%r8
  402911:	00 
  402912:	31 c0                	xor    %eax,%eax
  402914:	e8 d7 ee ff ff       	callq  4017f0 <fscanf@plt>
  402919:	8b 84 24 b0 0d 00 00 	mov    0xdb0(%rsp),%eax
  402920:	89 84 24 b8 0d 00 00 	mov    %eax,0xdb8(%rsp)
  402927:	8b 94 24 b4 0d 00 00 	mov    0xdb4(%rsp),%edx
  40292e:	be 40 00 00 00       	mov    $0x40,%esi
  402933:	48 8d bc 24 c0 0d 00 	lea    0xdc0(%rsp),%rdi
  40293a:	00 
  40293b:	0f af d0             	imul   %eax,%edx
  40293e:	48 63 d2             	movslq %edx,%rdx
  402941:	48 c1 e2 03          	shl    $0x3,%rdx
  402945:	e8 76 ec ff ff       	callq  4015c0 <posix_memalign@plt>
  40294a:	8b 84 24 b4 0d 00 00 	mov    0xdb4(%rsp),%eax
  402951:	45 31 f6             	xor    %r14d,%r14d
  402954:	85 c0                	test   %eax,%eax
  402956:	0f 8e 9e 01 00 00    	jle    402afa <main+0x11ca>
  40295c:	8b 8c 24 b0 0d 00 00 	mov    0xdb0(%rsp),%ecx
  402963:	4c 89 3c 24          	mov    %r15,(%rsp)
  402967:	bb 08 00 00 00       	mov    $0x8,%ebx
  40296c:	62 f1 ed 48 ef d2    	vpxorq %zmm2,%zmm2,%zmm2
  402972:	41 89 c7             	mov    %eax,%r15d
  402975:	48 8b b4 24 c0 0d 00 	mov    0xdc0(%rsp),%rsi
  40297c:	00 
  40297d:	c5 f9 6e cb          	vmovd  %ebx,%xmm1
  402981:	31 db                	xor    %ebx,%ebx
  402983:	4c 63 d1             	movslq %ecx,%r10
  402986:	41 89 c8             	mov    %ecx,%r8d
  402989:	4c 63 ac 24 b8 0d 00 	movslq 0xdb8(%rsp),%r13
  402990:	00 
  402991:	41 83 e0 f8          	and    $0xfffffff8,%r8d
  402995:	4e 8d 1c d5 00 00 00 	lea    0x0(,%r10,8),%r11
  40299c:	00 
  40299d:	4c 89 9c 24 20 08 00 	mov    %r11,0x820(%rsp)
  4029a4:	00 
  4029a5:	c5 fe 6f 05 d3 34 02 	vmovdqu 0x234d3(%rip),%ymm0        # 425e80 <_IO_stdin_used+0xc0>
  4029ac:	00 
  4029ad:	49 89 f4             	mov    %rsi,%r12
  4029b0:	c4 e2 7d 58 c9       	vpbroadcastd %xmm1,%ymm1
  4029b5:	4d 63 c8             	movslq %r8d,%r9
  4029b8:	85 c9                	test   %ecx,%ecx
  4029ba:	0f 8e 22 01 00 00    	jle    402ae2 <main+0x11b2>
  4029c0:	83 f9 0c             	cmp    $0xc,%ecx
  4029c3:	0f 8e 9e 00 00 00    	jle    402a67 <main+0x1137>
  4029c9:	c5 fe 7f 8c 24 e0 07 	vmovdqu %ymm1,0x7e0(%rsp)
  4029d0:	00 00 
  4029d2:	4c 89 94 24 d8 07 00 	mov    %r10,0x7d8(%rsp)
  4029d9:	00 
  4029da:	4c 89 8c 24 00 08 00 	mov    %r9,0x800(%rsp)
  4029e1:	00 
  4029e2:	44 89 84 24 08 08 00 	mov    %r8d,0x808(%rsp)
  4029e9:	00 
  4029ea:	48 89 b4 24 10 08 00 	mov    %rsi,0x810(%rsp)
  4029f1:	00 
  4029f2:	89 8c 24 18 08 00 00 	mov    %ecx,0x818(%rsp)
  4029f9:	4c 89 e7             	mov    %r12,%rdi
  4029fc:	31 f6                	xor    %esi,%esi
  4029fe:	48 8b 94 24 20 08 00 	mov    0x820(%rsp),%rdx
  402a05:	00 
  402a06:	e8 f5 02 02 00       	callq  422d00 <__intel_mic_avx512f_memset>
  402a0b:	41 83 c6 01          	add    $0x1,%r14d
  402a0f:	4c 01 eb             	add    %r13,%rbx
  402a12:	4f 8d 24 ec          	lea    (%r12,%r13,8),%r12
  402a16:	45 39 fe             	cmp    %r15d,%r14d
  402a19:	0f 83 d7 00 00 00    	jae    402af6 <main+0x11c6>
  402a1f:	83 bc 24 18 08 00 00 	cmpl   $0xc,0x818(%rsp)
  402a26:	0c 
  402a27:	7f d0                	jg     4029f9 <main+0x10c9>
  402a29:	c5 fe 6f 05 4f 34 02 	vmovdqu 0x2344f(%rip),%ymm0        # 425e80 <_IO_stdin_used+0xc0>
  402a30:	00 
  402a31:	c5 fe 6f 8c 24 e0 07 	vmovdqu 0x7e0(%rsp),%ymm1
  402a38:	00 00 
  402a3a:	62 f1 ed 48 ef d2    	vpxorq %zmm2,%zmm2,%zmm2
  402a40:	4c 8b 94 24 d8 07 00 	mov    0x7d8(%rsp),%r10
  402a47:	00 
  402a48:	4c 8b 8c 24 00 08 00 	mov    0x800(%rsp),%r9
  402a4f:	00 
  402a50:	44 8b 84 24 08 08 00 	mov    0x808(%rsp),%r8d
  402a57:	00 
  402a58:	48 8b b4 24 10 08 00 	mov    0x810(%rsp),%rsi
  402a5f:	00 
  402a60:	8b 8c 24 18 08 00 00 	mov    0x818(%rsp),%ecx
  402a67:	83 f9 08             	cmp    $0x8,%ecx
  402a6a:	0f 8c 70 14 00 00    	jl     403ee0 <main+0x25b0>
  402a70:	44 89 c0             	mov    %r8d,%eax
  402a73:	45 31 db             	xor    %r11d,%r11d
  402a76:	48 8d 14 de          	lea    (%rsi,%rbx,8),%rdx
  402a7a:	62 b1 fd 48 11 14 da 	vmovupd %zmm2,(%rdx,%r11,8)
  402a81:	49 83 c3 08          	add    $0x8,%r11
  402a85:	4d 39 cb             	cmp    %r9,%r11
  402a88:	72 f0                	jb     402a7a <main+0x114a>
  402a8a:	8d 50 01             	lea    0x1(%rax),%edx
  402a8d:	39 ca                	cmp    %ecx,%edx
  402a8f:	77 51                	ja     402ae2 <main+0x11b2>
  402a91:	41 89 cb             	mov    %ecx,%r11d
  402a94:	ba ff 00 00 00       	mov    $0xff,%edx
  402a99:	c5 fd 6f e0          	vmovdqa %ymm0,%ymm4
  402a9d:	41 29 c3             	sub    %eax,%r11d
  402aa0:	48 63 c0             	movslq %eax,%rax
  402aa3:	c4 c1 79 6e db       	vmovd  %r11d,%xmm3
  402aa8:	4c 8d 1c 03          	lea    (%rbx,%rax,1),%r11
  402aac:	48 f7 d8             	neg    %rax
  402aaf:	c5 f8 92 ca          	kmovw  %edx,%k1
  402ab3:	c4 e2 7d 58 db       	vpbroadcastd %xmm3,%ymm3
  402ab8:	31 d2                	xor    %edx,%edx
  402aba:	4a 8d 3c de          	lea    (%rsi,%r11,8),%rdi
  402abe:	4c 01 d0             	add    %r10,%rax
  402ac1:	45 31 db             	xor    %r11d,%r11d
  402ac4:	48 83 c2 08          	add    $0x8,%rdx
  402ac8:	62 f1 65 49 66 d4    	vpcmpgtd %zmm4,%zmm3,%k2{%k1}
  402ace:	62 d1 fd 4a 11 14 3b 	vmovupd %zmm2,(%r11,%rdi,1){%k2}
  402ad5:	49 83 c3 40          	add    $0x40,%r11
  402ad9:	c5 dd fe e1          	vpaddd %ymm1,%ymm4,%ymm4
  402add:	48 39 c2             	cmp    %rax,%rdx
  402ae0:	72 e2                	jb     402ac4 <main+0x1194>
  402ae2:	41 83 c6 01          	add    $0x1,%r14d
  402ae6:	4c 01 eb             	add    %r13,%rbx
  402ae9:	4f 8d 24 ec          	lea    (%r12,%r13,8),%r12
  402aed:	45 39 fe             	cmp    %r15d,%r14d
  402af0:	0f 82 c2 fe ff ff    	jb     4029b8 <main+0x1088>
  402af6:	4c 8b 3c 24          	mov    (%rsp),%r15
  402afa:	31 db                	xor    %ebx,%ebx
  402afc:	83 bc 24 ac 0c 00 00 	cmpl   $0x0,0xcac(%rsp)
  402b03:	00 
  402b04:	7e 64                	jle    402b6a <main+0x123a>
  402b06:	4c 89 ff             	mov    %r15,%rdi
  402b09:	be 24 5f 42 00       	mov    $0x425f24,%esi
  402b0e:	48 8d 94 24 b0 0c 00 	lea    0xcb0(%rsp),%rdx
  402b15:	00 
  402b16:	48 8d 8c 24 b4 0c 00 	lea    0xcb4(%rsp),%rcx
  402b1d:	00 
  402b1e:	4c 8d 84 24 90 0c 00 	lea    0xc90(%rsp),%r8
  402b25:	00 
  402b26:	31 c0                	xor    %eax,%eax
  402b28:	e8 c3 ec ff ff       	callq  4017f0 <fscanf@plt>
  402b2d:	8b 84 24 b4 0c 00 00 	mov    0xcb4(%rsp),%eax
  402b34:	48 8b 8c 24 90 0c 00 	mov    0xc90(%rsp),%rcx
  402b3b:	00 
  402b3c:	83 c3 01             	add    $0x1,%ebx
  402b3f:	83 c0 ff             	add    $0xffffffff,%eax
  402b42:	48 8b b4 24 c0 0d 00 	mov    0xdc0(%rsp),%rsi
  402b49:	00 
  402b4a:	0f af 84 24 b8 0d 00 	imul   0xdb8(%rsp),%eax
  402b51:	00 
  402b52:	03 84 24 b0 0c 00 00 	add    0xcb0(%rsp),%eax
  402b59:	48 63 c0             	movslq %eax,%rax
  402b5c:	48 89 4c c6 f8       	mov    %rcx,-0x8(%rsi,%rax,8)
  402b61:	3b 9c 24 ac 0c 00 00 	cmp    0xcac(%rsp),%ebx
  402b68:	7c 9c                	jl     402b06 <main+0x11d6>
  402b6a:	4c 89 ff             	mov    %r15,%rdi
  402b6d:	e8 be ea ff ff       	callq  401630 <fclose@plt>
  402b72:	b8 28 00 00 00       	mov    $0x28,%eax
  402b77:	48 c7 84 24 e8 0c 00 	movq   $0x62a240,0xce8(%rsp)
  402b7e:	00 40 a2 62 00 
  402b83:	48 8d bc 24 00 0d 00 	lea    0xd00(%rsp),%rdi
  402b8a:	00 
  402b8b:	89 84 24 f8 0c 00 00 	mov    %eax,0xcf8(%rsp)
  402b92:	be 40 00 00 00       	mov    $0x40,%esi
  402b97:	89 84 24 f0 0c 00 00 	mov    %eax,0xcf0(%rsp)
  402b9e:	ba 40 0b 00 00       	mov    $0xb40,%edx
  402ba3:	c7 84 24 f4 0c 00 00 	movl   $0x9,0xcf4(%rsp)
  402baa:	09 00 00 00 
  402bae:	e8 0d ea ff ff       	callq  4015c0 <posix_memalign@plt>
  402bb3:	44 8b ac 24 f4 0c 00 	mov    0xcf4(%rsp),%r13d
  402bba:	00 
  402bbb:	45 31 ff             	xor    %r15d,%r15d
  402bbe:	45 85 ed             	test   %r13d,%r13d
  402bc1:	0f 8e 92 01 00 00    	jle    402d59 <main+0x1429>
  402bc7:	44 8b 94 24 f0 0c 00 	mov    0xcf0(%rsp),%r10d
  402bce:	00 
  402bcf:	4c 8b 8c 24 00 0d 00 	mov    0xd00(%rsp),%r9
  402bd6:	00 
  402bd7:	b8 08 00 00 00       	mov    $0x8,%eax
  402bdc:	62 f1 ed 48 ef d2    	vpxorq %zmm2,%zmm2,%zmm2
  402be2:	31 db                	xor    %ebx,%ebx
  402be4:	c5 f9 6e c8          	vmovd  %eax,%xmm1
  402be8:	49 63 ca             	movslq %r10d,%rcx
  402beb:	45 89 d0             	mov    %r10d,%r8d
  402bee:	4c 63 a4 24 f8 0c 00 	movslq 0xcf8(%rsp),%r12
  402bf5:	00 
  402bf6:	c5 fe 6f 05 82 32 02 	vmovdqu 0x23282(%rip),%ymm0        # 425e80 <_IO_stdin_used+0xc0>
  402bfd:	00 
  402bfe:	41 83 e0 f8          	and    $0xfffffff8,%r8d
  402c02:	4d 89 ce             	mov    %r9,%r14
  402c05:	48 8d 04 cd 00 00 00 	lea    0x0(,%rcx,8),%rax
  402c0c:	00 
  402c0d:	48 89 84 24 18 08 00 	mov    %rax,0x818(%rsp)
  402c14:	00 
  402c15:	c4 e2 7d 58 c9       	vpbroadcastd %xmm1,%ymm1
  402c1a:	49 63 f0             	movslq %r8d,%rsi
  402c1d:	45 85 d2             	test   %r10d,%r10d
  402c20:	0f 8e 1f 01 00 00    	jle    402d45 <main+0x1415>
  402c26:	41 83 fa 0c          	cmp    $0xc,%r10d
  402c2a:	0f 8e 98 00 00 00    	jle    402cc8 <main+0x1398>
  402c30:	c5 fe 7f 8c 24 e0 07 	vmovdqu %ymm1,0x7e0(%rsp)
  402c37:	00 00 
  402c39:	48 89 0c 24          	mov    %rcx,(%rsp)
  402c3d:	48 89 b4 24 d8 07 00 	mov    %rsi,0x7d8(%rsp)
  402c44:	00 
  402c45:	44 89 84 24 00 08 00 	mov    %r8d,0x800(%rsp)
  402c4c:	00 
  402c4d:	4c 89 8c 24 08 08 00 	mov    %r9,0x808(%rsp)
  402c54:	00 
  402c55:	44 89 94 24 10 08 00 	mov    %r10d,0x810(%rsp)
  402c5c:	00 
  402c5d:	4c 89 f7             	mov    %r14,%rdi
  402c60:	31 f6                	xor    %esi,%esi
  402c62:	48 8b 94 24 18 08 00 	mov    0x818(%rsp),%rdx
  402c69:	00 
  402c6a:	e8 91 00 02 00       	callq  422d00 <__intel_mic_avx512f_memset>
  402c6f:	41 83 c7 01          	add    $0x1,%r15d
  402c73:	4c 01 e3             	add    %r12,%rbx
  402c76:	4f 8d 34 e6          	lea    (%r14,%r12,8),%r14
  402c7a:	45 39 ef             	cmp    %r13d,%r15d
  402c7d:	0f 83 d6 00 00 00    	jae    402d59 <main+0x1429>
  402c83:	83 bc 24 10 08 00 00 	cmpl   $0xc,0x810(%rsp)
  402c8a:	0c 
  402c8b:	7f d0                	jg     402c5d <main+0x132d>
  402c8d:	c5 fe 6f 05 eb 31 02 	vmovdqu 0x231eb(%rip),%ymm0        # 425e80 <_IO_stdin_used+0xc0>
  402c94:	00 
  402c95:	c5 fe 6f 8c 24 e0 07 	vmovdqu 0x7e0(%rsp),%ymm1
  402c9c:	00 00 
  402c9e:	62 f1 ed 48 ef d2    	vpxorq %zmm2,%zmm2,%zmm2
  402ca4:	48 8b b4 24 d8 07 00 	mov    0x7d8(%rsp),%rsi
  402cab:	00 
  402cac:	44 8b 84 24 00 08 00 	mov    0x800(%rsp),%r8d
  402cb3:	00 
  402cb4:	4c 8b 8c 24 08 08 00 	mov    0x808(%rsp),%r9
  402cbb:	00 
  402cbc:	44 8b 94 24 10 08 00 	mov    0x810(%rsp),%r10d
  402cc3:	00 
  402cc4:	48 8b 0c 24          	mov    (%rsp),%rcx
  402cc8:	41 83 fa 08          	cmp    $0x8,%r10d
  402ccc:	0f 8c 07 12 00 00    	jl     403ed9 <main+0x25a9>
  402cd2:	44 89 c0             	mov    %r8d,%eax
  402cd5:	45 31 db             	xor    %r11d,%r11d
  402cd8:	49 8d 14 d9          	lea    (%r9,%rbx,8),%rdx
  402cdc:	62 b1 fd 48 11 14 da 	vmovupd %zmm2,(%rdx,%r11,8)
  402ce3:	49 83 c3 08          	add    $0x8,%r11
  402ce7:	49 39 f3             	cmp    %rsi,%r11
  402cea:	72 f0                	jb     402cdc <main+0x13ac>
  402cec:	8d 50 01             	lea    0x1(%rax),%edx
  402cef:	44 39 d2             	cmp    %r10d,%edx
  402cf2:	77 51                	ja     402d45 <main+0x1415>
  402cf4:	45 89 d3             	mov    %r10d,%r11d
  402cf7:	ba ff 00 00 00       	mov    $0xff,%edx
  402cfc:	c5 fd 6f e0          	vmovdqa %ymm0,%ymm4
  402d00:	41 29 c3             	sub    %eax,%r11d
  402d03:	48 63 c0             	movslq %eax,%rax
  402d06:	c4 c1 79 6e db       	vmovd  %r11d,%xmm3
  402d0b:	4c 8d 1c 03          	lea    (%rbx,%rax,1),%r11
  402d0f:	48 f7 d8             	neg    %rax
  402d12:	c5 f8 92 ca          	kmovw  %edx,%k1
  402d16:	c4 e2 7d 58 db       	vpbroadcastd %xmm3,%ymm3
  402d1b:	31 d2                	xor    %edx,%edx
  402d1d:	4b 8d 3c d9          	lea    (%r9,%r11,8),%rdi
  402d21:	48 01 c8             	add    %rcx,%rax
  402d24:	45 31 db             	xor    %r11d,%r11d
  402d27:	48 83 c2 08          	add    $0x8,%rdx
  402d2b:	62 f1 65 49 66 d4    	vpcmpgtd %zmm4,%zmm3,%k2{%k1}
  402d31:	62 d1 fd 4a 11 14 3b 	vmovupd %zmm2,(%r11,%rdi,1){%k2}
  402d38:	49 83 c3 40          	add    $0x40,%r11
  402d3c:	c5 dd fe e1          	vpaddd %ymm1,%ymm4,%ymm4
  402d40:	48 39 c2             	cmp    %rax,%rdx
  402d43:	72 e2                	jb     402d27 <main+0x13f7>
  402d45:	41 83 c7 01          	add    $0x1,%r15d
  402d49:	4c 01 e3             	add    %r12,%rbx
  402d4c:	4f 8d 34 e6          	lea    (%r14,%r12,8),%r14
  402d50:	45 39 ef             	cmp    %r13d,%r15d
  402d53:	0f 82 c4 fe ff ff    	jb     402c1d <main+0x12ed>
  402d59:	b8 28 00 00 00       	mov    $0x28,%eax
  402d5e:	48 c7 84 24 c8 0d 00 	movq   $0x62a240,0xdc8(%rsp)
  402d65:	00 40 a2 62 00 
  402d6a:	48 8d bc 24 e0 0d 00 	lea    0xde0(%rsp),%rdi
  402d71:	00 
  402d72:	89 84 24 d8 0d 00 00 	mov    %eax,0xdd8(%rsp)
  402d79:	be 40 00 00 00       	mov    $0x40,%esi
  402d7e:	89 84 24 d0 0d 00 00 	mov    %eax,0xdd0(%rsp)
  402d85:	ba 40 0b 00 00       	mov    $0xb40,%edx
  402d8a:	c7 84 24 d4 0d 00 00 	movl   $0x9,0xdd4(%rsp)
  402d91:	09 00 00 00 
  402d95:	e8 26 e8 ff ff       	callq  4015c0 <posix_memalign@plt>
  402d9a:	44 8b ac 24 d4 0d 00 	mov    0xdd4(%rsp),%r13d
  402da1:	00 
  402da2:	45 31 ff             	xor    %r15d,%r15d
  402da5:	45 85 ed             	test   %r13d,%r13d
  402da8:	0f 8e 92 01 00 00    	jle    402f40 <main+0x1610>
  402dae:	44 8b 94 24 d0 0d 00 	mov    0xdd0(%rsp),%r10d
  402db5:	00 
  402db6:	4c 8b 8c 24 e0 0d 00 	mov    0xde0(%rsp),%r9
  402dbd:	00 
  402dbe:	b8 08 00 00 00       	mov    $0x8,%eax
  402dc3:	62 f1 ed 48 ef d2    	vpxorq %zmm2,%zmm2,%zmm2
  402dc9:	31 db                	xor    %ebx,%ebx
  402dcb:	c5 f9 6e c8          	vmovd  %eax,%xmm1
  402dcf:	49 63 ca             	movslq %r10d,%rcx
  402dd2:	45 89 d0             	mov    %r10d,%r8d
  402dd5:	4c 63 a4 24 d8 0d 00 	movslq 0xdd8(%rsp),%r12
  402ddc:	00 
  402ddd:	c5 fe 6f 05 9b 30 02 	vmovdqu 0x2309b(%rip),%ymm0        # 425e80 <_IO_stdin_used+0xc0>
  402de4:	00 
  402de5:	41 83 e0 f8          	and    $0xfffffff8,%r8d
  402de9:	4d 89 ce             	mov    %r9,%r14
  402dec:	48 8d 04 cd 00 00 00 	lea    0x0(,%rcx,8),%rax
  402df3:	00 
  402df4:	48 89 84 24 18 08 00 	mov    %rax,0x818(%rsp)
  402dfb:	00 
  402dfc:	c4 e2 7d 58 c9       	vpbroadcastd %xmm1,%ymm1
  402e01:	49 63 f0             	movslq %r8d,%rsi
  402e04:	45 85 d2             	test   %r10d,%r10d
  402e07:	0f 8e 1f 01 00 00    	jle    402f2c <main+0x15fc>
  402e0d:	41 83 fa 0c          	cmp    $0xc,%r10d
  402e11:	0f 8e 98 00 00 00    	jle    402eaf <main+0x157f>
  402e17:	c5 fe 7f 8c 24 e0 07 	vmovdqu %ymm1,0x7e0(%rsp)
  402e1e:	00 00 
  402e20:	48 89 0c 24          	mov    %rcx,(%rsp)
  402e24:	48 89 b4 24 d8 07 00 	mov    %rsi,0x7d8(%rsp)
  402e2b:	00 
  402e2c:	44 89 84 24 00 08 00 	mov    %r8d,0x800(%rsp)
  402e33:	00 
  402e34:	4c 89 8c 24 08 08 00 	mov    %r9,0x808(%rsp)
  402e3b:	00 
  402e3c:	44 89 94 24 10 08 00 	mov    %r10d,0x810(%rsp)
  402e43:	00 
  402e44:	4c 89 f7             	mov    %r14,%rdi
  402e47:	31 f6                	xor    %esi,%esi
  402e49:	48 8b 94 24 18 08 00 	mov    0x818(%rsp),%rdx
  402e50:	00 
  402e51:	e8 aa fe 01 00       	callq  422d00 <__intel_mic_avx512f_memset>
  402e56:	41 83 c7 01          	add    $0x1,%r15d
  402e5a:	4c 01 e3             	add    %r12,%rbx
  402e5d:	4f 8d 34 e6          	lea    (%r14,%r12,8),%r14
  402e61:	45 39 ef             	cmp    %r13d,%r15d
  402e64:	0f 83 d6 00 00 00    	jae    402f40 <main+0x1610>
  402e6a:	83 bc 24 10 08 00 00 	cmpl   $0xc,0x810(%rsp)
  402e71:	0c 
  402e72:	7f d0                	jg     402e44 <main+0x1514>
  402e74:	c5 fe 6f 05 04 30 02 	vmovdqu 0x23004(%rip),%ymm0        # 425e80 <_IO_stdin_used+0xc0>
  402e7b:	00 
  402e7c:	c5 fe 6f 8c 24 e0 07 	vmovdqu 0x7e0(%rsp),%ymm1
  402e83:	00 00 
  402e85:	62 f1 ed 48 ef d2    	vpxorq %zmm2,%zmm2,%zmm2
  402e8b:	48 8b b4 24 d8 07 00 	mov    0x7d8(%rsp),%rsi
  402e92:	00 
  402e93:	44 8b 84 24 00 08 00 	mov    0x800(%rsp),%r8d
  402e9a:	00 
  402e9b:	4c 8b 8c 24 08 08 00 	mov    0x808(%rsp),%r9
  402ea2:	00 
  402ea3:	44 8b 94 24 10 08 00 	mov    0x810(%rsp),%r10d
  402eaa:	00 
  402eab:	48 8b 0c 24          	mov    (%rsp),%rcx
  402eaf:	41 83 fa 08          	cmp    $0x8,%r10d
  402eb3:	0f 8c 19 10 00 00    	jl     403ed2 <main+0x25a2>
  402eb9:	44 89 c0             	mov    %r8d,%eax
  402ebc:	45 31 db             	xor    %r11d,%r11d
  402ebf:	49 8d 14 d9          	lea    (%r9,%rbx,8),%rdx
  402ec3:	62 b1 fd 48 11 14 da 	vmovupd %zmm2,(%rdx,%r11,8)
  402eca:	49 83 c3 08          	add    $0x8,%r11
  402ece:	49 39 f3             	cmp    %rsi,%r11
  402ed1:	72 f0                	jb     402ec3 <main+0x1593>
  402ed3:	8d 50 01             	lea    0x1(%rax),%edx
  402ed6:	44 39 d2             	cmp    %r10d,%edx
  402ed9:	77 51                	ja     402f2c <main+0x15fc>
  402edb:	45 89 d3             	mov    %r10d,%r11d
  402ede:	ba ff 00 00 00       	mov    $0xff,%edx
  402ee3:	c5 fd 6f e0          	vmovdqa %ymm0,%ymm4
  402ee7:	41 29 c3             	sub    %eax,%r11d
  402eea:	48 63 c0             	movslq %eax,%rax
  402eed:	c4 c1 79 6e db       	vmovd  %r11d,%xmm3
  402ef2:	4c 8d 1c 03          	lea    (%rbx,%rax,1),%r11
  402ef6:	48 f7 d8             	neg    %rax
  402ef9:	c5 f8 92 ca          	kmovw  %edx,%k1
  402efd:	c4 e2 7d 58 db       	vpbroadcastd %xmm3,%ymm3
  402f02:	31 d2                	xor    %edx,%edx
  402f04:	4b 8d 3c d9          	lea    (%r9,%r11,8),%rdi
  402f08:	48 01 c8             	add    %rcx,%rax
  402f0b:	45 31 db             	xor    %r11d,%r11d
  402f0e:	48 83 c2 08          	add    $0x8,%rdx
  402f12:	62 f1 65 49 66 d4    	vpcmpgtd %zmm4,%zmm3,%k2{%k1}
  402f18:	62 d1 fd 4a 11 14 3b 	vmovupd %zmm2,(%r11,%rdi,1){%k2}
  402f1f:	49 83 c3 40          	add    $0x40,%r11
  402f23:	c5 dd fe e1          	vpaddd %ymm1,%ymm4,%ymm4
  402f27:	48 39 c2             	cmp    %rax,%rdx
  402f2a:	72 e2                	jb     402f0e <main+0x15de>
  402f2c:	41 83 c7 01          	add    $0x1,%r15d
  402f30:	4c 01 e3             	add    %r12,%rbx
  402f33:	4f 8d 34 e6          	lea    (%r14,%r12,8),%r14
  402f37:	45 39 ef             	cmp    %r13d,%r15d
  402f3a:	0f 82 c4 fe ff ff    	jb     402e04 <main+0x14d4>
  402f40:	8b 84 24 f4 0c 00 00 	mov    0xcf4(%rsp),%eax
  402f47:	89 04 24             	mov    %eax,(%rsp)
  402f4a:	44 8b bc 24 f0 0c 00 	mov    0xcf0(%rsp),%r15d
  402f51:	00 
  402f52:	31 db                	xor    %ebx,%ebx
  402f54:	44 8b b4 24 94 0d 00 	mov    0xd94(%rsp),%r14d
  402f5b:	00 
  402f5c:	85 c0                	test   %eax,%eax
  402f5e:	0f 8e c5 00 00 00    	jle    403029 <main+0x16f9>
  402f64:	45 31 e4             	xor    %r12d,%r12d
  402f67:	45 85 f6             	test   %r14d,%r14d
  402f6a:	0f 8e ad 00 00 00    	jle    40301d <main+0x16ed>
  402f70:	45 31 ed             	xor    %r13d,%r13d
  402f73:	45 85 ff             	test   %r15d,%r15d
  402f76:	0f 8e 94 00 00 00    	jle    403010 <main+0x16e0>
  402f7c:	48 8b 84 24 e8 0c 00 	mov    0xce8(%rsp),%rax
  402f83:	00 
  402f84:	48 8d bc 24 e8 0c 00 	lea    0xce8(%rsp),%rdi
  402f8b:	00 
  402f8c:	44 89 ee             	mov    %r13d,%esi
  402f8f:	89 da                	mov    %ebx,%edx
  402f91:	ff 10                	callq  *(%rax)
  402f93:	c5 fb 11 84 24 e0 07 	vmovsd %xmm0,0x7e0(%rsp)
  402f9a:	00 00 
  402f9c:	48 8b 84 24 88 0d 00 	mov    0xd88(%rsp),%rax
  402fa3:	00 
  402fa4:	48 8d bc 24 88 0d 00 	lea    0xd88(%rsp),%rdi
  402fab:	00 
  402fac:	44 89 ee             	mov    %r13d,%esi
  402faf:	44 89 e2             	mov    %r12d,%edx
  402fb2:	ff 10                	callq  *(%rax)
  402fb4:	c5 fb 11 84 24 d8 07 	vmovsd %xmm0,0x7d8(%rsp)
  402fbb:	00 00 
  402fbd:	48 8b 84 24 a8 0d 00 	mov    0xda8(%rsp),%rax
  402fc4:	00 
  402fc5:	48 8d bc 24 a8 0d 00 	lea    0xda8(%rsp),%rdi
  402fcc:	00 
  402fcd:	44 89 e6             	mov    %r12d,%esi
  402fd0:	89 da                	mov    %ebx,%edx
  402fd2:	ff 10                	callq  *(%rax)
  402fd4:	c5 f9 28 c8          	vmovapd %xmm0,%xmm1
  402fd8:	c5 fb 10 84 24 e0 07 	vmovsd 0x7e0(%rsp),%xmm0
  402fdf:	00 00 
  402fe1:	48 8b 84 24 e8 0c 00 	mov    0xce8(%rsp),%rax
  402fe8:	00 
  402fe9:	44 89 ee             	mov    %r13d,%esi
  402fec:	89 da                	mov    %ebx,%edx
  402fee:	48 8d bc 24 e8 0c 00 	lea    0xce8(%rsp),%rdi
  402ff5:	00 
  402ff6:	c4 e2 f1 b9 84 24 d8 	vfmadd231sd 0x7d8(%rsp),%xmm1,%xmm0
  402ffd:	07 00 00 
  403000:	ff 50 08             	callq  *0x8(%rax)
  403003:	41 83 c5 01          	add    $0x1,%r13d
  403007:	45 39 fd             	cmp    %r15d,%r13d
  40300a:	0f 8c 6c ff ff ff    	jl     402f7c <main+0x164c>
  403010:	41 83 c4 01          	add    $0x1,%r12d
  403014:	45 39 f4             	cmp    %r14d,%r12d
  403017:	0f 8c 53 ff ff ff    	jl     402f70 <main+0x1640>
  40301d:	83 c3 01             	add    $0x1,%ebx
  403020:	3b 1c 24             	cmp    (%rsp),%ebx
  403023:	0f 8c 3b ff ff ff    	jl     402f64 <main+0x1634>
  403029:	48 8b bc 24 a0 0d 00 	mov    0xda0(%rsp),%rdi
  403030:	00 
  403031:	48 8b b4 24 c0 0d 00 	mov    0xdc0(%rsp),%rsi
  403038:	00 
  403039:	48 8b 94 24 e0 0d 00 	mov    0xde0(%rsp),%rdx
  403040:	00 
  403041:	e8 9a 65 01 00       	callq  4195e0 <_Z27exp_seissol_star9x9_libxsmmPKdS0_Pd>
  403046:	48 8d bc 24 e8 0c 00 	lea    0xce8(%rsp),%rdi
  40304d:	00 
  40304e:	48 8d b4 24 c8 0d 00 	lea    0xdc8(%rsp),%rsi
  403055:	00 
  403056:	e8 85 a8 00 00       	callq  40d8e0 <_Z13assert_equalsRK6MatrixS1_>
  40305b:	bf 01 00 00 00       	mov    $0x1,%edi
  403060:	48 8d b4 24 e0 0b 00 	lea    0xbe0(%rsp),%rsi
  403067:	00 
  403068:	e8 83 e6 ff ff       	callq  4016f0 <clock_gettime@plt>
  40306d:	31 db                	xor    %ebx,%ebx
  40306f:	48 8b bc 24 a0 0d 00 	mov    0xda0(%rsp),%rdi
  403076:	00 
  403077:	48 8b b4 24 c0 0d 00 	mov    0xdc0(%rsp),%rsi
  40307e:	00 
  40307f:	48 8b 94 24 e0 0d 00 	mov    0xde0(%rsp),%rdx
  403086:	00 
  403087:	e8 54 65 01 00       	callq  4195e0 <_Z27exp_seissol_star9x9_libxsmmPKdS0_Pd>
  40308c:	83 c3 01             	add    $0x1,%ebx
  40308f:	81 fb b8 0b 00 00    	cmp    $0xbb8,%ebx
  403095:	7c d8                	jl     40306f <main+0x173f>
  403097:	bf 01 00 00 00       	mov    $0x1,%edi
  40309c:	48 8d b4 24 f0 0b 00 	lea    0xbf0(%rsp),%rsi
  4030a3:	00 
  4030a4:	e8 47 e6 ff ff       	callq  4016f0 <clock_gettime@plt>
  4030a9:	bf c0 aa 62 00       	mov    $0x62aac0,%edi
  4030ae:	be 88 5f 42 00       	mov    $0x425f88,%esi
  4030b3:	e8 68 e5 ff ff       	callq  401620 <_ZStlsISt11char_traitsIcEERSt13basic_ostreamIcT_ES5_PKc@plt>
  4030b8:	48 89 c7             	mov    %rax,%rdi
  4030bb:	48 8b 84 24 f0 0b 00 	mov    0xbf0(%rsp),%rax
  4030c2:	00 
  4030c3:	62 e1 ff 08 10 a4 24 	vmovsd 0xc50(%rsp),%xmm20
  4030ca:	50 0c 00 00 
  4030ce:	48 2b 84 24 e0 0b 00 	sub    0xbe0(%rsp),%rax
  4030d5:	00 
  4030d6:	48 69 d0 00 ca 9a 3b 	imul   $0x3b9aca00,%rax,%rdx
  4030dd:	62 e1 ff 08 10 ac 24 	vmovsd 0xc48(%rsp),%xmm21
  4030e4:	48 0c 00 00 
  4030e8:	62 e2 e5 00 43 1d ce 	vgetexpsd 0x22dce(%rip),%xmm19,%xmm19        # 425ec0 <_IO_stdin_used+0x100>
  4030ef:	2d 02 00 
  4030f2:	48 03 94 24 f8 0b 00 	add    0xbf8(%rsp),%rdx
  4030f9:	00 
  4030fa:	62 e1 ff 08 10 bc 24 	vmovsd 0xc58(%rsp),%xmm23
  403101:	58 0c 00 00 
  403105:	48 2b 94 24 e8 0b 00 	sub    0xbe8(%rsp),%rdx
  40310c:	00 
  40310d:	62 e1 ff 00 2a c2    	vcvtsi2sd %rdx,%xmm16,%xmm16
  403113:	62 e1 ff 00 59 0d 9b 	vmulsd 0x22d9b(%rip),%xmm16,%xmm17        # 425eb8 <_IO_stdin_used+0xf8>
  40311a:	2d 02 00 
  40311d:	62 a3 f5 00 27 f1 00 	vgetmantsd $0x0,%xmm17,%xmm17,%xmm22
  403124:	62 a2 f5 00 43 d1    	vgetexpsd %xmm17,%xmm17,%xmm18
  40312a:	62 21 df 10 59 c6    	vmulsd {rn-sae},%xmm22,%xmm20,%xmm24
  403130:	62 21 ef 00 5c cb    	vsubsd %xmm19,%xmm18,%xmm25
  403136:	62 a2 bd 10 bd f5    	vfnmadd231sd {rn-sae},%xmm21,%xmm24,%xmm22
  40313c:	62 22 cd 10 b9 c7    	vfmadd231sd {rn-sae},%xmm23,%xmm22,%xmm24
  403142:	62 92 bd 00 2d c1    	vscalefsd %xmm25,%xmm24,%xmm0
  403148:	e8 93 e6 ff ff       	callq  4017e0 <_ZNSolsEd@plt>
  40314d:	48 89 c7             	mov    %rax,%rdi
  403150:	be a0 15 40 00       	mov    $0x4015a0,%esi
  403155:	e8 f6 e4 ff ff       	callq  401650 <_ZNSolsEPFRSoS_E@plt>
  40315a:	48 8b bc 24 e0 0d 00 	mov    0xde0(%rsp),%rdi
  403161:	00 
  403162:	48 c7 84 24 c8 0d 00 	movq   $0x62a240,0xdc8(%rsp)
  403169:	00 40 a2 62 00 
  40316e:	e8 3d e5 ff ff       	callq  4016b0 <free@plt>
  403173:	48 8b bc 24 00 0d 00 	mov    0xd00(%rsp),%rdi
  40317a:	00 
  40317b:	48 c7 84 24 e8 0c 00 	movq   $0x62a240,0xce8(%rsp)
  403182:	00 40 a2 62 00 
  403187:	e8 24 e5 ff ff       	callq  4016b0 <free@plt>
  40318c:	48 8b bc 24 c0 0d 00 	mov    0xdc0(%rsp),%rdi
  403193:	00 
  403194:	48 c7 84 24 a8 0d 00 	movq   $0x62a240,0xda8(%rsp)
  40319b:	00 40 a2 62 00 
  4031a0:	e8 0b e5 ff ff       	callq  4016b0 <free@plt>
  4031a5:	48 8b bc 24 a0 0d 00 	mov    0xda0(%rsp),%rdi
  4031ac:	00 
  4031ad:	48 c7 84 24 88 0d 00 	movq   $0x62a240,0xd88(%rsp)
  4031b4:	00 40 a2 62 00 
  4031b9:	e8 f2 e4 ff ff       	callq  4016b0 <free@plt>
  4031be:	e8 5d 62 00 00       	callq  409420 <_Z35test_exp_seissol_star9x9_breuer_oldv>
  4031c3:	e8 58 8e 00 00       	callq  40c020 <_Z37test_exp_seissol_star9x9_breuer_fixedv>
  4031c8:	b8 28 00 00 00       	mov    $0x28,%eax
  4031cd:	48 c7 84 24 e8 0d 00 	movq   $0x62a240,0xde8(%rsp)
  4031d4:	00 40 a2 62 00 
  4031d9:	48 8d bc 24 00 0e 00 	lea    0xe00(%rsp),%rdi
  4031e0:	00 
  4031e1:	89 84 24 f8 0d 00 00 	mov    %eax,0xdf8(%rsp)
  4031e8:	be 40 00 00 00       	mov    $0x40,%esi
  4031ed:	89 84 24 f0 0d 00 00 	mov    %eax,0xdf0(%rsp)
  4031f4:	ba c0 21 00 00       	mov    $0x21c0,%edx
  4031f9:	c7 84 24 f4 0d 00 00 	movl   $0x1b,0xdf4(%rsp)
  403200:	1b 00 00 00 
  403204:	e8 b7 e3 ff ff       	callq  4015c0 <posix_memalign@plt>
  403209:	8b 84 24 f4 0d 00 00 	mov    0xdf4(%rsp),%eax
  403210:	45 31 e4             	xor    %r12d,%r12d
  403213:	85 c0                	test   %eax,%eax
  403215:	0f 8e c9 02 00 00    	jle    4034e4 <main+0x1bb4>
  40321b:	44 8b 84 24 f0 0d 00 	mov    0xdf0(%rsp),%r8d
  403222:	00 
  403223:	44 8b 8c 24 f8 0d 00 	mov    0xdf8(%rsp),%r9d
  40322a:	00 
  40322b:	ba 08 00 00 00       	mov    $0x8,%edx
  403230:	62 f1 ed 48 ef d2    	vpxorq %zmm2,%zmm2,%zmm2
  403236:	45 31 ff             	xor    %r15d,%r15d
  403239:	c5 f9 6e ca          	vmovd  %edx,%xmm1
  40323d:	31 db                	xor    %ebx,%ebx
  40323f:	44 89 c6             	mov    %r8d,%esi
  403242:	49 63 f8             	movslq %r8d,%rdi
  403245:	4c 8b b4 24 00 0e 00 	mov    0xe00(%rsp),%r14
  40324c:	00 
  40324d:	c5 fe 6f 05 2b 2c 02 	vmovdqu 0x22c2b(%rip),%ymm0        # 425e80 <_IO_stdin_used+0xc0>
  403254:	00 
  403255:	83 e6 f8             	and    $0xfffffff8,%esi
  403258:	4d 63 e9             	movslq %r9d,%r13
  40325b:	48 63 ce             	movslq %esi,%rcx
  40325e:	48 89 8c 24 18 08 00 	mov    %rcx,0x818(%rsp)
  403265:	00 
  403266:	48 8d 14 fd 00 00 00 	lea    0x0(,%rdi,8),%rdx
  40326d:	00 
  40326e:	48 89 94 24 10 08 00 	mov    %rdx,0x810(%rsp)
  403275:	00 
  403276:	c4 e2 7d 58 c9       	vpbroadcastd %xmm1,%ymm1
  40327b:	45 85 c0             	test   %r8d,%r8d
  40327e:	0f 8e 2f 01 00 00    	jle    4033b3 <main+0x1a83>
  403284:	41 83 f8 0c          	cmp    $0xc,%r8d
  403288:	0f 8e a1 00 00 00    	jle    40332f <main+0x19ff>
  40328e:	c5 fe 7f 8c 24 e0 07 	vmovdqu %ymm1,0x7e0(%rsp)
  403295:	00 00 
  403297:	48 89 3c 24          	mov    %rdi,(%rsp)
  40329b:	89 b4 24 d8 07 00 00 	mov    %esi,0x7d8(%rsp)
  4032a2:	44 89 84 24 00 08 00 	mov    %r8d,0x800(%rsp)
  4032a9:	00 
  4032aa:	44 89 8c 24 20 08 00 	mov    %r9d,0x820(%rsp)
  4032b1:	00 
  4032b2:	89 84 24 08 08 00 00 	mov    %eax,0x808(%rsp)
  4032b9:	4d 63 ff             	movslq %r15d,%r15
  4032bc:	31 f6                	xor    %esi,%esi
  4032be:	48 8b 94 24 10 08 00 	mov    0x810(%rsp),%rdx
  4032c5:	00 
  4032c6:	4b 8d 3c fe          	lea    (%r14,%r15,8),%rdi
  4032ca:	e8 31 fa 01 00       	callq  422d00 <__intel_mic_avx512f_memset>
  4032cf:	41 83 c4 01          	add    $0x1,%r12d
  4032d3:	4c 01 eb             	add    %r13,%rbx
  4032d6:	44 03 bc 24 20 08 00 	add    0x820(%rsp),%r15d
  4032dd:	00 
  4032de:	44 3b a4 24 08 08 00 	cmp    0x808(%rsp),%r12d
  4032e5:	00 
  4032e6:	0f 83 a0 0b 00 00    	jae    403e8c <main+0x255c>
  4032ec:	83 bc 24 00 08 00 00 	cmpl   $0xc,0x800(%rsp)
  4032f3:	0c 
  4032f4:	7f c3                	jg     4032b9 <main+0x1989>
  4032f6:	c5 fe 6f 05 82 2b 02 	vmovdqu 0x22b82(%rip),%ymm0        # 425e80 <_IO_stdin_used+0xc0>
  4032fd:	00 
  4032fe:	c5 fe 6f 8c 24 e0 07 	vmovdqu 0x7e0(%rsp),%ymm1
  403305:	00 00 
  403307:	62 f1 ed 48 ef d2    	vpxorq %zmm2,%zmm2,%zmm2
  40330d:	8b b4 24 d8 07 00 00 	mov    0x7d8(%rsp),%esi
  403314:	44 8b 84 24 00 08 00 	mov    0x800(%rsp),%r8d
  40331b:	00 
  40331c:	44 8b 8c 24 20 08 00 	mov    0x820(%rsp),%r9d
  403323:	00 
  403324:	8b 84 24 08 08 00 00 	mov    0x808(%rsp),%eax
  40332b:	48 8b 3c 24          	mov    (%rsp),%rdi
  40332f:	41 83 f8 08          	cmp    $0x8,%r8d
  403333:	0f 8c 4c 0b 00 00    	jl     403e85 <main+0x2555>
  403339:	89 f2                	mov    %esi,%edx
  40333b:	45 31 d2             	xor    %r10d,%r10d
  40333e:	49 8d 0c de          	lea    (%r14,%rbx,8),%rcx
  403342:	4c 8b 9c 24 18 08 00 	mov    0x818(%rsp),%r11
  403349:	00 
  40334a:	62 b1 fd 48 11 14 d1 	vmovupd %zmm2,(%rcx,%r10,8)
  403351:	49 83 c2 08          	add    $0x8,%r10
  403355:	4d 39 da             	cmp    %r11,%r10
  403358:	72 f0                	jb     40334a <main+0x1a1a>
  40335a:	8d 4a 01             	lea    0x1(%rdx),%ecx
  40335d:	44 39 c1             	cmp    %r8d,%ecx
  403360:	77 51                	ja     4033b3 <main+0x1a83>
  403362:	45 89 c2             	mov    %r8d,%r10d
  403365:	b9 ff 00 00 00       	mov    $0xff,%ecx
  40336a:	c5 fd 6f e0          	vmovdqa %ymm0,%ymm4
  40336e:	41 29 d2             	sub    %edx,%r10d
  403371:	48 63 d2             	movslq %edx,%rdx
  403374:	c4 c1 79 6e da       	vmovd  %r10d,%xmm3
  403379:	4c 8d 1c 13          	lea    (%rbx,%rdx,1),%r11
  40337d:	48 f7 da             	neg    %rdx
  403380:	c5 f8 92 c9          	kmovw  %ecx,%k1
  403384:	c4 e2 7d 58 db       	vpbroadcastd %xmm3,%ymm3
  403389:	31 c9                	xor    %ecx,%ecx
  40338b:	4f 8d 1c de          	lea    (%r14,%r11,8),%r11
  40338f:	48 01 fa             	add    %rdi,%rdx
  403392:	45 31 d2             	xor    %r10d,%r10d
  403395:	48 83 c1 08          	add    $0x8,%rcx
  403399:	62 f1 65 49 66 d4    	vpcmpgtd %zmm4,%zmm3,%k2{%k1}
  40339f:	62 91 fd 4a 11 14 1a 	vmovupd %zmm2,(%r10,%r11,1){%k2}
  4033a6:	49 83 c2 40          	add    $0x40,%r10
  4033aa:	c5 dd fe e1          	vpaddd %ymm1,%ymm4,%ymm4
  4033ae:	48 39 d1             	cmp    %rdx,%rcx
  4033b1:	72 e2                	jb     403395 <main+0x1a65>
  4033b3:	41 83 c4 01          	add    $0x1,%r12d
  4033b7:	4c 01 eb             	add    %r13,%rbx
  4033ba:	45 01 cf             	add    %r9d,%r15d
  4033bd:	41 39 c4             	cmp    %eax,%r12d
  4033c0:	0f 82 b5 fe ff ff    	jb     40327b <main+0x194b>
  4033c6:	c5 fb 10 05 e2 2a 02 	vmovsd 0x22ae2(%rip),%xmm0        # 425eb0 <_IO_stdin_used+0xf0>
  4033cd:	00 
  4033ce:	31 c9                	xor    %ecx,%ecx
  4033d0:	8b 94 24 f8 0d 00 00 	mov    0xdf8(%rsp),%edx
  4033d7:	31 db                	xor    %ebx,%ebx
  4033d9:	4c 63 b4 24 f0 0d 00 	movslq 0xdf0(%rsp),%r14
  4033e0:	00 
  4033e1:	4c 8b bc 24 00 0e 00 	mov    0xe00(%rsp),%r15
  4033e8:	00 
  4033e9:	45 31 e4             	xor    %r12d,%r12d
  4033ec:	4d 85 f6             	test   %r14,%r14
  4033ef:	0f 8e e2 00 00 00    	jle    4034d7 <main+0x1ba7>
  4033f5:	62 f3 fd 08 27 e0 00 	vgetmantsd $0x0,%xmm0,%xmm0,%xmm4
  4033fc:	89 94 24 d8 07 00 00 	mov    %edx,0x7d8(%rsp)
  403403:	c5 fb 10 0d bd 2a 02 	vmovsd 0x22abd(%rip),%xmm1        # 425ec8 <_IO_stdin_used+0x108>
  40340a:	00 
  40340b:	89 0c 24             	mov    %ecx,(%rsp)
  40340e:	62 f2 fd 08 43 d8    	vgetexpsd %xmm0,%xmm0,%xmm3
  403414:	89 84 24 08 08 00 00 	mov    %eax,0x808(%rsp)
  40341b:	48 63 db             	movslq %ebx,%rbx
  40341e:	c5 fb 11 a4 24 f8 07 	vmovsd %xmm4,0x7f8(%rsp)
  403425:	00 00 
  403427:	62 f2 dd 08 cb d4    	vrcp28sd %xmm4,%xmm4,%xmm2
  40342d:	c5 fb 11 9c 24 e0 07 	vmovsd %xmm3,0x7e0(%rsp)
  403434:	00 00 
  403436:	4d 8d 2c df          	lea    (%r15,%rbx,8),%r13
  40343a:	c5 fb 11 94 24 f0 07 	vmovsd %xmm2,0x7f0(%rsp)
  403441:	00 00 
  403443:	62 f2 ed 18 bd cc    	vfnmadd231sd {rn-sae},%xmm4,%xmm2,%xmm1
  403449:	62 f2 ed 18 99 ca    	vfmadd132sd {rn-sae},%xmm2,%xmm2,%xmm1
  40344f:	c5 fb 11 8c 24 e8 07 	vmovsd %xmm1,0x7e8(%rsp)
  403456:	00 00 
  403458:	e8 f3 e0 ff ff       	callq  401550 <rand@plt>
  40345d:	c5 f9 57 c0          	vxorpd %xmm0,%xmm0,%xmm0
  403461:	c5 fb 2a c0          	vcvtsi2sd %eax,%xmm0,%xmm0
  403465:	c5 fb 10 94 24 f0 07 	vmovsd 0x7f0(%rsp),%xmm2
  40346c:	00 00 
  40346e:	c5 fb 10 9c 24 f8 07 	vmovsd 0x7f8(%rsp),%xmm3
  403475:	00 00 
  403477:	62 f3 fd 08 27 e0 00 	vgetmantsd $0x0,%xmm0,%xmm0,%xmm4
  40347e:	62 f2 fd 08 43 c8    	vgetexpsd %xmm0,%xmm0,%xmm1
  403484:	c5 fb 10 ac 24 e8 07 	vmovsd 0x7e8(%rsp),%xmm5
  40348b:	00 00 
  40348d:	62 f1 ef 18 59 f4    	vmulsd {rn-sae},%xmm4,%xmm2,%xmm6
  403493:	c5 f3 5c bc 24 e0 07 	vsubsd 0x7e0(%rsp),%xmm1,%xmm7
  40349a:	00 00 
  40349c:	62 f2 cd 18 bd e3    	vfnmadd231sd {rn-sae},%xmm3,%xmm6,%xmm4
  4034a2:	62 f2 dd 18 b9 f5    	vfmadd231sd {rn-sae},%xmm5,%xmm4,%xmm6
  4034a8:	62 72 cd 08 2d c7    	vscalefsd %xmm7,%xmm6,%xmm8
  4034ae:	c4 01 7b 11 44 e5 00 	vmovsd %xmm8,0x0(%r13,%r12,8)
  4034b5:	49 83 c4 01          	add    $0x1,%r12
  4034b9:	4d 39 f4             	cmp    %r14,%r12
  4034bc:	72 9a                	jb     403458 <main+0x1b28>
  4034be:	c5 fb 10 05 ea 29 02 	vmovsd 0x229ea(%rip),%xmm0        # 425eb0 <_IO_stdin_used+0xf0>
  4034c5:	00 
  4034c6:	8b 94 24 d8 07 00 00 	mov    0x7d8(%rsp),%edx
  4034cd:	8b 84 24 08 08 00 00 	mov    0x808(%rsp),%eax
  4034d4:	8b 0c 24             	mov    (%rsp),%ecx
  4034d7:	83 c1 01             	add    $0x1,%ecx
  4034da:	01 d3                	add    %edx,%ebx
  4034dc:	39 c1                	cmp    %eax,%ecx
  4034de:	0f 82 05 ff ff ff    	jb     4033e9 <main+0x1ab9>
  4034e4:	bf a8 5f 42 00       	mov    $0x425fa8,%edi
  4034e9:	48 c7 84 24 08 0e 00 	movq   $0x62a240,0xe08(%rsp)
  4034f0:	00 40 a2 62 00 
  4034f5:	be 14 5f 42 00       	mov    $0x425f14,%esi
  4034fa:	e8 a1 e1 ff ff       	callq  4016a0 <fopen@plt>
  4034ff:	49 89 c7             	mov    %rax,%r15
  403502:	48 8d bc 24 d8 07 00 	lea    0x7d8(%rsp),%rdi
  403509:	00 
  40350a:	be e8 03 00 00       	mov    $0x3e8,%esi
  40350f:	4c 89 fa             	mov    %r15,%rdx
  403512:	e8 19 e2 ff ff       	callq  401730 <fgets@plt>
  403517:	48 8d bc 24 d8 07 00 	lea    0x7d8(%rsp),%rdi
  40351e:	00 
  40351f:	be e8 03 00 00       	mov    $0x3e8,%esi
  403524:	4c 89 fa             	mov    %r15,%rdx
  403527:	e8 04 e2 ff ff       	callq  401730 <fgets@plt>
  40352c:	4c 89 ff             	mov    %r15,%rdi
  40352f:	be 18 5f 42 00       	mov    $0x425f18,%esi
  403534:	48 8d 94 24 10 0e 00 	lea    0xe10(%rsp),%rdx
  40353b:	00 
  40353c:	48 8d 8c 24 14 0e 00 	lea    0xe14(%rsp),%rcx
  403543:	00 
  403544:	4c 8d 84 24 b8 0c 00 	lea    0xcb8(%rsp),%r8
  40354b:	00 
  40354c:	31 c0                	xor    %eax,%eax
  40354e:	e8 9d e2 ff ff       	callq  4017f0 <fscanf@plt>
  403553:	8b 84 24 10 0e 00 00 	mov    0xe10(%rsp),%eax
  40355a:	89 84 24 18 0e 00 00 	mov    %eax,0xe18(%rsp)
  403561:	8b 94 24 14 0e 00 00 	mov    0xe14(%rsp),%edx
  403568:	be 40 00 00 00       	mov    $0x40,%esi
  40356d:	48 8d bc 24 20 0e 00 	lea    0xe20(%rsp),%rdi
  403574:	00 
  403575:	0f af d0             	imul   %eax,%edx
  403578:	48 63 d2             	movslq %edx,%rdx
  40357b:	48 c1 e2 03          	shl    $0x3,%rdx
  40357f:	e8 3c e0 ff ff       	callq  4015c0 <posix_memalign@plt>
  403584:	8b 84 24 14 0e 00 00 	mov    0xe14(%rsp),%eax
  40358b:	45 31 f6             	xor    %r14d,%r14d
  40358e:	85 c0                	test   %eax,%eax
  403590:	0f 8e 9e 01 00 00    	jle    403734 <main+0x1e04>
  403596:	8b 8c 24 10 0e 00 00 	mov    0xe10(%rsp),%ecx
  40359d:	4c 89 3c 24          	mov    %r15,(%rsp)
  4035a1:	bb 08 00 00 00       	mov    $0x8,%ebx
  4035a6:	62 f1 ed 48 ef d2    	vpxorq %zmm2,%zmm2,%zmm2
  4035ac:	41 89 c7             	mov    %eax,%r15d
  4035af:	48 8b b4 24 20 0e 00 	mov    0xe20(%rsp),%rsi
  4035b6:	00 
  4035b7:	c5 f9 6e cb          	vmovd  %ebx,%xmm1
  4035bb:	31 db                	xor    %ebx,%ebx
  4035bd:	4c 63 d1             	movslq %ecx,%r10
  4035c0:	41 89 c8             	mov    %ecx,%r8d
  4035c3:	4c 63 ac 24 18 0e 00 	movslq 0xe18(%rsp),%r13
  4035ca:	00 
  4035cb:	41 83 e0 f8          	and    $0xfffffff8,%r8d
  4035cf:	4e 8d 1c d5 00 00 00 	lea    0x0(,%r10,8),%r11
  4035d6:	00 
  4035d7:	4c 89 9c 24 98 0c 00 	mov    %r11,0xc98(%rsp)
  4035de:	00 
  4035df:	c5 fe 6f 05 99 28 02 	vmovdqu 0x22899(%rip),%ymm0        # 425e80 <_IO_stdin_used+0xc0>
  4035e6:	00 
  4035e7:	49 89 f4             	mov    %rsi,%r12
  4035ea:	c4 e2 7d 58 c9       	vpbroadcastd %xmm1,%ymm1
  4035ef:	4d 63 c8             	movslq %r8d,%r9
  4035f2:	85 c9                	test   %ecx,%ecx
  4035f4:	0f 8e 22 01 00 00    	jle    40371c <main+0x1dec>
  4035fa:	83 f9 0c             	cmp    $0xc,%ecx
  4035fd:	0f 8e 9e 00 00 00    	jle    4036a1 <main+0x1d71>
  403603:	c5 fe 7f 8c 24 00 0c 	vmovdqu %ymm1,0xc00(%rsp)
  40360a:	00 00 
  40360c:	4c 89 94 24 60 0c 00 	mov    %r10,0xc60(%rsp)
  403613:	00 
  403614:	4c 89 8c 24 68 0c 00 	mov    %r9,0xc68(%rsp)
  40361b:	00 
  40361c:	44 89 84 24 70 0c 00 	mov    %r8d,0xc70(%rsp)
  403623:	00 
  403624:	48 89 b4 24 78 0c 00 	mov    %rsi,0xc78(%rsp)
  40362b:	00 
  40362c:	89 8c 24 80 0c 00 00 	mov    %ecx,0xc80(%rsp)
  403633:	4c 89 e7             	mov    %r12,%rdi
  403636:	31 f6                	xor    %esi,%esi
  403638:	48 8b 94 24 98 0c 00 	mov    0xc98(%rsp),%rdx
  40363f:	00 
  403640:	e8 bb f6 01 00       	callq  422d00 <__intel_mic_avx512f_memset>
  403645:	41 83 c6 01          	add    $0x1,%r14d
  403649:	4c 01 eb             	add    %r13,%rbx
  40364c:	4f 8d 24 ec          	lea    (%r12,%r13,8),%r12
  403650:	45 39 fe             	cmp    %r15d,%r14d
  403653:	0f 83 d7 00 00 00    	jae    403730 <main+0x1e00>
  403659:	83 bc 24 80 0c 00 00 	cmpl   $0xc,0xc80(%rsp)
  403660:	0c 
  403661:	7f d0                	jg     403633 <main+0x1d03>
  403663:	c5 fe 6f 05 15 28 02 	vmovdqu 0x22815(%rip),%ymm0        # 425e80 <_IO_stdin_used+0xc0>
  40366a:	00 
  40366b:	c5 fe 6f 8c 24 00 0c 	vmovdqu 0xc00(%rsp),%ymm1
  403672:	00 00 
  403674:	62 f1 ed 48 ef d2    	vpxorq %zmm2,%zmm2,%zmm2
  40367a:	4c 8b 94 24 60 0c 00 	mov    0xc60(%rsp),%r10
  403681:	00 
  403682:	4c 8b 8c 24 68 0c 00 	mov    0xc68(%rsp),%r9
  403689:	00 
  40368a:	44 8b 84 24 70 0c 00 	mov    0xc70(%rsp),%r8d
  403691:	00 
  403692:	48 8b b4 24 78 0c 00 	mov    0xc78(%rsp),%rsi
  403699:	00 
  40369a:	8b 8c 24 80 0c 00 00 	mov    0xc80(%rsp),%ecx
  4036a1:	83 f9 08             	cmp    $0x8,%ecx
  4036a4:	0f 8c d4 07 00 00    	jl     403e7e <main+0x254e>
  4036aa:	44 89 c0             	mov    %r8d,%eax
  4036ad:	45 31 db             	xor    %r11d,%r11d
  4036b0:	48 8d 14 de          	lea    (%rsi,%rbx,8),%rdx
  4036b4:	62 b1 fd 48 11 14 da 	vmovupd %zmm2,(%rdx,%r11,8)
  4036bb:	49 83 c3 08          	add    $0x8,%r11
  4036bf:	4d 39 cb             	cmp    %r9,%r11
  4036c2:	72 f0                	jb     4036b4 <main+0x1d84>
  4036c4:	8d 50 01             	lea    0x1(%rax),%edx
  4036c7:	39 ca                	cmp    %ecx,%edx
  4036c9:	77 51                	ja     40371c <main+0x1dec>
  4036cb:	41 89 cb             	mov    %ecx,%r11d
  4036ce:	ba ff 00 00 00       	mov    $0xff,%edx
  4036d3:	c5 fd 6f e0          	vmovdqa %ymm0,%ymm4
  4036d7:	41 29 c3             	sub    %eax,%r11d
  4036da:	48 63 c0             	movslq %eax,%rax
  4036dd:	c4 c1 79 6e db       	vmovd  %r11d,%xmm3
  4036e2:	4c 8d 1c 03          	lea    (%rbx,%rax,1),%r11
  4036e6:	48 f7 d8             	neg    %rax
  4036e9:	c5 f8 92 ca          	kmovw  %edx,%k1
  4036ed:	c4 e2 7d 58 db       	vpbroadcastd %xmm3,%ymm3
  4036f2:	31 d2                	xor    %edx,%edx
  4036f4:	4a 8d 3c de          	lea    (%rsi,%r11,8),%rdi
  4036f8:	4c 01 d0             	add    %r10,%rax
  4036fb:	45 31 db             	xor    %r11d,%r11d
  4036fe:	48 83 c2 08          	add    $0x8,%rdx
  403702:	62 f1 65 49 66 d4    	vpcmpgtd %zmm4,%zmm3,%k2{%k1}
  403708:	62 d1 fd 4a 11 14 3b 	vmovupd %zmm2,(%r11,%rdi,1){%k2}
  40370f:	49 83 c3 40          	add    $0x40,%r11
  403713:	c5 dd fe e1          	vpaddd %ymm1,%ymm4,%ymm4
  403717:	48 39 c2             	cmp    %rax,%rdx
  40371a:	72 e2                	jb     4036fe <main+0x1dce>
  40371c:	41 83 c6 01          	add    $0x1,%r14d
  403720:	4c 01 eb             	add    %r13,%rbx
  403723:	4f 8d 24 ec          	lea    (%r12,%r13,8),%r12
  403727:	45 39 fe             	cmp    %r15d,%r14d
  40372a:	0f 82 c2 fe ff ff    	jb     4035f2 <main+0x1cc2>
  403730:	4c 8b 3c 24          	mov    (%rsp),%r15
  403734:	31 db                	xor    %ebx,%ebx
  403736:	83 bc 24 b8 0c 00 00 	cmpl   $0x0,0xcb8(%rsp)
  40373d:	00 
  40373e:	7e 64                	jle    4037a4 <main+0x1e74>
  403740:	4c 89 ff             	mov    %r15,%rdi
  403743:	be 24 5f 42 00       	mov    $0x425f24,%esi
  403748:	48 8d 94 24 bc 0c 00 	lea    0xcbc(%rsp),%rdx
  40374f:	00 
  403750:	48 8d 8c 24 c0 0c 00 	lea    0xcc0(%rsp),%rcx
  403757:	00 
  403758:	4c 8d 84 24 80 0c 00 	lea    0xc80(%rsp),%r8
  40375f:	00 
  403760:	31 c0                	xor    %eax,%eax
  403762:	e8 89 e0 ff ff       	callq  4017f0 <fscanf@plt>
  403767:	8b 84 24 c0 0c 00 00 	mov    0xcc0(%rsp),%eax
  40376e:	48 8b 8c 24 80 0c 00 	mov    0xc80(%rsp),%rcx
  403775:	00 
  403776:	83 c3 01             	add    $0x1,%ebx
  403779:	83 c0 ff             	add    $0xffffffff,%eax
  40377c:	48 8b b4 24 20 0e 00 	mov    0xe20(%rsp),%rsi
  403783:	00 
  403784:	0f af 84 24 18 0e 00 	imul   0xe18(%rsp),%eax
  40378b:	00 
  40378c:	03 84 24 bc 0c 00 00 	add    0xcbc(%rsp),%eax
  403793:	48 63 c0             	movslq %eax,%rax
  403796:	48 89 4c c6 f8       	mov    %rcx,-0x8(%rsi,%rax,8)
  40379b:	3b 9c 24 b8 0c 00 00 	cmp    0xcb8(%rsp),%ebx
  4037a2:	7c 9c                	jl     403740 <main+0x1e10>
  4037a4:	4c 89 ff             	mov    %r15,%rdi
  4037a7:	e8 84 de ff ff       	callq  401630 <fclose@plt>
  4037ac:	b8 28 00 00 00       	mov    $0x28,%eax
  4037b1:	48 c7 84 24 08 0d 00 	movq   $0x62a240,0xd08(%rsp)
  4037b8:	00 40 a2 62 00 
  4037bd:	48 8d bc 24 20 0d 00 	lea    0xd20(%rsp),%rdi
  4037c4:	00 
  4037c5:	89 84 24 18 0d 00 00 	mov    %eax,0xd18(%rsp)
  4037cc:	be 40 00 00 00       	mov    $0x40,%esi
  4037d1:	89 84 24 10 0d 00 00 	mov    %eax,0xd10(%rsp)
  4037d8:	ba c0 21 00 00       	mov    $0x21c0,%edx
  4037dd:	c7 84 24 14 0d 00 00 	movl   $0x1b,0xd14(%rsp)
  4037e4:	1b 00 00 00 
  4037e8:	e8 d3 dd ff ff       	callq  4015c0 <posix_memalign@plt>
  4037ed:	44 8b ac 24 14 0d 00 	mov    0xd14(%rsp),%r13d
  4037f4:	00 
  4037f5:	45 31 ff             	xor    %r15d,%r15d
  4037f8:	45 85 ed             	test   %r13d,%r13d
  4037fb:	0f 8e 92 01 00 00    	jle    403993 <main+0x2063>
  403801:	44 8b 94 24 10 0d 00 	mov    0xd10(%rsp),%r10d
  403808:	00 
  403809:	4c 8b 8c 24 20 0d 00 	mov    0xd20(%rsp),%r9
  403810:	00 
  403811:	b8 08 00 00 00       	mov    $0x8,%eax
  403816:	62 f1 ed 48 ef d2    	vpxorq %zmm2,%zmm2,%zmm2
  40381c:	31 db                	xor    %ebx,%ebx
  40381e:	c5 f9 6e c8          	vmovd  %eax,%xmm1
  403822:	49 63 ca             	movslq %r10d,%rcx
  403825:	45 89 d0             	mov    %r10d,%r8d
  403828:	4c 63 a4 24 18 0d 00 	movslq 0xd18(%rsp),%r12
  40382f:	00 
  403830:	c5 fe 6f 05 48 26 02 	vmovdqu 0x22648(%rip),%ymm0        # 425e80 <_IO_stdin_used+0xc0>
  403837:	00 
  403838:	41 83 e0 f8          	and    $0xfffffff8,%r8d
  40383c:	4d 89 ce             	mov    %r9,%r14
  40383f:	48 8d 04 cd 00 00 00 	lea    0x0(,%rcx,8),%rax
  403846:	00 
  403847:	48 89 84 24 98 0c 00 	mov    %rax,0xc98(%rsp)
  40384e:	00 
  40384f:	c4 e2 7d 58 c9       	vpbroadcastd %xmm1,%ymm1
  403854:	49 63 f0             	movslq %r8d,%rsi
  403857:	45 85 d2             	test   %r10d,%r10d
  40385a:	0f 8e 1f 01 00 00    	jle    40397f <main+0x204f>
  403860:	41 83 fa 0c          	cmp    $0xc,%r10d
  403864:	0f 8e 98 00 00 00    	jle    403902 <main+0x1fd2>
  40386a:	c5 fe 7f 8c 24 00 0c 	vmovdqu %ymm1,0xc00(%rsp)
  403871:	00 00 
  403873:	48 89 0c 24          	mov    %rcx,(%rsp)
  403877:	48 89 b4 24 60 0c 00 	mov    %rsi,0xc60(%rsp)
  40387e:	00 
  40387f:	44 89 84 24 68 0c 00 	mov    %r8d,0xc68(%rsp)
  403886:	00 
  403887:	4c 89 8c 24 70 0c 00 	mov    %r9,0xc70(%rsp)
  40388e:	00 
  40388f:	44 89 94 24 78 0c 00 	mov    %r10d,0xc78(%rsp)
  403896:	00 
  403897:	4c 89 f7             	mov    %r14,%rdi
  40389a:	31 f6                	xor    %esi,%esi
  40389c:	48 8b 94 24 98 0c 00 	mov    0xc98(%rsp),%rdx
  4038a3:	00 
  4038a4:	e8 57 f4 01 00       	callq  422d00 <__intel_mic_avx512f_memset>
  4038a9:	41 83 c7 01          	add    $0x1,%r15d
  4038ad:	4c 01 e3             	add    %r12,%rbx
  4038b0:	4f 8d 34 e6          	lea    (%r14,%r12,8),%r14
  4038b4:	45 39 ef             	cmp    %r13d,%r15d
  4038b7:	0f 83 d6 00 00 00    	jae    403993 <main+0x2063>
  4038bd:	83 bc 24 78 0c 00 00 	cmpl   $0xc,0xc78(%rsp)
  4038c4:	0c 
  4038c5:	7f d0                	jg     403897 <main+0x1f67>
  4038c7:	c5 fe 6f 05 b1 25 02 	vmovdqu 0x225b1(%rip),%ymm0        # 425e80 <_IO_stdin_used+0xc0>
  4038ce:	00 
  4038cf:	c5 fe 6f 8c 24 00 0c 	vmovdqu 0xc00(%rsp),%ymm1
  4038d6:	00 00 
  4038d8:	62 f1 ed 48 ef d2    	vpxorq %zmm2,%zmm2,%zmm2
  4038de:	48 8b 0c 24          	mov    (%rsp),%rcx
  4038e2:	48 8b b4 24 60 0c 00 	mov    0xc60(%rsp),%rsi
  4038e9:	00 
  4038ea:	44 8b 84 24 68 0c 00 	mov    0xc68(%rsp),%r8d
  4038f1:	00 
  4038f2:	4c 8b 8c 24 70 0c 00 	mov    0xc70(%rsp),%r9
  4038f9:	00 
  4038fa:	44 8b 94 24 78 0c 00 	mov    0xc78(%rsp),%r10d
  403901:	00 
  403902:	41 83 fa 08          	cmp    $0x8,%r10d
  403906:	0f 8c 6b 05 00 00    	jl     403e77 <main+0x2547>
  40390c:	44 89 c0             	mov    %r8d,%eax
  40390f:	45 31 db             	xor    %r11d,%r11d
  403912:	49 8d 14 d9          	lea    (%r9,%rbx,8),%rdx
  403916:	62 b1 fd 48 11 14 da 	vmovupd %zmm2,(%rdx,%r11,8)
  40391d:	49 83 c3 08          	add    $0x8,%r11
  403921:	49 39 f3             	cmp    %rsi,%r11
  403924:	72 f0                	jb     403916 <main+0x1fe6>
  403926:	8d 50 01             	lea    0x1(%rax),%edx
  403929:	44 39 d2             	cmp    %r10d,%edx
  40392c:	77 51                	ja     40397f <main+0x204f>
  40392e:	45 89 d3             	mov    %r10d,%r11d
  403931:	ba ff 00 00 00       	mov    $0xff,%edx
  403936:	c5 fd 6f e0          	vmovdqa %ymm0,%ymm4
  40393a:	41 29 c3             	sub    %eax,%r11d
  40393d:	48 63 c0             	movslq %eax,%rax
  403940:	c4 c1 79 6e db       	vmovd  %r11d,%xmm3
  403945:	4c 8d 1c 03          	lea    (%rbx,%rax,1),%r11
  403949:	48 f7 d8             	neg    %rax
  40394c:	c5 f8 92 ca          	kmovw  %edx,%k1
  403950:	c4 e2 7d 58 db       	vpbroadcastd %xmm3,%ymm3
  403955:	31 d2                	xor    %edx,%edx
  403957:	4b 8d 3c d9          	lea    (%r9,%r11,8),%rdi
  40395b:	48 01 c8             	add    %rcx,%rax
  40395e:	45 31 db             	xor    %r11d,%r11d
  403961:	48 83 c2 08          	add    $0x8,%rdx
  403965:	62 f1 65 49 66 d4    	vpcmpgtd %zmm4,%zmm3,%k2{%k1}
  40396b:	62 d1 fd 4a 11 14 3b 	vmovupd %zmm2,(%r11,%rdi,1){%k2}
  403972:	49 83 c3 40          	add    $0x40,%r11
  403976:	c5 dd fe e1          	vpaddd %ymm1,%ymm4,%ymm4
  40397a:	48 39 c2             	cmp    %rax,%rdx
  40397d:	72 e2                	jb     403961 <main+0x2031>
  40397f:	41 83 c7 01          	add    $0x1,%r15d
  403983:	4c 01 e3             	add    %r12,%rbx
  403986:	4f 8d 34 e6          	lea    (%r14,%r12,8),%r14
  40398a:	45 39 ef             	cmp    %r13d,%r15d
  40398d:	0f 82 c4 fe ff ff    	jb     403857 <main+0x1f27>
  403993:	b8 28 00 00 00       	mov    $0x28,%eax
  403998:	48 c7 84 24 28 0e 00 	movq   $0x62a240,0xe28(%rsp)
  40399f:	00 40 a2 62 00 
  4039a4:	48 8d bc 24 40 0e 00 	lea    0xe40(%rsp),%rdi
  4039ab:	00 
  4039ac:	89 84 24 38 0e 00 00 	mov    %eax,0xe38(%rsp)
  4039b3:	be 40 00 00 00       	mov    $0x40,%esi
  4039b8:	89 84 24 30 0e 00 00 	mov    %eax,0xe30(%rsp)
  4039bf:	ba c0 21 00 00       	mov    $0x21c0,%edx
  4039c4:	c7 84 24 34 0e 00 00 	movl   $0x1b,0xe34(%rsp)
  4039cb:	1b 00 00 00 
  4039cf:	e8 ec db ff ff       	callq  4015c0 <posix_memalign@plt>
  4039d4:	44 8b ac 24 34 0e 00 	mov    0xe34(%rsp),%r13d
  4039db:	00 
  4039dc:	45 31 ff             	xor    %r15d,%r15d
  4039df:	45 85 ed             	test   %r13d,%r13d
  4039e2:	0f 8e 8e 01 00 00    	jle    403b76 <main+0x2246>
  4039e8:	44 8b 8c 24 30 0e 00 	mov    0xe30(%rsp),%r9d
  4039ef:	00 
  4039f0:	4c 8b 84 24 40 0e 00 	mov    0xe40(%rsp),%r8
  4039f7:	00 
  4039f8:	b8 08 00 00 00       	mov    $0x8,%eax
  4039fd:	62 f1 ed 48 ef d2    	vpxorq %zmm2,%zmm2,%zmm2
  403a03:	31 db                	xor    %ebx,%ebx
  403a05:	c5 f9 6e c8          	vmovd  %eax,%xmm1
  403a09:	49 63 c9             	movslq %r9d,%rcx
  403a0c:	44 89 ce             	mov    %r9d,%esi
  403a0f:	4c 63 a4 24 38 0e 00 	movslq 0xe38(%rsp),%r12
  403a16:	00 
  403a17:	c5 fe 6f 05 61 24 02 	vmovdqu 0x22461(%rip),%ymm0        # 425e80 <_IO_stdin_used+0xc0>
  403a1e:	00 
  403a1f:	83 e6 f8             	and    $0xfffffff8,%esi
  403a22:	4d 89 c6             	mov    %r8,%r14
  403a25:	48 8d 04 cd 00 00 00 	lea    0x0(,%rcx,8),%rax
  403a2c:	00 
  403a2d:	48 89 84 24 98 0c 00 	mov    %rax,0xc98(%rsp)
  403a34:	00 
  403a35:	4c 63 d6             	movslq %esi,%r10
  403a38:	c4 e2 7d 58 c9       	vpbroadcastd %xmm1,%ymm1
  403a3d:	45 85 c9             	test   %r9d,%r9d
  403a40:	0f 8e 1c 01 00 00    	jle    403b62 <main+0x2232>
  403a46:	41 83 f9 0c          	cmp    $0xc,%r9d
  403a4a:	0f 8e 96 00 00 00    	jle    403ae6 <main+0x21b6>
  403a50:	c5 fe 7f 8c 24 00 0c 	vmovdqu %ymm1,0xc00(%rsp)
  403a57:	00 00 
  403a59:	48 89 0c 24          	mov    %rcx,(%rsp)
  403a5d:	4c 89 94 24 60 0c 00 	mov    %r10,0xc60(%rsp)
  403a64:	00 
  403a65:	89 b4 24 68 0c 00 00 	mov    %esi,0xc68(%rsp)
  403a6c:	4c 89 84 24 70 0c 00 	mov    %r8,0xc70(%rsp)
  403a73:	00 
  403a74:	44 89 8c 24 78 0c 00 	mov    %r9d,0xc78(%rsp)
  403a7b:	00 
  403a7c:	4c 89 f7             	mov    %r14,%rdi
  403a7f:	31 f6                	xor    %esi,%esi
  403a81:	48 8b 94 24 98 0c 00 	mov    0xc98(%rsp),%rdx
  403a88:	00 
  403a89:	e8 72 f2 01 00       	callq  422d00 <__intel_mic_avx512f_memset>
  403a8e:	41 83 c7 01          	add    $0x1,%r15d
  403a92:	4c 01 e3             	add    %r12,%rbx
  403a95:	4f 8d 34 e6          	lea    (%r14,%r12,8),%r14
  403a99:	45 39 ef             	cmp    %r13d,%r15d
  403a9c:	0f 83 d4 00 00 00    	jae    403b76 <main+0x2246>
  403aa2:	83 bc 24 78 0c 00 00 	cmpl   $0xc,0xc78(%rsp)
  403aa9:	0c 
  403aaa:	7f d0                	jg     403a7c <main+0x214c>
  403aac:	c5 fe 6f 05 cc 23 02 	vmovdqu 0x223cc(%rip),%ymm0        # 425e80 <_IO_stdin_used+0xc0>
  403ab3:	00 
  403ab4:	c5 fe 6f 8c 24 00 0c 	vmovdqu 0xc00(%rsp),%ymm1
  403abb:	00 00 
  403abd:	62 f1 ed 48 ef d2    	vpxorq %zmm2,%zmm2,%zmm2
  403ac3:	48 8b 0c 24          	mov    (%rsp),%rcx
  403ac7:	4c 8b 94 24 60 0c 00 	mov    0xc60(%rsp),%r10
  403ace:	00 
  403acf:	8b b4 24 68 0c 00 00 	mov    0xc68(%rsp),%esi
  403ad6:	4c 8b 84 24 70 0c 00 	mov    0xc70(%rsp),%r8
  403add:	00 
  403ade:	44 8b 8c 24 78 0c 00 	mov    0xc78(%rsp),%r9d
  403ae5:	00 
  403ae6:	41 83 f9 08          	cmp    $0x8,%r9d
  403aea:	0f 8c 80 03 00 00    	jl     403e70 <main+0x2540>
  403af0:	89 f0                	mov    %esi,%eax
  403af2:	45 31 db             	xor    %r11d,%r11d
  403af5:	49 8d 14 d8          	lea    (%r8,%rbx,8),%rdx
  403af9:	62 b1 fd 48 11 14 da 	vmovupd %zmm2,(%rdx,%r11,8)
  403b00:	49 83 c3 08          	add    $0x8,%r11
  403b04:	4d 39 d3             	cmp    %r10,%r11
  403b07:	72 f0                	jb     403af9 <main+0x21c9>
  403b09:	8d 50 01             	lea    0x1(%rax),%edx
  403b0c:	44 39 ca             	cmp    %r9d,%edx
  403b0f:	77 51                	ja     403b62 <main+0x2232>
  403b11:	45 89 cb             	mov    %r9d,%r11d
  403b14:	ba ff 00 00 00       	mov    $0xff,%edx
  403b19:	c5 fd 6f e0          	vmovdqa %ymm0,%ymm4
  403b1d:	41 29 c3             	sub    %eax,%r11d
  403b20:	48 63 c0             	movslq %eax,%rax
  403b23:	c4 c1 79 6e db       	vmovd  %r11d,%xmm3
  403b28:	4c 8d 1c 03          	lea    (%rbx,%rax,1),%r11
  403b2c:	48 f7 d8             	neg    %rax
  403b2f:	c5 f8 92 ca          	kmovw  %edx,%k1
  403b33:	c4 e2 7d 58 db       	vpbroadcastd %xmm3,%ymm3
  403b38:	31 d2                	xor    %edx,%edx
  403b3a:	4b 8d 3c d8          	lea    (%r8,%r11,8),%rdi
  403b3e:	48 01 c8             	add    %rcx,%rax
  403b41:	45 31 db             	xor    %r11d,%r11d
  403b44:	48 83 c2 08          	add    $0x8,%rdx
  403b48:	62 f1 65 49 66 d4    	vpcmpgtd %zmm4,%zmm3,%k2{%k1}
  403b4e:	62 d1 fd 4a 11 14 3b 	vmovupd %zmm2,(%r11,%rdi,1){%k2}
  403b55:	49 83 c3 40          	add    $0x40,%r11
  403b59:	c5 dd fe e1          	vpaddd %ymm1,%ymm4,%ymm4
  403b5d:	48 39 c2             	cmp    %rax,%rdx
  403b60:	72 e2                	jb     403b44 <main+0x2214>
  403b62:	41 83 c7 01          	add    $0x1,%r15d
  403b66:	4c 01 e3             	add    %r12,%rbx
  403b69:	4f 8d 34 e6          	lea    (%r14,%r12,8),%r14
  403b6d:	45 39 ef             	cmp    %r13d,%r15d
  403b70:	0f 82 c7 fe ff ff    	jb     403a3d <main+0x210d>
  403b76:	8b 84 24 14 0d 00 00 	mov    0xd14(%rsp),%eax
  403b7d:	89 04 24             	mov    %eax,(%rsp)
  403b80:	44 8b ac 24 10 0d 00 	mov    0xd10(%rsp),%r13d
  403b87:	00 
  403b88:	45 31 ff             	xor    %r15d,%r15d
  403b8b:	44 8b b4 24 f4 0d 00 	mov    0xdf4(%rsp),%r14d
  403b92:	00 
  403b93:	85 c0                	test   %eax,%eax
  403b95:	0f 8e c6 00 00 00    	jle    403c61 <main+0x2331>
  403b9b:	31 db                	xor    %ebx,%ebx
  403b9d:	45 85 f6             	test   %r14d,%r14d
  403ba0:	0f 8e ad 00 00 00    	jle    403c53 <main+0x2323>
  403ba6:	45 31 e4             	xor    %r12d,%r12d
  403ba9:	45 85 ed             	test   %r13d,%r13d
  403bac:	0f 8e 95 00 00 00    	jle    403c47 <main+0x2317>
  403bb2:	48 8b 84 24 08 0d 00 	mov    0xd08(%rsp),%rax
  403bb9:	00 
  403bba:	48 8d bc 24 08 0d 00 	lea    0xd08(%rsp),%rdi
  403bc1:	00 
  403bc2:	44 89 e6             	mov    %r12d,%esi
  403bc5:	44 89 fa             	mov    %r15d,%edx
  403bc8:	ff 10                	callq  *(%rax)
  403bca:	c5 fb 11 84 24 08 0c 	vmovsd %xmm0,0xc08(%rsp)
  403bd1:	00 00 
  403bd3:	48 8b 84 24 e8 0d 00 	mov    0xde8(%rsp),%rax
  403bda:	00 
  403bdb:	48 8d bc 24 e8 0d 00 	lea    0xde8(%rsp),%rdi
  403be2:	00 
  403be3:	44 89 e6             	mov    %r12d,%esi
  403be6:	89 da                	mov    %ebx,%edx
  403be8:	ff 10                	callq  *(%rax)
  403bea:	c5 fb 11 84 24 00 0c 	vmovsd %xmm0,0xc00(%rsp)
  403bf1:	00 00 
  403bf3:	48 8b 84 24 08 0e 00 	mov    0xe08(%rsp),%rax
  403bfa:	00 
  403bfb:	48 8d bc 24 08 0e 00 	lea    0xe08(%rsp),%rdi
  403c02:	00 
  403c03:	89 de                	mov    %ebx,%esi
  403c05:	44 89 fa             	mov    %r15d,%edx
  403c08:	ff 10                	callq  *(%rax)
  403c0a:	c5 f9 28 c8          	vmovapd %xmm0,%xmm1
  403c0e:	c5 fb 10 84 24 08 0c 	vmovsd 0xc08(%rsp),%xmm0
  403c15:	00 00 
  403c17:	48 8b 84 24 08 0d 00 	mov    0xd08(%rsp),%rax
  403c1e:	00 
  403c1f:	44 89 e6             	mov    %r12d,%esi
  403c22:	44 89 fa             	mov    %r15d,%edx
  403c25:	48 8d bc 24 08 0d 00 	lea    0xd08(%rsp),%rdi
  403c2c:	00 
  403c2d:	c4 e2 f1 b9 84 24 00 	vfmadd231sd 0xc00(%rsp),%xmm1,%xmm0
  403c34:	0c 00 00 
  403c37:	ff 50 08             	callq  *0x8(%rax)
  403c3a:	41 83 c4 01          	add    $0x1,%r12d
  403c3e:	45 39 ec             	cmp    %r13d,%r12d
  403c41:	0f 8c 6b ff ff ff    	jl     403bb2 <main+0x2282>
  403c47:	83 c3 01             	add    $0x1,%ebx
  403c4a:	44 39 f3             	cmp    %r14d,%ebx
  403c4d:	0f 8c 53 ff ff ff    	jl     403ba6 <main+0x2276>
  403c53:	41 83 c7 01          	add    $0x1,%r15d
  403c57:	44 3b 3c 24          	cmp    (%rsp),%r15d
  403c5b:	0f 8c 3a ff ff ff    	jl     403b9b <main+0x226b>
  403c61:	48 8b bc 24 00 0e 00 	mov    0xe00(%rsp),%rdi
  403c68:	00 
  403c69:	48 8b b4 24 20 0e 00 	mov    0xe20(%rsp),%rsi
  403c70:	00 
  403c71:	48 8b 94 24 40 0e 00 	mov    0xe40(%rsp),%rdx
  403c78:	00 
  403c79:	e8 82 92 01 00       	callq  41cf00 <_Z30exp_seissol_star_27x27_libxsmmPKdS0_Pd>
  403c7e:	48 8d bc 24 08 0d 00 	lea    0xd08(%rsp),%rdi
  403c85:	00 
  403c86:	48 8d b4 24 28 0e 00 	lea    0xe28(%rsp),%rsi
  403c8d:	00 
  403c8e:	e8 4d 9c 00 00       	callq  40d8e0 <_Z13assert_equalsRK6MatrixS1_>
  403c93:	bf 01 00 00 00       	mov    $0x1,%edi
  403c98:	48 8d b4 24 00 0c 00 	lea    0xc00(%rsp),%rsi
  403c9f:	00 
  403ca0:	e8 4b da ff ff       	callq  4016f0 <clock_gettime@plt>
  403ca5:	31 db                	xor    %ebx,%ebx
  403ca7:	48 8b bc 24 00 0e 00 	mov    0xe00(%rsp),%rdi
  403cae:	00 
  403caf:	48 8b b4 24 20 0e 00 	mov    0xe20(%rsp),%rsi
  403cb6:	00 
  403cb7:	48 8b 94 24 40 0e 00 	mov    0xe40(%rsp),%rdx
  403cbe:	00 
  403cbf:	e8 3c 92 01 00       	callq  41cf00 <_Z30exp_seissol_star_27x27_libxsmmPKdS0_Pd>
  403cc4:	83 c3 01             	add    $0x1,%ebx
  403cc7:	81 fb b8 0b 00 00    	cmp    $0xbb8,%ebx
  403ccd:	7c d8                	jl     403ca7 <main+0x2377>
  403ccf:	bf 01 00 00 00       	mov    $0x1,%edi
  403cd4:	48 8d b4 24 10 0c 00 	lea    0xc10(%rsp),%rsi
  403cdb:	00 
  403cdc:	e8 0f da ff ff       	callq  4016f0 <clock_gettime@plt>
  403ce1:	bf c0 aa 62 00       	mov    $0x62aac0,%edi
  403ce6:	be e4 5f 42 00       	mov    $0x425fe4,%esi
  403ceb:	e8 30 d9 ff ff       	callq  401620 <_ZStlsISt11char_traitsIcEERSt13basic_ostreamIcT_ES5_PKc@plt>
  403cf0:	48 89 c7             	mov    %rax,%rdi
  403cf3:	48 8b 84 24 10 0c 00 	mov    0xc10(%rsp),%rax
  403cfa:	00 
  403cfb:	62 e1 ff 08 10 a4 24 	vmovsd 0xc50(%rsp),%xmm20
  403d02:	50 0c 00 00 
  403d06:	48 2b 84 24 00 0c 00 	sub    0xc00(%rsp),%rax
  403d0d:	00 
  403d0e:	48 69 d0 00 ca 9a 3b 	imul   $0x3b9aca00,%rax,%rdx
  403d15:	62 e1 ff 08 10 ac 24 	vmovsd 0xc48(%rsp),%xmm21
  403d1c:	48 0c 00 00 
  403d20:	62 e2 e5 00 43 1d 96 	vgetexpsd 0x22196(%rip),%xmm19,%xmm19        # 425ec0 <_IO_stdin_used+0x100>
  403d27:	21 02 00 
  403d2a:	48 03 94 24 18 0c 00 	add    0xc18(%rsp),%rdx
  403d31:	00 
  403d32:	62 e1 ff 08 10 bc 24 	vmovsd 0xc58(%rsp),%xmm23
  403d39:	58 0c 00 00 
  403d3d:	48 2b 94 24 08 0c 00 	sub    0xc08(%rsp),%rdx
  403d44:	00 
  403d45:	62 e1 ff 00 2a c2    	vcvtsi2sd %rdx,%xmm16,%xmm16
  403d4b:	62 e1 ff 00 59 0d 63 	vmulsd 0x22163(%rip),%xmm16,%xmm17        # 425eb8 <_IO_stdin_used+0xf8>
  403d52:	21 02 00 
  403d55:	62 a3 f5 00 27 f1 00 	vgetmantsd $0x0,%xmm17,%xmm17,%xmm22
  403d5c:	62 a2 f5 00 43 d1    	vgetexpsd %xmm17,%xmm17,%xmm18
  403d62:	62 21 df 10 59 c6    	vmulsd {rn-sae},%xmm22,%xmm20,%xmm24
  403d68:	62 21 ef 00 5c cb    	vsubsd %xmm19,%xmm18,%xmm25
  403d6e:	62 a2 bd 10 bd f5    	vfnmadd231sd {rn-sae},%xmm21,%xmm24,%xmm22
  403d74:	62 22 cd 10 b9 c7    	vfmadd231sd {rn-sae},%xmm23,%xmm22,%xmm24
  403d7a:	62 92 bd 00 2d c1    	vscalefsd %xmm25,%xmm24,%xmm0
  403d80:	e8 5b da ff ff       	callq  4017e0 <_ZNSolsEd@plt>
  403d85:	48 89 c7             	mov    %rax,%rdi
  403d88:	be a0 15 40 00       	mov    $0x4015a0,%esi
  403d8d:	e8 be d8 ff ff       	callq  401650 <_ZNSolsEPFRSoS_E@plt>
  403d92:	48 8b bc 24 40 0e 00 	mov    0xe40(%rsp),%rdi
  403d99:	00 
  403d9a:	48 c7 84 24 28 0e 00 	movq   $0x62a240,0xe28(%rsp)
  403da1:	00 40 a2 62 00 
  403da6:	e8 05 d9 ff ff       	callq  4016b0 <free@plt>
  403dab:	48 8b bc 24 20 0d 00 	mov    0xd20(%rsp),%rdi
  403db2:	00 
  403db3:	48 c7 84 24 08 0d 00 	movq   $0x62a240,0xd08(%rsp)
  403dba:	00 40 a2 62 00 
  403dbf:	e8 ec d8 ff ff       	callq  4016b0 <free@plt>
  403dc4:	48 8b bc 24 20 0e 00 	mov    0xe20(%rsp),%rdi
  403dcb:	00 
  403dcc:	48 c7 84 24 08 0e 00 	movq   $0x62a240,0xe08(%rsp)
  403dd3:	00 40 a2 62 00 
  403dd8:	e8 d3 d8 ff ff       	callq  4016b0 <free@plt>
  403ddd:	48 8b bc 24 00 0e 00 	mov    0xe00(%rsp),%rdi
  403de4:	00 
  403de5:	48 c7 84 24 e8 0d 00 	movq   $0x62a240,0xde8(%rsp)
  403dec:	00 40 a2 62 00 
  403df1:	e8 ba d8 ff ff       	callq  4016b0 <free@plt>
  403df6:	e8 15 9e 00 00       	callq  40dc10 <_Z38test_exp_seissol_star_27x27_breuer_oldv>
  403dfb:	e8 20 c4 00 00       	callq  410220 <_Z40test_exp_seissol_star_27x27_breuer_fixedv>
  403e00:	48 8b 9c 24 30 0c 00 	mov    0xc30(%rsp),%rbx
  403e07:	00 
  403e08:	4c 8b a4 24 40 0c 00 	mov    0xc40(%rsp),%r12
  403e0f:	00 
  403e10:	31 c0                	xor    %eax,%eax
  403e12:	4c 8b ac 24 38 0c 00 	mov    0xc38(%rsp),%r13
  403e19:	00 
  403e1a:	4c 8b b4 24 20 0c 00 	mov    0xc20(%rsp),%r14
  403e21:	00 
  403e22:	4c 8b bc 24 28 0c 00 	mov    0xc28(%rsp),%r15
  403e29:	00 
  403e2a:	48 89 ec             	mov    %rbp,%rsp
  403e2d:	5d                   	pop    %rbp
  403e2e:	c3                   	retq   
  403e2f:	48 89 04 24          	mov    %rax,(%rsp)
  403e33:	48 8d bc 24 28 0e 00 	lea    0xe28(%rsp),%rdi
  403e3a:	00 
  403e3b:	e8 30 e5 01 00       	callq  422370 <_ZN11DenseMatrixD1Ev>
  403e40:	48 8d bc 24 08 0d 00 	lea    0xd08(%rsp),%rdi
  403e47:	00 
  403e48:	e8 23 e5 01 00       	callq  422370 <_ZN11DenseMatrixD1Ev>
  403e4d:	48 8d bc 24 08 0e 00 	lea    0xe08(%rsp),%rdi
  403e54:	00 
  403e55:	e8 16 e5 01 00       	callq  422370 <_ZN11DenseMatrixD1Ev>
  403e5a:	48 8d bc 24 e8 0d 00 	lea    0xde8(%rsp),%rdi
  403e61:	00 
  403e62:	e8 09 e5 01 00       	callq  422370 <_ZN11DenseMatrixD1Ev>
  403e67:	48 8b 3c 24          	mov    (%rsp),%rdi
  403e6b:	e8 40 d9 ff ff       	callq  4017b0 <_Unwind_Resume@plt>
  403e70:	31 c0                	xor    %eax,%eax
  403e72:	e9 92 fc ff ff       	jmpq   403b09 <main+0x21d9>
  403e77:	31 c0                	xor    %eax,%eax
  403e79:	e9 a8 fa ff ff       	jmpq   403926 <main+0x1ff6>
  403e7e:	31 c0                	xor    %eax,%eax
  403e80:	e9 3f f8 ff ff       	jmpq   4036c4 <main+0x1d94>
  403e85:	31 d2                	xor    %edx,%edx
  403e87:	e9 ce f4 ff ff       	jmpq   40335a <main+0x1a2a>
  403e8c:	8b 84 24 08 08 00 00 	mov    0x808(%rsp),%eax
  403e93:	e9 2e f5 ff ff       	jmpq   4033c6 <main+0x1a96>
  403e98:	48 89 04 24          	mov    %rax,(%rsp)
  403e9c:	48 8d bc 24 c8 0d 00 	lea    0xdc8(%rsp),%rdi
  403ea3:	00 
  403ea4:	e8 c7 e4 01 00       	callq  422370 <_ZN11DenseMatrixD1Ev>
  403ea9:	48 8d bc 24 e8 0c 00 	lea    0xce8(%rsp),%rdi
  403eb0:	00 
  403eb1:	e8 ba e4 01 00       	callq  422370 <_ZN11DenseMatrixD1Ev>
  403eb6:	48 8d bc 24 a8 0d 00 	lea    0xda8(%rsp),%rdi
  403ebd:	00 
  403ebe:	e8 ad e4 01 00       	callq  422370 <_ZN11DenseMatrixD1Ev>
  403ec3:	48 8d bc 24 88 0d 00 	lea    0xd88(%rsp),%rdi
  403eca:	00 
  403ecb:	e8 a0 e4 01 00       	callq  422370 <_ZN11DenseMatrixD1Ev>
  403ed0:	eb 95                	jmp    403e67 <main+0x2537>
  403ed2:	31 c0                	xor    %eax,%eax
  403ed4:	e9 fa ef ff ff       	jmpq   402ed3 <main+0x15a3>
  403ed9:	31 c0                	xor    %eax,%eax
  403edb:	e9 0c ee ff ff       	jmpq   402cec <main+0x13bc>
  403ee0:	31 c0                	xor    %eax,%eax
  403ee2:	e9 a3 eb ff ff       	jmpq   402a8a <main+0x115a>
  403ee7:	31 d2                	xor    %edx,%edx
  403ee9:	e9 32 e8 ff ff       	jmpq   402720 <main+0xdf0>
  403eee:	8b 84 24 20 04 00 00 	mov    0x420(%rsp),%eax
  403ef5:	e9 92 e8 ff ff       	jmpq   40278c <main+0xe5c>
  403efa:	48 89 04 24          	mov    %rax,(%rsp)
  403efe:	48 8d bc 24 68 0d 00 	lea    0xd68(%rsp),%rdi
  403f05:	00 
  403f06:	e8 65 e4 01 00       	callq  422370 <_ZN11DenseMatrixD1Ev>
  403f0b:	48 8d bc 24 c8 0c 00 	lea    0xcc8(%rsp),%rdi
  403f12:	00 
  403f13:	e8 58 e4 01 00       	callq  422370 <_ZN11DenseMatrixD1Ev>
  403f18:	48 8d bc 24 48 0d 00 	lea    0xd48(%rsp),%rdi
  403f1f:	00 
  403f20:	e8 4b e4 01 00       	callq  422370 <_ZN11DenseMatrixD1Ev>
  403f25:	48 8d bc 24 28 0d 00 	lea    0xd28(%rsp),%rdi
  403f2c:	00 
  403f2d:	e8 3e e4 01 00       	callq  422370 <_ZN11DenseMatrixD1Ev>
  403f32:	e9 30 ff ff ff       	jmpq   403e67 <main+0x2537>
  403f37:	31 c0                	xor    %eax,%eax
  403f39:	e9 32 e3 ff ff       	jmpq   402270 <main+0x940>
  403f3e:	31 c0                	xor    %eax,%eax
  403f40:	e9 44 e1 ff ff       	jmpq   402089 <main+0x759>
  403f45:	31 c0                	xor    %eax,%eax
  403f47:	e9 db de ff ff       	jmpq   401e27 <main+0x4f7>
  403f4c:	31 d2                	xor    %edx,%edx
  403f4e:	e9 94 db ff ff       	jmpq   401ae7 <main+0x1b7>
  403f53:	8b 44 24 38          	mov    0x38(%rsp),%eax
  403f57:	e9 f7 db ff ff       	jmpq   401b53 <main+0x223>
  403f5c:	0f 1f 40 00          	nopl   0x0(%rax)

0000000000403f60 <_Z36test_exp_seissol_star9x15_breuer_oldv>:
  403f60:	55                   	push   %rbp
  403f61:	48 89 e5             	mov    %rsp,%rbp
  403f64:	48 83 e4 c0          	and    $0xffffffffffffffc0,%rsp
  403f68:	48 81 ec 00 05 00 00 	sub    $0x500,%rsp
  403f6f:	48 89 9c 24 30 04 00 	mov    %rbx,0x430(%rsp)
  403f76:	00 
  403f77:	bb 28 00 00 00       	mov    $0x28,%ebx
  403f7c:	4c 89 bc 24 28 04 00 	mov    %r15,0x428(%rsp)
  403f83:	00 
  403f84:	be 40 00 00 00       	mov    $0x40,%esi
  403f89:	4c 89 b4 24 20 04 00 	mov    %r14,0x420(%rsp)
  403f90:	00 
  403f91:	48 8d bc 24 d0 04 00 	lea    0x4d0(%rsp),%rdi
  403f98:	00 
  403f99:	4c 89 ac 24 38 04 00 	mov    %r13,0x438(%rsp)
  403fa0:	00 
  403fa1:	ba 40 0b 00 00       	mov    $0xb40,%edx
  403fa6:	4c 89 a4 24 40 04 00 	mov    %r12,0x440(%rsp)
  403fad:	00 
  403fae:	48 c7 84 24 b8 04 00 	movq   $0x62a240,0x4b8(%rsp)
  403fb5:	00 40 a2 62 00 
  403fba:	89 9c 24 c8 04 00 00 	mov    %ebx,0x4c8(%rsp)
  403fc1:	89 9c 24 c0 04 00 00 	mov    %ebx,0x4c0(%rsp)
  403fc8:	c7 84 24 c4 04 00 00 	movl   $0x9,0x4c4(%rsp)
  403fcf:	09 00 00 00 
  403fd3:	e8 e8 d5 ff ff       	callq  4015c0 <posix_memalign@plt>
  403fd8:	8b 84 24 c4 04 00 00 	mov    0x4c4(%rsp),%eax
  403fdf:	31 d2                	xor    %edx,%edx
  403fe1:	85 c0                	test   %eax,%eax
  403fe3:	0f 8e 71 02 00 00    	jle    40425a <_Z36test_exp_seissol_star9x15_breuer_oldv+0x2fa>
  403fe9:	8b bc 24 c0 04 00 00 	mov    0x4c0(%rsp),%edi
  403ff0:	8b b4 24 c8 04 00 00 	mov    0x4c8(%rsp),%esi
  403ff7:	b9 08 00 00 00       	mov    $0x8,%ecx
  403ffc:	62 f1 ed 48 ef d2    	vpxorq %zmm2,%zmm2,%zmm2
  404002:	45 31 ed             	xor    %r13d,%r13d
  404005:	c5 f9 6e c9          	vmovd  %ecx,%xmm1
  404009:	45 31 e4             	xor    %r12d,%r12d
  40400c:	89 d3                	mov    %edx,%ebx
  40400e:	41 89 f8             	mov    %edi,%r8d
  404011:	4c 63 cf             	movslq %edi,%r9
  404014:	4c 8b b4 24 d0 04 00 	mov    0x4d0(%rsp),%r14
  40401b:	00 
  40401c:	c5 fe 6f 05 5c 1e 02 	vmovdqu 0x21e5c(%rip),%ymm0        # 425e80 <_IO_stdin_used+0xc0>
  404023:	00 
  404024:	41 83 e0 f8          	and    $0xfffffff8,%r8d
  404028:	4c 63 fe             	movslq %esi,%r15
  40402b:	4d 63 d0             	movslq %r8d,%r10
  40402e:	4c 89 54 24 48       	mov    %r10,0x48(%rsp)
  404033:	4a 8d 0c cd 00 00 00 	lea    0x0(,%r9,8),%rcx
  40403a:	00 
  40403b:	48 89 4c 24 40       	mov    %rcx,0x40(%rsp)
  404040:	c4 e2 7d 58 c9       	vpbroadcastd %xmm1,%ymm1
  404045:	85 ff                	test   %edi,%edi
  404047:	0f 8e f8 00 00 00    	jle    404145 <_Z36test_exp_seissol_star9x15_breuer_oldv+0x1e5>
  40404d:	83 ff 0c             	cmp    $0xc,%edi
  404050:	7e 73                	jle    4040c5 <_Z36test_exp_seissol_star9x15_breuer_oldv+0x165>
  404052:	c5 fe 7f 0c 24       	vmovdqu %ymm1,(%rsp)
  404057:	4c 89 4c 24 20       	mov    %r9,0x20(%rsp)
  40405c:	44 89 44 24 28       	mov    %r8d,0x28(%rsp)
  404061:	89 7c 24 30          	mov    %edi,0x30(%rsp)
  404065:	89 74 24 50          	mov    %esi,0x50(%rsp)
  404069:	89 44 24 38          	mov    %eax,0x38(%rsp)
  40406d:	4d 63 ed             	movslq %r13d,%r13
  404070:	31 f6                	xor    %esi,%esi
  404072:	48 8b 54 24 40       	mov    0x40(%rsp),%rdx
  404077:	4b 8d 3c ee          	lea    (%r14,%r13,8),%rdi
  40407b:	e8 80 ec 01 00       	callq  422d00 <__intel_mic_avx512f_memset>
  404080:	83 c3 01             	add    $0x1,%ebx
  404083:	4d 01 fc             	add    %r15,%r12
  404086:	44 03 6c 24 50       	add    0x50(%rsp),%r13d
  40408b:	3b 5c 24 38          	cmp    0x38(%rsp),%ebx
  40408f:	0f 83 f7 0c 00 00    	jae    404d8c <_Z36test_exp_seissol_star9x15_breuer_oldv+0xe2c>
  404095:	83 7c 24 30 0c       	cmpl   $0xc,0x30(%rsp)
  40409a:	7f d1                	jg     40406d <_Z36test_exp_seissol_star9x15_breuer_oldv+0x10d>
  40409c:	c5 fe 6f 05 dc 1d 02 	vmovdqu 0x21ddc(%rip),%ymm0        # 425e80 <_IO_stdin_used+0xc0>
  4040a3:	00 
  4040a4:	c5 fe 6f 0c 24       	vmovdqu (%rsp),%ymm1
  4040a9:	62 f1 ed 48 ef d2    	vpxorq %zmm2,%zmm2,%zmm2
  4040af:	4c 8b 4c 24 20       	mov    0x20(%rsp),%r9
  4040b4:	44 8b 44 24 28       	mov    0x28(%rsp),%r8d
  4040b9:	8b 7c 24 30          	mov    0x30(%rsp),%edi
  4040bd:	8b 74 24 50          	mov    0x50(%rsp),%esi
  4040c1:	8b 44 24 38          	mov    0x38(%rsp),%eax
  4040c5:	83 ff 08             	cmp    $0x8,%edi
  4040c8:	0f 8c b7 0c 00 00    	jl     404d85 <_Z36test_exp_seissol_star9x15_breuer_oldv+0xe25>
  4040ce:	44 89 c2             	mov    %r8d,%edx
  4040d1:	45 31 d2             	xor    %r10d,%r10d
  4040d4:	4b 8d 0c e6          	lea    (%r14,%r12,8),%rcx
  4040d8:	4c 8b 5c 24 48       	mov    0x48(%rsp),%r11
  4040dd:	62 b1 fd 48 11 14 d1 	vmovupd %zmm2,(%rcx,%r10,8)
  4040e4:	49 83 c2 08          	add    $0x8,%r10
  4040e8:	4d 39 da             	cmp    %r11,%r10
  4040eb:	72 f0                	jb     4040dd <_Z36test_exp_seissol_star9x15_breuer_oldv+0x17d>
  4040ed:	8d 4a 01             	lea    0x1(%rdx),%ecx
  4040f0:	39 f9                	cmp    %edi,%ecx
  4040f2:	77 51                	ja     404145 <_Z36test_exp_seissol_star9x15_breuer_oldv+0x1e5>
  4040f4:	41 89 fa             	mov    %edi,%r10d
  4040f7:	b9 ff 00 00 00       	mov    $0xff,%ecx
  4040fc:	c5 fd 6f e0          	vmovdqa %ymm0,%ymm4
  404100:	41 29 d2             	sub    %edx,%r10d
  404103:	48 63 d2             	movslq %edx,%rdx
  404106:	c4 c1 79 6e da       	vmovd  %r10d,%xmm3
  40410b:	4d 8d 1c 14          	lea    (%r12,%rdx,1),%r11
  40410f:	48 f7 da             	neg    %rdx
  404112:	c5 f8 92 c9          	kmovw  %ecx,%k1
  404116:	c4 e2 7d 58 db       	vpbroadcastd %xmm3,%ymm3
  40411b:	31 c9                	xor    %ecx,%ecx
  40411d:	4f 8d 1c de          	lea    (%r14,%r11,8),%r11
  404121:	4c 01 ca             	add    %r9,%rdx
  404124:	45 31 d2             	xor    %r10d,%r10d
  404127:	48 83 c1 08          	add    $0x8,%rcx
  40412b:	62 f1 65 49 66 d4    	vpcmpgtd %zmm4,%zmm3,%k2{%k1}
  404131:	62 91 fd 4a 11 14 1a 	vmovupd %zmm2,(%r10,%r11,1){%k2}
  404138:	49 83 c2 40          	add    $0x40,%r10
  40413c:	c5 dd fe e1          	vpaddd %ymm1,%ymm4,%ymm4
  404140:	48 39 d1             	cmp    %rdx,%rcx
  404143:	72 e2                	jb     404127 <_Z36test_exp_seissol_star9x15_breuer_oldv+0x1c7>
  404145:	83 c3 01             	add    $0x1,%ebx
  404148:	4d 01 fc             	add    %r15,%r12
  40414b:	41 01 f5             	add    %esi,%r13d
  40414e:	39 c3                	cmp    %eax,%ebx
  404150:	0f 82 ef fe ff ff    	jb     404045 <_Z36test_exp_seissol_star9x15_breuer_oldv+0xe5>
  404156:	bb 28 00 00 00       	mov    $0x28,%ebx
  40415b:	31 c9                	xor    %ecx,%ecx
  40415d:	8b 94 24 c8 04 00 00 	mov    0x4c8(%rsp),%edx
  404164:	4c 63 ac 24 c0 04 00 	movslq 0x4c0(%rsp),%r13
  40416b:	00 
  40416c:	45 31 f6             	xor    %r14d,%r14d
  40416f:	4c 8b a4 24 d0 04 00 	mov    0x4d0(%rsp),%r12
  404176:	00 
  404177:	c5 fb 10 05 31 1d 02 	vmovsd 0x21d31(%rip),%xmm0        # 425eb0 <_IO_stdin_used+0xf0>
  40417e:	00 
  40417f:	31 db                	xor    %ebx,%ebx
  404181:	4d 85 ed             	test   %r13,%r13
  404184:	0f 8e bd 00 00 00    	jle    404247 <_Z36test_exp_seissol_star9x15_breuer_oldv+0x2e7>
  40418a:	62 f3 fd 08 27 e0 00 	vgetmantsd $0x0,%xmm0,%xmm0,%xmm4
  404191:	89 54 24 08          	mov    %edx,0x8(%rsp)
  404195:	c5 fb 10 0d 2b 1d 02 	vmovsd 0x21d2b(%rip),%xmm1        # 425ec8 <_IO_stdin_used+0x108>
  40419c:	00 
  40419d:	89 0c 24             	mov    %ecx,(%rsp)
  4041a0:	62 f2 fd 08 43 d8    	vgetexpsd %xmm0,%xmm0,%xmm3
  4041a6:	89 44 24 38          	mov    %eax,0x38(%rsp)
  4041aa:	4d 63 f6             	movslq %r14d,%r14
  4041ad:	c5 fb 11 64 24 28    	vmovsd %xmm4,0x28(%rsp)
  4041b3:	62 f2 dd 08 cb d4    	vrcp28sd %xmm4,%xmm4,%xmm2
  4041b9:	c5 fb 11 5c 24 10    	vmovsd %xmm3,0x10(%rsp)
  4041bf:	4f 8d 3c f4          	lea    (%r12,%r14,8),%r15
  4041c3:	c5 fb 11 54 24 18    	vmovsd %xmm2,0x18(%rsp)
  4041c9:	62 f2 ed 18 bd cc    	vfnmadd231sd {rn-sae},%xmm4,%xmm2,%xmm1
  4041cf:	62 f2 ed 18 99 ca    	vfmadd132sd {rn-sae},%xmm2,%xmm2,%xmm1
  4041d5:	c5 fb 11 4c 24 20    	vmovsd %xmm1,0x20(%rsp)
  4041db:	e8 70 d3 ff ff       	callq  401550 <rand@plt>
  4041e0:	c5 f9 57 c0          	vxorpd %xmm0,%xmm0,%xmm0
  4041e4:	c5 fb 2a c0          	vcvtsi2sd %eax,%xmm0,%xmm0
  4041e8:	c5 fb 10 54 24 18    	vmovsd 0x18(%rsp),%xmm2
  4041ee:	c5 fb 10 5c 24 28    	vmovsd 0x28(%rsp),%xmm3
  4041f4:	62 f3 fd 08 27 e0 00 	vgetmantsd $0x0,%xmm0,%xmm0,%xmm4
  4041fb:	62 f2 fd 08 43 c8    	vgetexpsd %xmm0,%xmm0,%xmm1
  404201:	c5 fb 10 6c 24 20    	vmovsd 0x20(%rsp),%xmm5
  404207:	62 f1 ef 18 59 f4    	vmulsd {rn-sae},%xmm4,%xmm2,%xmm6
  40420d:	c5 f3 5c 7c 24 10    	vsubsd 0x10(%rsp),%xmm1,%xmm7
  404213:	62 f2 cd 18 bd e3    	vfnmadd231sd {rn-sae},%xmm3,%xmm6,%xmm4
  404219:	62 f2 dd 18 b9 f5    	vfmadd231sd {rn-sae},%xmm5,%xmm4,%xmm6
  40421f:	62 72 cd 08 2d c7    	vscalefsd %xmm7,%xmm6,%xmm8
  404225:	c4 41 7b 11 04 df    	vmovsd %xmm8,(%r15,%rbx,8)
  40422b:	48 83 c3 01          	add    $0x1,%rbx
  40422f:	4c 39 eb             	cmp    %r13,%rbx
  404232:	72 a7                	jb     4041db <_Z36test_exp_seissol_star9x15_breuer_oldv+0x27b>
  404234:	c5 fb 10 05 74 1c 02 	vmovsd 0x21c74(%rip),%xmm0        # 425eb0 <_IO_stdin_used+0xf0>
  40423b:	00 
  40423c:	8b 54 24 08          	mov    0x8(%rsp),%edx
  404240:	8b 0c 24             	mov    (%rsp),%ecx
  404243:	8b 44 24 38          	mov    0x38(%rsp),%eax
  404247:	83 c1 01             	add    $0x1,%ecx
  40424a:	41 01 d6             	add    %edx,%r14d
  40424d:	39 c1                	cmp    %eax,%ecx
  40424f:	0f 82 2a ff ff ff    	jb     40417f <_Z36test_exp_seissol_star9x15_breuer_oldv+0x21f>
  404255:	bb 28 00 00 00       	mov    $0x28,%ebx
  40425a:	bf d8 5e 42 00       	mov    $0x425ed8,%edi
  40425f:	48 c7 84 24 78 04 00 	movq   $0x62a240,0x478(%rsp)
  404266:	00 40 a2 62 00 
  40426b:	be 14 5f 42 00       	mov    $0x425f14,%esi
  404270:	e8 2b d4 ff ff       	callq  4016a0 <fopen@plt>
  404275:	49 89 c7             	mov    %rax,%r15
  404278:	48 8d 7c 24 08       	lea    0x8(%rsp),%rdi
  40427d:	be e8 03 00 00       	mov    $0x3e8,%esi
  404282:	4c 89 fa             	mov    %r15,%rdx
  404285:	e8 a6 d4 ff ff       	callq  401730 <fgets@plt>
  40428a:	48 8d 7c 24 08       	lea    0x8(%rsp),%rdi
  40428f:	be e8 03 00 00       	mov    $0x3e8,%esi
  404294:	4c 89 fa             	mov    %r15,%rdx
  404297:	e8 94 d4 ff ff       	callq  401730 <fgets@plt>
  40429c:	4c 89 ff             	mov    %r15,%rdi
  40429f:	be 18 5f 42 00       	mov    $0x425f18,%esi
  4042a4:	48 8d 94 24 80 04 00 	lea    0x480(%rsp),%rdx
  4042ab:	00 
  4042ac:	48 8d 8c 24 84 04 00 	lea    0x484(%rsp),%rcx
  4042b3:	00 
  4042b4:	4c 8d 84 24 68 04 00 	lea    0x468(%rsp),%r8
  4042bb:	00 
  4042bc:	31 c0                	xor    %eax,%eax
  4042be:	e8 2d d5 ff ff       	callq  4017f0 <fscanf@plt>
  4042c3:	8b 84 24 80 04 00 00 	mov    0x480(%rsp),%eax
  4042ca:	89 84 24 88 04 00 00 	mov    %eax,0x488(%rsp)
  4042d1:	8b 94 24 84 04 00 00 	mov    0x484(%rsp),%edx
  4042d8:	be 40 00 00 00       	mov    $0x40,%esi
  4042dd:	48 8d bc 24 90 04 00 	lea    0x490(%rsp),%rdi
  4042e4:	00 
  4042e5:	0f af d0             	imul   %eax,%edx
  4042e8:	48 63 d2             	movslq %edx,%rdx
  4042eb:	48 c1 e2 03          	shl    $0x3,%rdx
  4042ef:	e8 cc d2 ff ff       	callq  4015c0 <posix_memalign@plt>
  4042f4:	8b bc 24 84 04 00 00 	mov    0x484(%rsp),%edi
  4042fb:	31 d2                	xor    %edx,%edx
  4042fd:	85 ff                	test   %edi,%edi
  4042ff:	0f 8e a4 01 00 00    	jle    4044a9 <_Z36test_exp_seissol_star9x15_breuer_oldv+0x549>
  404305:	8b 8c 24 80 04 00 00 	mov    0x480(%rsp),%ecx
  40430c:	4c 89 3c 24          	mov    %r15,(%rsp)
  404310:	be 08 00 00 00       	mov    $0x8,%esi
  404315:	62 f1 ed 48 ef d2    	vpxorq %zmm2,%zmm2,%zmm2
  40431b:	45 31 e4             	xor    %r12d,%r12d
  40431e:	48 8b 84 24 90 04 00 	mov    0x490(%rsp),%rax
  404325:	00 
  404326:	c5 f9 6e ce          	vmovd  %esi,%xmm1
  40432a:	41 89 d7             	mov    %edx,%r15d
  40432d:	89 fb                	mov    %edi,%ebx
  40432f:	4c 63 c1             	movslq %ecx,%r8
  404332:	89 ce                	mov    %ecx,%esi
  404334:	4c 63 ac 24 88 04 00 	movslq 0x488(%rsp),%r13
  40433b:	00 
  40433c:	83 e6 f8             	and    $0xfffffff8,%esi
  40433f:	4e 8d 14 c5 00 00 00 	lea    0x0(,%r8,8),%r10
  404346:	00 
  404347:	4c 89 94 24 60 04 00 	mov    %r10,0x460(%rsp)
  40434e:	00 
  40434f:	c5 fe 6f 05 29 1b 02 	vmovdqu 0x21b29(%rip),%ymm0        # 425e80 <_IO_stdin_used+0xc0>
  404356:	00 
  404357:	49 89 c6             	mov    %rax,%r14
  40435a:	c4 e2 7d 58 c9       	vpbroadcastd %xmm1,%ymm1
  40435f:	4c 63 ce             	movslq %esi,%r9
  404362:	85 c9                	test   %ecx,%ecx
  404364:	0f 8e 22 01 00 00    	jle    40448c <_Z36test_exp_seissol_star9x15_breuer_oldv+0x52c>
  40436a:	83 f9 0c             	cmp    $0xc,%ecx
  40436d:	0f 8e 9c 00 00 00    	jle    40440f <_Z36test_exp_seissol_star9x15_breuer_oldv+0x4af>
  404373:	c5 fe 7f 8c 24 00 04 	vmovdqu %ymm1,0x400(%rsp)
  40437a:	00 00 
  40437c:	4c 89 84 24 f0 03 00 	mov    %r8,0x3f0(%rsp)
  404383:	00 
  404384:	4c 89 8c 24 f8 03 00 	mov    %r9,0x3f8(%rsp)
  40438b:	00 
  40438c:	89 b4 24 48 04 00 00 	mov    %esi,0x448(%rsp)
  404393:	48 89 84 24 50 04 00 	mov    %rax,0x450(%rsp)
  40439a:	00 
  40439b:	89 8c 24 58 04 00 00 	mov    %ecx,0x458(%rsp)
  4043a2:	4c 89 f7             	mov    %r14,%rdi
  4043a5:	31 f6                	xor    %esi,%esi
  4043a7:	48 8b 94 24 60 04 00 	mov    0x460(%rsp),%rdx
  4043ae:	00 
  4043af:	e8 4c e9 01 00       	callq  422d00 <__intel_mic_avx512f_memset>
  4043b4:	41 83 c7 01          	add    $0x1,%r15d
  4043b8:	4d 01 ec             	add    %r13,%r12
  4043bb:	4f 8d 34 ee          	lea    (%r14,%r13,8),%r14
  4043bf:	41 39 df             	cmp    %ebx,%r15d
  4043c2:	0f 83 d8 00 00 00    	jae    4044a0 <_Z36test_exp_seissol_star9x15_breuer_oldv+0x540>
  4043c8:	83 bc 24 58 04 00 00 	cmpl   $0xc,0x458(%rsp)
  4043cf:	0c 
  4043d0:	7f d0                	jg     4043a2 <_Z36test_exp_seissol_star9x15_breuer_oldv+0x442>
  4043d2:	c5 fe 6f 05 a6 1a 02 	vmovdqu 0x21aa6(%rip),%ymm0        # 425e80 <_IO_stdin_used+0xc0>
  4043d9:	00 
  4043da:	c5 fe 6f 8c 24 00 04 	vmovdqu 0x400(%rsp),%ymm1
  4043e1:	00 00 
  4043e3:	62 f1 ed 48 ef d2    	vpxorq %zmm2,%zmm2,%zmm2
  4043e9:	4c 8b 84 24 f0 03 00 	mov    0x3f0(%rsp),%r8
  4043f0:	00 
  4043f1:	4c 8b 8c 24 f8 03 00 	mov    0x3f8(%rsp),%r9
  4043f8:	00 
  4043f9:	8b b4 24 48 04 00 00 	mov    0x448(%rsp),%esi
  404400:	48 8b 84 24 50 04 00 	mov    0x450(%rsp),%rax
  404407:	00 
  404408:	8b 8c 24 58 04 00 00 	mov    0x458(%rsp),%ecx
  40440f:	83 f9 08             	cmp    $0x8,%ecx
  404412:	0f 8c 66 09 00 00    	jl     404d7e <_Z36test_exp_seissol_star9x15_breuer_oldv+0xe1e>
  404418:	89 f2                	mov    %esi,%edx
  40441a:	45 31 db             	xor    %r11d,%r11d
  40441d:	4e 8d 14 e0          	lea    (%rax,%r12,8),%r10
  404421:	62 91 fd 48 11 14 da 	vmovupd %zmm2,(%r10,%r11,8)
  404428:	49 83 c3 08          	add    $0x8,%r11
  40442c:	4d 39 cb             	cmp    %r9,%r11
  40442f:	72 f0                	jb     404421 <_Z36test_exp_seissol_star9x15_breuer_oldv+0x4c1>
  404431:	44 8d 52 01          	lea    0x1(%rdx),%r10d
  404435:	41 39 ca             	cmp    %ecx,%r10d
  404438:	77 52                	ja     40448c <_Z36test_exp_seissol_star9x15_breuer_oldv+0x52c>
  40443a:	41 89 cb             	mov    %ecx,%r11d
  40443d:	bf ff 00 00 00       	mov    $0xff,%edi
  404442:	c5 fd 6f e0          	vmovdqa %ymm0,%ymm4
  404446:	41 29 d3             	sub    %edx,%r11d
  404449:	48 63 d2             	movslq %edx,%rdx
  40444c:	c4 c1 79 6e db       	vmovd  %r11d,%xmm3
  404451:	4d 8d 1c 14          	lea    (%r12,%rdx,1),%r11
  404455:	48 f7 da             	neg    %rdx
  404458:	c5 f8 92 cf          	kmovw  %edi,%k1
  40445c:	c4 e2 7d 58 db       	vpbroadcastd %xmm3,%ymm3
  404461:	45 31 d2             	xor    %r10d,%r10d
  404464:	4a 8d 3c d8          	lea    (%rax,%r11,8),%rdi
  404468:	4c 01 c2             	add    %r8,%rdx
  40446b:	45 31 db             	xor    %r11d,%r11d
  40446e:	49 83 c2 08          	add    $0x8,%r10
  404472:	62 f1 65 49 66 d4    	vpcmpgtd %zmm4,%zmm3,%k2{%k1}
  404478:	62 d1 fd 4a 11 14 3b 	vmovupd %zmm2,(%r11,%rdi,1){%k2}
  40447f:	49 83 c3 40          	add    $0x40,%r11
  404483:	c5 dd fe e1          	vpaddd %ymm1,%ymm4,%ymm4
  404487:	49 39 d2             	cmp    %rdx,%r10
  40448a:	72 e2                	jb     40446e <_Z36test_exp_seissol_star9x15_breuer_oldv+0x50e>
  40448c:	41 83 c7 01          	add    $0x1,%r15d
  404490:	4d 01 ec             	add    %r13,%r12
  404493:	4f 8d 34 ee          	lea    (%r14,%r13,8),%r14
  404497:	41 39 df             	cmp    %ebx,%r15d
  40449a:	0f 82 c2 fe ff ff    	jb     404362 <_Z36test_exp_seissol_star9x15_breuer_oldv+0x402>
  4044a0:	4c 8b 3c 24          	mov    (%rsp),%r15
  4044a4:	bb 28 00 00 00       	mov    $0x28,%ebx
  4044a9:	45 31 e4             	xor    %r12d,%r12d
  4044ac:	83 bc 24 68 04 00 00 	cmpl   $0x0,0x468(%rsp)
  4044b3:	00 
  4044b4:	7e 66                	jle    40451c <_Z36test_exp_seissol_star9x15_breuer_oldv+0x5bc>
  4044b6:	4c 89 ff             	mov    %r15,%rdi
  4044b9:	be 24 5f 42 00       	mov    $0x425f24,%esi
  4044be:	48 8d 94 24 6c 04 00 	lea    0x46c(%rsp),%rdx
  4044c5:	00 
  4044c6:	48 8d 8c 24 70 04 00 	lea    0x470(%rsp),%rcx
  4044cd:	00 
  4044ce:	4c 8d 84 24 58 04 00 	lea    0x458(%rsp),%r8
  4044d5:	00 
  4044d6:	31 c0                	xor    %eax,%eax
  4044d8:	e8 13 d3 ff ff       	callq  4017f0 <fscanf@plt>
  4044dd:	8b 84 24 70 04 00 00 	mov    0x470(%rsp),%eax
  4044e4:	48 8b b4 24 90 04 00 	mov    0x490(%rsp),%rsi
  4044eb:	00 
  4044ec:	41 83 c4 01          	add    $0x1,%r12d
  4044f0:	83 c0 ff             	add    $0xffffffff,%eax
  4044f3:	48 8b 8c 24 58 04 00 	mov    0x458(%rsp),%rcx
  4044fa:	00 
  4044fb:	0f af 84 24 88 04 00 	imul   0x488(%rsp),%eax
  404502:	00 
  404503:	03 84 24 6c 04 00 00 	add    0x46c(%rsp),%eax
  40450a:	48 63 c0             	movslq %eax,%rax
  40450d:	48 89 4c c6 f8       	mov    %rcx,-0x8(%rsi,%rax,8)
  404512:	44 3b a4 24 68 04 00 	cmp    0x468(%rsp),%r12d
  404519:	00 
  40451a:	7c 9a                	jl     4044b6 <_Z36test_exp_seissol_star9x15_breuer_oldv+0x556>
  40451c:	4c 89 ff             	mov    %r15,%rdi
  40451f:	e8 0c d1 ff ff       	callq  401630 <fclose@plt>
  404524:	bf 30 00 00 00       	mov    $0x30,%edi
  404529:	e8 12 d1 ff ff       	callq  401640 <_Znwm@plt>
  40452e:	49 89 c4             	mov    %rax,%r12
  404531:	48 63 84 24 80 04 00 	movslq 0x480(%rsp),%rax
  404538:	00 
  404539:	49 c7 04 24 f8 a1 62 	movq   $0x62a1f8,(%r12)
  404540:	00 
  404541:	48 63 94 24 84 04 00 	movslq 0x484(%rsp),%rdx
  404548:	00 
  404549:	41 c7 44 24 10 00 00 	movl   $0x0,0x10(%r12)
  404550:	00 00 
  404552:	49 89 c5             	mov    %rax,%r13
  404555:	41 89 44 24 08       	mov    %eax,0x8(%r12)
  40455a:	4c 0f af ea          	imul   %rdx,%r13
  40455e:	41 89 54 24 0c       	mov    %edx,0xc(%r12)
  404563:	4a 8d 3c ed 00 00 00 	lea    0x0(,%r13,8),%rdi
  40456a:	00 
  40456b:	45 89 6c 24 14       	mov    %r13d,0x14(%r12)
  404570:	e8 cb cf ff ff       	callq  401540 <_Znam@plt>
  404575:	49 c1 e5 02          	shl    $0x2,%r13
  404579:	49 89 44 24 18       	mov    %rax,0x18(%r12)
  40457e:	4c 89 ef             	mov    %r13,%rdi
  404581:	e8 ba cf ff ff       	callq  401540 <_Znam@plt>
  404586:	4c 89 ef             	mov    %r13,%rdi
  404589:	49 89 44 24 20       	mov    %rax,0x20(%r12)
  40458e:	e8 ad cf ff ff       	callq  401540 <_Znam@plt>
  404593:	8b 8c 24 84 04 00 00 	mov    0x484(%rsp),%ecx
  40459a:	49 89 44 24 28       	mov    %rax,0x28(%r12)
  40459f:	85 c9                	test   %ecx,%ecx
  4045a1:	4c 89 a4 24 f8 04 00 	mov    %r12,0x4f8(%rsp)
  4045a8:	00 
  4045a9:	41 bc 00 00 00 00    	mov    $0x0,%r12d
  4045af:	7e 63                	jle    404614 <_Z36test_exp_seissol_star9x15_breuer_oldv+0x6b4>
  4045b1:	8b 84 24 80 04 00 00 	mov    0x480(%rsp),%eax
  4045b8:	45 31 ed             	xor    %r13d,%r13d
  4045bb:	85 c0                	test   %eax,%eax
  4045bd:	7e 4c                	jle    40460b <_Z36test_exp_seissol_star9x15_breuer_oldv+0x6ab>
  4045bf:	48 8b 84 24 78 04 00 	mov    0x478(%rsp),%rax
  4045c6:	00 
  4045c7:	48 8d bc 24 78 04 00 	lea    0x478(%rsp),%rdi
  4045ce:	00 
  4045cf:	44 89 ee             	mov    %r13d,%esi
  4045d2:	44 89 e2             	mov    %r12d,%edx
  4045d5:	ff 10                	callq  *(%rax)
  4045d7:	c5 f9 54 0d c1 18 02 	vandpd 0x218c1(%rip),%xmm0,%xmm1        # 425ea0 <_IO_stdin_used+0xe0>
  4045de:	00 
  4045df:	62 f1 f7 08 c2 05 e6 	vcmpgtsd 0x218e6(%rip),%xmm1,%k0        # 425ed0 <_IO_stdin_used+0x110>
  4045e6:	18 02 00 0e 
  4045ea:	c5 f8 98 c0          	kortestw %k0,%k0
  4045ee:	0f 85 4a 07 00 00    	jne    404d3e <_Z36test_exp_seissol_star9x15_breuer_oldv+0xdde>
  4045f4:	8b 84 24 80 04 00 00 	mov    0x480(%rsp),%eax
  4045fb:	41 83 c5 01          	add    $0x1,%r13d
  4045ff:	41 39 c5             	cmp    %eax,%r13d
  404602:	7c bb                	jl     4045bf <_Z36test_exp_seissol_star9x15_breuer_oldv+0x65f>
  404604:	8b 8c 24 84 04 00 00 	mov    0x484(%rsp),%ecx
  40460b:	41 83 c4 01          	add    $0x1,%r12d
  40460f:	41 39 cc             	cmp    %ecx,%r12d
  404612:	7c a4                	jl     4045b8 <_Z36test_exp_seissol_star9x15_breuer_oldv+0x658>
  404614:	48 8d bc 24 b0 04 00 	lea    0x4b0(%rsp),%rdi
  40461b:	00 
  40461c:	48 c7 84 24 98 04 00 	movq   $0x62a240,0x498(%rsp)
  404623:	00 40 a2 62 00 
  404628:	be 40 00 00 00       	mov    $0x40,%esi
  40462d:	89 9c 24 a8 04 00 00 	mov    %ebx,0x4a8(%rsp)
  404634:	ba c0 12 00 00       	mov    $0x12c0,%edx
  404639:	89 9c 24 a0 04 00 00 	mov    %ebx,0x4a0(%rsp)
  404640:	c7 84 24 a4 04 00 00 	movl   $0xf,0x4a4(%rsp)
  404647:	0f 00 00 00 
  40464b:	e8 70 cf ff ff       	callq  4015c0 <posix_memalign@plt>
  404650:	8b 84 24 a4 04 00 00 	mov    0x4a4(%rsp),%eax
  404657:	45 31 ff             	xor    %r15d,%r15d
  40465a:	85 c0                	test   %eax,%eax
  40465c:	0f 8e 95 01 00 00    	jle    4047f7 <_Z36test_exp_seissol_star9x15_breuer_oldv+0x897>
  404662:	8b 8c 24 a0 04 00 00 	mov    0x4a0(%rsp),%ecx
  404669:	48 8b b4 24 b0 04 00 	mov    0x4b0(%rsp),%rsi
  404670:	00 
  404671:	ba 08 00 00 00       	mov    $0x8,%edx
  404676:	62 f1 ed 48 ef d2    	vpxorq %zmm2,%zmm2,%zmm2
  40467c:	45 31 e4             	xor    %r12d,%r12d
  40467f:	c5 f9 6e ca          	vmovd  %edx,%xmm1
  404683:	89 c3                	mov    %eax,%ebx
  404685:	4c 63 d1             	movslq %ecx,%r10
  404688:	41 89 c8             	mov    %ecx,%r8d
  40468b:	4c 63 b4 24 a8 04 00 	movslq 0x4a8(%rsp),%r14
  404692:	00 
  404693:	c5 fe 6f 05 e5 17 02 	vmovdqu 0x217e5(%rip),%ymm0        # 425e80 <_IO_stdin_used+0xc0>
  40469a:	00 
  40469b:	41 83 e0 f8          	and    $0xfffffff8,%r8d
  40469f:	49 89 f5             	mov    %rsi,%r13
  4046a2:	4a 8d 14 d5 00 00 00 	lea    0x0(,%r10,8),%rdx
  4046a9:	00 
  4046aa:	48 89 94 24 60 04 00 	mov    %rdx,0x460(%rsp)
  4046b1:	00 
  4046b2:	c4 e2 7d 58 c9       	vpbroadcastd %xmm1,%ymm1
  4046b7:	4d 63 c8             	movslq %r8d,%r9
  4046ba:	85 c9                	test   %ecx,%ecx
  4046bc:	0f 8e 1b 01 00 00    	jle    4047dd <_Z36test_exp_seissol_star9x15_breuer_oldv+0x87d>
  4046c2:	83 f9 0c             	cmp    $0xc,%ecx
  4046c5:	0f 8e 97 00 00 00    	jle    404762 <_Z36test_exp_seissol_star9x15_breuer_oldv+0x802>
  4046cb:	c5 fe 7f 8c 24 00 04 	vmovdqu %ymm1,0x400(%rsp)
  4046d2:	00 00 
  4046d4:	4c 89 14 24          	mov    %r10,(%rsp)
  4046d8:	4c 89 8c 24 f0 03 00 	mov    %r9,0x3f0(%rsp)
  4046df:	00 
  4046e0:	44 89 84 24 f8 03 00 	mov    %r8d,0x3f8(%rsp)
  4046e7:	00 
  4046e8:	48 89 b4 24 48 04 00 	mov    %rsi,0x448(%rsp)
  4046ef:	00 
  4046f0:	89 8c 24 50 04 00 00 	mov    %ecx,0x450(%rsp)
  4046f7:	4c 89 ef             	mov    %r13,%rdi
  4046fa:	31 f6                	xor    %esi,%esi
  4046fc:	48 8b 94 24 60 04 00 	mov    0x460(%rsp),%rdx
  404703:	00 
  404704:	e8 f7 e5 01 00       	callq  422d00 <__intel_mic_avx512f_memset>
  404709:	41 83 c7 01          	add    $0x1,%r15d
  40470d:	4d 01 f4             	add    %r14,%r12
  404710:	4f 8d 6c f5 00       	lea    0x0(%r13,%r14,8),%r13
  404715:	41 39 df             	cmp    %ebx,%r15d
  404718:	0f 83 d4 00 00 00    	jae    4047f2 <_Z36test_exp_seissol_star9x15_breuer_oldv+0x892>
  40471e:	83 bc 24 50 04 00 00 	cmpl   $0xc,0x450(%rsp)
  404725:	0c 
  404726:	7f cf                	jg     4046f7 <_Z36test_exp_seissol_star9x15_breuer_oldv+0x797>
  404728:	c5 fe 6f 05 50 17 02 	vmovdqu 0x21750(%rip),%ymm0        # 425e80 <_IO_stdin_used+0xc0>
  40472f:	00 
  404730:	c5 fe 6f 8c 24 00 04 	vmovdqu 0x400(%rsp),%ymm1
  404737:	00 00 
  404739:	62 f1 ed 48 ef d2    	vpxorq %zmm2,%zmm2,%zmm2
  40473f:	4c 8b 8c 24 f0 03 00 	mov    0x3f0(%rsp),%r9
  404746:	00 
  404747:	44 8b 84 24 f8 03 00 	mov    0x3f8(%rsp),%r8d
  40474e:	00 
  40474f:	4c 8b 14 24          	mov    (%rsp),%r10
  404753:	48 8b b4 24 48 04 00 	mov    0x448(%rsp),%rsi
  40475a:	00 
  40475b:	8b 8c 24 50 04 00 00 	mov    0x450(%rsp),%ecx
  404762:	83 f9 08             	cmp    $0x8,%ecx
  404765:	0f 8c cc 05 00 00    	jl     404d37 <_Z36test_exp_seissol_star9x15_breuer_oldv+0xdd7>
  40476b:	44 89 c0             	mov    %r8d,%eax
  40476e:	45 31 db             	xor    %r11d,%r11d
  404771:	4a 8d 14 e6          	lea    (%rsi,%r12,8),%rdx
  404775:	62 b1 fd 48 11 14 da 	vmovupd %zmm2,(%rdx,%r11,8)
  40477c:	49 83 c3 08          	add    $0x8,%r11
  404780:	4d 39 cb             	cmp    %r9,%r11
  404783:	72 f0                	jb     404775 <_Z36test_exp_seissol_star9x15_breuer_oldv+0x815>
  404785:	8d 50 01             	lea    0x1(%rax),%edx
  404788:	39 ca                	cmp    %ecx,%edx
  40478a:	77 51                	ja     4047dd <_Z36test_exp_seissol_star9x15_breuer_oldv+0x87d>
  40478c:	41 89 cb             	mov    %ecx,%r11d
  40478f:	ba ff 00 00 00       	mov    $0xff,%edx
  404794:	c5 fd 6f e0          	vmovdqa %ymm0,%ymm4
  404798:	41 29 c3             	sub    %eax,%r11d
  40479b:	48 63 c0             	movslq %eax,%rax
  40479e:	c4 c1 79 6e db       	vmovd  %r11d,%xmm3
  4047a3:	4d 8d 1c 04          	lea    (%r12,%rax,1),%r11
  4047a7:	48 f7 d8             	neg    %rax
  4047aa:	c5 f8 92 ca          	kmovw  %edx,%k1
  4047ae:	c4 e2 7d 58 db       	vpbroadcastd %xmm3,%ymm3
  4047b3:	31 d2                	xor    %edx,%edx
  4047b5:	4a 8d 3c de          	lea    (%rsi,%r11,8),%rdi
  4047b9:	4c 01 d0             	add    %r10,%rax
  4047bc:	45 31 db             	xor    %r11d,%r11d
  4047bf:	48 83 c2 08          	add    $0x8,%rdx
  4047c3:	62 f1 65 49 66 d4    	vpcmpgtd %zmm4,%zmm3,%k2{%k1}
  4047c9:	62 d1 fd 4a 11 14 3b 	vmovupd %zmm2,(%r11,%rdi,1){%k2}
  4047d0:	49 83 c3 40          	add    $0x40,%r11
  4047d4:	c5 dd fe e1          	vpaddd %ymm1,%ymm4,%ymm4
  4047d8:	48 39 c2             	cmp    %rax,%rdx
  4047db:	72 e2                	jb     4047bf <_Z36test_exp_seissol_star9x15_breuer_oldv+0x85f>
  4047dd:	41 83 c7 01          	add    $0x1,%r15d
  4047e1:	4d 01 f4             	add    %r14,%r12
  4047e4:	4f 8d 6c f5 00       	lea    0x0(%r13,%r14,8),%r13
  4047e9:	41 39 df             	cmp    %ebx,%r15d
  4047ec:	0f 82 c8 fe ff ff    	jb     4046ba <_Z36test_exp_seissol_star9x15_breuer_oldv+0x75a>
  4047f2:	bb 28 00 00 00       	mov    $0x28,%ebx
  4047f7:	48 8d bc 24 f0 04 00 	lea    0x4f0(%rsp),%rdi
  4047fe:	00 
  4047ff:	48 c7 84 24 d8 04 00 	movq   $0x62a240,0x4d8(%rsp)
  404806:	00 40 a2 62 00 
  40480b:	be 40 00 00 00       	mov    $0x40,%esi
  404810:	89 9c 24 e8 04 00 00 	mov    %ebx,0x4e8(%rsp)
  404817:	ba c0 12 00 00       	mov    $0x12c0,%edx
  40481c:	89 9c 24 e0 04 00 00 	mov    %ebx,0x4e0(%rsp)
  404823:	c7 84 24 e4 04 00 00 	movl   $0xf,0x4e4(%rsp)
  40482a:	0f 00 00 00 
  40482e:	e8 8d cd ff ff       	callq  4015c0 <posix_memalign@plt>
  404833:	44 8b ac 24 e4 04 00 	mov    0x4e4(%rsp),%r13d
  40483a:	00 
  40483b:	45 31 ff             	xor    %r15d,%r15d
  40483e:	45 85 ed             	test   %r13d,%r13d
  404841:	0f 8e 8e 01 00 00    	jle    4049d5 <_Z36test_exp_seissol_star9x15_breuer_oldv+0xa75>
  404847:	44 8b 8c 24 e0 04 00 	mov    0x4e0(%rsp),%r9d
  40484e:	00 
  40484f:	4c 8b 84 24 f0 04 00 	mov    0x4f0(%rsp),%r8
  404856:	00 
  404857:	b8 08 00 00 00       	mov    $0x8,%eax
  40485c:	62 f1 ed 48 ef d2    	vpxorq %zmm2,%zmm2,%zmm2
  404862:	31 db                	xor    %ebx,%ebx
  404864:	c5 f9 6e c8          	vmovd  %eax,%xmm1
  404868:	49 63 c9             	movslq %r9d,%rcx
  40486b:	44 89 ce             	mov    %r9d,%esi
  40486e:	4c 63 a4 24 e8 04 00 	movslq 0x4e8(%rsp),%r12
  404875:	00 
  404876:	c5 fe 6f 05 02 16 02 	vmovdqu 0x21602(%rip),%ymm0        # 425e80 <_IO_stdin_used+0xc0>
  40487d:	00 
  40487e:	83 e6 f8             	and    $0xfffffff8,%esi
  404881:	4d 89 c6             	mov    %r8,%r14
  404884:	48 8d 04 cd 00 00 00 	lea    0x0(,%rcx,8),%rax
  40488b:	00 
  40488c:	48 89 84 24 60 04 00 	mov    %rax,0x460(%rsp)
  404893:	00 
  404894:	4c 63 d6             	movslq %esi,%r10
  404897:	c4 e2 7d 58 c9       	vpbroadcastd %xmm1,%ymm1
  40489c:	45 85 c9             	test   %r9d,%r9d
  40489f:	0f 8e 1c 01 00 00    	jle    4049c1 <_Z36test_exp_seissol_star9x15_breuer_oldv+0xa61>
  4048a5:	41 83 f9 0c          	cmp    $0xc,%r9d
  4048a9:	0f 8e 96 00 00 00    	jle    404945 <_Z36test_exp_seissol_star9x15_breuer_oldv+0x9e5>
  4048af:	c5 fe 7f 8c 24 00 04 	vmovdqu %ymm1,0x400(%rsp)
  4048b6:	00 00 
  4048b8:	48 89 0c 24          	mov    %rcx,(%rsp)
  4048bc:	4c 89 94 24 f0 03 00 	mov    %r10,0x3f0(%rsp)
  4048c3:	00 
  4048c4:	89 b4 24 f8 03 00 00 	mov    %esi,0x3f8(%rsp)
  4048cb:	4c 89 84 24 48 04 00 	mov    %r8,0x448(%rsp)
  4048d2:	00 
  4048d3:	44 89 8c 24 50 04 00 	mov    %r9d,0x450(%rsp)
  4048da:	00 
  4048db:	4c 89 f7             	mov    %r14,%rdi
  4048de:	31 f6                	xor    %esi,%esi
  4048e0:	48 8b 94 24 60 04 00 	mov    0x460(%rsp),%rdx
  4048e7:	00 
  4048e8:	e8 13 e4 01 00       	callq  422d00 <__intel_mic_avx512f_memset>
  4048ed:	41 83 c7 01          	add    $0x1,%r15d
  4048f1:	4c 01 e3             	add    %r12,%rbx
  4048f4:	4f 8d 34 e6          	lea    (%r14,%r12,8),%r14
  4048f8:	45 39 ef             	cmp    %r13d,%r15d
  4048fb:	0f 83 d4 00 00 00    	jae    4049d5 <_Z36test_exp_seissol_star9x15_breuer_oldv+0xa75>
  404901:	83 bc 24 50 04 00 00 	cmpl   $0xc,0x450(%rsp)
  404908:	0c 
  404909:	7f d0                	jg     4048db <_Z36test_exp_seissol_star9x15_breuer_oldv+0x97b>
  40490b:	c5 fe 6f 05 6d 15 02 	vmovdqu 0x2156d(%rip),%ymm0        # 425e80 <_IO_stdin_used+0xc0>
  404912:	00 
  404913:	c5 fe 6f 8c 24 00 04 	vmovdqu 0x400(%rsp),%ymm1
  40491a:	00 00 
  40491c:	62 f1 ed 48 ef d2    	vpxorq %zmm2,%zmm2,%zmm2
  404922:	4c 8b 94 24 f0 03 00 	mov    0x3f0(%rsp),%r10
  404929:	00 
  40492a:	8b b4 24 f8 03 00 00 	mov    0x3f8(%rsp),%esi
  404931:	48 8b 0c 24          	mov    (%rsp),%rcx
  404935:	4c 8b 84 24 48 04 00 	mov    0x448(%rsp),%r8
  40493c:	00 
  40493d:	44 8b 8c 24 50 04 00 	mov    0x450(%rsp),%r9d
  404944:	00 
  404945:	41 83 f9 08          	cmp    $0x8,%r9d
  404949:	0f 8c e1 03 00 00    	jl     404d30 <_Z36test_exp_seissol_star9x15_breuer_oldv+0xdd0>
  40494f:	89 f0                	mov    %esi,%eax
  404951:	45 31 db             	xor    %r11d,%r11d
  404954:	49 8d 14 d8          	lea    (%r8,%rbx,8),%rdx
  404958:	62 b1 fd 48 11 14 da 	vmovupd %zmm2,(%rdx,%r11,8)
  40495f:	49 83 c3 08          	add    $0x8,%r11
  404963:	4d 39 d3             	cmp    %r10,%r11
  404966:	72 f0                	jb     404958 <_Z36test_exp_seissol_star9x15_breuer_oldv+0x9f8>
  404968:	8d 50 01             	lea    0x1(%rax),%edx
  40496b:	44 39 ca             	cmp    %r9d,%edx
  40496e:	77 51                	ja     4049c1 <_Z36test_exp_seissol_star9x15_breuer_oldv+0xa61>
  404970:	45 89 cb             	mov    %r9d,%r11d
  404973:	ba ff 00 00 00       	mov    $0xff,%edx
  404978:	c5 fd 6f e0          	vmovdqa %ymm0,%ymm4
  40497c:	41 29 c3             	sub    %eax,%r11d
  40497f:	48 63 c0             	movslq %eax,%rax
  404982:	c4 c1 79 6e db       	vmovd  %r11d,%xmm3
  404987:	4c 8d 1c 03          	lea    (%rbx,%rax,1),%r11
  40498b:	48 f7 d8             	neg    %rax
  40498e:	c5 f8 92 ca          	kmovw  %edx,%k1
  404992:	c4 e2 7d 58 db       	vpbroadcastd %xmm3,%ymm3
  404997:	31 d2                	xor    %edx,%edx
  404999:	4b 8d 3c d8          	lea    (%r8,%r11,8),%rdi
  40499d:	48 01 c8             	add    %rcx,%rax
  4049a0:	45 31 db             	xor    %r11d,%r11d
  4049a3:	48 83 c2 08          	add    $0x8,%rdx
  4049a7:	62 f1 65 49 66 d4    	vpcmpgtd %zmm4,%zmm3,%k2{%k1}
  4049ad:	62 d1 fd 4a 11 14 3b 	vmovupd %zmm2,(%r11,%rdi,1){%k2}
  4049b4:	49 83 c3 40          	add    $0x40,%r11
  4049b8:	c5 dd fe e1          	vpaddd %ymm1,%ymm4,%ymm4
  4049bc:	48 39 c2             	cmp    %rax,%rdx
  4049bf:	72 e2                	jb     4049a3 <_Z36test_exp_seissol_star9x15_breuer_oldv+0xa43>
  4049c1:	41 83 c7 01          	add    $0x1,%r15d
  4049c5:	4c 01 e3             	add    %r12,%rbx
  4049c8:	4f 8d 34 e6          	lea    (%r14,%r12,8),%r14
  4049cc:	45 39 ef             	cmp    %r13d,%r15d
  4049cf:	0f 82 c7 fe ff ff    	jb     40489c <_Z36test_exp_seissol_star9x15_breuer_oldv+0x93c>
  4049d5:	8b 84 24 a4 04 00 00 	mov    0x4a4(%rsp),%eax
  4049dc:	89 04 24             	mov    %eax,(%rsp)
  4049df:	44 8b ac 24 a0 04 00 	mov    0x4a0(%rsp),%r13d
  4049e6:	00 
  4049e7:	45 31 ff             	xor    %r15d,%r15d
  4049ea:	44 8b b4 24 c4 04 00 	mov    0x4c4(%rsp),%r14d
  4049f1:	00 
  4049f2:	85 c0                	test   %eax,%eax
  4049f4:	0f 8e c6 00 00 00    	jle    404ac0 <_Z36test_exp_seissol_star9x15_breuer_oldv+0xb60>
  4049fa:	31 db                	xor    %ebx,%ebx
  4049fc:	45 85 f6             	test   %r14d,%r14d
  4049ff:	0f 8e ad 00 00 00    	jle    404ab2 <_Z36test_exp_seissol_star9x15_breuer_oldv+0xb52>
  404a05:	45 31 e4             	xor    %r12d,%r12d
  404a08:	45 85 ed             	test   %r13d,%r13d
  404a0b:	0f 8e 95 00 00 00    	jle    404aa6 <_Z36test_exp_seissol_star9x15_breuer_oldv+0xb46>
  404a11:	48 8b 84 24 98 04 00 	mov    0x498(%rsp),%rax
  404a18:	00 
  404a19:	48 8d bc 24 98 04 00 	lea    0x498(%rsp),%rdi
  404a20:	00 
  404a21:	44 89 e6             	mov    %r12d,%esi
  404a24:	44 89 fa             	mov    %r15d,%edx
  404a27:	ff 10                	callq  *(%rax)
  404a29:	c5 fb 11 84 24 f8 03 	vmovsd %xmm0,0x3f8(%rsp)
  404a30:	00 00 
  404a32:	48 8b 84 24 b8 04 00 	mov    0x4b8(%rsp),%rax
  404a39:	00 
  404a3a:	48 8d bc 24 b8 04 00 	lea    0x4b8(%rsp),%rdi
  404a41:	00 
  404a42:	44 89 e6             	mov    %r12d,%esi
  404a45:	89 da                	mov    %ebx,%edx
  404a47:	ff 10                	callq  *(%rax)
  404a49:	c5 fb 11 84 24 f0 03 	vmovsd %xmm0,0x3f0(%rsp)
  404a50:	00 00 
  404a52:	48 8b 84 24 78 04 00 	mov    0x478(%rsp),%rax
  404a59:	00 
  404a5a:	48 8d bc 24 78 04 00 	lea    0x478(%rsp),%rdi
  404a61:	00 
  404a62:	89 de                	mov    %ebx,%esi
  404a64:	44 89 fa             	mov    %r15d,%edx
  404a67:	ff 10                	callq  *(%rax)
  404a69:	c5 f9 28 c8          	vmovapd %xmm0,%xmm1
  404a6d:	c5 fb 10 84 24 f8 03 	vmovsd 0x3f8(%rsp),%xmm0
  404a74:	00 00 
  404a76:	48 8b 84 24 98 04 00 	mov    0x498(%rsp),%rax
  404a7d:	00 
  404a7e:	44 89 e6             	mov    %r12d,%esi
  404a81:	44 89 fa             	mov    %r15d,%edx
  404a84:	48 8d bc 24 98 04 00 	lea    0x498(%rsp),%rdi
  404a8b:	00 
  404a8c:	c4 e2 f1 b9 84 24 f0 	vfmadd231sd 0x3f0(%rsp),%xmm1,%xmm0
  404a93:	03 00 00 
  404a96:	ff 50 08             	callq  *0x8(%rax)
  404a99:	41 83 c4 01          	add    $0x1,%r12d
  404a9d:	45 39 ec             	cmp    %r13d,%r12d
  404aa0:	0f 8c 6b ff ff ff    	jl     404a11 <_Z36test_exp_seissol_star9x15_breuer_oldv+0xab1>
  404aa6:	83 c3 01             	add    $0x1,%ebx
  404aa9:	44 39 f3             	cmp    %r14d,%ebx
  404aac:	0f 8c 53 ff ff ff    	jl     404a05 <_Z36test_exp_seissol_star9x15_breuer_oldv+0xaa5>
  404ab2:	41 83 c7 01          	add    $0x1,%r15d
  404ab6:	44 3b 3c 24          	cmp    (%rsp),%r15d
  404aba:	0f 8c 3a ff ff ff    	jl     4049fa <_Z36test_exp_seissol_star9x15_breuer_oldv+0xa9a>
  404ac0:	48 8b 84 24 f8 04 00 	mov    0x4f8(%rsp),%rax
  404ac7:	00 
  404ac8:	48 8b bc 24 d0 04 00 	mov    0x4d0(%rsp),%rdi
  404acf:	00 
  404ad0:	48 8b 94 24 f0 04 00 	mov    0x4f0(%rsp),%rdx
  404ad7:	00 
  404ad8:	48 8b 70 18          	mov    0x18(%rax),%rsi
  404adc:	e8 bf 02 00 00       	callq  404da0 <_Z31exp_seissol_star9x15_breuer_oldPKdS0_Pd>
  404ae1:	48 8d bc 24 98 04 00 	lea    0x498(%rsp),%rdi
  404ae8:	00 
  404ae9:	48 8d b4 24 d8 04 00 	lea    0x4d8(%rsp),%rsi
  404af0:	00 
  404af1:	e8 ea 8d 00 00       	callq  40d8e0 <_Z13assert_equalsRK6MatrixS1_>
  404af6:	bf 01 00 00 00       	mov    $0x1,%edi
  404afb:	48 8d b4 24 f0 03 00 	lea    0x3f0(%rsp),%rsi
  404b02:	00 
  404b03:	e8 e8 cb ff ff       	callq  4016f0 <clock_gettime@plt>
  404b08:	31 db                	xor    %ebx,%ebx
  404b0a:	48 8b 84 24 f8 04 00 	mov    0x4f8(%rsp),%rax
  404b11:	00 
  404b12:	48 8b bc 24 d0 04 00 	mov    0x4d0(%rsp),%rdi
  404b19:	00 
  404b1a:	48 8b 94 24 f0 04 00 	mov    0x4f0(%rsp),%rdx
  404b21:	00 
  404b22:	48 8b 70 18          	mov    0x18(%rax),%rsi
  404b26:	e8 75 02 00 00       	callq  404da0 <_Z31exp_seissol_star9x15_breuer_oldPKdS0_Pd>
  404b2b:	83 c3 01             	add    $0x1,%ebx
  404b2e:	81 fb b8 0b 00 00    	cmp    $0xbb8,%ebx
  404b34:	7c d4                	jl     404b0a <_Z36test_exp_seissol_star9x15_breuer_oldv+0xbaa>
  404b36:	bf 01 00 00 00       	mov    $0x1,%edi
  404b3b:	48 8d b4 24 00 04 00 	lea    0x400(%rsp),%rsi
  404b42:	00 
  404b43:	e8 a8 cb ff ff       	callq  4016f0 <clock_gettime@plt>
  404b48:	bf c0 aa 62 00       	mov    $0x62aac0,%edi
  404b4d:	be 08 60 42 00       	mov    $0x426008,%esi
  404b52:	e8 c9 ca ff ff       	callq  401620 <_ZStlsISt11char_traitsIcEERSt13basic_ostreamIcT_ES5_PKc@plt>
  404b57:	48 89 c7             	mov    %rax,%rdi
  404b5a:	48 8b 84 24 00 04 00 	mov    0x400(%rsp),%rax
  404b61:	00 
  404b62:	62 e3 d5 00 27 2d 53 	vgetmantsd $0x0,0x21353(%rip),%xmm21,%xmm21        # 425ec0 <_IO_stdin_used+0x100>
  404b69:	13 02 00 00 
  404b6d:	48 2b 84 24 f0 03 00 	sub    0x3f0(%rsp),%rax
  404b74:	00 
  404b75:	48 69 d0 00 ca 9a 3b 	imul   $0x3b9aca00,%rax,%rdx
  404b7c:	62 a2 d5 00 cb fd    	vrcp28sd %xmm21,%xmm21,%xmm23
  404b82:	62 e1 ff 08 10 25 3c 	vmovsd 0x2133c(%rip),%xmm20        # 425ec8 <_IO_stdin_used+0x108>
  404b89:	13 02 00 
  404b8c:	62 e2 e5 00 43 1d 2a 	vgetexpsd 0x2132a(%rip),%xmm19,%xmm19        # 425ec0 <_IO_stdin_used+0x100>
  404b93:	13 02 00 
  404b96:	48 03 94 24 08 04 00 	add    0x408(%rsp),%rdx
  404b9d:	00 
  404b9e:	62 a2 c5 10 bd e5    	vfnmadd231sd {rn-sae},%xmm21,%xmm23,%xmm20
  404ba4:	48 2b 94 24 f8 03 00 	sub    0x3f8(%rsp),%rdx
  404bab:	00 
  404bac:	62 e1 ff 00 2a c2    	vcvtsi2sd %rdx,%xmm16,%xmm16
  404bb2:	62 e1 ff 00 59 0d fc 	vmulsd 0x212fc(%rip),%xmm16,%xmm17        # 425eb8 <_IO_stdin_used+0xf8>
  404bb9:	12 02 00 
  404bbc:	62 a3 f5 00 27 f1 00 	vgetmantsd $0x0,%xmm17,%xmm17,%xmm22
  404bc3:	62 a2 f5 00 43 d1    	vgetexpsd %xmm17,%xmm17,%xmm18
  404bc9:	62 21 c7 10 59 c6    	vmulsd {rn-sae},%xmm22,%xmm23,%xmm24
  404bcf:	62 a2 dd 10 b9 ff    	vfmadd231sd {rn-sae},%xmm23,%xmm20,%xmm23
  404bd5:	62 a2 bd 10 bd f5    	vfnmadd231sd {rn-sae},%xmm21,%xmm24,%xmm22
  404bdb:	62 21 ef 00 5c cb    	vsubsd %xmm19,%xmm18,%xmm25
  404be1:	62 22 cd 10 b9 c7    	vfmadd231sd {rn-sae},%xmm23,%xmm22,%xmm24
  404be7:	62 92 bd 00 2d c1    	vscalefsd %xmm25,%xmm24,%xmm0
  404bed:	e8 ee cb ff ff       	callq  4017e0 <_ZNSolsEd@plt>
  404bf2:	48 89 c7             	mov    %rax,%rdi
  404bf5:	be a0 15 40 00       	mov    $0x4015a0,%esi
  404bfa:	e8 51 ca ff ff       	callq  401650 <_ZNSolsEPFRSoS_E@plt>
  404bff:	48 8b bc 24 f0 04 00 	mov    0x4f0(%rsp),%rdi
  404c06:	00 
  404c07:	48 c7 84 24 d8 04 00 	movq   $0x62a240,0x4d8(%rsp)
  404c0e:	00 40 a2 62 00 
  404c13:	e8 98 ca ff ff       	callq  4016b0 <free@plt>
  404c18:	48 8b bc 24 b0 04 00 	mov    0x4b0(%rsp),%rdi
  404c1f:	00 
  404c20:	48 c7 84 24 98 04 00 	movq   $0x62a240,0x498(%rsp)
  404c27:	00 40 a2 62 00 
  404c2c:	e8 7f ca ff ff       	callq  4016b0 <free@plt>
  404c31:	48 8b 9c 24 f8 04 00 	mov    0x4f8(%rsp),%rbx
  404c38:	00 
  404c39:	48 85 db             	test   %rbx,%rbx
  404c3c:	74 39                	je     404c77 <_Z36test_exp_seissol_star9x15_breuer_oldv+0xd17>
  404c3e:	48 8b 7b 18          	mov    0x18(%rbx),%rdi
  404c42:	48 c7 03 f8 a1 62 00 	movq   $0x62a1f8,(%rbx)
  404c49:	48 85 ff             	test   %rdi,%rdi
  404c4c:	74 05                	je     404c53 <_Z36test_exp_seissol_star9x15_breuer_oldv+0xcf3>
  404c4e:	e8 8d ca ff ff       	callq  4016e0 <_ZdaPv@plt>
  404c53:	48 8b 7b 20          	mov    0x20(%rbx),%rdi
  404c57:	48 85 ff             	test   %rdi,%rdi
  404c5a:	74 05                	je     404c61 <_Z36test_exp_seissol_star9x15_breuer_oldv+0xd01>
  404c5c:	e8 7f ca ff ff       	callq  4016e0 <_ZdaPv@plt>
  404c61:	48 8b 7b 28          	mov    0x28(%rbx),%rdi
  404c65:	48 85 ff             	test   %rdi,%rdi
  404c68:	74 05                	je     404c6f <_Z36test_exp_seissol_star9x15_breuer_oldv+0xd0f>
  404c6a:	e8 71 ca ff ff       	callq  4016e0 <_ZdaPv@plt>
  404c6f:	48 89 df             	mov    %rbx,%rdi
  404c72:	e8 99 c9 ff ff       	callq  401610 <_ZdlPv@plt>
  404c77:	48 8b bc 24 90 04 00 	mov    0x490(%rsp),%rdi
  404c7e:	00 
  404c7f:	48 c7 84 24 f8 04 00 	movq   $0x0,0x4f8(%rsp)
  404c86:	00 00 00 00 00 
  404c8b:	48 c7 84 24 78 04 00 	movq   $0x62a240,0x478(%rsp)
  404c92:	00 40 a2 62 00 
  404c97:	e8 14 ca ff ff       	callq  4016b0 <free@plt>
  404c9c:	48 8b bc 24 d0 04 00 	mov    0x4d0(%rsp),%rdi
  404ca3:	00 
  404ca4:	48 c7 84 24 b8 04 00 	movq   $0x62a240,0x4b8(%rsp)
  404cab:	00 40 a2 62 00 
  404cb0:	e8 fb c9 ff ff       	callq  4016b0 <free@plt>
  404cb5:	48 8b 9c 24 30 04 00 	mov    0x430(%rsp),%rbx
  404cbc:	00 
  404cbd:	4c 8b a4 24 40 04 00 	mov    0x440(%rsp),%r12
  404cc4:	00 
  404cc5:	4c 8b ac 24 38 04 00 	mov    0x438(%rsp),%r13
  404ccc:	00 
  404ccd:	4c 8b b4 24 20 04 00 	mov    0x420(%rsp),%r14
  404cd4:	00 
  404cd5:	4c 8b bc 24 28 04 00 	mov    0x428(%rsp),%r15
  404cdc:	00 
  404cdd:	48 89 ec             	mov    %rbp,%rsp
  404ce0:	5d                   	pop    %rbp
  404ce1:	c3                   	retq   
  404ce2:	48 89 04 24          	mov    %rax,(%rsp)
  404ce6:	48 8d bc 24 d8 04 00 	lea    0x4d8(%rsp),%rdi
  404ced:	00 
  404cee:	e8 7d d6 01 00       	callq  422370 <_ZN11DenseMatrixD1Ev>
  404cf3:	48 8d bc 24 98 04 00 	lea    0x498(%rsp),%rdi
  404cfa:	00 
  404cfb:	e8 70 d6 01 00       	callq  422370 <_ZN11DenseMatrixD1Ev>
  404d00:	48 8d bc 24 f8 04 00 	lea    0x4f8(%rsp),%rdi
  404d07:	00 
  404d08:	e8 e3 db 01 00       	callq  4228f0 <_ZNSt10unique_ptrI12SparseMatrixSt14default_deleteIS0_EED1Ev>
  404d0d:	48 8d bc 24 78 04 00 	lea    0x478(%rsp),%rdi
  404d14:	00 
  404d15:	e8 56 d6 01 00       	callq  422370 <_ZN11DenseMatrixD1Ev>
  404d1a:	48 8d bc 24 b8 04 00 	lea    0x4b8(%rsp),%rdi
  404d21:	00 
  404d22:	e8 49 d6 01 00       	callq  422370 <_ZN11DenseMatrixD1Ev>
  404d27:	48 8b 3c 24          	mov    (%rsp),%rdi
  404d2b:	e8 80 ca ff ff       	callq  4017b0 <_Unwind_Resume@plt>
  404d30:	31 c0                	xor    %eax,%eax
  404d32:	e9 31 fc ff ff       	jmpq   404968 <_Z36test_exp_seissol_star9x15_breuer_oldv+0xa08>
  404d37:	31 c0                	xor    %eax,%eax
  404d39:	e9 47 fa ff ff       	jmpq   404785 <_Z36test_exp_seissol_star9x15_breuer_oldv+0x825>
  404d3e:	48 8b bc 24 f8 04 00 	mov    0x4f8(%rsp),%rdi
  404d45:	00 
  404d46:	44 89 ee             	mov    %r13d,%esi
  404d49:	44 89 e2             	mov    %r12d,%edx
  404d4c:	48 8b 07             	mov    (%rdi),%rax
  404d4f:	ff 50 08             	callq  *0x8(%rax)
  404d52:	e9 9d f8 ff ff       	jmpq   4045f4 <_Z36test_exp_seissol_star9x15_breuer_oldv+0x694>
  404d57:	48 89 04 24          	mov    %rax,(%rsp)
  404d5b:	48 8d bc 24 f8 04 00 	lea    0x4f8(%rsp),%rdi
  404d62:	00 
  404d63:	e8 88 db 01 00       	callq  4228f0 <_ZNSt10unique_ptrI12SparseMatrixSt14default_deleteIS0_EED1Ev>
  404d68:	eb a3                	jmp    404d0d <_Z36test_exp_seissol_star9x15_breuer_oldv+0xdad>
  404d6a:	48 89 04 24          	mov    %rax,(%rsp)
  404d6e:	4c 89 e7             	mov    %r12,%rdi
  404d71:	e8 9a c8 ff ff       	callq  401610 <_ZdlPv@plt>
  404d76:	eb 95                	jmp    404d0d <_Z36test_exp_seissol_star9x15_breuer_oldv+0xdad>
  404d78:	48 89 04 24          	mov    %rax,(%rsp)
  404d7c:	eb 8f                	jmp    404d0d <_Z36test_exp_seissol_star9x15_breuer_oldv+0xdad>
  404d7e:	31 d2                	xor    %edx,%edx
  404d80:	e9 ac f6 ff ff       	jmpq   404431 <_Z36test_exp_seissol_star9x15_breuer_oldv+0x4d1>
  404d85:	31 d2                	xor    %edx,%edx
  404d87:	e9 61 f3 ff ff       	jmpq   4040ed <_Z36test_exp_seissol_star9x15_breuer_oldv+0x18d>
  404d8c:	8b 44 24 38          	mov    0x38(%rsp),%eax
  404d90:	bb 28 00 00 00       	mov    $0x28,%ebx
  404d95:	e9 c1 f3 ff ff       	jmpq   40415b <_Z36test_exp_seissol_star9x15_breuer_oldv+0x1fb>
  404d9a:	66 0f 1f 44 00 00    	nopw   0x0(%rax,%rax,1)

0000000000404da0 <_Z31exp_seissol_star9x15_breuer_oldPKdS0_Pd>:
  404da0:	62 f2 fd 48 19 26    	vbroadcastsd (%rsi),%zmm4
  404da6:	62 71 7c 48 10 4f 1e 	vmovups 0x780(%rdi),%zmm9
  404dad:	62 71 7c 48 10 57 1f 	vmovups 0x7c0(%rdi),%zmm10
  404db4:	62 71 7c 48 10 5f 20 	vmovups 0x800(%rdi),%zmm11
  404dbb:	62 f1 7c 48 10 47 21 	vmovups 0x840(%rdi),%zmm0
  404dc2:	62 72 dd 48 a8 0a    	vfmadd213pd (%rdx),%zmm4,%zmm9
  404dc8:	62 71 fd 48 11 0a    	vmovupd %zmm9,(%rdx)
  404dce:	62 72 dd 48 a8 52 01 	vfmadd213pd 0x40(%rdx),%zmm4,%zmm10
  404dd5:	62 71 fd 48 11 52 01 	vmovupd %zmm10,0x40(%rdx)
  404ddc:	62 72 dd 48 a8 5a 02 	vfmadd213pd 0x80(%rdx),%zmm4,%zmm11
  404de3:	62 71 fd 48 11 5a 02 	vmovupd %zmm11,0x80(%rdx)
  404dea:	62 f2 fd 48 a8 62 03 	vfmadd213pd 0xc0(%rdx),%zmm0,%zmm4
  404df1:	62 f1 fd 48 11 62 03 	vmovupd %zmm4,0xc0(%rdx)
  404df8:	62 72 fd 48 19 46 01 	vbroadcastsd 0x8(%rsi),%zmm8
  404dff:	62 f1 7c 48 10 4f 23 	vmovups 0x8c0(%rdi),%zmm1
  404e06:	62 f1 7c 48 10 57 24 	vmovups 0x900(%rdi),%zmm2
  404e0d:	62 f1 7c 48 10 5f 25 	vmovups 0x940(%rdi),%zmm3
  404e14:	62 72 dd 48 98 47 26 	vfmadd132pd 0x980(%rdi),%zmm4,%zmm8
  404e1b:	62 72 f5 58 b8 4e 01 	vfmadd231pd 0x8(%rsi){1to8},%zmm1,%zmm9
  404e22:	62 72 ed 58 b8 56 01 	vfmadd231pd 0x8(%rsi){1to8},%zmm2,%zmm10
  404e29:	62 72 e5 58 b8 5e 01 	vfmadd231pd 0x8(%rsi){1to8},%zmm3,%zmm11
  404e30:	62 71 fd 48 11 0a    	vmovupd %zmm9,(%rdx)
  404e36:	62 71 fd 48 11 52 01 	vmovupd %zmm10,0x40(%rdx)
  404e3d:	62 71 fd 48 11 5a 02 	vmovupd %zmm11,0x80(%rdx)
  404e44:	62 71 fd 48 11 42 03 	vmovupd %zmm8,0xc0(%rdx)
  404e4b:	62 72 fd 48 19 66 02 	vbroadcastsd 0x10(%rsi),%zmm12
  404e52:	62 f1 7c 48 10 6f 28 	vmovups 0xa00(%rdi),%zmm5
  404e59:	62 f1 7c 48 10 77 29 	vmovups 0xa40(%rdi),%zmm6
  404e60:	62 f1 7c 48 10 7f 2a 	vmovups 0xa80(%rdi),%zmm7
  404e67:	62 72 bd 48 98 67 2b 	vfmadd132pd 0xac0(%rdi),%zmm8,%zmm12
  404e6e:	62 72 d5 58 b8 4e 02 	vfmadd231pd 0x10(%rsi){1to8},%zmm5,%zmm9
  404e75:	62 72 cd 58 b8 56 02 	vfmadd231pd 0x10(%rsi){1to8},%zmm6,%zmm10
  404e7c:	62 72 c5 58 b8 5e 02 	vfmadd231pd 0x10(%rsi){1to8},%zmm7,%zmm11
  404e83:	62 71 fd 48 11 0a    	vmovupd %zmm9,(%rdx)
  404e89:	62 71 fd 48 11 52 01 	vmovupd %zmm10,0x40(%rdx)
  404e90:	62 71 fd 48 11 5a 02 	vmovupd %zmm11,0x80(%rdx)
  404e97:	62 71 fd 48 11 62 03 	vmovupd %zmm12,0xc0(%rdx)
  404e9e:	62 e2 fd 48 19 4e 03 	vbroadcastsd 0x18(%rsi),%zmm17
  404ea5:	62 e1 7c 48 10 77 1e 	vmovups 0x780(%rdi),%zmm22
  404eac:	62 e1 7c 48 10 7f 1f 	vmovups 0x7c0(%rdi),%zmm23
  404eb3:	62 61 7c 48 10 47 20 	vmovups 0x800(%rdi),%zmm24
  404eba:	62 71 7c 48 10 6f 21 	vmovups 0x840(%rdi),%zmm13
  404ec1:	62 e2 f5 40 a8 72 05 	vfmadd213pd 0x140(%rdx),%zmm17,%zmm22
  404ec8:	62 e1 fd 48 11 72 05 	vmovupd %zmm22,0x140(%rdx)
  404ecf:	62 e2 f5 40 a8 7a 06 	vfmadd213pd 0x180(%rdx),%zmm17,%zmm23
  404ed6:	62 e1 fd 48 11 7a 06 	vmovupd %zmm23,0x180(%rdx)
  404edd:	62 62 f5 40 a8 42 07 	vfmadd213pd 0x1c0(%rdx),%zmm17,%zmm24
  404ee4:	62 61 fd 48 11 42 07 	vmovupd %zmm24,0x1c0(%rdx)
  404eeb:	62 e2 95 48 a8 4a 08 	vfmadd213pd 0x200(%rdx),%zmm13,%zmm17
  404ef2:	62 e1 fd 48 11 4a 08 	vmovupd %zmm17,0x200(%rdx)
  404ef9:	62 e2 fd 48 19 6e 04 	vbroadcastsd 0x20(%rsi),%zmm21
  404f00:	62 71 7c 48 10 77 23 	vmovups 0x8c0(%rdi),%zmm14
  404f07:	62 71 7c 48 10 7f 24 	vmovups 0x900(%rdi),%zmm15
  404f0e:	62 e1 7c 48 10 47 25 	vmovups 0x940(%rdi),%zmm16
  404f15:	62 e2 f5 40 98 6f 26 	vfmadd132pd 0x980(%rdi),%zmm17,%zmm21
  404f1c:	62 e2 8d 58 b8 76 04 	vfmadd231pd 0x20(%rsi){1to8},%zmm14,%zmm22
  404f23:	62 e2 85 58 b8 7e 04 	vfmadd231pd 0x20(%rsi){1to8},%zmm15,%zmm23
  404f2a:	62 62 fd 50 b8 46 04 	vfmadd231pd 0x20(%rsi){1to8},%zmm16,%zmm24
  404f31:	62 e1 fd 48 11 72 05 	vmovupd %zmm22,0x140(%rdx)
  404f38:	62 e1 fd 48 11 7a 06 	vmovupd %zmm23,0x180(%rdx)
  404f3f:	62 61 fd 48 11 42 07 	vmovupd %zmm24,0x1c0(%rdx)
  404f46:	62 e1 fd 48 11 6a 08 	vmovupd %zmm21,0x200(%rdx)
  404f4d:	62 62 fd 48 19 4e 05 	vbroadcastsd 0x28(%rsi),%zmm25
  404f54:	62 e1 7c 48 10 57 28 	vmovups 0xa00(%rdi),%zmm18
  404f5b:	62 e1 7c 48 10 5f 29 	vmovups 0xa40(%rdi),%zmm19
  404f62:	62 e1 7c 48 10 67 2a 	vmovups 0xa80(%rdi),%zmm20
  404f69:	62 62 d5 40 98 4f 2b 	vfmadd132pd 0xac0(%rdi),%zmm21,%zmm25
  404f70:	62 e2 ed 50 b8 76 05 	vfmadd231pd 0x28(%rsi){1to8},%zmm18,%zmm22
  404f77:	62 e2 e5 50 b8 7e 05 	vfmadd231pd 0x28(%rsi){1to8},%zmm19,%zmm23
  404f7e:	62 62 dd 50 b8 46 05 	vfmadd231pd 0x28(%rsi){1to8},%zmm20,%zmm24
  404f85:	62 e1 fd 48 11 72 05 	vmovupd %zmm22,0x140(%rdx)
  404f8c:	62 e1 fd 48 11 7a 06 	vmovupd %zmm23,0x180(%rdx)
  404f93:	62 61 fd 48 11 42 07 	vmovupd %zmm24,0x1c0(%rdx)
  404f9a:	62 61 fd 48 11 4a 08 	vmovupd %zmm25,0x200(%rdx)
  404fa1:	62 62 fd 48 19 76 06 	vbroadcastsd 0x30(%rsi),%zmm30
  404fa8:	62 f1 7c 48 10 47 1e 	vmovups 0x780(%rdi),%zmm0
  404faf:	62 f1 7c 48 10 4f 1f 	vmovups 0x7c0(%rdi),%zmm1
  404fb6:	62 f1 7c 48 10 57 20 	vmovups 0x800(%rdi),%zmm2
  404fbd:	62 61 7c 48 10 57 21 	vmovups 0x840(%rdi),%zmm26
  404fc4:	62 f2 8d 40 a8 42 0a 	vfmadd213pd 0x280(%rdx),%zmm30,%zmm0
  404fcb:	62 f1 fd 48 11 42 0a 	vmovupd %zmm0,0x280(%rdx)
  404fd2:	62 f2 8d 40 a8 4a 0b 	vfmadd213pd 0x2c0(%rdx),%zmm30,%zmm1
  404fd9:	62 f1 fd 48 11 4a 0b 	vmovupd %zmm1,0x2c0(%rdx)
  404fe0:	62 f2 8d 40 a8 52 0c 	vfmadd213pd 0x300(%rdx),%zmm30,%zmm2
  404fe7:	62 f1 fd 48 11 52 0c 	vmovupd %zmm2,0x300(%rdx)
  404fee:	62 62 ad 40 a8 72 0d 	vfmadd213pd 0x340(%rdx),%zmm26,%zmm30
  404ff5:	62 61 fd 48 11 72 0d 	vmovupd %zmm30,0x340(%rdx)
  404ffc:	62 62 fd 48 19 56 07 	vbroadcastsd 0x38(%rsi),%zmm26
  405003:	62 61 7c 48 10 5f 23 	vmovups 0x8c0(%rdi),%zmm27
  40500a:	62 61 7c 48 10 67 24 	vmovups 0x900(%rdi),%zmm28
  405011:	62 61 7c 48 10 6f 25 	vmovups 0x940(%rdi),%zmm29
  405018:	62 62 8d 40 98 57 26 	vfmadd132pd 0x980(%rdi),%zmm30,%zmm26
  40501f:	62 f2 a5 50 b8 46 07 	vfmadd231pd 0x38(%rsi){1to8},%zmm27,%zmm0
  405026:	62 f2 9d 50 b8 4e 07 	vfmadd231pd 0x38(%rsi){1to8},%zmm28,%zmm1
  40502d:	62 f2 95 50 b8 56 07 	vfmadd231pd 0x38(%rsi){1to8},%zmm29,%zmm2
  405034:	62 f1 fd 48 11 42 0a 	vmovupd %zmm0,0x280(%rdx)
  40503b:	62 f1 fd 48 11 4a 0b 	vmovupd %zmm1,0x2c0(%rdx)
  405042:	62 f1 fd 48 11 52 0c 	vmovupd %zmm2,0x300(%rdx)
  405049:	62 61 fd 48 11 52 0d 	vmovupd %zmm26,0x340(%rdx)
  405050:	62 f2 fd 48 19 5e 08 	vbroadcastsd 0x40(%rsi),%zmm3
  405057:	62 61 7c 48 10 7f 28 	vmovups 0xa00(%rdi),%zmm31
  40505e:	62 61 7c 48 10 5f 29 	vmovups 0xa40(%rdi),%zmm27
  405065:	62 61 7c 48 10 67 2a 	vmovups 0xa80(%rdi),%zmm28
  40506c:	62 f2 ad 40 98 5f 2b 	vfmadd132pd 0xac0(%rdi),%zmm26,%zmm3
  405073:	62 f2 85 50 b8 46 08 	vfmadd231pd 0x40(%rsi){1to8},%zmm31,%zmm0
  40507a:	62 f2 a5 50 b8 4e 08 	vfmadd231pd 0x40(%rsi){1to8},%zmm27,%zmm1
  405081:	62 f2 9d 50 b8 56 08 	vfmadd231pd 0x40(%rsi){1to8},%zmm28,%zmm2
  405088:	62 f1 fd 48 11 42 0a 	vmovupd %zmm0,0x280(%rdx)
  40508f:	62 f1 fd 48 11 4a 0b 	vmovupd %zmm1,0x2c0(%rdx)
  405096:	62 f1 fd 48 11 52 0c 	vmovupd %zmm2,0x300(%rdx)
  40509d:	62 f1 fd 48 11 5a 0d 	vmovupd %zmm3,0x340(%rdx)
  4050a4:	62 72 fd 48 19 46 09 	vbroadcastsd 0x48(%rsi),%zmm8
  4050ab:	62 71 7c 48 10 4f 1e 	vmovups 0x780(%rdi),%zmm9
  4050b2:	62 71 7c 48 10 57 1f 	vmovups 0x7c0(%rdi),%zmm10
  4050b9:	62 71 7c 48 10 5f 20 	vmovups 0x800(%rdi),%zmm11
  4050c0:	62 f1 7c 48 10 67 21 	vmovups 0x840(%rdi),%zmm4
  4050c7:	62 72 bd 48 a8 4a 0f 	vfmadd213pd 0x3c0(%rdx),%zmm8,%zmm9
  4050ce:	62 71 fd 48 11 4a 0f 	vmovupd %zmm9,0x3c0(%rdx)
  4050d5:	62 72 bd 48 a8 52 10 	vfmadd213pd 0x400(%rdx),%zmm8,%zmm10
  4050dc:	62 71 fd 48 11 52 10 	vmovupd %zmm10,0x400(%rdx)
  4050e3:	62 72 bd 48 a8 5a 11 	vfmadd213pd 0x440(%rdx),%zmm8,%zmm11
  4050ea:	62 71 fd 48 11 5a 11 	vmovupd %zmm11,0x440(%rdx)
  4050f1:	62 72 dd 48 a8 42 12 	vfmadd213pd 0x480(%rdx),%zmm4,%zmm8
  4050f8:	62 71 fd 48 11 42 12 	vmovupd %zmm8,0x480(%rdx)
  4050ff:	62 72 fd 48 19 66 0a 	vbroadcastsd 0x50(%rsi),%zmm12
  405106:	62 f1 7c 48 10 6f 23 	vmovups 0x8c0(%rdi),%zmm5
  40510d:	62 f1 7c 48 10 77 24 	vmovups 0x900(%rdi),%zmm6
  405114:	62 f1 7c 48 10 7f 25 	vmovups 0x940(%rdi),%zmm7
  40511b:	62 72 bd 48 98 67 26 	vfmadd132pd 0x980(%rdi),%zmm8,%zmm12
  405122:	62 72 d5 58 b8 4e 0a 	vfmadd231pd 0x50(%rsi){1to8},%zmm5,%zmm9
  405129:	62 72 cd 58 b8 56 0a 	vfmadd231pd 0x50(%rsi){1to8},%zmm6,%zmm10
  405130:	62 72 c5 58 b8 5e 0a 	vfmadd231pd 0x50(%rsi){1to8},%zmm7,%zmm11
  405137:	62 71 fd 48 11 4a 0f 	vmovupd %zmm9,0x3c0(%rdx)
  40513e:	62 71 fd 48 11 52 10 	vmovupd %zmm10,0x400(%rdx)
  405145:	62 71 fd 48 11 5a 11 	vmovupd %zmm11,0x440(%rdx)
  40514c:	62 71 fd 48 11 62 12 	vmovupd %zmm12,0x480(%rdx)
  405153:	62 e2 fd 48 19 4e 0b 	vbroadcastsd 0x58(%rsi),%zmm17
  40515a:	62 e1 7c 48 10 57 23 	vmovups 0x8c0(%rdi),%zmm18
  405161:	62 e1 7c 48 10 5f 24 	vmovups 0x900(%rdi),%zmm19
  405168:	62 e1 7c 48 10 67 25 	vmovups 0x940(%rdi),%zmm20
  40516f:	62 71 7c 48 10 6f 26 	vmovups 0x980(%rdi),%zmm13
  405176:	62 e2 f5 40 a8 52 14 	vfmadd213pd 0x500(%rdx),%zmm17,%zmm18
  40517d:	62 e1 fd 48 11 52 14 	vmovupd %zmm18,0x500(%rdx)
  405184:	62 e2 f5 40 a8 5a 15 	vfmadd213pd 0x540(%rdx),%zmm17,%zmm19
  40518b:	62 e1 fd 48 11 5a 15 	vmovupd %zmm19,0x540(%rdx)
  405192:	62 e2 f5 40 a8 62 16 	vfmadd213pd 0x580(%rdx),%zmm17,%zmm20
  405199:	62 e1 fd 48 11 62 16 	vmovupd %zmm20,0x580(%rdx)
  4051a0:	62 e2 95 48 a8 4a 17 	vfmadd213pd 0x5c0(%rdx),%zmm13,%zmm17
  4051a7:	62 e1 fd 48 11 4a 17 	vmovupd %zmm17,0x5c0(%rdx)
  4051ae:	62 e2 fd 48 19 6e 0c 	vbroadcastsd 0x60(%rsi),%zmm21
  4051b5:	62 71 7c 48 10 77 28 	vmovups 0xa00(%rdi),%zmm14
  4051bc:	62 71 7c 48 10 7f 29 	vmovups 0xa40(%rdi),%zmm15
  4051c3:	62 e1 7c 48 10 47 2a 	vmovups 0xa80(%rdi),%zmm16
  4051ca:	62 e2 f5 40 98 6f 2b 	vfmadd132pd 0xac0(%rdi),%zmm17,%zmm21
  4051d1:	62 e2 8d 58 b8 56 0c 	vfmadd231pd 0x60(%rsi){1to8},%zmm14,%zmm18
  4051d8:	62 e2 85 58 b8 5e 0c 	vfmadd231pd 0x60(%rsi){1to8},%zmm15,%zmm19
  4051df:	62 e2 fd 50 b8 66 0c 	vfmadd231pd 0x60(%rsi){1to8},%zmm16,%zmm20
  4051e6:	62 e1 fd 48 11 52 14 	vmovupd %zmm18,0x500(%rdx)
  4051ed:	62 e1 fd 48 11 5a 15 	vmovupd %zmm19,0x540(%rdx)
  4051f4:	62 e1 fd 48 11 62 16 	vmovupd %zmm20,0x580(%rdx)
  4051fb:	62 e1 fd 48 11 6a 17 	vmovupd %zmm21,0x5c0(%rdx)
  405202:	62 62 fd 48 19 6e 0d 	vbroadcastsd 0x68(%rsi),%zmm29
  405209:	62 61 7c 48 10 77 1e 	vmovups 0x780(%rdi),%zmm30
  405210:	62 f1 7c 48 10 47 1f 	vmovups 0x7c0(%rdi),%zmm0
  405217:	62 f1 7c 48 10 4f 20 	vmovups 0x800(%rdi),%zmm1
  40521e:	62 e1 7c 48 10 77 21 	vmovups 0x840(%rdi),%zmm22
  405225:	62 62 95 40 a8 72 19 	vfmadd213pd 0x640(%rdx),%zmm29,%zmm30
  40522c:	62 61 fd 48 11 72 19 	vmovupd %zmm30,0x640(%rdx)
  405233:	62 f2 95 40 a8 42 1a 	vfmadd213pd 0x680(%rdx),%zmm29,%zmm0
  40523a:	62 f1 fd 48 11 42 1a 	vmovupd %zmm0,0x680(%rdx)
  405241:	62 f2 95 40 a8 4a 1b 	vfmadd213pd 0x6c0(%rdx),%zmm29,%zmm1
  405248:	62 f1 fd 48 11 4a 1b 	vmovupd %zmm1,0x6c0(%rdx)
  40524f:	62 62 cd 40 a8 6a 1c 	vfmadd213pd 0x700(%rdx),%zmm22,%zmm29
  405256:	62 61 fd 48 11 6a 1c 	vmovupd %zmm29,0x700(%rdx)
  40525d:	62 f2 fd 48 19 56 0e 	vbroadcastsd 0x70(%rsi),%zmm2
  405264:	62 e1 7c 48 10 7f 28 	vmovups 0xa00(%rdi),%zmm23
  40526b:	62 61 7c 48 10 47 29 	vmovups 0xa40(%rdi),%zmm24
  405272:	62 61 7c 48 10 4f 2a 	vmovups 0xa80(%rdi),%zmm25
  405279:	62 f2 95 40 98 57 2b 	vfmadd132pd 0xac0(%rdi),%zmm29,%zmm2
  405280:	62 62 c5 50 b8 76 0e 	vfmadd231pd 0x70(%rsi){1to8},%zmm23,%zmm30
  405287:	62 f2 bd 50 b8 46 0e 	vfmadd231pd 0x70(%rsi){1to8},%zmm24,%zmm0
  40528e:	62 f2 b5 50 b8 4e 0e 	vfmadd231pd 0x70(%rsi){1to8},%zmm25,%zmm1
  405295:	62 61 fd 48 11 72 19 	vmovupd %zmm30,0x640(%rdx)
  40529c:	62 f1 fd 48 11 42 1a 	vmovupd %zmm0,0x680(%rdx)
  4052a3:	62 f1 fd 48 11 4a 1b 	vmovupd %zmm1,0x6c0(%rdx)
  4052aa:	62 f1 fd 48 11 52 1c 	vmovupd %zmm2,0x700(%rdx)
  4052b1:	62 f2 fd 48 19 5e 0f 	vbroadcastsd 0x78(%rsi),%zmm3
  4052b8:	62 f1 7c 48 10 3f    	vmovups (%rdi),%zmm7
  4052be:	62 71 7c 48 10 47 01 	vmovups 0x40(%rdi),%zmm8
  4052c5:	62 71 7c 48 10 4f 02 	vmovups 0x80(%rdi),%zmm9
  4052cc:	62 61 7c 48 10 7f 03 	vmovups 0xc0(%rdi),%zmm31
  4052d3:	62 f2 e5 48 a8 7a 1e 	vfmadd213pd 0x780(%rdx),%zmm3,%zmm7
  4052da:	62 f1 fd 48 11 7a 1e 	vmovupd %zmm7,0x780(%rdx)
  4052e1:	62 72 e5 48 a8 42 1f 	vfmadd213pd 0x7c0(%rdx),%zmm3,%zmm8
  4052e8:	62 71 fd 48 11 42 1f 	vmovupd %zmm8,0x7c0(%rdx)
  4052ef:	62 72 e5 48 a8 4a 20 	vfmadd213pd 0x800(%rdx),%zmm3,%zmm9
  4052f6:	62 71 fd 48 11 4a 20 	vmovupd %zmm9,0x800(%rdx)
  4052fd:	62 f2 85 40 a8 5a 21 	vfmadd213pd 0x840(%rdx),%zmm31,%zmm3
  405304:	62 f1 fd 48 11 5a 21 	vmovupd %zmm3,0x840(%rdx)
  40530b:	62 f2 fd 48 19 76 10 	vbroadcastsd 0x80(%rsi),%zmm6
  405312:	62 61 7c 48 10 7f 0f 	vmovups 0x3c0(%rdi),%zmm31
  405319:	62 f1 7c 48 10 47 10 	vmovups 0x400(%rdi),%zmm0
  405320:	62 f1 7c 48 10 4f 11 	vmovups 0x440(%rdi),%zmm1
  405327:	62 f2 e5 48 98 77 12 	vfmadd132pd 0x480(%rdi),%zmm3,%zmm6
  40532e:	62 f2 85 50 b8 7e 10 	vfmadd231pd 0x80(%rsi){1to8},%zmm31,%zmm7
  405335:	62 72 fd 58 b8 46 10 	vfmadd231pd 0x80(%rsi){1to8},%zmm0,%zmm8
  40533c:	62 72 f5 58 b8 4e 10 	vfmadd231pd 0x80(%rsi){1to8},%zmm1,%zmm9
  405343:	62 f1 fd 48 11 7a 1e 	vmovupd %zmm7,0x780(%rdx)
  40534a:	62 71 fd 48 11 42 1f 	vmovupd %zmm8,0x7c0(%rdx)
  405351:	62 71 fd 48 11 4a 20 	vmovupd %zmm9,0x800(%rdx)
  405358:	62 f1 fd 48 11 72 21 	vmovupd %zmm6,0x840(%rdx)
  40535f:	62 72 fd 48 19 56 11 	vbroadcastsd 0x88(%rsi),%zmm10
  405366:	62 f1 7c 48 10 57 19 	vmovups 0x640(%rdi),%zmm2
  40536d:	62 f1 7c 48 10 67 1a 	vmovups 0x680(%rdi),%zmm4
  405374:	62 f1 7c 48 10 6f 1b 	vmovups 0x6c0(%rdi),%zmm5
  40537b:	62 72 cd 48 98 57 1c 	vfmadd132pd 0x700(%rdi),%zmm6,%zmm10
  405382:	62 f2 ed 58 b8 7e 11 	vfmadd231pd 0x88(%rsi){1to8},%zmm2,%zmm7
  405389:	62 72 dd 58 b8 46 11 	vfmadd231pd 0x88(%rsi){1to8},%zmm4,%zmm8
  405390:	62 72 d5 58 b8 4e 11 	vfmadd231pd 0x88(%rsi){1to8},%zmm5,%zmm9
  405397:	62 f1 fd 48 11 7a 1e 	vmovupd %zmm7,0x780(%rdx)
  40539e:	62 f1 7c 48 10 6a 2d 	vmovups 0xb40(%rdx),%zmm5
  4053a5:	62 71 fd 48 11 42 1f 	vmovupd %zmm8,0x7c0(%rdx)
  4053ac:	62 f1 7c 48 10 72 2e 	vmovups 0xb80(%rdx),%zmm6
  4053b3:	62 71 fd 48 11 4a 20 	vmovupd %zmm9,0x800(%rdx)
  4053ba:	62 f1 7c 48 10 7a 2f 	vmovups 0xbc0(%rdx),%zmm7
  4053c1:	62 71 fd 48 11 52 21 	vmovupd %zmm10,0x840(%rdx)
  4053c8:	62 72 fd 48 19 7e 12 	vbroadcastsd 0x90(%rsi),%zmm15
  4053cf:	62 e1 7c 48 10 67 05 	vmovups 0x140(%rdi),%zmm20
  4053d6:	62 e1 7c 48 10 6f 06 	vmovups 0x180(%rdi),%zmm21
  4053dd:	62 e1 7c 48 10 77 07 	vmovups 0x1c0(%rdi),%zmm22
  4053e4:	62 71 7c 48 10 5f 08 	vmovups 0x200(%rdi),%zmm11
  4053eb:	62 e2 85 48 a8 62 23 	vfmadd213pd 0x8c0(%rdx),%zmm15,%zmm20
  4053f2:	62 e1 fd 48 11 62 23 	vmovupd %zmm20,0x8c0(%rdx)
  4053f9:	62 e2 85 48 a8 6a 24 	vfmadd213pd 0x900(%rdx),%zmm15,%zmm21
  405400:	62 e1 fd 48 11 6a 24 	vmovupd %zmm21,0x900(%rdx)
  405407:	62 e2 85 48 a8 72 25 	vfmadd213pd 0x940(%rdx),%zmm15,%zmm22
  40540e:	62 e1 fd 48 11 72 25 	vmovupd %zmm22,0x940(%rdx)
  405415:	62 72 a5 48 a8 7a 26 	vfmadd213pd 0x980(%rdx),%zmm11,%zmm15
  40541c:	62 71 fd 48 11 7a 26 	vmovupd %zmm15,0x980(%rdx)
  405423:	62 e2 fd 48 19 5e 13 	vbroadcastsd 0x98(%rsi),%zmm19
  40542a:	62 71 7c 48 10 67 0f 	vmovups 0x3c0(%rdi),%zmm12
  405431:	62 71 7c 48 10 6f 10 	vmovups 0x400(%rdi),%zmm13
  405438:	62 71 7c 48 10 77 11 	vmovups 0x440(%rdi),%zmm14
  40543f:	62 e2 85 48 98 5f 12 	vfmadd132pd 0x480(%rdi),%zmm15,%zmm19
  405446:	62 e2 9d 58 b8 66 13 	vfmadd231pd 0x98(%rsi){1to8},%zmm12,%zmm20
  40544d:	62 e2 95 58 b8 6e 13 	vfmadd231pd 0x98(%rsi){1to8},%zmm13,%zmm21
  405454:	62 e2 8d 58 b8 76 13 	vfmadd231pd 0x98(%rsi){1to8},%zmm14,%zmm22
  40545b:	62 e1 fd 48 11 62 23 	vmovupd %zmm20,0x8c0(%rdx)
  405462:	62 f1 7c 48 10 62 30 	vmovups 0xc00(%rdx),%zmm4
  405469:	62 e1 fd 48 11 6a 24 	vmovupd %zmm21,0x900(%rdx)
  405470:	62 e1 fd 48 11 72 25 	vmovupd %zmm22,0x940(%rdx)
  405477:	62 e1 fd 48 11 5a 26 	vmovupd %zmm19,0x980(%rdx)
  40547e:	62 e2 fd 48 19 7e 14 	vbroadcastsd 0xa0(%rsi),%zmm23
  405485:	62 e1 7c 48 10 47 14 	vmovups 0x500(%rdi),%zmm16
  40548c:	62 e1 7c 48 10 4f 15 	vmovups 0x540(%rdi),%zmm17
  405493:	62 e1 7c 48 10 57 16 	vmovups 0x580(%rdi),%zmm18
  40549a:	62 e2 e5 40 98 7f 17 	vfmadd132pd 0x5c0(%rdi),%zmm19,%zmm23
  4054a1:	62 e2 fd 50 b8 66 14 	vfmadd231pd 0xa0(%rsi){1to8},%zmm16,%zmm20
  4054a8:	62 e2 f5 50 b8 6e 14 	vfmadd231pd 0xa0(%rsi){1to8},%zmm17,%zmm21
  4054af:	62 e2 ed 50 b8 76 14 	vfmadd231pd 0xa0(%rsi){1to8},%zmm18,%zmm22
  4054b6:	62 e1 fd 48 11 62 23 	vmovupd %zmm20,0x8c0(%rdx)
  4054bd:	62 e1 fd 48 11 6a 24 	vmovupd %zmm21,0x900(%rdx)
  4054c4:	62 e1 fd 48 11 72 25 	vmovupd %zmm22,0x940(%rdx)
  4054cb:	62 e1 fd 48 11 7a 26 	vmovupd %zmm23,0x980(%rdx)
  4054d2:	62 62 fd 48 19 66 15 	vbroadcastsd 0xa8(%rsi),%zmm28
  4054d9:	62 f1 7c 48 10 47 0a 	vmovups 0x280(%rdi),%zmm0
  4054e0:	62 f1 7c 48 10 4f 0b 	vmovups 0x2c0(%rdi),%zmm1
  4054e7:	62 f1 7c 48 10 57 0c 	vmovups 0x300(%rdi),%zmm2
  4054ee:	62 61 7c 48 10 47 0d 	vmovups 0x340(%rdi),%zmm24
  4054f5:	62 f2 9d 40 a8 42 28 	vfmadd213pd 0xa00(%rdx),%zmm28,%zmm0
  4054fc:	62 f1 fd 48 11 42 28 	vmovupd %zmm0,0xa00(%rdx)
  405503:	62 f2 9d 40 a8 4a 29 	vfmadd213pd 0xa40(%rdx),%zmm28,%zmm1
  40550a:	62 f1 fd 48 11 4a 29 	vmovupd %zmm1,0xa40(%rdx)
  405511:	62 f2 9d 40 a8 52 2a 	vfmadd213pd 0xa80(%rdx),%zmm28,%zmm2
  405518:	62 f1 fd 48 11 52 2a 	vmovupd %zmm2,0xa80(%rdx)
  40551f:	62 62 bd 40 a8 62 2b 	vfmadd213pd 0xac0(%rdx),%zmm24,%zmm28
  405526:	62 61 fd 48 11 62 2b 	vmovupd %zmm28,0xac0(%rdx)
  40552d:	62 62 fd 48 19 46 16 	vbroadcastsd 0xb0(%rsi),%zmm24
  405534:	62 61 7c 48 10 4f 0f 	vmovups 0x3c0(%rdi),%zmm25
  40553b:	62 61 7c 48 10 57 10 	vmovups 0x400(%rdi),%zmm26
  405542:	62 61 7c 48 10 5f 11 	vmovups 0x440(%rdi),%zmm27
  405549:	62 62 9d 40 98 47 12 	vfmadd132pd 0x480(%rdi),%zmm28,%zmm24
  405550:	62 f2 b5 50 b8 46 16 	vfmadd231pd 0xb0(%rsi){1to8},%zmm25,%zmm0
  405557:	62 f2 ad 50 b8 4e 16 	vfmadd231pd 0xb0(%rsi){1to8},%zmm26,%zmm1
  40555e:	62 f2 a5 50 b8 56 16 	vfmadd231pd 0xb0(%rsi){1to8},%zmm27,%zmm2
  405565:	62 f1 fd 48 11 42 28 	vmovupd %zmm0,0xa00(%rdx)
  40556c:	62 f1 fd 48 11 4a 29 	vmovupd %zmm1,0xa40(%rdx)
  405573:	62 f1 fd 48 11 52 2a 	vmovupd %zmm2,0xa80(%rdx)
  40557a:	62 61 fd 48 11 42 2b 	vmovupd %zmm24,0xac0(%rdx)
  405581:	62 62 fd 48 19 5e 17 	vbroadcastsd 0xb8(%rsi),%zmm27
  405588:	62 61 7c 48 10 6f 14 	vmovups 0x500(%rdi),%zmm29
  40558f:	62 61 7c 48 10 77 15 	vmovups 0x540(%rdi),%zmm30
  405596:	62 61 7c 48 10 4f 16 	vmovups 0x580(%rdi),%zmm25
  40559d:	62 62 bd 40 98 5f 17 	vfmadd132pd 0x5c0(%rdi),%zmm24,%zmm27
  4055a4:	62 f2 95 50 b8 46 17 	vfmadd231pd 0xb8(%rsi){1to8},%zmm29,%zmm0
  4055ab:	62 f2 8d 50 b8 4e 17 	vfmadd231pd 0xb8(%rsi){1to8},%zmm30,%zmm1
  4055b2:	62 f2 b5 50 b8 56 17 	vfmadd231pd 0xb8(%rsi){1to8},%zmm25,%zmm2
  4055b9:	62 f1 fd 48 11 42 28 	vmovupd %zmm0,0xa00(%rdx)
  4055c0:	62 f1 fd 48 11 4a 29 	vmovupd %zmm1,0xa40(%rdx)
  4055c7:	62 f1 fd 48 11 52 2a 	vmovupd %zmm2,0xa80(%rdx)
  4055ce:	62 61 fd 48 11 5a 2b 	vmovupd %zmm27,0xac0(%rdx)
  4055d5:	62 f2 fd 48 19 5e 18 	vbroadcastsd 0xc0(%rsi),%zmm3
  4055dc:	62 61 7c 48 10 6f 19 	vmovups 0x640(%rdi),%zmm29
  4055e3:	62 61 7c 48 10 77 1a 	vmovups 0x680(%rdi),%zmm30
  4055ea:	62 61 7c 48 10 57 1b 	vmovups 0x6c0(%rdi),%zmm26
  4055f1:	62 f2 a5 40 98 5f 1c 	vfmadd132pd 0x700(%rdi),%zmm27,%zmm3
  4055f8:	62 f2 95 50 b8 46 18 	vfmadd231pd 0xc0(%rsi){1to8},%zmm29,%zmm0
  4055ff:	62 f2 8d 50 b8 4e 18 	vfmadd231pd 0xc0(%rsi){1to8},%zmm30,%zmm1
  405606:	62 f2 ad 50 b8 56 18 	vfmadd231pd 0xc0(%rsi){1to8},%zmm26,%zmm2
  40560d:	62 f1 fd 48 11 42 28 	vmovupd %zmm0,0xa00(%rdx)
  405614:	62 f1 fd 48 11 4a 29 	vmovupd %zmm1,0xa40(%rdx)
  40561b:	62 f1 fd 48 11 52 2a 	vmovupd %zmm2,0xa80(%rdx)
  405622:	62 f1 fd 48 11 5a 2b 	vmovupd %zmm3,0xac0(%rdx)
  405629:	62 72 fd 48 19 46 19 	vbroadcastsd 0xc8(%rsi),%zmm8
  405630:	62 f1 7c 48 10 47 1e 	vmovups 0x780(%rdi),%zmm0
  405637:	62 f1 7c 48 10 4f 1f 	vmovups 0x7c0(%rdi),%zmm1
  40563e:	62 f1 7c 48 10 57 20 	vmovups 0x800(%rdi),%zmm2
  405645:	62 f1 7c 48 10 5f 21 	vmovups 0x840(%rdi),%zmm3
  40564c:	62 d2 fd 48 b8 e8    	vfmadd231pd %zmm8,%zmm0,%zmm5
  405652:	62 f1 fd 48 11 6a 2d 	vmovupd %zmm5,0xb40(%rdx)
  405659:	62 d2 f5 48 b8 f0    	vfmadd231pd %zmm8,%zmm1,%zmm6
  40565f:	62 f1 fd 48 11 72 2e 	vmovupd %zmm6,0xb80(%rdx)
  405666:	62 d2 ed 48 b8 f8    	vfmadd231pd %zmm8,%zmm2,%zmm7
  40566c:	62 f1 fd 48 11 7a 2f 	vmovupd %zmm7,0xbc0(%rdx)
  405673:	62 72 e5 48 a8 c4    	vfmadd213pd %zmm4,%zmm3,%zmm8
  405679:	62 71 fd 48 11 42 30 	vmovupd %zmm8,0xc00(%rdx)
  405680:	62 72 fd 48 19 46 1a 	vbroadcastsd 0xd0(%rsi),%zmm8
  405687:	62 f1 7c 48 10 6f 23 	vmovups 0x8c0(%rdi),%zmm5
  40568e:	62 f1 7c 48 10 77 24 	vmovups 0x900(%rdi),%zmm6
  405695:	62 f1 7c 48 10 7f 25 	vmovups 0x940(%rdi),%zmm7
  40569c:	62 f1 7c 48 10 67 26 	vmovups 0x980(%rdi),%zmm4
  4056a3:	62 f2 bd 48 a8 6a 32 	vfmadd213pd 0xc80(%rdx),%zmm8,%zmm5
  4056aa:	62 f1 fd 48 11 6a 32 	vmovupd %zmm5,0xc80(%rdx)
  4056b1:	62 f2 bd 48 a8 72 33 	vfmadd213pd 0xcc0(%rdx),%zmm8,%zmm6
  4056b8:	62 f1 fd 48 11 72 33 	vmovupd %zmm6,0xcc0(%rdx)
  4056bf:	62 f2 bd 48 a8 7a 34 	vfmadd213pd 0xd00(%rdx),%zmm8,%zmm7
  4056c6:	62 f1 fd 48 11 7a 34 	vmovupd %zmm7,0xd00(%rdx)
  4056cd:	62 72 dd 48 a8 42 35 	vfmadd213pd 0xd40(%rdx),%zmm4,%zmm8
  4056d4:	62 71 fd 48 11 42 35 	vmovupd %zmm8,0xd40(%rdx)
  4056db:	62 72 fd 48 19 6e 1b 	vbroadcastsd 0xd8(%rsi),%zmm13
  4056e2:	62 71 7c 48 10 57 28 	vmovups 0xa00(%rdi),%zmm10
  4056e9:	62 71 7c 48 10 5f 29 	vmovups 0xa40(%rdi),%zmm11
  4056f0:	62 71 7c 48 10 67 2a 	vmovups 0xa80(%rdi),%zmm12
  4056f7:	62 71 7c 48 10 4f 2b 	vmovups 0xac0(%rdi),%zmm9
  4056fe:	62 72 95 48 a8 52 37 	vfmadd213pd 0xdc0(%rdx),%zmm13,%zmm10
  405705:	62 71 fd 48 11 52 37 	vmovupd %zmm10,0xdc0(%rdx)
  40570c:	62 72 95 48 a8 5a 38 	vfmadd213pd 0xe00(%rdx),%zmm13,%zmm11
  405713:	62 71 fd 48 11 5a 38 	vmovupd %zmm11,0xe00(%rdx)
  40571a:	62 72 95 48 a8 62 39 	vfmadd213pd 0xe40(%rdx),%zmm13,%zmm12
  405721:	62 71 fd 48 11 62 39 	vmovupd %zmm12,0xe40(%rdx)
  405728:	62 72 b5 48 a8 6a 3a 	vfmadd213pd 0xe80(%rdx),%zmm9,%zmm13
  40572f:	62 71 fd 48 11 6a 3a 	vmovupd %zmm13,0xe80(%rdx)
  405736:	62 e2 fd 48 19 56 1c 	vbroadcastsd 0xe0(%rsi),%zmm18
  40573d:	62 e1 7c 48 10 5f 1e 	vmovups 0x780(%rdi),%zmm19
  405744:	62 e1 7c 48 10 67 1f 	vmovups 0x7c0(%rdi),%zmm20
  40574b:	62 e1 7c 48 10 6f 20 	vmovups 0x800(%rdi),%zmm21
  405752:	62 71 7c 48 10 77 21 	vmovups 0x840(%rdi),%zmm14
  405759:	62 e2 ed 40 a8 5a 3c 	vfmadd213pd 0xf00(%rdx),%zmm18,%zmm19
  405760:	62 e1 fd 48 11 5a 3c 	vmovupd %zmm19,0xf00(%rdx)
  405767:	62 e2 ed 40 a8 62 3d 	vfmadd213pd 0xf40(%rdx),%zmm18,%zmm20
  40576e:	62 e1 fd 48 11 62 3d 	vmovupd %zmm20,0xf40(%rdx)
  405775:	62 e2 ed 40 a8 6a 3e 	vfmadd213pd 0xf80(%rdx),%zmm18,%zmm21
  40577c:	62 e1 fd 48 11 6a 3e 	vmovupd %zmm21,0xf80(%rdx)
  405783:	62 e2 8d 48 a8 52 3f 	vfmadd213pd 0xfc0(%rdx),%zmm14,%zmm18
  40578a:	62 e1 fd 48 11 52 3f 	vmovupd %zmm18,0xfc0(%rdx)
  405791:	62 e2 fd 48 19 76 1d 	vbroadcastsd 0xe8(%rsi),%zmm22
  405798:	62 71 7c 48 10 7f 23 	vmovups 0x8c0(%rdi),%zmm15
  40579f:	62 e1 7c 48 10 47 24 	vmovups 0x900(%rdi),%zmm16
  4057a6:	62 e1 7c 48 10 4f 25 	vmovups 0x940(%rdi),%zmm17
  4057ad:	62 e2 ed 40 98 77 26 	vfmadd132pd 0x980(%rdi),%zmm18,%zmm22
  4057b4:	62 e2 85 58 b8 5e 1d 	vfmadd231pd 0xe8(%rsi){1to8},%zmm15,%zmm19
  4057bb:	62 e2 fd 50 b8 66 1d 	vfmadd231pd 0xe8(%rsi){1to8},%zmm16,%zmm20
  4057c2:	62 e2 f5 50 b8 6e 1d 	vfmadd231pd 0xe8(%rsi){1to8},%zmm17,%zmm21
  4057c9:	62 e1 fd 48 11 5a 3c 	vmovupd %zmm19,0xf00(%rdx)
  4057d0:	62 e1 fd 48 11 62 3d 	vmovupd %zmm20,0xf40(%rdx)
  4057d7:	62 e1 fd 48 11 6a 3e 	vmovupd %zmm21,0xf80(%rdx)
  4057de:	62 e1 fd 48 11 72 3f 	vmovupd %zmm22,0xfc0(%rdx)
  4057e5:	62 62 fd 48 19 5e 1e 	vbroadcastsd 0xf0(%rsi),%zmm27
  4057ec:	62 61 7c 48 10 67 23 	vmovups 0x8c0(%rdi),%zmm28
  4057f3:	62 61 7c 48 10 6f 24 	vmovups 0x900(%rdi),%zmm29
  4057fa:	62 61 7c 48 10 77 25 	vmovups 0x940(%rdi),%zmm30
  405801:	62 e1 7c 48 10 7f 26 	vmovups 0x980(%rdi),%zmm23
  405808:	62 62 a5 40 a8 62 41 	vfmadd213pd 0x1040(%rdx),%zmm27,%zmm28
  40580f:	62 61 fd 48 11 62 41 	vmovupd %zmm28,0x1040(%rdx)
  405816:	62 62 a5 40 a8 6a 42 	vfmadd213pd 0x1080(%rdx),%zmm27,%zmm29
  40581d:	62 61 fd 48 11 6a 42 	vmovupd %zmm29,0x1080(%rdx)
  405824:	62 62 a5 40 a8 72 43 	vfmadd213pd 0x10c0(%rdx),%zmm27,%zmm30
  40582b:	62 61 fd 48 11 72 43 	vmovupd %zmm30,0x10c0(%rdx)
  405832:	62 62 c5 40 a8 5a 44 	vfmadd213pd 0x1100(%rdx),%zmm23,%zmm27
  405839:	62 61 fd 48 11 5a 44 	vmovupd %zmm27,0x1100(%rdx)
  405840:	62 62 fd 48 19 7e 1f 	vbroadcastsd 0xf8(%rsi),%zmm31
  405847:	62 61 7c 48 10 47 28 	vmovups 0xa00(%rdi),%zmm24
  40584e:	62 61 7c 48 10 4f 29 	vmovups 0xa40(%rdi),%zmm25
  405855:	62 61 7c 48 10 57 2a 	vmovups 0xa80(%rdi),%zmm26
  40585c:	62 62 a5 40 98 7f 2b 	vfmadd132pd 0xac0(%rdi),%zmm27,%zmm31
  405863:	62 62 bd 50 b8 66 1f 	vfmadd231pd 0xf8(%rsi){1to8},%zmm24,%zmm28
  40586a:	62 62 b5 50 b8 6e 1f 	vfmadd231pd 0xf8(%rsi){1to8},%zmm25,%zmm29
  405871:	62 62 ad 50 b8 76 1f 	vfmadd231pd 0xf8(%rsi){1to8},%zmm26,%zmm30
  405878:	62 61 fd 48 11 62 41 	vmovupd %zmm28,0x1040(%rdx)
  40587f:	62 61 fd 48 11 6a 42 	vmovupd %zmm29,0x1080(%rdx)
  405886:	62 61 fd 48 11 72 43 	vmovupd %zmm30,0x10c0(%rdx)
  40588d:	62 61 fd 48 11 7a 44 	vmovupd %zmm31,0x1100(%rdx)
  405894:	62 f2 fd 48 19 66 20 	vbroadcastsd 0x100(%rsi),%zmm4
  40589b:	62 f1 7c 48 10 6f 1e 	vmovups 0x780(%rdi),%zmm5
  4058a2:	62 f1 7c 48 10 77 1f 	vmovups 0x7c0(%rdi),%zmm6
  4058a9:	62 f1 7c 48 10 7f 20 	vmovups 0x800(%rdi),%zmm7
  4058b0:	62 f1 7c 48 10 47 21 	vmovups 0x840(%rdi),%zmm0
  4058b7:	62 f2 dd 48 a8 6a 46 	vfmadd213pd 0x1180(%rdx),%zmm4,%zmm5
  4058be:	62 f1 fd 48 11 6a 46 	vmovupd %zmm5,0x1180(%rdx)
  4058c5:	62 f2 dd 48 a8 72 47 	vfmadd213pd 0x11c0(%rdx),%zmm4,%zmm6
  4058cc:	62 f1 fd 48 11 72 47 	vmovupd %zmm6,0x11c0(%rdx)
  4058d3:	62 f2 dd 48 a8 7a 48 	vfmadd213pd 0x1200(%rdx),%zmm4,%zmm7
  4058da:	62 f1 fd 48 11 7a 48 	vmovupd %zmm7,0x1200(%rdx)
  4058e1:	62 f2 fd 48 a8 62 49 	vfmadd213pd 0x1240(%rdx),%zmm0,%zmm4
  4058e8:	62 f1 fd 48 11 62 49 	vmovupd %zmm4,0x1240(%rdx)
  4058ef:	62 72 fd 48 19 46 21 	vbroadcastsd 0x108(%rsi),%zmm8
  4058f6:	62 f1 7c 48 10 4f 28 	vmovups 0xa00(%rdi),%zmm1
  4058fd:	62 f1 7c 48 10 57 29 	vmovups 0xa40(%rdi),%zmm2
  405904:	62 f1 7c 48 10 5f 2a 	vmovups 0xa80(%rdi),%zmm3
  40590b:	62 72 dd 48 98 47 2b 	vfmadd132pd 0xac0(%rdi),%zmm4,%zmm8
  405912:	62 f2 f5 58 b8 6e 21 	vfmadd231pd 0x108(%rsi){1to8},%zmm1,%zmm5
  405919:	62 f2 ed 58 b8 76 21 	vfmadd231pd 0x108(%rsi){1to8},%zmm2,%zmm6
  405920:	62 f2 e5 58 b8 7e 21 	vfmadd231pd 0x108(%rsi){1to8},%zmm3,%zmm7
  405927:	62 f1 fd 48 11 6a 46 	vmovupd %zmm5,0x1180(%rdx)
  40592e:	62 f1 fd 48 11 72 47 	vmovupd %zmm6,0x11c0(%rdx)
  405935:	62 f1 fd 48 11 7a 48 	vmovupd %zmm7,0x1200(%rdx)
  40593c:	62 71 fd 48 11 42 49 	vmovupd %zmm8,0x1240(%rdx)
  405943:	c5 7b 10 26          	vmovsd (%rsi),%xmm12
  405947:	c5 7b 10 8f 80 08 00 	vmovsd 0x880(%rdi),%xmm9
  40594e:	00 
  40594f:	c4 62 b1 a9 a2 00 01 	vfmadd213sd 0x100(%rdx),%xmm9,%xmm12
  405956:	00 00 
  405958:	c5 7b 11 a2 00 01 00 	vmovsd %xmm12,0x100(%rdx)
  40595f:	00 
  405960:	c5 7b 10 97 c0 09 00 	vmovsd 0x9c0(%rdi),%xmm10
  405967:	00 
  405968:	c4 62 a9 b9 66 08    	vfmadd231sd 0x8(%rsi),%xmm10,%xmm12
  40596e:	c5 7b 11 a2 00 01 00 	vmovsd %xmm12,0x100(%rdx)
  405975:	00 
  405976:	c5 7b 10 9f 00 0b 00 	vmovsd 0xb00(%rdi),%xmm11
  40597d:	00 
  40597e:	c4 62 a1 b9 66 10    	vfmadd231sd 0x10(%rsi),%xmm11,%xmm12
  405984:	c5 7b 11 a2 00 01 00 	vmovsd %xmm12,0x100(%rdx)
  40598b:	00 
  40598c:	62 e1 ff 08 10 46 03 	vmovsd 0x18(%rsi),%xmm16
  405993:	c5 7b 10 af 80 08 00 	vmovsd 0x880(%rdi),%xmm13
  40599a:	00 
  40599b:	62 e2 95 08 a9 42 48 	vfmadd213sd 0x240(%rdx),%xmm13,%xmm16
  4059a2:	62 e1 ff 08 11 42 48 	vmovsd %xmm16,0x240(%rdx)
  4059a9:	c5 7b 10 b7 c0 09 00 	vmovsd 0x9c0(%rdi),%xmm14
  4059b0:	00 
  4059b1:	62 e2 8d 08 b9 46 04 	vfmadd231sd 0x20(%rsi),%xmm14,%xmm16
  4059b8:	62 e1 ff 08 11 42 48 	vmovsd %xmm16,0x240(%rdx)
  4059bf:	c5 7b 10 bf 00 0b 00 	vmovsd 0xb00(%rdi),%xmm15
  4059c6:	00 
  4059c7:	62 e2 85 08 b9 46 05 	vfmadd231sd 0x28(%rsi),%xmm15,%xmm16
  4059ce:	62 e1 ff 08 11 42 48 	vmovsd %xmm16,0x240(%rdx)
  4059d5:	62 e1 ff 08 10 66 06 	vmovsd 0x30(%rsi),%xmm20
  4059dc:	62 e1 ff 08 10 8f 80 	vmovsd 0x880(%rdi),%xmm17
  4059e3:	08 00 00 
  4059e6:	62 e2 f5 00 a9 62 70 	vfmadd213sd 0x380(%rdx),%xmm17,%xmm20
  4059ed:	62 e1 ff 08 11 62 70 	vmovsd %xmm20,0x380(%rdx)
  4059f4:	62 e1 ff 08 10 97 c0 	vmovsd 0x9c0(%rdi),%xmm18
  4059fb:	09 00 00 
  4059fe:	62 e2 ed 00 b9 66 07 	vfmadd231sd 0x38(%rsi),%xmm18,%xmm20
  405a05:	62 e1 ff 08 11 62 70 	vmovsd %xmm20,0x380(%rdx)
  405a0c:	62 e1 ff 08 10 9f 00 	vmovsd 0xb00(%rdi),%xmm19
  405a13:	0b 00 00 
  405a16:	62 e2 e5 00 b9 66 08 	vfmadd231sd 0x40(%rsi),%xmm19,%xmm20
  405a1d:	62 e1 ff 08 11 62 70 	vmovsd %xmm20,0x380(%rdx)
  405a24:	62 e1 ff 08 10 7e 09 	vmovsd 0x48(%rsi),%xmm23
  405a2b:	62 e1 ff 08 10 af 80 	vmovsd 0x880(%rdi),%xmm21
  405a32:	08 00 00 
  405a35:	62 e2 d5 00 a9 ba c0 	vfmadd213sd 0x4c0(%rdx),%xmm21,%xmm23
  405a3c:	04 00 00 
  405a3f:	62 e1 ff 08 11 ba c0 	vmovsd %xmm23,0x4c0(%rdx)
  405a46:	04 00 00 
  405a49:	62 e1 ff 08 10 b7 c0 	vmovsd 0x9c0(%rdi),%xmm22
  405a50:	09 00 00 
  405a53:	62 e2 cd 00 b9 7e 0a 	vfmadd231sd 0x50(%rsi),%xmm22,%xmm23
  405a5a:	62 e1 ff 08 11 ba c0 	vmovsd %xmm23,0x4c0(%rdx)
  405a61:	04 00 00 
  405a64:	62 61 ff 08 10 56 0b 	vmovsd 0x58(%rsi),%xmm26
  405a6b:	62 61 ff 08 10 87 c0 	vmovsd 0x9c0(%rdi),%xmm24
  405a72:	09 00 00 
  405a75:	62 62 bd 00 a9 92 00 	vfmadd213sd 0x600(%rdx),%xmm24,%xmm26
  405a7c:	06 00 00 
  405a7f:	62 61 ff 08 11 92 00 	vmovsd %xmm26,0x600(%rdx)
  405a86:	06 00 00 
  405a89:	62 61 ff 08 10 8f 00 	vmovsd 0xb00(%rdi),%xmm25
  405a90:	0b 00 00 
  405a93:	62 62 b5 00 b9 56 0c 	vfmadd231sd 0x60(%rsi),%xmm25,%xmm26
  405a9a:	62 61 ff 08 11 92 00 	vmovsd %xmm26,0x600(%rdx)
  405aa1:	06 00 00 
  405aa4:	62 61 ff 08 10 6e 0d 	vmovsd 0x68(%rsi),%xmm29
  405aab:	62 61 ff 08 10 9f 80 	vmovsd 0x880(%rdi),%xmm27
  405ab2:	08 00 00 
  405ab5:	62 62 a5 00 a9 aa 40 	vfmadd213sd 0x740(%rdx),%xmm27,%xmm29
  405abc:	07 00 00 
  405abf:	62 61 ff 08 11 aa 40 	vmovsd %xmm29,0x740(%rdx)
  405ac6:	07 00 00 
  405ac9:	62 61 ff 08 10 a7 00 	vmovsd 0xb00(%rdi),%xmm28
  405ad0:	0b 00 00 
  405ad3:	62 62 9d 00 b9 6e 0e 	vfmadd231sd 0x70(%rsi),%xmm28,%xmm29
  405ada:	62 61 ff 08 11 aa 40 	vmovsd %xmm29,0x740(%rdx)
  405ae1:	07 00 00 
  405ae4:	c5 fb 10 46 78       	vmovsd 0x78(%rsi),%xmm0
  405ae9:	62 61 ff 08 10 77 20 	vmovsd 0x100(%rdi),%xmm30
  405af0:	62 f2 8d 00 a9 82 80 	vfmadd213sd 0x880(%rdx),%xmm30,%xmm0
  405af7:	08 00 00 
  405afa:	c5 fb 11 82 80 08 00 	vmovsd %xmm0,0x880(%rdx)
  405b01:	00 
  405b02:	62 61 ff 08 10 bf c0 	vmovsd 0x4c0(%rdi),%xmm31
  405b09:	04 00 00 
  405b0c:	62 f2 85 00 b9 46 10 	vfmadd231sd 0x80(%rsi),%xmm31,%xmm0
  405b13:	c5 fb 11 82 80 08 00 	vmovsd %xmm0,0x880(%rdx)
  405b1a:	00 
  405b1b:	62 61 ff 08 10 b7 40 	vmovsd 0x740(%rdi),%xmm30
  405b22:	07 00 00 
  405b25:	62 f2 8d 00 b9 46 11 	vfmadd231sd 0x88(%rsi),%xmm30,%xmm0
  405b2c:	c5 fb 11 82 80 08 00 	vmovsd %xmm0,0x880(%rdx)
  405b33:	00 
  405b34:	c5 fb 10 a6 90 00 00 	vmovsd 0x90(%rsi),%xmm4
  405b3b:	00 
  405b3c:	c5 fb 10 8f 40 02 00 	vmovsd 0x240(%rdi),%xmm1
  405b43:	00 
  405b44:	c4 e2 f1 a9 a2 c0 09 	vfmadd213sd 0x9c0(%rdx),%xmm1,%xmm4
  405b4b:	00 00 
  405b4d:	c5 fb 11 a2 c0 09 00 	vmovsd %xmm4,0x9c0(%rdx)
  405b54:	00 
  405b55:	c5 fb 10 97 c0 04 00 	vmovsd 0x4c0(%rdi),%xmm2
  405b5c:	00 
  405b5d:	c4 e2 e9 b9 a6 98 00 	vfmadd231sd 0x98(%rsi),%xmm2,%xmm4
  405b64:	00 00 
  405b66:	c5 fb 11 a2 c0 09 00 	vmovsd %xmm4,0x9c0(%rdx)
  405b6d:	00 
  405b6e:	c5 fb 10 9f 00 06 00 	vmovsd 0x600(%rdi),%xmm3
  405b75:	00 
  405b76:	c4 e2 e1 b9 a6 a0 00 	vfmadd231sd 0xa0(%rsi),%xmm3,%xmm4
  405b7d:	00 00 
  405b7f:	c5 fb 11 a2 c0 09 00 	vmovsd %xmm4,0x9c0(%rdx)
  405b86:	00 
  405b87:	c5 7b 10 8e a8 00 00 	vmovsd 0xa8(%rsi),%xmm9
  405b8e:	00 
  405b8f:	c5 fb 10 af 80 03 00 	vmovsd 0x380(%rdi),%xmm5
  405b96:	00 
  405b97:	c4 62 d1 a9 8a 00 0b 	vfmadd213sd 0xb00(%rdx),%xmm5,%xmm9
  405b9e:	00 00 
  405ba0:	c5 7b 11 8a 00 0b 00 	vmovsd %xmm9,0xb00(%rdx)
  405ba7:	00 
  405ba8:	c5 fb 10 b7 c0 04 00 	vmovsd 0x4c0(%rdi),%xmm6
  405baf:	00 
  405bb0:	c4 62 c9 b9 8e b0 00 	vfmadd231sd 0xb0(%rsi),%xmm6,%xmm9
  405bb7:	00 00 
  405bb9:	c5 7b 11 8a 00 0b 00 	vmovsd %xmm9,0xb00(%rdx)
  405bc0:	00 
  405bc1:	c5 fb 10 bf 00 06 00 	vmovsd 0x600(%rdi),%xmm7
  405bc8:	00 
  405bc9:	c4 62 c1 b9 8e b8 00 	vfmadd231sd 0xb8(%rsi),%xmm7,%xmm9
  405bd0:	00 00 
  405bd2:	c5 7b 11 8a 00 0b 00 	vmovsd %xmm9,0xb00(%rdx)
  405bd9:	00 
  405bda:	c5 7b 10 87 40 07 00 	vmovsd 0x740(%rdi),%xmm8
  405be1:	00 
  405be2:	c4 62 b9 b9 8e c0 00 	vfmadd231sd 0xc0(%rsi),%xmm8,%xmm9
  405be9:	00 00 
  405beb:	c5 7b 11 8a 00 0b 00 	vmovsd %xmm9,0xb00(%rdx)
  405bf2:	00 
  405bf3:	c5 7b 10 9e c8 00 00 	vmovsd 0xc8(%rsi),%xmm11
  405bfa:	00 
  405bfb:	c5 7b 10 97 80 08 00 	vmovsd 0x880(%rdi),%xmm10
  405c02:	00 
  405c03:	c4 62 a9 a9 9a 40 0c 	vfmadd213sd 0xc40(%rdx),%xmm10,%xmm11
  405c0a:	00 00 
  405c0c:	c5 7b 11 9a 40 0c 00 	vmovsd %xmm11,0xc40(%rdx)
  405c13:	00 
  405c14:	c5 7b 10 ae d0 00 00 	vmovsd 0xd0(%rsi),%xmm13
  405c1b:	00 
  405c1c:	c5 7b 10 a7 c0 09 00 	vmovsd 0x9c0(%rdi),%xmm12
  405c23:	00 
  405c24:	c4 62 99 a9 aa 80 0d 	vfmadd213sd 0xd80(%rdx),%xmm12,%xmm13
  405c2b:	00 00 
  405c2d:	c5 7b 11 aa 80 0d 00 	vmovsd %xmm13,0xd80(%rdx)
  405c34:	00 
  405c35:	c5 7b 10 be d8 00 00 	vmovsd 0xd8(%rsi),%xmm15
  405c3c:	00 
  405c3d:	c5 7b 10 b7 00 0b 00 	vmovsd 0xb00(%rdi),%xmm14
  405c44:	00 
  405c45:	c4 62 89 a9 ba c0 0e 	vfmadd213sd 0xec0(%rdx),%xmm14,%xmm15
  405c4c:	00 00 
  405c4e:	c5 7b 11 ba c0 0e 00 	vmovsd %xmm15,0xec0(%rdx)
  405c55:	00 
  405c56:	62 e1 ff 08 10 56 1c 	vmovsd 0xe0(%rsi),%xmm18
  405c5d:	62 e1 ff 08 10 87 80 	vmovsd 0x880(%rdi),%xmm16
  405c64:	08 00 00 
  405c67:	62 e2 fd 00 a9 92 00 	vfmadd213sd 0x1000(%rdx),%xmm16,%xmm18
  405c6e:	10 00 00 
  405c71:	62 e1 ff 08 11 92 00 	vmovsd %xmm18,0x1000(%rdx)
  405c78:	10 00 00 
  405c7b:	62 e1 ff 08 10 8f c0 	vmovsd 0x9c0(%rdi),%xmm17
  405c82:	09 00 00 
  405c85:	62 e2 f5 00 b9 56 1d 	vfmadd231sd 0xe8(%rsi),%xmm17,%xmm18
  405c8c:	62 e1 ff 08 11 92 00 	vmovsd %xmm18,0x1000(%rdx)
  405c93:	10 00 00 
  405c96:	62 e1 ff 08 10 6e 1e 	vmovsd 0xf0(%rsi),%xmm21
  405c9d:	62 e1 ff 08 10 9f c0 	vmovsd 0x9c0(%rdi),%xmm19
  405ca4:	09 00 00 
  405ca7:	62 e2 e5 00 a9 aa 40 	vfmadd213sd 0x1140(%rdx),%xmm19,%xmm21
  405cae:	11 00 00 
  405cb1:	62 e1 ff 08 11 aa 40 	vmovsd %xmm21,0x1140(%rdx)
  405cb8:	11 00 00 
  405cbb:	62 e1 ff 08 10 a7 00 	vmovsd 0xb00(%rdi),%xmm20
  405cc2:	0b 00 00 
  405cc5:	62 e2 dd 00 b9 6e 1f 	vfmadd231sd 0xf8(%rsi),%xmm20,%xmm21
  405ccc:	62 e1 ff 08 11 aa 40 	vmovsd %xmm21,0x1140(%rdx)
  405cd3:	11 00 00 
  405cd6:	62 61 ff 08 10 46 20 	vmovsd 0x100(%rsi),%xmm24
  405cdd:	62 e1 ff 08 10 b7 80 	vmovsd 0x880(%rdi),%xmm22
  405ce4:	08 00 00 
  405ce7:	62 62 cd 00 a9 82 80 	vfmadd213sd 0x1280(%rdx),%xmm22,%xmm24
  405cee:	12 00 00 
  405cf1:	62 61 ff 08 11 82 80 	vmovsd %xmm24,0x1280(%rdx)
  405cf8:	12 00 00 
  405cfb:	62 e1 ff 08 10 bf 00 	vmovsd 0xb00(%rdi),%xmm23
  405d02:	0b 00 00 
  405d05:	62 62 c5 00 b9 46 21 	vfmadd231sd 0x108(%rsi),%xmm23,%xmm24
  405d0c:	62 61 ff 08 11 82 80 	vmovsd %xmm24,0x1280(%rdx)
  405d13:	12 00 00 
  405d16:	62 61 ff 08 10 26    	vmovsd (%rsi),%xmm28
  405d1c:	62 61 ff 08 10 8f 88 	vmovsd 0x888(%rdi),%xmm25
  405d23:	08 00 00 
  405d26:	62 62 b5 00 a9 62 21 	vfmadd213sd 0x108(%rdx),%xmm25,%xmm28
  405d2d:	62 61 ff 08 11 62 21 	vmovsd %xmm28,0x108(%rdx)
  405d34:	62 61 ff 08 10 97 c8 	vmovsd 0x9c8(%rdi),%xmm26
  405d3b:	09 00 00 
  405d3e:	62 62 ad 00 b9 66 01 	vfmadd231sd 0x8(%rsi),%xmm26,%xmm28
  405d45:	62 61 ff 08 11 62 21 	vmovsd %xmm28,0x108(%rdx)
  405d4c:	62 61 ff 08 10 9f 08 	vmovsd 0xb08(%rdi),%xmm27
  405d53:	0b 00 00 
  405d56:	62 62 a5 00 b9 66 02 	vfmadd231sd 0x10(%rsi),%xmm27,%xmm28
  405d5d:	62 61 ff 08 11 62 21 	vmovsd %xmm28,0x108(%rdx)
  405d64:	c5 fb 10 46 18       	vmovsd 0x18(%rsi),%xmm0
  405d69:	62 61 ff 08 10 af 88 	vmovsd 0x888(%rdi),%xmm29
  405d70:	08 00 00 
  405d73:	62 f2 95 00 a9 42 49 	vfmadd213sd 0x248(%rdx),%xmm29,%xmm0
  405d7a:	c5 fb 11 82 48 02 00 	vmovsd %xmm0,0x248(%rdx)
  405d81:	00 
  405d82:	62 61 ff 08 10 bf c8 	vmovsd 0x9c8(%rdi),%xmm31
  405d89:	09 00 00 
  405d8c:	62 f2 85 00 b9 46 04 	vfmadd231sd 0x20(%rsi),%xmm31,%xmm0
  405d93:	c5 fb 11 82 48 02 00 	vmovsd %xmm0,0x248(%rdx)
  405d9a:	00 
  405d9b:	62 61 ff 08 10 af 08 	vmovsd 0xb08(%rdi),%xmm29
  405da2:	0b 00 00 
  405da5:	62 f2 95 00 b9 46 05 	vfmadd231sd 0x28(%rsi),%xmm29,%xmm0
  405dac:	c5 fb 11 82 48 02 00 	vmovsd %xmm0,0x248(%rdx)
  405db3:	00 
  405db4:	c5 fb 10 66 30       	vmovsd 0x30(%rsi),%xmm4
  405db9:	c5 fb 10 8f 88 08 00 	vmovsd 0x888(%rdi),%xmm1
  405dc0:	00 
  405dc1:	c4 e2 f1 a9 a2 88 03 	vfmadd213sd 0x388(%rdx),%xmm1,%xmm4
  405dc8:	00 00 
  405dca:	c5 fb 11 a2 88 03 00 	vmovsd %xmm4,0x388(%rdx)
  405dd1:	00 
  405dd2:	c5 fb 10 97 c8 09 00 	vmovsd 0x9c8(%rdi),%xmm2
  405dd9:	00 
  405dda:	c4 e2 e9 b9 66 38    	vfmadd231sd 0x38(%rsi),%xmm2,%xmm4
  405de0:	c5 fb 11 a2 88 03 00 	vmovsd %xmm4,0x388(%rdx)
  405de7:	00 
  405de8:	c5 fb 10 9f 08 0b 00 	vmovsd 0xb08(%rdi),%xmm3
  405def:	00 
  405df0:	c4 e2 e1 b9 66 40    	vfmadd231sd 0x40(%rsi),%xmm3,%xmm4
  405df6:	c5 fb 11 a2 88 03 00 	vmovsd %xmm4,0x388(%rdx)
  405dfd:	00 
  405dfe:	c5 fb 10 7e 48       	vmovsd 0x48(%rsi),%xmm7
  405e03:	c5 fb 10 af 88 08 00 	vmovsd 0x888(%rdi),%xmm5
  405e0a:	00 
  405e0b:	c4 e2 d1 a9 ba c8 04 	vfmadd213sd 0x4c8(%rdx),%xmm5,%xmm7
  405e12:	00 00 
  405e14:	c5 fb 11 ba c8 04 00 	vmovsd %xmm7,0x4c8(%rdx)
  405e1b:	00 
  405e1c:	c5 fb 10 b7 c8 09 00 	vmovsd 0x9c8(%rdi),%xmm6
  405e23:	00 
  405e24:	c4 e2 c9 b9 7e 50    	vfmadd231sd 0x50(%rsi),%xmm6,%xmm7
  405e2a:	c5 fb 11 ba c8 04 00 	vmovsd %xmm7,0x4c8(%rdx)
  405e31:	00 
  405e32:	c5 7b 10 56 58       	vmovsd 0x58(%rsi),%xmm10
  405e37:	c5 7b 10 87 c8 09 00 	vmovsd 0x9c8(%rdi),%xmm8
  405e3e:	00 
  405e3f:	c4 62 b9 a9 92 08 06 	vfmadd213sd 0x608(%rdx),%xmm8,%xmm10
  405e46:	00 00 
  405e48:	c5 7b 11 92 08 06 00 	vmovsd %xmm10,0x608(%rdx)
  405e4f:	00 
  405e50:	c5 7b 10 8f 08 0b 00 	vmovsd 0xb08(%rdi),%xmm9
  405e57:	00 
  405e58:	c4 62 b1 b9 56 60    	vfmadd231sd 0x60(%rsi),%xmm9,%xmm10
  405e5e:	c5 7b 11 92 08 06 00 	vmovsd %xmm10,0x608(%rdx)
  405e65:	00 
  405e66:	c5 7b 10 6e 68       	vmovsd 0x68(%rsi),%xmm13
  405e6b:	c5 7b 10 9f 88 08 00 	vmovsd 0x888(%rdi),%xmm11
  405e72:	00 
  405e73:	c4 62 a1 a9 aa 48 07 	vfmadd213sd 0x748(%rdx),%xmm11,%xmm13
  405e7a:	00 00 
  405e7c:	c5 7b 11 aa 48 07 00 	vmovsd %xmm13,0x748(%rdx)
  405e83:	00 
  405e84:	c5 7b 10 a7 08 0b 00 	vmovsd 0xb08(%rdi),%xmm12
  405e8b:	00 
  405e8c:	c4 62 99 b9 6e 70    	vfmadd231sd 0x70(%rsi),%xmm12,%xmm13
  405e92:	c5 7b 11 aa 48 07 00 	vmovsd %xmm13,0x748(%rdx)
  405e99:	00 
  405e9a:	62 e1 ff 08 10 4e 0f 	vmovsd 0x78(%rsi),%xmm17
  405ea1:	c5 7b 10 b7 08 01 00 	vmovsd 0x108(%rdi),%xmm14
  405ea8:	00 
  405ea9:	62 e2 8d 08 a9 8a 88 	vfmadd213sd 0x888(%rdx),%xmm14,%xmm17
  405eb0:	08 00 00 
  405eb3:	62 e1 ff 08 11 8a 88 	vmovsd %xmm17,0x888(%rdx)
  405eba:	08 00 00 
  405ebd:	c5 7b 10 bf c8 04 00 	vmovsd 0x4c8(%rdi),%xmm15
  405ec4:	00 
  405ec5:	62 e2 85 08 b9 4e 10 	vfmadd231sd 0x80(%rsi),%xmm15,%xmm17
  405ecc:	62 e1 ff 08 11 8a 88 	vmovsd %xmm17,0x888(%rdx)
  405ed3:	08 00 00 
  405ed6:	62 e1 ff 08 10 87 48 	vmovsd 0x748(%rdi),%xmm16
  405edd:	07 00 00 
  405ee0:	62 e2 fd 00 b9 4e 11 	vfmadd231sd 0x88(%rsi),%xmm16,%xmm17
  405ee7:	62 e1 ff 08 11 8a 88 	vmovsd %xmm17,0x888(%rdx)
  405eee:	08 00 00 
  405ef1:	62 e1 ff 08 10 6e 12 	vmovsd 0x90(%rsi),%xmm21
  405ef8:	62 e1 ff 08 10 57 49 	vmovsd 0x248(%rdi),%xmm18
  405eff:	62 e2 ed 00 a9 aa c8 	vfmadd213sd 0x9c8(%rdx),%xmm18,%xmm21
  405f06:	09 00 00 
  405f09:	62 e1 ff 08 11 aa c8 	vmovsd %xmm21,0x9c8(%rdx)
  405f10:	09 00 00 
  405f13:	62 e1 ff 08 10 9f c8 	vmovsd 0x4c8(%rdi),%xmm19
  405f1a:	04 00 00 
  405f1d:	62 e2 e5 00 b9 6e 13 	vfmadd231sd 0x98(%rsi),%xmm19,%xmm21
  405f24:	62 e1 ff 08 11 aa c8 	vmovsd %xmm21,0x9c8(%rdx)
  405f2b:	09 00 00 
  405f2e:	62 e1 ff 08 10 a7 08 	vmovsd 0x608(%rdi),%xmm20
  405f35:	06 00 00 
  405f38:	62 e2 dd 00 b9 6e 14 	vfmadd231sd 0xa0(%rsi),%xmm20,%xmm21
  405f3f:	62 e1 ff 08 11 aa c8 	vmovsd %xmm21,0x9c8(%rdx)
  405f46:	09 00 00 
  405f49:	c5 fb 10 8e a8 00 00 	vmovsd 0xa8(%rsi),%xmm1
  405f50:	00 
  405f51:	62 e1 ff 08 10 77 71 	vmovsd 0x388(%rdi),%xmm22
  405f58:	62 f2 cd 00 a9 8a 08 	vfmadd213sd 0xb08(%rdx),%xmm22,%xmm1
  405f5f:	0b 00 00 
  405f62:	c5 fb 11 8a 08 0b 00 	vmovsd %xmm1,0xb08(%rdx)
  405f69:	00 
  405f6a:	62 e1 ff 08 10 bf c8 	vmovsd 0x4c8(%rdi),%xmm23
  405f71:	04 00 00 
  405f74:	62 f2 c5 00 b9 4e 16 	vfmadd231sd 0xb0(%rsi),%xmm23,%xmm1
  405f7b:	c5 fb 11 8a 08 0b 00 	vmovsd %xmm1,0xb08(%rdx)
  405f82:	00 
  405f83:	62 61 ff 08 10 87 08 	vmovsd 0x608(%rdi),%xmm24
  405f8a:	06 00 00 
  405f8d:	62 f2 bd 00 b9 4e 17 	vfmadd231sd 0xb8(%rsi),%xmm24,%xmm1
  405f94:	c5 fb 11 8a 08 0b 00 	vmovsd %xmm1,0xb08(%rdx)
  405f9b:	00 
  405f9c:	c5 fb 10 87 48 07 00 	vmovsd 0x748(%rdi),%xmm0
  405fa3:	00 
  405fa4:	c4 e2 f9 b9 8e c0 00 	vfmadd231sd 0xc0(%rsi),%xmm0,%xmm1
  405fab:	00 00 
  405fad:	c5 fb 11 8a 08 0b 00 	vmovsd %xmm1,0xb08(%rdx)
  405fb4:	00 
  405fb5:	c5 fb 10 96 c8 00 00 	vmovsd 0xc8(%rsi),%xmm2
  405fbc:	00 
  405fbd:	c5 fb 10 8f 88 08 00 	vmovsd 0x888(%rdi),%xmm1
  405fc4:	00 
  405fc5:	c4 e2 f1 a9 92 48 0c 	vfmadd213sd 0xc48(%rdx),%xmm1,%xmm2
  405fcc:	00 00 
  405fce:	c5 fb 11 92 48 0c 00 	vmovsd %xmm2,0xc48(%rdx)
  405fd5:	00 
  405fd6:	c5 fb 10 a6 d0 00 00 	vmovsd 0xd0(%rsi),%xmm4
  405fdd:	00 
  405fde:	c5 fb 10 9f c8 09 00 	vmovsd 0x9c8(%rdi),%xmm3
  405fe5:	00 
  405fe6:	c4 e2 e1 a9 a2 88 0d 	vfmadd213sd 0xd88(%rdx),%xmm3,%xmm4
  405fed:	00 00 
  405fef:	c5 fb 11 a2 88 0d 00 	vmovsd %xmm4,0xd88(%rdx)
  405ff6:	00 
  405ff7:	c5 fb 10 b6 d8 00 00 	vmovsd 0xd8(%rsi),%xmm6
  405ffe:	00 
  405fff:	c5 fb 10 af 08 0b 00 	vmovsd 0xb08(%rdi),%xmm5
  406006:	00 
  406007:	c4 e2 d1 a9 b2 c8 0e 	vfmadd213sd 0xec8(%rdx),%xmm5,%xmm6
  40600e:	00 00 
  406010:	c5 fb 11 b2 c8 0e 00 	vmovsd %xmm6,0xec8(%rdx)
  406017:	00 
  406018:	c5 7b 10 8e e0 00 00 	vmovsd 0xe0(%rsi),%xmm9
  40601f:	00 
  406020:	c5 fb 10 bf 88 08 00 	vmovsd 0x888(%rdi),%xmm7
  406027:	00 
  406028:	c4 62 c1 a9 8a 08 10 	vfmadd213sd 0x1008(%rdx),%xmm7,%xmm9
  40602f:	00 00 
  406031:	c5 7b 11 8a 08 10 00 	vmovsd %xmm9,0x1008(%rdx)
  406038:	00 
  406039:	c5 7b 10 87 c8 09 00 	vmovsd 0x9c8(%rdi),%xmm8
  406040:	00 
  406041:	c4 62 b9 b9 8e e8 00 	vfmadd231sd 0xe8(%rsi),%xmm8,%xmm9
  406048:	00 00 
  40604a:	c5 7b 11 8a 08 10 00 	vmovsd %xmm9,0x1008(%rdx)
  406051:	00 
  406052:	c5 7b 10 a6 f0 00 00 	vmovsd 0xf0(%rsi),%xmm12
  406059:	00 
  40605a:	c5 7b 10 97 c8 09 00 	vmovsd 0x9c8(%rdi),%xmm10
  406061:	00 
  406062:	c4 62 a9 a9 a2 48 11 	vfmadd213sd 0x1148(%rdx),%xmm10,%xmm12
  406069:	00 00 
  40606b:	c5 7b 11 a2 48 11 00 	vmovsd %xmm12,0x1148(%rdx)
  406072:	00 
  406073:	c5 7b 10 9f 08 0b 00 	vmovsd 0xb08(%rdi),%xmm11
  40607a:	00 
  40607b:	c4 62 a1 b9 a6 f8 00 	vfmadd231sd 0xf8(%rsi),%xmm11,%xmm12
  406082:	00 00 
  406084:	c5 7b 11 a2 48 11 00 	vmovsd %xmm12,0x1148(%rdx)
  40608b:	00 
  40608c:	c5 7b 10 be 00 01 00 	vmovsd 0x100(%rsi),%xmm15
  406093:	00 
  406094:	c5 7b 10 af 88 08 00 	vmovsd 0x888(%rdi),%xmm13
  40609b:	00 
  40609c:	c4 62 91 a9 ba 88 12 	vfmadd213sd 0x1288(%rdx),%xmm13,%xmm15
  4060a3:	00 00 
  4060a5:	c5 7b 11 ba 88 12 00 	vmovsd %xmm15,0x1288(%rdx)
  4060ac:	00 
  4060ad:	c5 7b 10 b7 08 0b 00 	vmovsd 0xb08(%rdi),%xmm14
  4060b4:	00 
  4060b5:	c4 62 89 b9 be 08 01 	vfmadd231sd 0x108(%rsi),%xmm14,%xmm15
  4060bc:	00 00 
  4060be:	c5 7b 11 ba 88 12 00 	vmovsd %xmm15,0x1288(%rdx)
  4060c5:	00 
  4060c6:	62 e1 ff 08 10 1e    	vmovsd (%rsi),%xmm19
  4060cc:	62 e1 ff 08 10 87 90 	vmovsd 0x890(%rdi),%xmm16
  4060d3:	08 00 00 
  4060d6:	62 e2 fd 00 a9 5a 22 	vfmadd213sd 0x110(%rdx),%xmm16,%xmm19
  4060dd:	62 e1 ff 08 11 5a 22 	vmovsd %xmm19,0x110(%rdx)
  4060e4:	62 e1 ff 08 10 8f d0 	vmovsd 0x9d0(%rdi),%xmm17
  4060eb:	09 00 00 
  4060ee:	62 e2 f5 00 b9 5e 01 	vfmadd231sd 0x8(%rsi),%xmm17,%xmm19
  4060f5:	62 e1 ff 08 11 5a 22 	vmovsd %xmm19,0x110(%rdx)
  4060fc:	62 e1 ff 08 10 97 10 	vmovsd 0xb10(%rdi),%xmm18
  406103:	0b 00 00 
  406106:	62 e2 ed 00 b9 5e 02 	vfmadd231sd 0x10(%rsi),%xmm18,%xmm19
  40610d:	62 e1 ff 08 11 5a 22 	vmovsd %xmm19,0x110(%rdx)
  406114:	62 e1 ff 08 10 7e 03 	vmovsd 0x18(%rsi),%xmm23
  40611b:	62 e1 ff 08 10 a7 90 	vmovsd 0x890(%rdi),%xmm20
  406122:	08 00 00 
  406125:	62 e2 dd 00 a9 7a 4a 	vfmadd213sd 0x250(%rdx),%xmm20,%xmm23
  40612c:	62 e1 ff 08 11 7a 4a 	vmovsd %xmm23,0x250(%rdx)
  406133:	62 e1 ff 08 10 af d0 	vmovsd 0x9d0(%rdi),%xmm21
  40613a:	09 00 00 
  40613d:	62 e2 d5 00 b9 7e 04 	vfmadd231sd 0x20(%rsi),%xmm21,%xmm23
  406144:	62 e1 ff 08 11 7a 4a 	vmovsd %xmm23,0x250(%rdx)
  40614b:	62 e1 ff 08 10 b7 10 	vmovsd 0xb10(%rdi),%xmm22
  406152:	0b 00 00 
  406155:	62 e2 cd 00 b9 7e 05 	vfmadd231sd 0x28(%rsi),%xmm22,%xmm23
  40615c:	62 e1 ff 08 11 7a 4a 	vmovsd %xmm23,0x250(%rdx)
  406163:	62 61 ff 08 10 5e 06 	vmovsd 0x30(%rsi),%xmm27
  40616a:	62 61 ff 08 10 87 90 	vmovsd 0x890(%rdi),%xmm24
  406171:	08 00 00 
  406174:	62 62 bd 00 a9 5a 72 	vfmadd213sd 0x390(%rdx),%xmm24,%xmm27
  40617b:	62 61 ff 08 11 5a 72 	vmovsd %xmm27,0x390(%rdx)
  406182:	62 61 ff 08 10 8f d0 	vmovsd 0x9d0(%rdi),%xmm25
  406189:	09 00 00 
  40618c:	62 62 b5 00 b9 5e 07 	vfmadd231sd 0x38(%rsi),%xmm25,%xmm27
  406193:	62 61 ff 08 11 5a 72 	vmovsd %xmm27,0x390(%rdx)
  40619a:	62 61 ff 08 10 97 10 	vmovsd 0xb10(%rdi),%xmm26
  4061a1:	0b 00 00 
  4061a4:	62 62 ad 00 b9 5e 08 	vfmadd231sd 0x40(%rsi),%xmm26,%xmm27
  4061ab:	62 61 ff 08 11 5a 72 	vmovsd %xmm27,0x390(%rdx)
  4061b2:	62 61 ff 08 10 76 09 	vmovsd 0x48(%rsi),%xmm30
  4061b9:	62 61 ff 08 10 a7 90 	vmovsd 0x890(%rdi),%xmm28
  4061c0:	08 00 00 
  4061c3:	62 62 9d 00 a9 b2 d0 	vfmadd213sd 0x4d0(%rdx),%xmm28,%xmm30
  4061ca:	04 00 00 
  4061cd:	62 61 ff 08 11 b2 d0 	vmovsd %xmm30,0x4d0(%rdx)
  4061d4:	04 00 00 
  4061d7:	62 61 ff 08 10 af d0 	vmovsd 0x9d0(%rdi),%xmm29
  4061de:	09 00 00 
  4061e1:	62 62 95 00 b9 76 0a 	vfmadd231sd 0x50(%rsi),%xmm29,%xmm30
  4061e8:	62 61 ff 08 11 b2 d0 	vmovsd %xmm30,0x4d0(%rdx)
  4061ef:	04 00 00 
  4061f2:	c5 fb 10 46 58       	vmovsd 0x58(%rsi),%xmm0
  4061f7:	62 61 ff 08 10 bf d0 	vmovsd 0x9d0(%rdi),%xmm31
  4061fe:	09 00 00 
  406201:	62 f2 85 00 a9 82 10 	vfmadd213sd 0x610(%rdx),%xmm31,%xmm0
  406208:	06 00 00 
  40620b:	c5 fb 11 82 10 06 00 	vmovsd %xmm0,0x610(%rdx)
  406212:	00 
  406213:	62 61 ff 08 10 bf 10 	vmovsd 0xb10(%rdi),%xmm31
  40621a:	0b 00 00 
  40621d:	62 f2 85 00 b9 46 0c 	vfmadd231sd 0x60(%rsi),%xmm31,%xmm0
  406224:	c5 fb 11 82 10 06 00 	vmovsd %xmm0,0x610(%rdx)
  40622b:	00 
  40622c:	c5 fb 10 5e 68       	vmovsd 0x68(%rsi),%xmm3
  406231:	c5 fb 10 8f 90 08 00 	vmovsd 0x890(%rdi),%xmm1
  406238:	00 
  406239:	c4 e2 f1 a9 9a 50 07 	vfmadd213sd 0x750(%rdx),%xmm1,%xmm3
  406240:	00 00 
  406242:	c5 fb 11 9a 50 07 00 	vmovsd %xmm3,0x750(%rdx)
  406249:	00 
  40624a:	c5 fb 10 97 10 0b 00 	vmovsd 0xb10(%rdi),%xmm2
  406251:	00 
  406252:	c4 e2 e9 b9 5e 70    	vfmadd231sd 0x70(%rsi),%xmm2,%xmm3
  406258:	c5 fb 11 9a 50 07 00 	vmovsd %xmm3,0x750(%rdx)
  40625f:	00 
  406260:	c5 fb 10 7e 78       	vmovsd 0x78(%rsi),%xmm7
  406265:	c5 fb 10 a7 10 01 00 	vmovsd 0x110(%rdi),%xmm4
  40626c:	00 
  40626d:	c4 e2 d9 a9 ba 90 08 	vfmadd213sd 0x890(%rdx),%xmm4,%xmm7
  406274:	00 00 
  406276:	c5 fb 11 ba 90 08 00 	vmovsd %xmm7,0x890(%rdx)
  40627d:	00 
  40627e:	c5 fb 10 af d0 04 00 	vmovsd 0x4d0(%rdi),%xmm5
  406285:	00 
  406286:	c4 e2 d1 b9 be 80 00 	vfmadd231sd 0x80(%rsi),%xmm5,%xmm7
  40628d:	00 00 
  40628f:	c5 fb 11 ba 90 08 00 	vmovsd %xmm7,0x890(%rdx)
  406296:	00 
  406297:	c5 fb 10 b7 50 07 00 	vmovsd 0x750(%rdi),%xmm6
  40629e:	00 
  40629f:	c4 e2 c9 b9 be 88 00 	vfmadd231sd 0x88(%rsi),%xmm6,%xmm7
  4062a6:	00 00 
  4062a8:	c5 fb 11 ba 90 08 00 	vmovsd %xmm7,0x890(%rdx)
  4062af:	00 
  4062b0:	c5 7b 10 9e 90 00 00 	vmovsd 0x90(%rsi),%xmm11
  4062b7:	00 
  4062b8:	c5 7b 10 87 50 02 00 	vmovsd 0x250(%rdi),%xmm8
  4062bf:	00 
  4062c0:	c4 62 b9 a9 9a d0 09 	vfmadd213sd 0x9d0(%rdx),%xmm8,%xmm11
  4062c7:	00 00 
  4062c9:	c5 7b 11 9a d0 09 00 	vmovsd %xmm11,0x9d0(%rdx)
  4062d0:	00 
  4062d1:	c5 7b 10 8f d0 04 00 	vmovsd 0x4d0(%rdi),%xmm9
  4062d8:	00 
  4062d9:	c4 62 b1 b9 9e 98 00 	vfmadd231sd 0x98(%rsi),%xmm9,%xmm11
  4062e0:	00 00 
  4062e2:	c5 7b 11 9a d0 09 00 	vmovsd %xmm11,0x9d0(%rdx)
  4062e9:	00 
  4062ea:	c5 7b 10 97 10 06 00 	vmovsd 0x610(%rdi),%xmm10
  4062f1:	00 
  4062f2:	c4 62 a9 b9 9e a0 00 	vfmadd231sd 0xa0(%rsi),%xmm10,%xmm11
  4062f9:	00 00 
  4062fb:	c5 7b 11 9a d0 09 00 	vmovsd %xmm11,0x9d0(%rdx)
  406302:	00 
  406303:	62 e1 ff 08 10 46 15 	vmovsd 0xa8(%rsi),%xmm16
  40630a:	c5 7b 10 a7 90 03 00 	vmovsd 0x390(%rdi),%xmm12
  406311:	00 
  406312:	62 e2 9d 08 a9 82 10 	vfmadd213sd 0xb10(%rdx),%xmm12,%xmm16
  406319:	0b 00 00 
  40631c:	62 e1 ff 08 11 82 10 	vmovsd %xmm16,0xb10(%rdx)
  406323:	0b 00 00 
  406326:	c5 7b 10 af d0 04 00 	vmovsd 0x4d0(%rdi),%xmm13
  40632d:	00 
  40632e:	62 e2 95 08 b9 46 16 	vfmadd231sd 0xb0(%rsi),%xmm13,%xmm16
  406335:	62 e1 ff 08 11 82 10 	vmovsd %xmm16,0xb10(%rdx)
  40633c:	0b 00 00 
  40633f:	c5 7b 10 b7 10 06 00 	vmovsd 0x610(%rdi),%xmm14
  406346:	00 
  406347:	62 e2 8d 08 b9 46 17 	vfmadd231sd 0xb8(%rsi),%xmm14,%xmm16
  40634e:	62 e1 ff 08 11 82 10 	vmovsd %xmm16,0xb10(%rdx)
  406355:	0b 00 00 
  406358:	c5 7b 10 bf 50 07 00 	vmovsd 0x750(%rdi),%xmm15
  40635f:	00 
  406360:	62 e2 85 08 b9 46 18 	vfmadd231sd 0xc0(%rsi),%xmm15,%xmm16
  406367:	62 e1 ff 08 11 82 10 	vmovsd %xmm16,0xb10(%rdx)
  40636e:	0b 00 00 
  406371:	62 e1 ff 08 10 56 19 	vmovsd 0xc8(%rsi),%xmm18
  406378:	62 e1 ff 08 10 8f 90 	vmovsd 0x890(%rdi),%xmm17
  40637f:	08 00 00 
  406382:	62 e2 f5 00 a9 92 50 	vfmadd213sd 0xc50(%rdx),%xmm17,%xmm18
  406389:	0c 00 00 
  40638c:	62 e1 ff 08 11 92 50 	vmovsd %xmm18,0xc50(%rdx)
  406393:	0c 00 00 
  406396:	62 e1 ff 08 10 66 1a 	vmovsd 0xd0(%rsi),%xmm20
  40639d:	62 e1 ff 08 10 9f d0 	vmovsd 0x9d0(%rdi),%xmm19
  4063a4:	09 00 00 
  4063a7:	62 e2 e5 00 a9 a2 90 	vfmadd213sd 0xd90(%rdx),%xmm19,%xmm20
  4063ae:	0d 00 00 
  4063b1:	62 e1 ff 08 11 a2 90 	vmovsd %xmm20,0xd90(%rdx)
  4063b8:	0d 00 00 
  4063bb:	62 e1 ff 08 10 76 1b 	vmovsd 0xd8(%rsi),%xmm22
  4063c2:	62 e1 ff 08 10 af 10 	vmovsd 0xb10(%rdi),%xmm21
  4063c9:	0b 00 00 
  4063cc:	62 e2 d5 00 a9 b2 d0 	vfmadd213sd 0xed0(%rdx),%xmm21,%xmm22
  4063d3:	0e 00 00 
  4063d6:	62 e1 ff 08 11 b2 d0 	vmovsd %xmm22,0xed0(%rdx)
  4063dd:	0e 00 00 
  4063e0:	62 61 ff 08 10 4e 1c 	vmovsd 0xe0(%rsi),%xmm25
  4063e7:	62 e1 ff 08 10 bf 90 	vmovsd 0x890(%rdi),%xmm23
  4063ee:	08 00 00 
  4063f1:	62 62 c5 00 a9 8a 10 	vfmadd213sd 0x1010(%rdx),%xmm23,%xmm25
  4063f8:	10 00 00 
  4063fb:	62 61 ff 08 11 8a 10 	vmovsd %xmm25,0x1010(%rdx)
  406402:	10 00 00 
  406405:	62 61 ff 08 10 87 d0 	vmovsd 0x9d0(%rdi),%xmm24
  40640c:	09 00 00 
  40640f:	62 62 bd 00 b9 4e 1d 	vfmadd231sd 0xe8(%rsi),%xmm24,%xmm25
  406416:	62 61 ff 08 11 8a 10 	vmovsd %xmm25,0x1010(%rdx)
  40641d:	10 00 00 
  406420:	62 61 ff 08 10 66 1e 	vmovsd 0xf0(%rsi),%xmm28
  406427:	62 61 ff 08 10 97 d0 	vmovsd 0x9d0(%rdi),%xmm26
  40642e:	09 00 00 
  406431:	62 62 ad 00 a9 a2 50 	vfmadd213sd 0x1150(%rdx),%xmm26,%xmm28
  406438:	11 00 00 
  40643b:	62 61 ff 08 11 a2 50 	vmovsd %xmm28,0x1150(%rdx)
  406442:	11 00 00 
  406445:	62 61 ff 08 10 9f 10 	vmovsd 0xb10(%rdi),%xmm27
  40644c:	0b 00 00 
  40644f:	62 62 a5 00 b9 66 1f 	vfmadd231sd 0xf8(%rsi),%xmm27,%xmm28
  406456:	62 61 ff 08 11 a2 50 	vmovsd %xmm28,0x1150(%rdx)
  40645d:	11 00 00 
  406460:	c5 fb 10 86 00 01 00 	vmovsd 0x100(%rsi),%xmm0
  406467:	00 
  406468:	62 61 ff 08 10 af 90 	vmovsd 0x890(%rdi),%xmm29
  40646f:	08 00 00 
  406472:	62 f2 95 00 a9 82 90 	vfmadd213sd 0x1290(%rdx),%xmm29,%xmm0
  406479:	12 00 00 
  40647c:	c5 fb 11 82 90 12 00 	vmovsd %xmm0,0x1290(%rdx)
  406483:	00 
  406484:	62 61 ff 08 10 b7 10 	vmovsd 0xb10(%rdi),%xmm30
  40648b:	0b 00 00 
  40648e:	62 f2 8d 00 b9 46 21 	vfmadd231sd 0x108(%rsi),%xmm30,%xmm0
  406495:	c5 fb 11 82 90 12 00 	vmovsd %xmm0,0x1290(%rdx)
  40649c:	00 
  40649d:	c5 fb 10 26          	vmovsd (%rsi),%xmm4
  4064a1:	c5 fb 10 8f 98 08 00 	vmovsd 0x898(%rdi),%xmm1
  4064a8:	00 
  4064a9:	c4 e2 f1 a9 a2 18 01 	vfmadd213sd 0x118(%rdx),%xmm1,%xmm4
  4064b0:	00 00 
  4064b2:	c5 fb 11 a2 18 01 00 	vmovsd %xmm4,0x118(%rdx)
  4064b9:	00 
  4064ba:	c5 fb 10 97 d8 09 00 	vmovsd 0x9d8(%rdi),%xmm2
  4064c1:	00 
  4064c2:	c4 e2 e9 b9 66 08    	vfmadd231sd 0x8(%rsi),%xmm2,%xmm4
  4064c8:	c5 fb 11 a2 18 01 00 	vmovsd %xmm4,0x118(%rdx)
  4064cf:	00 
  4064d0:	c5 fb 10 9f 18 0b 00 	vmovsd 0xb18(%rdi),%xmm3
  4064d7:	00 
  4064d8:	c4 e2 e1 b9 66 10    	vfmadd231sd 0x10(%rsi),%xmm3,%xmm4
  4064de:	c5 fb 11 a2 18 01 00 	vmovsd %xmm4,0x118(%rdx)
  4064e5:	00 
  4064e6:	c5 7b 10 46 18       	vmovsd 0x18(%rsi),%xmm8
  4064eb:	c5 fb 10 af 98 08 00 	vmovsd 0x898(%rdi),%xmm5
  4064f2:	00 
  4064f3:	c4 62 d1 a9 82 58 02 	vfmadd213sd 0x258(%rdx),%xmm5,%xmm8
  4064fa:	00 00 
  4064fc:	c5 7b 11 82 58 02 00 	vmovsd %xmm8,0x258(%rdx)
  406503:	00 
  406504:	c5 fb 10 b7 d8 09 00 	vmovsd 0x9d8(%rdi),%xmm6
  40650b:	00 
  40650c:	c4 62 c9 b9 46 20    	vfmadd231sd 0x20(%rsi),%xmm6,%xmm8
  406512:	c5 7b 11 82 58 02 00 	vmovsd %xmm8,0x258(%rdx)
  406519:	00 
  40651a:	c5 fb 10 bf 18 0b 00 	vmovsd 0xb18(%rdi),%xmm7
  406521:	00 
  406522:	c4 62 c1 b9 46 28    	vfmadd231sd 0x28(%rsi),%xmm7,%xmm8
  406528:	c5 7b 11 82 58 02 00 	vmovsd %xmm8,0x258(%rdx)
  40652f:	00 
  406530:	c5 7b 10 66 30       	vmovsd 0x30(%rsi),%xmm12
  406535:	c5 7b 10 8f 98 08 00 	vmovsd 0x898(%rdi),%xmm9
  40653c:	00 
  40653d:	c4 62 b1 a9 a2 98 03 	vfmadd213sd 0x398(%rdx),%xmm9,%xmm12
  406544:	00 00 
  406546:	c5 7b 11 a2 98 03 00 	vmovsd %xmm12,0x398(%rdx)
  40654d:	00 
  40654e:	c5 7b 10 97 d8 09 00 	vmovsd 0x9d8(%rdi),%xmm10
  406555:	00 
  406556:	c4 62 a9 b9 66 38    	vfmadd231sd 0x38(%rsi),%xmm10,%xmm12
  40655c:	c5 7b 11 a2 98 03 00 	vmovsd %xmm12,0x398(%rdx)
  406563:	00 
  406564:	c5 7b 10 9f 18 0b 00 	vmovsd 0xb18(%rdi),%xmm11
  40656b:	00 
  40656c:	c4 62 a1 b9 66 40    	vfmadd231sd 0x40(%rsi),%xmm11,%xmm12
  406572:	c5 7b 11 a2 98 03 00 	vmovsd %xmm12,0x398(%rdx)
  406579:	00 
  40657a:	c5 7b 10 7e 48       	vmovsd 0x48(%rsi),%xmm15
  40657f:	c5 7b 10 af 98 08 00 	vmovsd 0x898(%rdi),%xmm13
  406586:	00 
  406587:	c4 62 91 a9 ba d8 04 	vfmadd213sd 0x4d8(%rdx),%xmm13,%xmm15
  40658e:	00 00 
  406590:	c5 7b 11 ba d8 04 00 	vmovsd %xmm15,0x4d8(%rdx)
  406597:	00 
  406598:	c5 7b 10 b7 d8 09 00 	vmovsd 0x9d8(%rdi),%xmm14
  40659f:	00 
  4065a0:	c4 62 89 b9 7e 50    	vfmadd231sd 0x50(%rsi),%xmm14,%xmm15
  4065a6:	c5 7b 11 ba d8 04 00 	vmovsd %xmm15,0x4d8(%rdx)
  4065ad:	00 
  4065ae:	62 e1 ff 08 10 56 0b 	vmovsd 0x58(%rsi),%xmm18
  4065b5:	62 e1 ff 08 10 87 d8 	vmovsd 0x9d8(%rdi),%xmm16
  4065bc:	09 00 00 
  4065bf:	62 e2 fd 00 a9 92 18 	vfmadd213sd 0x618(%rdx),%xmm16,%xmm18
  4065c6:	06 00 00 
  4065c9:	62 e1 ff 08 11 92 18 	vmovsd %xmm18,0x618(%rdx)
  4065d0:	06 00 00 
  4065d3:	62 e1 ff 08 10 8f 18 	vmovsd 0xb18(%rdi),%xmm17
  4065da:	0b 00 00 
  4065dd:	62 e2 f5 00 b9 56 0c 	vfmadd231sd 0x60(%rsi),%xmm17,%xmm18
  4065e4:	62 e1 ff 08 11 92 18 	vmovsd %xmm18,0x618(%rdx)
  4065eb:	06 00 00 
  4065ee:	62 e1 ff 08 10 6e 0d 	vmovsd 0x68(%rsi),%xmm21
  4065f5:	62 e1 ff 08 10 9f 98 	vmovsd 0x898(%rdi),%xmm19
  4065fc:	08 00 00 
  4065ff:	62 e2 e5 00 a9 aa 58 	vfmadd213sd 0x758(%rdx),%xmm19,%xmm21
  406606:	07 00 00 
  406609:	62 e1 ff 08 11 aa 58 	vmovsd %xmm21,0x758(%rdx)
  406610:	07 00 00 
  406613:	62 e1 ff 08 10 a7 18 	vmovsd 0xb18(%rdi),%xmm20
  40661a:	0b 00 00 
  40661d:	62 e2 dd 00 b9 6e 0e 	vfmadd231sd 0x70(%rsi),%xmm20,%xmm21
  406624:	62 e1 ff 08 11 aa 58 	vmovsd %xmm21,0x758(%rdx)
  40662b:	07 00 00 
  40662e:	62 61 ff 08 10 4e 0f 	vmovsd 0x78(%rsi),%xmm25
  406635:	62 e1 ff 08 10 77 23 	vmovsd 0x118(%rdi),%xmm22
  40663c:	62 62 cd 00 a9 8a 98 	vfmadd213sd 0x898(%rdx),%xmm22,%xmm25
  406643:	08 00 00 
  406646:	62 61 ff 08 11 8a 98 	vmovsd %xmm25,0x898(%rdx)
  40664d:	08 00 00 
  406650:	62 e1 ff 08 10 bf d8 	vmovsd 0x4d8(%rdi),%xmm23
  406657:	04 00 00 
  40665a:	62 62 c5 00 b9 4e 10 	vfmadd231sd 0x80(%rsi),%xmm23,%xmm25
  406661:	62 61 ff 08 11 8a 98 	vmovsd %xmm25,0x898(%rdx)
  406668:	08 00 00 
  40666b:	62 61 ff 08 10 87 58 	vmovsd 0x758(%rdi),%xmm24
  406672:	07 00 00 
  406675:	62 62 bd 00 b9 4e 11 	vfmadd231sd 0x88(%rsi),%xmm24,%xmm25
  40667c:	62 61 ff 08 11 8a 98 	vmovsd %xmm25,0x898(%rdx)
  406683:	08 00 00 
  406686:	62 61 ff 08 10 6e 12 	vmovsd 0x90(%rsi),%xmm29
  40668d:	62 61 ff 08 10 57 4b 	vmovsd 0x258(%rdi),%xmm26
  406694:	62 62 ad 00 a9 aa d8 	vfmadd213sd 0x9d8(%rdx),%xmm26,%xmm29
  40669b:	09 00 00 
  40669e:	62 61 ff 08 11 aa d8 	vmovsd %xmm29,0x9d8(%rdx)
  4066a5:	09 00 00 
  4066a8:	62 61 ff 08 10 9f d8 	vmovsd 0x4d8(%rdi),%xmm27
  4066af:	04 00 00 
  4066b2:	62 62 a5 00 b9 6e 13 	vfmadd231sd 0x98(%rsi),%xmm27,%xmm29
  4066b9:	62 61 ff 08 11 aa d8 	vmovsd %xmm29,0x9d8(%rdx)
  4066c0:	09 00 00 
  4066c3:	62 61 ff 08 10 a7 18 	vmovsd 0x618(%rdi),%xmm28
  4066ca:	06 00 00 
  4066cd:	62 62 9d 00 b9 6e 14 	vfmadd231sd 0xa0(%rsi),%xmm28,%xmm29
  4066d4:	62 61 ff 08 11 aa d8 	vmovsd %xmm29,0x9d8(%rdx)
  4066db:	09 00 00 
  4066de:	c5 fb 10 86 a8 00 00 	vmovsd 0xa8(%rsi),%xmm0
  4066e5:	00 
  4066e6:	62 61 ff 08 10 77 73 	vmovsd 0x398(%rdi),%xmm30
  4066ed:	62 f2 8d 00 a9 82 18 	vfmadd213sd 0xb18(%rdx),%xmm30,%xmm0
  4066f4:	0b 00 00 
  4066f7:	c5 fb 11 82 18 0b 00 	vmovsd %xmm0,0xb18(%rdx)
  4066fe:	00 
  4066ff:	62 61 ff 08 10 bf d8 	vmovsd 0x4d8(%rdi),%xmm31
  406706:	04 00 00 
  406709:	62 f2 85 00 b9 46 16 	vfmadd231sd 0xb0(%rsi),%xmm31,%xmm0
  406710:	c5 fb 11 82 18 0b 00 	vmovsd %xmm0,0xb18(%rdx)
  406717:	00 
  406718:	62 61 ff 08 10 b7 18 	vmovsd 0x618(%rdi),%xmm30
  40671f:	06 00 00 
  406722:	62 f2 8d 00 b9 46 17 	vfmadd231sd 0xb8(%rsi),%xmm30,%xmm0
  406729:	c5 fb 11 82 18 0b 00 	vmovsd %xmm0,0xb18(%rdx)
  406730:	00 
  406731:	62 61 ff 08 10 bf 58 	vmovsd 0x758(%rdi),%xmm31
  406738:	07 00 00 
  40673b:	62 f2 85 00 b9 46 18 	vfmadd231sd 0xc0(%rsi),%xmm31,%xmm0
  406742:	c5 fb 11 82 18 0b 00 	vmovsd %xmm0,0xb18(%rdx)
  406749:	00 
  40674a:	c5 fb 10 96 c8 00 00 	vmovsd 0xc8(%rsi),%xmm2
  406751:	00 
  406752:	c5 fb 10 8f 98 08 00 	vmovsd 0x898(%rdi),%xmm1
  406759:	00 
  40675a:	c4 e2 f1 a9 92 58 0c 	vfmadd213sd 0xc58(%rdx),%xmm1,%xmm2
  406761:	00 00 
  406763:	c5 fb 11 92 58 0c 00 	vmovsd %xmm2,0xc58(%rdx)
  40676a:	00 
  40676b:	c5 fb 10 a6 d0 00 00 	vmovsd 0xd0(%rsi),%xmm4
  406772:	00 
  406773:	c5 fb 10 9f d8 09 00 	vmovsd 0x9d8(%rdi),%xmm3
  40677a:	00 
  40677b:	c4 e2 e1 a9 a2 98 0d 	vfmadd213sd 0xd98(%rdx),%xmm3,%xmm4
  406782:	00 00 
  406784:	c5 fb 11 a2 98 0d 00 	vmovsd %xmm4,0xd98(%rdx)
  40678b:	00 
  40678c:	c5 fb 10 b6 d8 00 00 	vmovsd 0xd8(%rsi),%xmm6
  406793:	00 
  406794:	c5 fb 10 af 18 0b 00 	vmovsd 0xb18(%rdi),%xmm5
  40679b:	00 
  40679c:	c4 e2 d1 a9 b2 d8 0e 	vfmadd213sd 0xed8(%rdx),%xmm5,%xmm6
  4067a3:	00 00 
  4067a5:	c5 fb 11 b2 d8 0e 00 	vmovsd %xmm6,0xed8(%rdx)
  4067ac:	00 
  4067ad:	c5 7b 10 8e e0 00 00 	vmovsd 0xe0(%rsi),%xmm9
  4067b4:	00 
  4067b5:	c5 fb 10 bf 98 08 00 	vmovsd 0x898(%rdi),%xmm7
  4067bc:	00 
  4067bd:	c4 62 c1 a9 8a 18 10 	vfmadd213sd 0x1018(%rdx),%xmm7,%xmm9
  4067c4:	00 00 
  4067c6:	c5 7b 11 8a 18 10 00 	vmovsd %xmm9,0x1018(%rdx)
  4067cd:	00 
  4067ce:	c5 7b 10 87 d8 09 00 	vmovsd 0x9d8(%rdi),%xmm8
  4067d5:	00 
  4067d6:	c4 62 b9 b9 8e e8 00 	vfmadd231sd 0xe8(%rsi),%xmm8,%xmm9
  4067dd:	00 00 
  4067df:	c5 7b 11 8a 18 10 00 	vmovsd %xmm9,0x1018(%rdx)
  4067e6:	00 
  4067e7:	c5 7b 10 a6 f0 00 00 	vmovsd 0xf0(%rsi),%xmm12
  4067ee:	00 
  4067ef:	c5 7b 10 97 d8 09 00 	vmovsd 0x9d8(%rdi),%xmm10
  4067f6:	00 
  4067f7:	c4 62 a9 a9 a2 58 11 	vfmadd213sd 0x1158(%rdx),%xmm10,%xmm12
  4067fe:	00 00 
  406800:	c5 7b 11 a2 58 11 00 	vmovsd %xmm12,0x1158(%rdx)
  406807:	00 
  406808:	c5 7b 10 9f 18 0b 00 	vmovsd 0xb18(%rdi),%xmm11
  40680f:	00 
  406810:	c4 62 a1 b9 a6 f8 00 	vfmadd231sd 0xf8(%rsi),%xmm11,%xmm12
  406817:	00 00 
  406819:	c5 7b 11 a2 58 11 00 	vmovsd %xmm12,0x1158(%rdx)
  406820:	00 
  406821:	c5 7b 10 be 00 01 00 	vmovsd 0x100(%rsi),%xmm15
  406828:	00 
  406829:	c5 7b 10 af 98 08 00 	vmovsd 0x898(%rdi),%xmm13
  406830:	00 
  406831:	c4 62 91 a9 ba 98 12 	vfmadd213sd 0x1298(%rdx),%xmm13,%xmm15
  406838:	00 00 
  40683a:	c5 7b 11 ba 98 12 00 	vmovsd %xmm15,0x1298(%rdx)
  406841:	00 
  406842:	c5 7b 10 b7 18 0b 00 	vmovsd 0xb18(%rdi),%xmm14
  406849:	00 
  40684a:	c4 62 89 b9 be 08 01 	vfmadd231sd 0x108(%rsi),%xmm14,%xmm15
  406851:	00 00 
  406853:	c5 7b 11 ba 98 12 00 	vmovsd %xmm15,0x1298(%rdx)
  40685a:	00 
  40685b:	62 e1 ff 08 10 1e    	vmovsd (%rsi),%xmm19
  406861:	62 e1 ff 08 10 87 a0 	vmovsd 0x8a0(%rdi),%xmm16
  406868:	08 00 00 
  40686b:	62 e2 fd 00 a9 5a 24 	vfmadd213sd 0x120(%rdx),%xmm16,%xmm19
  406872:	62 e1 ff 08 11 5a 24 	vmovsd %xmm19,0x120(%rdx)
  406879:	62 e1 ff 08 10 8f e0 	vmovsd 0x9e0(%rdi),%xmm17
  406880:	09 00 00 
  406883:	62 e2 f5 00 b9 5e 01 	vfmadd231sd 0x8(%rsi),%xmm17,%xmm19
  40688a:	62 e1 ff 08 11 5a 24 	vmovsd %xmm19,0x120(%rdx)
  406891:	62 e1 ff 08 10 97 20 	vmovsd 0xb20(%rdi),%xmm18
  406898:	0b 00 00 
  40689b:	62 e2 ed 00 b9 5e 02 	vfmadd231sd 0x10(%rsi),%xmm18,%xmm19
  4068a2:	62 e1 ff 08 11 5a 24 	vmovsd %xmm19,0x120(%rdx)
  4068a9:	62 e1 ff 08 10 7e 03 	vmovsd 0x18(%rsi),%xmm23
  4068b0:	62 e1 ff 08 10 a7 a0 	vmovsd 0x8a0(%rdi),%xmm20
  4068b7:	08 00 00 
  4068ba:	62 e2 dd 00 a9 7a 4c 	vfmadd213sd 0x260(%rdx),%xmm20,%xmm23
  4068c1:	62 e1 ff 08 11 7a 4c 	vmovsd %xmm23,0x260(%rdx)
  4068c8:	62 e1 ff 08 10 af e0 	vmovsd 0x9e0(%rdi),%xmm21
  4068cf:	09 00 00 
  4068d2:	62 e2 d5 00 b9 7e 04 	vfmadd231sd 0x20(%rsi),%xmm21,%xmm23
  4068d9:	62 e1 ff 08 11 7a 4c 	vmovsd %xmm23,0x260(%rdx)
  4068e0:	62 e1 ff 08 10 b7 20 	vmovsd 0xb20(%rdi),%xmm22
  4068e7:	0b 00 00 
  4068ea:	62 e2 cd 00 b9 7e 05 	vfmadd231sd 0x28(%rsi),%xmm22,%xmm23
  4068f1:	62 e1 ff 08 11 7a 4c 	vmovsd %xmm23,0x260(%rdx)
  4068f8:	62 61 ff 08 10 5e 06 	vmovsd 0x30(%rsi),%xmm27
  4068ff:	62 61 ff 08 10 87 a0 	vmovsd 0x8a0(%rdi),%xmm24
  406906:	08 00 00 
  406909:	62 62 bd 00 a9 5a 74 	vfmadd213sd 0x3a0(%rdx),%xmm24,%xmm27
  406910:	62 61 ff 08 11 5a 74 	vmovsd %xmm27,0x3a0(%rdx)
  406917:	62 61 ff 08 10 8f e0 	vmovsd 0x9e0(%rdi),%xmm25
  40691e:	09 00 00 
  406921:	62 62 b5 00 b9 5e 07 	vfmadd231sd 0x38(%rsi),%xmm25,%xmm27
  406928:	62 61 ff 08 11 5a 74 	vmovsd %xmm27,0x3a0(%rdx)
  40692f:	62 61 ff 08 10 97 20 	vmovsd 0xb20(%rdi),%xmm26
  406936:	0b 00 00 
  406939:	62 62 ad 00 b9 5e 08 	vfmadd231sd 0x40(%rsi),%xmm26,%xmm27
  406940:	62 61 ff 08 11 5a 74 	vmovsd %xmm27,0x3a0(%rdx)
  406947:	c5 fb 10 46 48       	vmovsd 0x48(%rsi),%xmm0
  40694c:	62 61 ff 08 10 a7 a0 	vmovsd 0x8a0(%rdi),%xmm28
  406953:	08 00 00 
  406956:	62 f2 9d 00 a9 82 e0 	vfmadd213sd 0x4e0(%rdx),%xmm28,%xmm0
  40695d:	04 00 00 
  406960:	c5 fb 11 82 e0 04 00 	vmovsd %xmm0,0x4e0(%rdx)
  406967:	00 
  406968:	62 61 ff 08 10 af e0 	vmovsd 0x9e0(%rdi),%xmm29
  40696f:	09 00 00 
  406972:	62 f2 95 00 b9 46 0a 	vfmadd231sd 0x50(%rsi),%xmm29,%xmm0
  406979:	c5 fb 11 82 e0 04 00 	vmovsd %xmm0,0x4e0(%rdx)
  406980:	00 
  406981:	c5 fb 10 56 58       	vmovsd 0x58(%rsi),%xmm2
  406986:	c5 fb 10 8f e0 09 00 	vmovsd 0x9e0(%rdi),%xmm1
  40698d:	00 
  40698e:	c4 e2 f1 a9 92 20 06 	vfmadd213sd 0x620(%rdx),%xmm1,%xmm2
  406995:	00 00 
  406997:	c5 fb 11 92 20 06 00 	vmovsd %xmm2,0x620(%rdx)
  40699e:	00 
  40699f:	c5 fb 10 87 20 0b 00 	vmovsd 0xb20(%rdi),%xmm0
  4069a6:	00 
  4069a7:	c4 e2 f9 b9 56 60    	vfmadd231sd 0x60(%rsi),%xmm0,%xmm2
  4069ad:	c5 fb 11 92 20 06 00 	vmovsd %xmm2,0x620(%rdx)
  4069b4:	00 
  4069b5:	c5 fb 10 5e 68       	vmovsd 0x68(%rsi),%xmm3
  4069ba:	c5 fb 10 8f a0 08 00 	vmovsd 0x8a0(%rdi),%xmm1
  4069c1:	00 
  4069c2:	c4 e2 f1 a9 9a 60 07 	vfmadd213sd 0x760(%rdx),%xmm1,%xmm3
  4069c9:	00 00 
  4069cb:	c5 fb 11 9a 60 07 00 	vmovsd %xmm3,0x760(%rdx)
  4069d2:	00 
  4069d3:	c5 fb 10 97 20 0b 00 	vmovsd 0xb20(%rdi),%xmm2
  4069da:	00 
  4069db:	c4 e2 e9 b9 5e 70    	vfmadd231sd 0x70(%rsi),%xmm2,%xmm3
  4069e1:	c5 fb 11 9a 60 07 00 	vmovsd %xmm3,0x760(%rdx)
  4069e8:	00 
  4069e9:	c5 fb 10 7e 78       	vmovsd 0x78(%rsi),%xmm7
  4069ee:	c5 fb 10 a7 20 01 00 	vmovsd 0x120(%rdi),%xmm4
  4069f5:	00 
  4069f6:	c4 e2 d9 a9 ba a0 08 	vfmadd213sd 0x8a0(%rdx),%xmm4,%xmm7
  4069fd:	00 00 
  4069ff:	c5 fb 11 ba a0 08 00 	vmovsd %xmm7,0x8a0(%rdx)
  406a06:	00 
  406a07:	c5 fb 10 af e0 04 00 	vmovsd 0x4e0(%rdi),%xmm5
  406a0e:	00 
  406a0f:	c4 e2 d1 b9 be 80 00 	vfmadd231sd 0x80(%rsi),%xmm5,%xmm7
  406a16:	00 00 
  406a18:	c5 fb 11 ba a0 08 00 	vmovsd %xmm7,0x8a0(%rdx)
  406a1f:	00 
  406a20:	c5 fb 10 b7 60 07 00 	vmovsd 0x760(%rdi),%xmm6
  406a27:	00 
  406a28:	c4 e2 c9 b9 be 88 00 	vfmadd231sd 0x88(%rsi),%xmm6,%xmm7
  406a2f:	00 00 
  406a31:	c5 fb 11 ba a0 08 00 	vmovsd %xmm7,0x8a0(%rdx)
  406a38:	00 
  406a39:	c5 7b 10 9e 90 00 00 	vmovsd 0x90(%rsi),%xmm11
  406a40:	00 
  406a41:	c5 7b 10 87 60 02 00 	vmovsd 0x260(%rdi),%xmm8
  406a48:	00 
  406a49:	c4 62 b9 a9 9a e0 09 	vfmadd213sd 0x9e0(%rdx),%xmm8,%xmm11
  406a50:	00 00 
  406a52:	c5 7b 11 9a e0 09 00 	vmovsd %xmm11,0x9e0(%rdx)
  406a59:	00 
  406a5a:	c5 7b 10 8f e0 04 00 	vmovsd 0x4e0(%rdi),%xmm9
  406a61:	00 
  406a62:	c4 62 b1 b9 9e 98 00 	vfmadd231sd 0x98(%rsi),%xmm9,%xmm11
  406a69:	00 00 
  406a6b:	c5 7b 11 9a e0 09 00 	vmovsd %xmm11,0x9e0(%rdx)
  406a72:	00 
  406a73:	c5 7b 10 97 20 06 00 	vmovsd 0x620(%rdi),%xmm10
  406a7a:	00 
  406a7b:	c4 62 a9 b9 9e a0 00 	vfmadd231sd 0xa0(%rsi),%xmm10,%xmm11
  406a82:	00 00 
  406a84:	c5 7b 11 9a e0 09 00 	vmovsd %xmm11,0x9e0(%rdx)
  406a8b:	00 
  406a8c:	62 e1 ff 08 10 46 15 	vmovsd 0xa8(%rsi),%xmm16
  406a93:	c5 7b 10 a7 a0 03 00 	vmovsd 0x3a0(%rdi),%xmm12
  406a9a:	00 
  406a9b:	62 e2 9d 08 a9 82 20 	vfmadd213sd 0xb20(%rdx),%xmm12,%xmm16
  406aa2:	0b 00 00 
  406aa5:	62 e1 ff 08 11 82 20 	vmovsd %xmm16,0xb20(%rdx)
  406aac:	0b 00 00 
  406aaf:	c5 7b 10 af e0 04 00 	vmovsd 0x4e0(%rdi),%xmm13
  406ab6:	00 
  406ab7:	62 e2 95 08 b9 46 16 	vfmadd231sd 0xb0(%rsi),%xmm13,%xmm16
  406abe:	62 e1 ff 08 11 82 20 	vmovsd %xmm16,0xb20(%rdx)
  406ac5:	0b 00 00 
  406ac8:	c5 7b 10 b7 20 06 00 	vmovsd 0x620(%rdi),%xmm14
  406acf:	00 
  406ad0:	62 e2 8d 08 b9 46 17 	vfmadd231sd 0xb8(%rsi),%xmm14,%xmm16
  406ad7:	62 e1 ff 08 11 82 20 	vmovsd %xmm16,0xb20(%rdx)
  406ade:	0b 00 00 
  406ae1:	c5 7b 10 bf 60 07 00 	vmovsd 0x760(%rdi),%xmm15
  406ae8:	00 
  406ae9:	62 e2 85 08 b9 46 18 	vfmadd231sd 0xc0(%rsi),%xmm15,%xmm16
  406af0:	62 e1 ff 08 11 82 20 	vmovsd %xmm16,0xb20(%rdx)
  406af7:	0b 00 00 
  406afa:	62 e1 ff 08 10 56 19 	vmovsd 0xc8(%rsi),%xmm18
  406b01:	62 e1 ff 08 10 8f a0 	vmovsd 0x8a0(%rdi),%xmm17
  406b08:	08 00 00 
  406b0b:	62 e2 f5 00 a9 92 60 	vfmadd213sd 0xc60(%rdx),%xmm17,%xmm18
  406b12:	0c 00 00 
  406b15:	62 e1 ff 08 11 92 60 	vmovsd %xmm18,0xc60(%rdx)
  406b1c:	0c 00 00 
  406b1f:	62 e1 ff 08 10 66 1a 	vmovsd 0xd0(%rsi),%xmm20
  406b26:	62 e1 ff 08 10 9f e0 	vmovsd 0x9e0(%rdi),%xmm19
  406b2d:	09 00 00 
  406b30:	62 e2 e5 00 a9 a2 a0 	vfmadd213sd 0xda0(%rdx),%xmm19,%xmm20
  406b37:	0d 00 00 
  406b3a:	62 e1 ff 08 11 a2 a0 	vmovsd %xmm20,0xda0(%rdx)
  406b41:	0d 00 00 
  406b44:	62 e1 ff 08 10 76 1b 	vmovsd 0xd8(%rsi),%xmm22
  406b4b:	62 e1 ff 08 10 af 20 	vmovsd 0xb20(%rdi),%xmm21
  406b52:	0b 00 00 
  406b55:	62 e2 d5 00 a9 b2 e0 	vfmadd213sd 0xee0(%rdx),%xmm21,%xmm22
  406b5c:	0e 00 00 
  406b5f:	62 e1 ff 08 11 b2 e0 	vmovsd %xmm22,0xee0(%rdx)
  406b66:	0e 00 00 
  406b69:	62 61 ff 08 10 4e 1c 	vmovsd 0xe0(%rsi),%xmm25
  406b70:	62 e1 ff 08 10 bf a0 	vmovsd 0x8a0(%rdi),%xmm23
  406b77:	08 00 00 
  406b7a:	62 62 c5 00 a9 8a 20 	vfmadd213sd 0x1020(%rdx),%xmm23,%xmm25
  406b81:	10 00 00 
  406b84:	62 61 ff 08 11 8a 20 	vmovsd %xmm25,0x1020(%rdx)
  406b8b:	10 00 00 
  406b8e:	62 61 ff 08 10 87 e0 	vmovsd 0x9e0(%rdi),%xmm24
  406b95:	09 00 00 
  406b98:	62 62 bd 00 b9 4e 1d 	vfmadd231sd 0xe8(%rsi),%xmm24,%xmm25
  406b9f:	62 61 ff 08 11 8a 20 	vmovsd %xmm25,0x1020(%rdx)
  406ba6:	10 00 00 
  406ba9:	62 61 ff 08 10 66 1e 	vmovsd 0xf0(%rsi),%xmm28
  406bb0:	62 61 ff 08 10 97 e0 	vmovsd 0x9e0(%rdi),%xmm26
  406bb7:	09 00 00 
  406bba:	62 62 ad 00 a9 a2 60 	vfmadd213sd 0x1160(%rdx),%xmm26,%xmm28
  406bc1:	11 00 00 
  406bc4:	62 61 ff 08 11 a2 60 	vmovsd %xmm28,0x1160(%rdx)
  406bcb:	11 00 00 
  406bce:	62 61 ff 08 10 9f 20 	vmovsd 0xb20(%rdi),%xmm27
  406bd5:	0b 00 00 
  406bd8:	62 62 a5 00 b9 66 1f 	vfmadd231sd 0xf8(%rsi),%xmm27,%xmm28
  406bdf:	62 61 ff 08 11 a2 60 	vmovsd %xmm28,0x1160(%rdx)
  406be6:	11 00 00 
  406be9:	62 61 ff 08 10 7e 20 	vmovsd 0x100(%rsi),%xmm31
  406bf0:	62 61 ff 08 10 af a0 	vmovsd 0x8a0(%rdi),%xmm29
  406bf7:	08 00 00 
  406bfa:	62 62 95 00 a9 ba a0 	vfmadd213sd 0x12a0(%rdx),%xmm29,%xmm31
  406c01:	12 00 00 
  406c04:	62 61 ff 08 11 ba a0 	vmovsd %xmm31,0x12a0(%rdx)
  406c0b:	12 00 00 
  406c0e:	62 61 ff 08 10 b7 20 	vmovsd 0xb20(%rdi),%xmm30
  406c15:	0b 00 00 
  406c18:	62 62 8d 00 b9 7e 21 	vfmadd231sd 0x108(%rsi),%xmm30,%xmm31
  406c1f:	62 61 ff 08 11 ba a0 	vmovsd %xmm31,0x12a0(%rdx)
  406c26:	12 00 00 
  406c29:	c5 fb 10 1e          	vmovsd (%rsi),%xmm3
  406c2d:	c5 fb 10 87 a8 08 00 	vmovsd 0x8a8(%rdi),%xmm0
  406c34:	00 
  406c35:	c4 e2 f9 a9 9a 28 01 	vfmadd213sd 0x128(%rdx),%xmm0,%xmm3
  406c3c:	00 00 
  406c3e:	c5 fb 11 9a 28 01 00 	vmovsd %xmm3,0x128(%rdx)
  406c45:	00 
  406c46:	c5 fb 10 8f e8 09 00 	vmovsd 0x9e8(%rdi),%xmm1
  406c4d:	00 
  406c4e:	c4 e2 f1 b9 5e 08    	vfmadd231sd 0x8(%rsi),%xmm1,%xmm3
  406c54:	c5 fb 11 9a 28 01 00 	vmovsd %xmm3,0x128(%rdx)
  406c5b:	00 
  406c5c:	c5 fb 10 97 28 0b 00 	vmovsd 0xb28(%rdi),%xmm2
  406c63:	00 
  406c64:	c4 e2 e9 b9 5e 10    	vfmadd231sd 0x10(%rsi),%xmm2,%xmm3
  406c6a:	c5 fb 11 9a 28 01 00 	vmovsd %xmm3,0x128(%rdx)
  406c71:	00 
  406c72:	c5 fb 10 7e 18       	vmovsd 0x18(%rsi),%xmm7
  406c77:	c5 fb 10 a7 a8 08 00 	vmovsd 0x8a8(%rdi),%xmm4
  406c7e:	00 
  406c7f:	c4 e2 d9 a9 ba 68 02 	vfmadd213sd 0x268(%rdx),%xmm4,%xmm7
  406c86:	00 00 
  406c88:	c5 fb 11 ba 68 02 00 	vmovsd %xmm7,0x268(%rdx)
  406c8f:	00 
  406c90:	c5 fb 10 af e8 09 00 	vmovsd 0x9e8(%rdi),%xmm5
  406c97:	00 
  406c98:	c4 e2 d1 b9 7e 20    	vfmadd231sd 0x20(%rsi),%xmm5,%xmm7
  406c9e:	c5 fb 11 ba 68 02 00 	vmovsd %xmm7,0x268(%rdx)
  406ca5:	00 
  406ca6:	c5 fb 10 b7 28 0b 00 	vmovsd 0xb28(%rdi),%xmm6
  406cad:	00 
  406cae:	c4 e2 c9 b9 7e 28    	vfmadd231sd 0x28(%rsi),%xmm6,%xmm7
  406cb4:	c5 fb 11 ba 68 02 00 	vmovsd %xmm7,0x268(%rdx)
  406cbb:	00 
  406cbc:	c5 7b 10 5e 30       	vmovsd 0x30(%rsi),%xmm11
  406cc1:	c5 7b 10 87 a8 08 00 	vmovsd 0x8a8(%rdi),%xmm8
  406cc8:	00 
  406cc9:	c4 62 b9 a9 9a a8 03 	vfmadd213sd 0x3a8(%rdx),%xmm8,%xmm11
  406cd0:	00 00 
  406cd2:	c5 7b 11 9a a8 03 00 	vmovsd %xmm11,0x3a8(%rdx)
  406cd9:	00 
  406cda:	c5 7b 10 8f e8 09 00 	vmovsd 0x9e8(%rdi),%xmm9
  406ce1:	00 
  406ce2:	c4 62 b1 b9 5e 38    	vfmadd231sd 0x38(%rsi),%xmm9,%xmm11
  406ce8:	c5 7b 11 9a a8 03 00 	vmovsd %xmm11,0x3a8(%rdx)
  406cef:	00 
  406cf0:	c5 7b 10 97 28 0b 00 	vmovsd 0xb28(%rdi),%xmm10
  406cf7:	00 
  406cf8:	c4 62 a9 b9 5e 40    	vfmadd231sd 0x40(%rsi),%xmm10,%xmm11
  406cfe:	c5 7b 11 9a a8 03 00 	vmovsd %xmm11,0x3a8(%rdx)
  406d05:	00 
  406d06:	c5 7b 10 76 48       	vmovsd 0x48(%rsi),%xmm14
  406d0b:	c5 7b 10 a7 a8 08 00 	vmovsd 0x8a8(%rdi),%xmm12
  406d12:	00 
  406d13:	c4 62 99 a9 b2 e8 04 	vfmadd213sd 0x4e8(%rdx),%xmm12,%xmm14
  406d1a:	00 00 
  406d1c:	c5 7b 11 b2 e8 04 00 	vmovsd %xmm14,0x4e8(%rdx)
  406d23:	00 
  406d24:	c5 7b 10 af e8 09 00 	vmovsd 0x9e8(%rdi),%xmm13
  406d2b:	00 
  406d2c:	c4 62 91 b9 76 50    	vfmadd231sd 0x50(%rsi),%xmm13,%xmm14
  406d32:	c5 7b 11 b2 e8 04 00 	vmovsd %xmm14,0x4e8(%rdx)
  406d39:	00 
  406d3a:	62 e1 ff 08 10 4e 0b 	vmovsd 0x58(%rsi),%xmm17
  406d41:	c5 7b 10 bf e8 09 00 	vmovsd 0x9e8(%rdi),%xmm15
  406d48:	00 
  406d49:	62 e2 85 08 a9 8a 28 	vfmadd213sd 0x628(%rdx),%xmm15,%xmm17
  406d50:	06 00 00 
  406d53:	62 e1 ff 08 11 8a 28 	vmovsd %xmm17,0x628(%rdx)
  406d5a:	06 00 00 
  406d5d:	62 e1 ff 08 10 87 28 	vmovsd 0xb28(%rdi),%xmm16
  406d64:	0b 00 00 
  406d67:	62 e2 fd 00 b9 4e 0c 	vfmadd231sd 0x60(%rsi),%xmm16,%xmm17
  406d6e:	62 e1 ff 08 11 8a 28 	vmovsd %xmm17,0x628(%rdx)
  406d75:	06 00 00 
  406d78:	62 e1 ff 08 10 66 0d 	vmovsd 0x68(%rsi),%xmm20
  406d7f:	62 e1 ff 08 10 97 a8 	vmovsd 0x8a8(%rdi),%xmm18
  406d86:	08 00 00 
  406d89:	62 e2 ed 00 a9 a2 68 	vfmadd213sd 0x768(%rdx),%xmm18,%xmm20
  406d90:	07 00 00 
  406d93:	62 e1 ff 08 11 a2 68 	vmovsd %xmm20,0x768(%rdx)
  406d9a:	07 00 00 
  406d9d:	62 e1 ff 08 10 9f 28 	vmovsd 0xb28(%rdi),%xmm19
  406da4:	0b 00 00 
  406da7:	62 e2 e5 00 b9 66 0e 	vfmadd231sd 0x70(%rsi),%xmm19,%xmm20
  406dae:	62 e1 ff 08 11 a2 68 	vmovsd %xmm20,0x768(%rdx)
  406db5:	07 00 00 
  406db8:	62 61 ff 08 10 46 0f 	vmovsd 0x78(%rsi),%xmm24
  406dbf:	62 e1 ff 08 10 6f 25 	vmovsd 0x128(%rdi),%xmm21
  406dc6:	62 62 d5 00 a9 82 a8 	vfmadd213sd 0x8a8(%rdx),%xmm21,%xmm24
  406dcd:	08 00 00 
  406dd0:	62 61 ff 08 11 82 a8 	vmovsd %xmm24,0x8a8(%rdx)
  406dd7:	08 00 00 
  406dda:	62 e1 ff 08 10 b7 e8 	vmovsd 0x4e8(%rdi),%xmm22
  406de1:	04 00 00 
  406de4:	62 62 cd 00 b9 46 10 	vfmadd231sd 0x80(%rsi),%xmm22,%xmm24
  406deb:	62 61 ff 08 11 82 a8 	vmovsd %xmm24,0x8a8(%rdx)
  406df2:	08 00 00 
  406df5:	62 e1 ff 08 10 bf 68 	vmovsd 0x768(%rdi),%xmm23
  406dfc:	07 00 00 
  406dff:	62 62 c5 00 b9 46 11 	vfmadd231sd 0x88(%rsi),%xmm23,%xmm24
  406e06:	62 61 ff 08 11 82 a8 	vmovsd %xmm24,0x8a8(%rdx)
  406e0d:	08 00 00 
  406e10:	62 61 ff 08 10 66 12 	vmovsd 0x90(%rsi),%xmm28
  406e17:	62 61 ff 08 10 4f 4d 	vmovsd 0x268(%rdi),%xmm25
  406e1e:	62 62 b5 00 a9 a2 e8 	vfmadd213sd 0x9e8(%rdx),%xmm25,%xmm28
  406e25:	09 00 00 
  406e28:	62 61 ff 08 11 a2 e8 	vmovsd %xmm28,0x9e8(%rdx)
  406e2f:	09 00 00 
  406e32:	62 61 ff 08 10 97 e8 	vmovsd 0x4e8(%rdi),%xmm26
  406e39:	04 00 00 
  406e3c:	62 62 ad 00 b9 66 13 	vfmadd231sd 0x98(%rsi),%xmm26,%xmm28
  406e43:	62 61 ff 08 11 a2 e8 	vmovsd %xmm28,0x9e8(%rdx)
  406e4a:	09 00 00 
  406e4d:	62 61 ff 08 10 9f 28 	vmovsd 0x628(%rdi),%xmm27
  406e54:	06 00 00 
  406e57:	62 62 a5 00 b9 66 14 	vfmadd231sd 0xa0(%rsi),%xmm27,%xmm28
  406e5e:	62 61 ff 08 11 a2 e8 	vmovsd %xmm28,0x9e8(%rdx)
  406e65:	09 00 00 
  406e68:	c5 fb 10 86 a8 00 00 	vmovsd 0xa8(%rsi),%xmm0
  406e6f:	00 
  406e70:	62 61 ff 08 10 6f 75 	vmovsd 0x3a8(%rdi),%xmm29
  406e77:	62 f2 95 00 a9 82 28 	vfmadd213sd 0xb28(%rdx),%xmm29,%xmm0
  406e7e:	0b 00 00 
  406e81:	c5 fb 11 82 28 0b 00 	vmovsd %xmm0,0xb28(%rdx)
  406e88:	00 
  406e89:	62 61 ff 08 10 b7 e8 	vmovsd 0x4e8(%rdi),%xmm30
  406e90:	04 00 00 
  406e93:	62 f2 8d 00 b9 46 16 	vfmadd231sd 0xb0(%rsi),%xmm30,%xmm0
  406e9a:	c5 fb 11 82 28 0b 00 	vmovsd %xmm0,0xb28(%rdx)
  406ea1:	00 
  406ea2:	62 61 ff 08 10 bf 28 	vmovsd 0x628(%rdi),%xmm31
  406ea9:	06 00 00 
  406eac:	62 f2 85 00 b9 46 17 	vfmadd231sd 0xb8(%rsi),%xmm31,%xmm0
  406eb3:	c5 fb 11 82 28 0b 00 	vmovsd %xmm0,0xb28(%rdx)
  406eba:	00 
  406ebb:	62 61 ff 08 10 af 68 	vmovsd 0x768(%rdi),%xmm29
  406ec2:	07 00 00 
  406ec5:	62 f2 95 00 b9 46 18 	vfmadd231sd 0xc0(%rsi),%xmm29,%xmm0
  406ecc:	c5 fb 11 82 28 0b 00 	vmovsd %xmm0,0xb28(%rdx)
  406ed3:	00 
  406ed4:	c5 fb 10 96 c8 00 00 	vmovsd 0xc8(%rsi),%xmm2
  406edb:	00 
  406edc:	c5 fb 10 8f a8 08 00 	vmovsd 0x8a8(%rdi),%xmm1
  406ee3:	00 
  406ee4:	c4 e2 f1 a9 92 68 0c 	vfmadd213sd 0xc68(%rdx),%xmm1,%xmm2
  406eeb:	00 00 
  406eed:	c5 fb 11 92 68 0c 00 	vmovsd %xmm2,0xc68(%rdx)
  406ef4:	00 
  406ef5:	c5 fb 10 a6 d0 00 00 	vmovsd 0xd0(%rsi),%xmm4
  406efc:	00 
  406efd:	c5 fb 10 9f e8 09 00 	vmovsd 0x9e8(%rdi),%xmm3
  406f04:	00 
  406f05:	c4 e2 e1 a9 a2 a8 0d 	vfmadd213sd 0xda8(%rdx),%xmm3,%xmm4
  406f0c:	00 00 
  406f0e:	c5 fb 11 a2 a8 0d 00 	vmovsd %xmm4,0xda8(%rdx)
  406f15:	00 
  406f16:	c5 fb 10 b6 d8 00 00 	vmovsd 0xd8(%rsi),%xmm6
  406f1d:	00 
  406f1e:	c5 fb 10 af 28 0b 00 	vmovsd 0xb28(%rdi),%xmm5
  406f25:	00 
