
build/jumptable:     file format elf64-x86-64


Disassembly of section .init:

0000000000400448 <_init>:
  400448:	48 83 ec 08          	sub    $0x8,%rsp
  40044c:	48 8b 05 a5 0b 20 00 	mov    0x200ba5(%rip),%rax        # 600ff8 <_DYNAMIC+0x1d0>
  400453:	48 85 c0             	test   %rax,%rax
  400456:	74 05                	je     40045d <_init+0x15>
  400458:	e8 53 00 00 00       	callq  4004b0 <__printf_chk@plt+0x10>
  40045d:	48 83 c4 08          	add    $0x8,%rsp
  400461:	c3                   	retq   

Disassembly of section .plt:

0000000000400470 <__stack_chk_fail@plt-0x10>:
  400470:	ff 35 92 0b 20 00    	pushq  0x200b92(%rip)        # 601008 <_GLOBAL_OFFSET_TABLE_+0x8>
  400476:	ff 25 94 0b 20 00    	jmpq   *0x200b94(%rip)        # 601010 <_GLOBAL_OFFSET_TABLE_+0x10>
  40047c:	0f 1f 40 00          	nopl   0x0(%rax)

0000000000400480 <__stack_chk_fail@plt>:
  400480:	ff 25 92 0b 20 00    	jmpq   *0x200b92(%rip)        # 601018 <_GLOBAL_OFFSET_TABLE_+0x18>
  400486:	68 00 00 00 00       	pushq  $0x0
  40048b:	e9 e0 ff ff ff       	jmpq   400470 <_init+0x28>

0000000000400490 <__libc_start_main@plt>:
  400490:	ff 25 8a 0b 20 00    	jmpq   *0x200b8a(%rip)        # 601020 <_GLOBAL_OFFSET_TABLE_+0x20>
  400496:	68 01 00 00 00       	pushq  $0x1
  40049b:	e9 d0 ff ff ff       	jmpq   400470 <_init+0x28>

00000000004004a0 <__printf_chk@plt>:
  4004a0:	ff 25 82 0b 20 00    	jmpq   *0x200b82(%rip)        # 601028 <_GLOBAL_OFFSET_TABLE_+0x28>
  4004a6:	68 02 00 00 00       	pushq  $0x2
  4004ab:	e9 c0 ff ff ff       	jmpq   400470 <_init+0x28>

Disassembly of section .plt.got:

00000000004004b0 <.plt.got>:
  4004b0:	ff 25 42 0b 20 00    	jmpq   *0x200b42(%rip)        # 600ff8 <_DYNAMIC+0x1d0>
  4004b6:	66 90                	xchg   %ax,%ax

Disassembly of section .text:

00000000004004c0 <main>:
  4004c0:	48 83 ec 08          	sub    $0x8,%rsp
  4004c4:	e8 67 01 00 00       	callq  400630 <_Z8expectedv>
  4004c9:	be 84 07 40 00       	mov    $0x400784,%esi
  4004ce:	89 c2                	mov    %eax,%edx
  4004d0:	bf 01 00 00 00       	mov    $0x1,%edi
  4004d5:	31 c0                	xor    %eax,%eax
  4004d7:	e8 c4 ff ff ff       	callq  4004a0 <__printf_chk@plt>
  4004dc:	e8 5f 01 00 00       	callq  400640 <_Z13actual_loopedv>
  4004e1:	be 93 07 40 00       	mov    $0x400793,%esi
  4004e6:	89 c2                	mov    %eax,%edx
  4004e8:	bf 01 00 00 00       	mov    $0x1,%edi
  4004ed:	31 c0                	xor    %eax,%eax
  4004ef:	e8 ac ff ff ff       	callq  4004a0 <__printf_chk@plt>
  4004f4:	31 c0                	xor    %eax,%eax
  4004f6:	48 83 c4 08          	add    $0x8,%rsp
  4004fa:	c3                   	retq   
  4004fb:	0f 1f 44 00 00       	nopl   0x0(%rax,%rax,1)

0000000000400500 <_start>:
  400500:	31 ed                	xor    %ebp,%ebp
  400502:	49 89 d1             	mov    %rdx,%r9
  400505:	5e                   	pop    %rsi
  400506:	48 89 e2             	mov    %rsp,%rdx
  400509:	48 83 e4 f0          	and    $0xfffffffffffffff0,%rsp
  40050d:	50                   	push   %rax
  40050e:	54                   	push   %rsp
  40050f:	49 c7 c0 70 07 40 00 	mov    $0x400770,%r8
  400516:	48 c7 c1 00 07 40 00 	mov    $0x400700,%rcx
  40051d:	48 c7 c7 c0 04 40 00 	mov    $0x4004c0,%rdi
  400524:	e8 67 ff ff ff       	callq  400490 <__libc_start_main@plt>
  400529:	f4                   	hlt    
  40052a:	66 0f 1f 44 00 00    	nopw   0x0(%rax,%rax,1)

0000000000400530 <deregister_tm_clones>:
  400530:	b8 47 10 60 00       	mov    $0x601047,%eax
  400535:	55                   	push   %rbp
  400536:	48 2d 40 10 60 00    	sub    $0x601040,%rax
  40053c:	48 83 f8 0e          	cmp    $0xe,%rax
  400540:	48 89 e5             	mov    %rsp,%rbp
  400543:	76 1b                	jbe    400560 <deregister_tm_clones+0x30>
  400545:	b8 00 00 00 00       	mov    $0x0,%eax
  40054a:	48 85 c0             	test   %rax,%rax
  40054d:	74 11                	je     400560 <deregister_tm_clones+0x30>
  40054f:	5d                   	pop    %rbp
  400550:	bf 40 10 60 00       	mov    $0x601040,%edi
  400555:	ff e0                	jmpq   *%rax
  400557:	66 0f 1f 84 00 00 00 	nopw   0x0(%rax,%rax,1)
  40055e:	00 00 
  400560:	5d                   	pop    %rbp
  400561:	c3                   	retq   
  400562:	0f 1f 40 00          	nopl   0x0(%rax)
  400566:	66 2e 0f 1f 84 00 00 	nopw   %cs:0x0(%rax,%rax,1)
  40056d:	00 00 00 

0000000000400570 <register_tm_clones>:
  400570:	be 40 10 60 00       	mov    $0x601040,%esi
  400575:	55                   	push   %rbp
  400576:	48 81 ee 40 10 60 00 	sub    $0x601040,%rsi
  40057d:	48 c1 fe 03          	sar    $0x3,%rsi
  400581:	48 89 e5             	mov    %rsp,%rbp
  400584:	48 89 f0             	mov    %rsi,%rax
  400587:	48 c1 e8 3f          	shr    $0x3f,%rax
  40058b:	48 01 c6             	add    %rax,%rsi
  40058e:	48 d1 fe             	sar    %rsi
  400591:	74 15                	je     4005a8 <register_tm_clones+0x38>
  400593:	b8 00 00 00 00       	mov    $0x0,%eax
  400598:	48 85 c0             	test   %rax,%rax
  40059b:	74 0b                	je     4005a8 <register_tm_clones+0x38>
  40059d:	5d                   	pop    %rbp
  40059e:	bf 40 10 60 00       	mov    $0x601040,%edi
  4005a3:	ff e0                	jmpq   *%rax
  4005a5:	0f 1f 00             	nopl   (%rax)
  4005a8:	5d                   	pop    %rbp
  4005a9:	c3                   	retq   
  4005aa:	66 0f 1f 44 00 00    	nopw   0x0(%rax,%rax,1)

00000000004005b0 <__do_global_dtors_aux>:
  4005b0:	80 3d 89 0a 20 00 00 	cmpb   $0x0,0x200a89(%rip)        # 601040 <__TMC_END__>
  4005b7:	75 11                	jne    4005ca <__do_global_dtors_aux+0x1a>
  4005b9:	55                   	push   %rbp
  4005ba:	48 89 e5             	mov    %rsp,%rbp
  4005bd:	e8 6e ff ff ff       	callq  400530 <deregister_tm_clones>
  4005c2:	5d                   	pop    %rbp
  4005c3:	c6 05 76 0a 20 00 01 	movb   $0x1,0x200a76(%rip)        # 601040 <__TMC_END__>
  4005ca:	f3 c3                	repz retq 
  4005cc:	0f 1f 40 00          	nopl   0x0(%rax)

00000000004005d0 <frame_dummy>:
  4005d0:	bf 20 0e 60 00       	mov    $0x600e20,%edi
  4005d5:	48 83 3f 00          	cmpq   $0x0,(%rdi)
  4005d9:	75 05                	jne    4005e0 <frame_dummy+0x10>
  4005db:	eb 93                	jmp    400570 <register_tm_clones>
  4005dd:	0f 1f 00             	nopl   (%rax)
  4005e0:	b8 00 00 00 00       	mov    $0x0,%eax
  4005e5:	48 85 c0             	test   %rax,%rax
  4005e8:	74 f1                	je     4005db <frame_dummy+0xb>
  4005ea:	55                   	push   %rbp
  4005eb:	48 89 e5             	mov    %rsp,%rbp
  4005ee:	ff d0                	callq  *%rax
  4005f0:	5d                   	pop    %rbp
  4005f1:	e9 7a ff ff ff       	jmpq   400570 <register_tm_clones>
  4005f6:	66 2e 0f 1f 84 00 00 	nopw   %cs:0x0(%rax,%rax,1)
  4005fd:	00 00 00 

0000000000400600 <_Z5tableiRi>:
  400600:	83 ff 01             	cmp    $0x1,%edi
  400603:	74 23                	je     400628 <_Z5tableiRi+0x28>
  400605:	83 ff 02             	cmp    $0x2,%edi
  400608:	74 16                	je     400620 <_Z5tableiRi+0x20>
  40060a:	85 ff                	test   %edi,%edi
  40060c:	74 0a                	je     400618 <_Z5tableiRi+0x18>
  40060e:	83 06 63             	addl   $0x63,(%rsi)
  400611:	c3                   	retq   
  400612:	66 0f 1f 44 00 00    	nopw   0x0(%rax,%rax,1)
  400618:	83 06 16             	addl   $0x16,(%rsi)
  40061b:	c3                   	retq   
  40061c:	0f 1f 40 00          	nopl   0x0(%rax)
  400620:	83 06 2c             	addl   $0x2c,(%rsi)
  400623:	c3                   	retq   
  400624:	0f 1f 40 00          	nopl   0x0(%rax)
  400628:	83 06 01             	addl   $0x1,(%rsi)
  40062b:	c3                   	retq   
  40062c:	0f 1f 40 00          	nopl   0x0(%rax)

0000000000400630 <_Z8expectedv>:
  400630:	b8 35 01 00 00       	mov    $0x135,%eax
  400635:	c3                   	retq   
  400636:	66 2e 0f 1f 84 00 00 	nopw   %cs:0x0(%rax,%rax,1)
  40063d:	00 00 00 

0000000000400640 <_Z13actual_loopedv>:
  400640:	48 83 ec 38          	sub    $0x38,%rsp
  400644:	64 48 8b 04 25 28 00 	mov    %fs:0x28,%rax
  40064b:	00 00 
  40064d:	48 89 44 24 28       	mov    %rax,0x28(%rsp)
  400652:	31 c0                	xor    %eax,%eax
  400654:	48 8d 44 24 10       	lea    0x10(%rsp),%rax
  400659:	c7 44 24 10 00 00 00 	movl   $0x0,0x10(%rsp)
  400660:	00 
  400661:	c7 44 24 14 03 00 00 	movl   $0x3,0x14(%rsp)
  400668:	00 
  400669:	c7 44 24 18 02 00 00 	movl   $0x2,0x18(%rsp)
  400670:	00 
  400671:	c7 44 24 1c 03 00 00 	movl   $0x3,0x1c(%rsp)
  400678:	00 
  400679:	c7 44 24 20 01 00 00 	movl   $0x1,0x20(%rsp)
  400680:	00 
  400681:	c7 44 24 24 02 00 00 	movl   $0x2,0x24(%rsp)
  400688:	00 
  400689:	48 89 44 24 08       	mov    %rax,0x8(%rsp)
  40068e:	b8 00 00 00 00       	mov    $0x0,%eax
  400693:	48 8b 7c 24 08       	mov    0x8(%rsp),%rdi
  400698:	48 c7 c1 00 00 00 00 	mov    $0x0,%rcx

000000000040069f <LOOP_TOP_63>:
  40069f:	8b 14 8f             	mov    (%rdi,%rcx,4),%edx
  4006a2:	67 ff 24 d5 aa 06 40 	jmpq   *0x4006aa(,%edx,8)
  4006a9:	00 

00000000004006aa <TABLE_63>:
  4006aa:	ca 06 40             	lret   $0x4006
  4006ad:	00 00                	add    %al,(%rax)
  4006af:	00 00                	add    %al,(%rax)
  4006b1:	00 cf                	add    %cl,%bh
  4006b3:	06                   	(bad)  
  4006b4:	40 00 00             	add    %al,(%rax)
  4006b7:	00 00                	add    %al,(%rax)
  4006b9:	00 d4                	add    %dl,%ah
  4006bb:	06                   	(bad)  
  4006bc:	40 00 00             	add    %al,(%rax)
  4006bf:	00 00                	add    %al,(%rax)
  4006c1:	00 d9                	add    %bl,%cl
  4006c3:	06                   	(bad)  
  4006c4:	40 00 00             	add    %al,(%rax)
  4006c7:	00 00                	add    %al,(%rax)
	...

00000000004006ca <CASE_0_63>:
  4006ca:	83 c0 16             	add    $0x16,%eax
  4006cd:	eb 0d                	jmp    4006dc <END_SWITCH_63>

00000000004006cf <CASE_1_63>:
  4006cf:	83 c0 01             	add    $0x1,%eax
  4006d2:	eb 08                	jmp    4006dc <END_SWITCH_63>

00000000004006d4 <CASE_2_63>:
  4006d4:	83 c0 2c             	add    $0x2c,%eax
  4006d7:	eb 03                	jmp    4006dc <END_SWITCH_63>

00000000004006d9 <CASE_3_63>:
  4006d9:	83 c0 63             	add    $0x63,%eax

00000000004006dc <END_SWITCH_63>:
  4006dc:	48 83 c1 01          	add    $0x1,%rcx
  4006e0:	48 83 f9 06          	cmp    $0x6,%rcx
  4006e4:	7c b9                	jl     40069f <LOOP_TOP_63>
  4006e6:	48 8b 54 24 28       	mov    0x28(%rsp),%rdx
  4006eb:	64 48 33 14 25 28 00 	xor    %fs:0x28,%rdx
  4006f2:	00 00 
  4006f4:	75 05                	jne    4006fb <END_SWITCH_63+0x1f>
  4006f6:	48 83 c4 38          	add    $0x38,%rsp
  4006fa:	c3                   	retq   
  4006fb:	e8 80 fd ff ff       	callq  400480 <__stack_chk_fail@plt>

0000000000400700 <__libc_csu_init>:
  400700:	41 57                	push   %r15
  400702:	41 56                	push   %r14
  400704:	41 89 ff             	mov    %edi,%r15d
  400707:	41 55                	push   %r13
  400709:	41 54                	push   %r12
  40070b:	4c 8d 25 fe 06 20 00 	lea    0x2006fe(%rip),%r12        # 600e10 <__frame_dummy_init_array_entry>
  400712:	55                   	push   %rbp
  400713:	48 8d 2d fe 06 20 00 	lea    0x2006fe(%rip),%rbp        # 600e18 <__init_array_end>
  40071a:	53                   	push   %rbx
  40071b:	49 89 f6             	mov    %rsi,%r14
  40071e:	49 89 d5             	mov    %rdx,%r13
  400721:	4c 29 e5             	sub    %r12,%rbp
  400724:	48 83 ec 08          	sub    $0x8,%rsp
  400728:	48 c1 fd 03          	sar    $0x3,%rbp
  40072c:	e8 17 fd ff ff       	callq  400448 <_init>
  400731:	48 85 ed             	test   %rbp,%rbp
  400734:	74 20                	je     400756 <__libc_csu_init+0x56>
  400736:	31 db                	xor    %ebx,%ebx
  400738:	0f 1f 84 00 00 00 00 	nopl   0x0(%rax,%rax,1)
  40073f:	00 
  400740:	4c 89 ea             	mov    %r13,%rdx
  400743:	4c 89 f6             	mov    %r14,%rsi
  400746:	44 89 ff             	mov    %r15d,%edi
  400749:	41 ff 14 dc          	callq  *(%r12,%rbx,8)
  40074d:	48 83 c3 01          	add    $0x1,%rbx
  400751:	48 39 eb             	cmp    %rbp,%rbx
  400754:	75 ea                	jne    400740 <__libc_csu_init+0x40>
  400756:	48 83 c4 08          	add    $0x8,%rsp
  40075a:	5b                   	pop    %rbx
  40075b:	5d                   	pop    %rbp
  40075c:	41 5c                	pop    %r12
  40075e:	41 5d                	pop    %r13
  400760:	41 5e                	pop    %r14
  400762:	41 5f                	pop    %r15
  400764:	c3                   	retq   
  400765:	90                   	nop
  400766:	66 2e 0f 1f 84 00 00 	nopw   %cs:0x0(%rax,%rax,1)
  40076d:	00 00 00 

0000000000400770 <__libc_csu_fini>:
  400770:	f3 c3                	repz retq 

Disassembly of section .fini:

0000000000400774 <_fini>:
  400774:	48 83 ec 08          	sub    $0x8,%rsp
  400778:	48 83 c4 08          	add    $0x8,%rsp
  40077c:	c3                   	retq   
